LX51 LINKER/LOCATER V4.64.0.0                                                           06/15/2017  12:28:54  PAGE 1


LX51 LINKER/LOCATER V4.64.0.0, INVOKED BY:
C:\PROGRAM FILES (X86)\CYPRESS\PSOC CREATOR\3.3\PSOC CREATOR\IMPORT\KEIL\PK51\9.51\C51\BIN\LX51.EXE .\DP8051_Keil_951\Re
>> lease\command_processing.obj, .\DP8051_Keil_951\Release\globals.obj, .\DP8051_Keil_951\Release\interruptions.obj, .\D
>> P8051_Keil_951\Release\main.obj, .\DP8051_Keil_951\Release\utils.obj, .\DP8051_Keil_951\Release\IMU_functions.obj, .\
>> DP8051_Keil_951\Release\firmware.lib, C:\Program Files (x86)\Cypress\PSoC Creator\3.3\PSoC Creator\psoc\content\cycom
>> ponentlibrary\CyComponentLibrary.cylib\DP8051\DP8051_Keil_951\Release\CyComponentLibrary.lib TO .\DP8051_Keil_951\Rel
>> ease\firmware.omf CODE RU RC (10) DW (16) WL (2) PR (.\DP8051_Keil_951\Release/firmware.map) IX CL (XDATA (X:0X0000-X
>> :0X1FFF)) CL (CODE (C:0X2600-C:0XFFBF)) CL (CONST (C:0X2600-C:0XFFBF))


CPU MODE:     8051 MODE
MEMORY MODEL: LARGE WITH FLOATING POINT ARITHMETIC


INPUT MODULES INCLUDED:
  .\DP8051_Keil_951\Release\command_processing.obj (COMMAND_PROCESSING)
         COMMENT TYPE 0: C51 V9.51
  .\DP8051_Keil_951\Release\globals.obj (GLOBALS)
         COMMENT TYPE 0: C51 V9.51
  .\DP8051_Keil_951\Release\interruptions.obj (INTERRUPTIONS)
         COMMENT TYPE 0: C51 V9.51
  .\DP8051_Keil_951\Release\main.obj (MAIN)
         COMMENT TYPE 0: C51 V9.51
  .\DP8051_Keil_951\Release\utils.obj (UTILS)
         COMMENT TYPE 0: C51 V9.51
  .\DP8051_Keil_951\Release\IMU_functions.obj (IMU_FUNCTIONS)
         COMMENT TYPE 0: C51 V9.51
  .\DP8051_Keil_951\Release\firmware.lib (UART_RS485)
         COMMENT TYPE 0: C51 V9.51
  .\DP8051_Keil_951\Release\firmware.lib (ISR_RS485_RX)
         COMMENT TYPE 0: C51 V9.51
  .\DP8051_Keil_951\Release\firmware.lib (PACER_TIMER)
         COMMENT TYPE 0: C51 V9.51
  .\DP8051_Keil_951\Release\firmware.lib (CLOCK_UART)
         COMMENT TYPE 0: C51 V9.51
  .\DP8051_Keil_951\Release\firmware.lib (EEPROM)
         COMMENT TYPE 0: C51 V9.51
  .\DP8051_Keil_951\Release\firmware.lib (RS485_CTS)
         COMMENT TYPE 0: C51 V9.51
  .\DP8051_Keil_951\Release\firmware.lib (BOOTLOADABLE)
         COMMENT TYPE 0: C51 V9.51
  .\DP8051_Keil_951\Release\firmware.lib (FTDI_ENABLE_REG)
         COMMENT TYPE 0: C51 V9.51
  .\DP8051_Keil_951\Release\firmware.lib (RESET_FF)
         COMMENT TYPE 0: C51 V9.51
  .\DP8051_Keil_951\Release\firmware.lib (FF_STATUS)
         COMMENT TYPE 0: C51 V9.51
  .\DP8051_Keil_951\Release\firmware.lib (MY_TIMER)
         COMMENT TYPE 0: C51 V9.51
  .\DP8051_Keil_951\Release\firmware.lib (CYFLASH)
         COMMENT TYPE 0: C51 V9.51
  .\DP8051_Keil_951\Release\firmware.lib (CYLIB)
         COMMENT TYPE 0: C51 V9.51
  .\DP8051_Keil_951\Release\firmware.lib (?C_STARTUP)
         COMMENT TYPE 0: AX51 V3.07d
  .\DP8051_Keil_951\Release\firmware.lib (ISR_WATCHDOG)
         COMMENT TYPE 0: C51 V9.51
  .\DP8051_Keil_951\Release\firmware.lib (WATCHDOG_COUNTER)
         COMMENT TYPE 0: C51 V9.51
  .\DP8051_Keil_951\Release\firmware.lib (WATCHDOG_ENABLER)
         COMMENT TYPE 0: C51 V9.51
  .\DP8051_Keil_951\Release\firmware.lib (WATCHDOG_REFRESH)
         COMMENT TYPE 0: C51 V9.51
  .\DP8051_Keil_951\Release\firmware.lib (SPI_IMU)
         COMMENT TYPE 0: C51 V9.51
  .\DP8051_Keil_951\Release\firmware.lib (ISR_IMU)
LX51 LINKER/LOCATER V4.64.0.0                                                         06/15/2017  12:28:54  PAGE 2


         COMMENT TYPE 0: C51 V9.51
  .\DP8051_Keil_951\Release\firmware.lib (OPTO_PIN)
         COMMENT TYPE 0: C51 V9.51
  .\DP8051_Keil_951\Release\firmware.lib (CHIP_SELECT_A)
         COMMENT TYPE 0: C51 V9.51
  .\DP8051_Keil_951\Release\firmware.lib (CHIP_SELECT_B)
         COMMENT TYPE 0: C51 V9.51
  .\DP8051_Keil_951\Release\firmware.lib (CYFITTER_CFG)
         COMMENT TYPE 0: C51 V9.51
  .\DP8051_Keil_951\Release\firmware.lib (UART_RS485_INT)
         COMMENT TYPE 0: C51 V9.51
  .\DP8051_Keil_951\Release\firmware.lib (CYBOOTASMKEIL)
         COMMENT TYPE 0: AX51 V3.07d
  .\DP8051_Keil_951\Release\firmware.lib (CYMEM)
         COMMENT TYPE 0: AX51 V3.07d
  .\DP8051_Keil_951\Release\firmware.lib (CYPM)
         COMMENT TYPE 0: C51 V9.51
  .\DP8051_Keil_951\Release\firmware.lib (CYSPC)
         COMMENT TYPE 0: C51 V9.51
  .\DP8051_Keil_951\Release\firmware.lib (SPI_IMU_INTCLOCK)
         COMMENT TYPE 0: C51 V9.51
  C:\PROGRAM FILES (X86)\CYPRESS\PSOC CREATOR\3.3\PSOC CREATOR\IMPORT\KEIL\PK51\9.51\C51\LIB\C51FPL.LIB (?C?FPADD)
         COMMENT TYPE 1: A51 / ASM51 Assembler
  C:\PROGRAM FILES (X86)\CYPRESS\PSOC CREATOR\3.3\PSOC CREATOR\IMPORT\KEIL\PK51\9.51\C51\LIB\C51FPL.LIB (?C?FPCMP)
         COMMENT TYPE 1: A51 / ASM51 Assembler
  C:\PROGRAM FILES (X86)\CYPRESS\PSOC CREATOR\3.3\PSOC CREATOR\IMPORT\KEIL\PK51\9.51\C51\LIB\C51FPL.LIB (?C?CASTF)
         COMMENT TYPE 1: A51 / ASM51 Assembler
  C:\PROGRAM FILES (X86)\CYPRESS\PSOC CREATOR\3.3\PSOC CREATOR\IMPORT\KEIL\PK51\9.51\C51\LIB\C51FPL.LIB (PRINTF)
         COMMENT TYPE 1: A51 / ASM51 Assembler
  C:\PROGRAM FILES (X86)\CYPRESS\PSOC CREATOR\3.3\PSOC CREATOR\IMPORT\KEIL\PK51\9.51\C51\LIB\C51FPL.LIB (?C?FPGETOPN)
         COMMENT TYPE 1: A51 / ASM51 Assembler
  C:\PROGRAM FILES (X86)\CYPRESS\PSOC CREATOR\3.3\PSOC CREATOR\IMPORT\KEIL\PK51\9.51\C51\LIB\C51FPL.LIB (?C?FPROUND)
         COMMENT TYPE 1: A51 / ASM51 Assembler
  C:\PROGRAM FILES (X86)\CYPRESS\PSOC CREATOR\3.3\PSOC CREATOR\IMPORT\KEIL\PK51\9.51\C51\LIB\C51FPL.LIB (?C?FPCONVERT)
         COMMENT TYPE 1: A51 / ASM51 Assembler
  C:\PROGRAM FILES (X86)\CYPRESS\PSOC CREATOR\3.3\PSOC CREATOR\IMPORT\KEIL\PK51\9.51\C51\LIB\C51FPL.LIB (?C?FPMUL)
         COMMENT TYPE 1: A51 / ASM51 Assembler
  C:\PROGRAM FILES (X86)\CYPRESS\PSOC CREATOR\3.3\PSOC CREATOR\IMPORT\KEIL\PK51\9.51\C51\LIB\C51FPL.LIB (?C?FPDIV)
         COMMENT TYPE 1: A51 / ASM51 Assembler
  C:\PROGRAM FILES (X86)\CYPRESS\PSOC CREATOR\3.3\PSOC CREATOR\IMPORT\KEIL\PK51\9.51\C51\LIB\C51FPL.LIB (?C?FTNPWR)
         COMMENT TYPE 1: A51 / ASM51 Assembler
  C:\PROGRAM FILES (X86)\CYPRESS\PSOC CREATOR\3.3\PSOC CREATOR\IMPORT\KEIL\PK51\9.51\C51\LIB\C51L.LIB (?C_INIT)
         COMMENT TYPE 1: A51 / ASM51 Assembler
  C:\PROGRAM FILES (X86)\CYPRESS\PSOC CREATOR\3.3\PSOC CREATOR\IMPORT\KEIL\PK51\9.51\C51\LIB\C51L.LIB (?C?CLDPTR)
         COMMENT TYPE 1: A51 / ASM51 Assembler
  C:\PROGRAM FILES (X86)\CYPRESS\PSOC CREATOR\3.3\PSOC CREATOR\IMPORT\KEIL\PK51\9.51\C51\LIB\C51L.LIB (?C?CLDOPTR)
         COMMENT TYPE 1: A51 / ASM51 Assembler
  C:\PROGRAM FILES (X86)\CYPRESS\PSOC CREATOR\3.3\PSOC CREATOR\IMPORT\KEIL\PK51\9.51\C51\LIB\C51L.LIB (?C?CSTPTR)
         COMMENT TYPE 1: A51 / ASM51 Assembler
  C:\PROGRAM FILES (X86)\CYPRESS\PSOC CREATOR\3.3\PSOC CREATOR\IMPORT\KEIL\PK51\9.51\C51\LIB\C51L.LIB (?C?IMUL)
         COMMENT TYPE 1: A51 / ASM51 Assembler
  C:\PROGRAM FILES (X86)\CYPRESS\PSOC CREATOR\3.3\PSOC CREATOR\IMPORT\KEIL\PK51\9.51\C51\LIB\C51L.LIB (?C?LMUL)
         COMMENT TYPE 1: A51 / ASM51 Assembler
  C:\PROGRAM FILES (X86)\CYPRESS\PSOC CREATOR\3.3\PSOC CREATOR\IMPORT\KEIL\PK51\9.51\C51\LIB\C51L.LIB (?C?ULDIV)
         COMMENT TYPE 1: A51 / ASM51 Assembler
  C:\PROGRAM FILES (X86)\CYPRESS\PSOC CREATOR\3.3\PSOC CREATOR\IMPORT\KEIL\PK51\9.51\C51\LIB\C51L.LIB (?C?SLDIV)
         COMMENT TYPE 1: A51 / ASM51 Assembler
  C:\PROGRAM FILES (X86)\CYPRESS\PSOC CREATOR\3.3\PSOC CREATOR\IMPORT\KEIL\PK51\9.51\C51\LIB\C51L.LIB (?C?LNEG)
         COMMENT TYPE 1: A51 / ASM51 Assembler
  C:\PROGRAM FILES (X86)\CYPRESS\PSOC CREATOR\3.3\PSOC CREATOR\IMPORT\KEIL\PK51\9.51\C51\LIB\C51L.LIB (?C?SLCMP)
         COMMENT TYPE 1: A51 / ASM51 Assembler
  C:\PROGRAM FILES (X86)\CYPRESS\PSOC CREATOR\3.3\PSOC CREATOR\IMPORT\KEIL\PK51\9.51\C51\LIB\C51L.LIB (?C?ULCMP)
         COMMENT TYPE 1: A51 / ASM51 Assembler
  C:\PROGRAM FILES (X86)\CYPRESS\PSOC CREATOR\3.3\PSOC CREATOR\IMPORT\KEIL\PK51\9.51\C51\LIB\C51L.LIB (?C?ULSHR)
         COMMENT TYPE 1: A51 / ASM51 Assembler
LX51 LINKER/LOCATER V4.64.0.0                                                         06/15/2017  12:28:54  PAGE 3


  C:\PROGRAM FILES (X86)\CYPRESS\PSOC CREATOR\3.3\PSOC CREATOR\IMPORT\KEIL\PK51\9.51\C51\LIB\C51L.LIB (?C?SLSHR)
         COMMENT TYPE 1: A51 / ASM51 Assembler
  C:\PROGRAM FILES (X86)\CYPRESS\PSOC CREATOR\3.3\PSOC CREATOR\IMPORT\KEIL\PK51\9.51\C51\LIB\C51L.LIB (?C?LSHL)
         COMMENT TYPE 1: A51 / ASM51 Assembler
  C:\PROGRAM FILES (X86)\CYPRESS\PSOC CREATOR\3.3\PSOC CREATOR\IMPORT\KEIL\PK51\9.51\C51\LIB\C51L.LIB (?C?LLDPTR)
         COMMENT TYPE 1: A51 / ASM51 Assembler
  C:\PROGRAM FILES (X86)\CYPRESS\PSOC CREATOR\3.3\PSOC CREATOR\IMPORT\KEIL\PK51\9.51\C51\LIB\C51L.LIB (?C?LSTPTR)
         COMMENT TYPE 1: A51 / ASM51 Assembler
  C:\PROGRAM FILES (X86)\CYPRESS\PSOC CREATOR\3.3\PSOC CREATOR\IMPORT\KEIL\PK51\9.51\C51\LIB\C51L.LIB (?C?LSTXDATA)
         COMMENT TYPE 1: A51 / ASM51 Assembler
  C:\PROGRAM FILES (X86)\CYPRESS\PSOC CREATOR\3.3\PSOC CREATOR\IMPORT\KEIL\PK51\9.51\C51\LIB\C51L.LIB (?C?OFFXADD)
         COMMENT TYPE 1: A51 / ASM51 Assembler
  C:\PROGRAM FILES (X86)\CYPRESS\PSOC CREATOR\3.3\PSOC CREATOR\IMPORT\KEIL\PK51\9.51\C51\LIB\C51L.LIB (?C?PLDIXDATA)
         COMMENT TYPE 1: A51 / ASM51 Assembler
  C:\PROGRAM FILES (X86)\CYPRESS\PSOC CREATOR\3.3\PSOC CREATOR\IMPORT\KEIL\PK51\9.51\C51\LIB\C51L.LIB (?C?PSTXDATA)
         COMMENT TYPE 1: A51 / ASM51 Assembler
  C:\PROGRAM FILES (X86)\CYPRESS\PSOC CREATOR\3.3\PSOC CREATOR\IMPORT\KEIL\PK51\9.51\C51\LIB\C51L.LIB (?C?CCASE)
         COMMENT TYPE 1: A51 / ASM51 Assembler
  C:\PROGRAM FILES (X86)\CYPRESS\PSOC CREATOR\3.3\PSOC CREATOR\IMPORT\KEIL\PK51\9.51\C51\LIB\C51L.LIB (?C_XBP)
         COMMENT TYPE 1: A51 / ASM51 Assembler
  C:\PROGRAM FILES (X86)\CYPRESS\PSOC CREATOR\3.3\PSOC CREATOR\IMPORT\KEIL\PK51\9.51\C51\LIB\C51L.LIB (?C?ADDXBP)
         COMMENT TYPE 1: A51 / ASM51 Assembler
  C:\PROGRAM FILES (X86)\CYPRESS\PSOC CREATOR\3.3\PSOC CREATOR\IMPORT\KEIL\PK51\9.51\C51\LIB\C51L.LIB (?C?LIMUL)
         COMMENT TYPE 1: A51 / ASM51 Assembler
  C:\PROGRAM FILES (X86)\CYPRESS\PSOC CREATOR\3.3\PSOC CREATOR\IMPORT\KEIL\PK51\9.51\C51\LIB\C51L.LIB (PUTCHAR)
         COMMENT TYPE 1: A51 / ASM51 Assembler
  C:\PROGRAM FILES (X86)\CYPRESS\PSOC CREATOR\3.3\PSOC CREATOR\IMPORT\KEIL\PK51\9.51\C51\LIB\C51L.LIB (STRCAT)
         COMMENT TYPE 1: C51 Compiler
  C:\PROGRAM FILES (X86)\CYPRESS\PSOC CREATOR\3.3\PSOC CREATOR\IMPORT\KEIL\PK51\9.51\C51\LIB\C51L.LIB (STRLEN)
         COMMENT TYPE 1: A51 / ASM51 Assembler
  C:\PROGRAM FILES (X86)\CYPRESS\PSOC CREATOR\3.3\PSOC CREATOR\IMPORT\KEIL\PK51\9.51\C51\LIB\C51L.LIB (?C?MEMSET)
         COMMENT TYPE 1: A51 / ASM51 Assembler
  C:\PROGRAM FILES (X86)\CYPRESS\PSOC CREATOR\3.3\PSOC CREATOR\IMPORT\KEIL\PK51\9.51\C51\LIB\C51L.LIB (?C?COPYAMD)
         COMMENT TYPE 1: A51 / ASM51 Assembler
  C:\PROGRAM FILES (X86)\CYPRESS\PSOC CREATOR\3.3\PSOC CREATOR\IMPORT\KEIL\PK51\9.51\C51\LIB\C51L.LIB (?C?STRCPYAMD)
         COMMENT TYPE 1: A51 / ASM51 Assembler
  C:\PROGRAM FILES (X86)\CYPRESS\PSOC CREATOR\3.3\PSOC CREATOR\IMPORT\KEIL\PK51\9.51\C51\LIB\C51L.LIB (?C?IILDX)
         COMMENT TYPE 1: A51 / ASM51 Assembler
  C:\PROGRAM FILES (X86)\CYPRESS\PSOC CREATOR\3.3\PSOC CREATOR\IMPORT\KEIL\PK51\9.51\C51\LIB\C51L.LIB (?C?ILDIX)
         COMMENT TYPE 1: A51 / ASM51 Assembler
  C:\PROGRAM FILES (X86)\CYPRESS\PSOC CREATOR\3.3\PSOC CREATOR\IMPORT\KEIL\PK51\9.51\C51\LIB\C51L.LIB (?C?LLDIDATA)
         COMMENT TYPE 1: A51 / ASM51 Assembler
  C:\PROGRAM FILES (X86)\CYPRESS\PSOC CREATOR\3.3\PSOC CREATOR\IMPORT\KEIL\PK51\9.51\C51\LIB\C51L.LIB (?C?LLDXDATA)
         COMMENT TYPE 1: A51 / ASM51 Assembler
  C:\PROGRAM FILES (X86)\CYPRESS\PSOC CREATOR\3.3\PSOC CREATOR\IMPORT\KEIL\PK51\9.51\C51\LIB\C51L.LIB (?C?LLDPDATA)
         COMMENT TYPE 1: A51 / ASM51 Assembler
  C:\PROGRAM FILES (X86)\CYPRESS\PSOC CREATOR\3.3\PSOC CREATOR\IMPORT\KEIL\PK51\9.51\C51\LIB\C51L.LIB (?C?LLDCODE)
         COMMENT TYPE 1: A51 / ASM51 Assembler
  C:\PROGRAM FILES (X86)\CYPRESS\PSOC CREATOR\3.3\PSOC CREATOR\IMPORT\KEIL\PK51\9.51\C51\LIB\C51L.LIB (?C?LSTIDATA)
         COMMENT TYPE 1: A51 / ASM51 Assembler
  C:\PROGRAM FILES (X86)\CYPRESS\PSOC CREATOR\3.3\PSOC CREATOR\IMPORT\KEIL\PK51\9.51\C51\LIB\C51L.LIB (?C?LSTPDATA)
         COMMENT TYPE 1: A51 / ASM51 Assembler


ACTIVE MEMORY CLASSES OF MODULE:  .\DP8051_Keil_951\Release\firmware.omf (COMMAND_PROCESSING)

BASE        START       END         USED      MEMORY CLASS
==========================================================
X:000000H   X:000000H   X:001FFFH   00113BH   XDATA
C:000000H   C:002600H   C:00FFBFH   00511DH   CODE
C:000000H   C:002600H   C:00FFBFH   0002DFH   CONST
I:000000H   I:000000H   I:00007FH   000021H   DATA
I:000020H.0 I:000020H.0 I:00002FH.7 000001H.6 BIT
I:000000H   I:000000H   I:0000FFH   000001H   IDATA

LX51 LINKER/LOCATER V4.64.0.0                                                         06/15/2017  12:28:54  PAGE 4



MEMORY MAP OF MODULE:  .\DP8051_Keil_951\Release\firmware.omf (COMMAND_PROCESSING)


START     STOP      LENGTH    ALIGN  RELOC    MEMORY CLASS   SEGMENT NAME
=========================================================================

* * * * * * * * * * *   D A T A   M E M O R Y   * * * * * * * * * * * * *
000000H   000007H   000008H   ---    AT..     DATA           "REG BANK 0"
000008H   000018H   000011H   BYTE   UNIT     DATA           _DATA_GROUP_
000019H   00001EH   000006H   BYTE   UNIT     DATA           ?DT?INTERRUPTIONS
00001FH.0 00001FH.7 000001H.0 ---    ---      **GAP**
000020H.0 000021H.1 000001H.2 BIT    UNIT     BIT            _BIT_GROUP_
000021H.2 000021H.5 000000H.4 BIT    UNIT     BIT            ?BI?GLOBALS
000021H.6 000021H   000000H.2 ---    ---      **GAP**
000022H   000023H   000002H   BYTE   UNIT     DATA           ?C?LIB_DATA
000024H   000024H   000001H   BYTE   UNIT     IDATA          ?STACK

* * * * * * * * * * *   C O D E   M E M O R Y   * * * * * * * * * * * * *
002600H   002619H   00001AH   ---    OFFS..   CODE           ?CO?KEILSTART?3
00261AH   00309DH   000A84H   BYTE   UNIT     CODE           ?C?LIB_CODE
00309EH   0038B6H   000819H   BYTE   UNIT     CODE           ?PR?_INFOPREPARE?COMMAND_PROCESSING
0038B7H   003FA9H   0006F3H   BYTE   UNIT     CODE           ?PR?_GET_PARAM_LIST?COMMAND_PROCESSING
003FAAH   004595H   0005ECH   BYTE   UNIT     CODE           ?CO?COMMAND_PROCESSING
004596H   004A18H   000483H   BYTE   UNIT     CODE           ?PR?PRINTF?PRINTF
004A19H   004DA2H   00038AH   BYTE   UNIT     CODE           ?PR?ISR_IMU_INTERRUPT?ISR_IMU
004DA3H   00511DH   00037BH   BYTE   UNIT     CODE           ?PR?READALLIMUS?IMU_FUNCTIONS
00511EH   00548AH   00036DH   BYTE   UNIT     CODE           ?PR?INITIMUGENERAL?IMU_FUNCTIONS
00548BH   0057AFH   000325H   BYTE   UNIT     CODE           ?PR?CMD_GET_IMU_READINGS?COMMAND_PROCESSING
0057B0H   0058F7H   000148H   BYTE   UNIT     CODE           ?PR?CLOCKSETUP?CYFITTER_CFG
0058F8H   005A27H   000130H   BYTE   UNIT     CODE           ?PR?_CLOCK_UART_SETDIVIDERREGISTER?CLOCK_UART
005A28H   005B4EH   000127H   BYTE   UNIT     CODE           ?PR?INTERRUPT_MANAGER?INTERRUPTIONS
005B4FH   005C6FH   000121H   BYTE   UNIT     CODE           ?PR?COMMPROCESS?COMMAND_PROCESSING
005C70H   005D89H   00011AH   BYTE   UNIT     CODE           ?C_C51STARTUP
005D8AH   005E94H   00010BH   BYTE   UNIT     CODE           ?PR?CYFITTER_CFG?CYFITTER_CFG
005E95H   005F8FH   0000FBH   BYTE   UNIT     CODE           ?PR?_READACC?IMU_FUNCTIONS
005F90H   00608AH   0000FBH   BYTE   UNIT     CODE           ?PR?_READGYRO?IMU_FUNCTIONS
00608BH   006180H   0000F6H   BYTE   UNIT     CODE           ?PR?_READMAG?IMU_FUNCTIONS
006181H   006271H   0000F1H   BYTE   UNIT     CODE           ?PR?INITIMU?IMU_FUNCTIONS
006272H   006362H   0000F1H   BYTE   UNIT     CODE           ?PR?INITIMUMAGCAL?IMU_FUNCTIONS
006363H   006441H   0000DFH   BYTE   UNIT     CODE           ?PR?_EEPROM_WRITE?EEPROM
006442H   006501H   0000C0H   BYTE   UNIT     CODE           ?PR?MAIN?MAIN
006502H   0065C1H   0000C0H   BYTE   UNIT     CODE           ?PR?CFG_DMA_INIT?CYFITTER_CFG
0065C2H   006672H   0000B1H   BYTE   UNIT     CODE           ?PR?UART_RS485_RXISR?UART_RS485_INT
006673H   00671FH   0000ADH   BYTE   UNIT     CODE           ?PR?_MEMSTORE?COMMAND_PROCESSING
006720H   0067ACH   00008DH   BYTE   UNIT     CODE           ?PR?_COMMWRITE?COMMAND_PROCESSING
0067ADH   006835H   000089H   BYTE   UNIT     CODE           ?PR?_READIMU?IMU_FUNCTIONS
006836H   0068BDH   000088H   BYTE   UNIT     CODE           ?PR?_?CYDELAY?CYLIB
0068BEH   006941H   000084H   BYTE   UNIT     CODE           ?PR?_READMAGCAL?IMU_FUNCTIONS
006942H   0069B4H   000073H   BYTE   UNIT     CODE           ?PR?_CYSPCLOADROW?CYSPC
0069B5H   006A1FH   00006BH   BYTE   UNIT     CODE           ?PR?_STRCAT?STRCAT
006A20H   006A80H   000061H   BYTE   UNIT     CODE           ?C_INITSEG
006A81H   006AE0H   000060H   BYTE   UNIT     CODE           ?PR?_CYSPCREADDATA?CYSPC
006AE1H   006B3BH   00005BH   BYTE   UNIT     CODE           ?PR?UART_RS485_GETCHAR?UART_RS485
006B3CH   006B91H   000056H   BYTE   UNIT     CODE           ?PR?CYSETTEMPINT?CYFLASH
006B92H   006BE5H   000054H   BYTE   UNIT     CODE           ?PR?_READTEMP?IMU_FUNCTIONS
006BE6H   006C39H   000054H   BYTE   UNIT     CODE           ?PR?_CYINTSETVECTOR?CYLIB
006C3AH   006C8DH   000054H   BYTE   UNIT     CODE           ?PR?_CYSPCWRITEROW?CYSPC
006C8EH   006CDDH   000050H   BYTE   UNIT     CODE           ?PR?CYFLASHGETSPCALGORITHM?CYFLASH
006CDEH   006D2CH   00004FH   BYTE   UNIT     CODE           ?PR?UART_RS485_GETRXBUFFERSIZE?UART_RS485
006D2DH   006D79H   00004DH   BYTE   UNIT     CODE           ?PR?MEMRECALL?COMMAND_PROCESSING
006D7AH   006DC2H   000049H   BYTE   UNIT     CODE           ?PR?_CHIPSELECTOR?IMU_FUNCTIONS
006DC3H   006E09H   000047H   BYTE   UNIT     CODE           ?PR?MEMRESTORE?COMMAND_PROCESSING
006E0AH   006E4DH   000044H   BYTE   UNIT     CODE           ?PR?FUNCTION_SCHEDULER?INTERRUPTIONS
006E4EH   006E91H   000044H   BYTE   UNIT     CODE           ?C?LDIV
LX51 LINKER/LOCATER V4.64.0.0                                                         06/15/2017  12:28:54  PAGE 5


006E92H   006ED2H   000041H   BYTE   UNIT     CODE           ?PR?CMD_SET_WATCHDOG?COMMAND_PROCESSING
006ED3H   006F0EH   00003CH   BYTE   UNIT     CODE           ?PR?PACER_TIMER_INIT?PACER_TIMER
006F0FH   006F46H   000038H   BYTE   UNIT     CODE           ?PR?WATCHDOG_COUNTER_INIT?WATCHDOG_COUNTER
006F47H   006F7AH   000034H   BYTE   UNIT     CODE           ?PR?_UART_RS485_PUTSTRING?UART_RS485
006F7BH   006FAEH   000034H   BYTE   UNIT     CODE           ?PR?_CYCONFIGCPY?CYMEM
006FAFH   006FE1H   000033H   BYTE   UNIT     CODE           ?PR?UART_RS485_INIT?UART_RS485
006FE2H   006FFEH   00001DH   BYTE   UNIT     CODE           ?PR?ANALOGSETDEFAULT?CYFITTER_CFG
006FFFH   006FFFH   000001H   BYTE   UNIT     CODE           ?PR?SETZEROS?COMMAND_PROCESSING
007000H   00703AH   00003BH   PAGE   UNIT     CODE           ?PR?CYDELAYCYCLES?CYBOOTASMKEIL
00703BH   00706CH   000032H   BYTE   UNIT     CODE           ?PR?_LCRCHECKSUM?COMMAND_PROCESSING
00706DH   00709DH   000031H   BYTE   UNIT     CODE           ?PR?CYEEPROM_START?CYFLASH
00709EH   0070CDH   000030H   BYTE   UNIT     CODE           ?PR?_WRITECONTROLREGISTER?IMU_FUNCTIONS
0070CEH   0070FCH   00002FH   BYTE   UNIT     CODE           ?PR?UART_RS485_CLEARRXBUFFER?UART_RS485
0070FDH   00712AH   00002EH   BYTE   UNIT     CODE           ?PR?_CYSPCGETTEMP?CYSPC
00712BH   00712BH   000001H   BYTE   UNIT     CODE           ?PR?CMD_GET_MEASUREMENTS?COMMAND_PROCESSING
00712CH   007158H   00002DH   DWORD  UNIT     CODE           ?PR?CYDELAYUS?CYBOOTASMKEIL
007159H   007184H   00002CH   BYTE   UNIT     CODE           ?PR?MY_TIMER_INIT?MY_TIMER
007185H   0071ABH   000027H   BYTE   UNIT     CODE           ?PR?PUTCHAR?PUTCHAR
0071ACH   0071D1H   000026H   BYTE   UNIT     CODE           ?PR?CYCONFIGCPYCODE?CYMEM
0071D2H   0071F6H   000025H   BYTE   UNIT     CODE           ?PR?SPI_IMU_ENABLE?SPI_IMU
0071F7H   00721AH   000024H   BYTE   UNIT     CODE           ?PR?MEMINIT?COMMAND_PROCESSING
00721BH   00723CH   000022H   BYTE   UNIT     CODE           ?PR?UART_RS485_ENABLE?UART_RS485
00723DH   00725EH   000022H   BYTE   UNIT     CODE           ?PR?UART_RS485_STOP?UART_RS485
00725FH   00727EH   000020H   BYTE   UNIT     CODE           ?PR?CMD_SET_BAUDRATE?COMMAND_PROCESSING
00727FH   00729EH   000020H   BYTE   UNIT     CODE           ?PR?SPI_IMU_CLEARFIFO?SPI_IMU
00729FH   0072BDH   00001FH   BYTE   UNIT     CODE           ?PR?_ISR_RS485_RX_STARTEX?ISR_RS485_RX
0072BEH   0072DCH   00001FH   BYTE   UNIT     CODE           ?PR?_ISR_WATCHDOG_STARTEX?ISR_WATCHDOG
0072DDH   0072FBH   00001FH   BYTE   UNIT     CODE           ?PR?CYSPCLOCK?CYSPC
0072FCH   007317H   00001CH   BYTE   UNIT     CODE           ?PR?_WATCHDOG_COUNTER_WRITECOUNTER?WATCHDOG_COUNTER
007318H   007332H   00001BH   BYTE   UNIT     CODE           ?PR?CYSPCGETALGORITHM?CYSPC
007333H   00734BH   000019H   BYTE   UNIT     CODE           ?PR?_INFOGET?COMMAND_PROCESSING
00734CH   007364H   000019H   BYTE   UNIT     CODE           ?PR?_CYINTSETPRIORITY?CYLIB
007365H   00737DH   000019H   BYTE   UNIT     CODE           ?PR?SPI_IMU_INIT?SPI_IMU
00737EH   007395H   000018H   BYTE   UNIT     CODE           ?PR?CYSETTEMP?CYFLASH
007396H   0073ADH   000018H   BYTE   UNIT     CODE           ?PR?CYEXITCRITICALSECTION?CYBOOTASMKEIL
0073AEH   0073C4H   000017H   BYTE   UNIT     CODE           ?PR?_READCONTROLREGISTER?IMU_FUNCTIONS
0073C5H   0073DAH   000016H   BYTE   UNIT     CODE           ?PR?PACER_TIMER_ENABLE?PACER_TIMER
0073DBH   0073F0H   000016H   BYTE   UNIT     CODE           ?PR?WATCHDOG_COUNTER_ENABLE?WATCHDOG_COUNTER
0073F1H   007405H   000015H   BYTE   UNIT     CODE           ?PR?_SENDACKNOWLEDGMENT?COMMAND_PROCESSING
007406H   00741AH   000015H   BYTE   UNIT     CODE           ?PR?CMD_STORE_PARAMS?COMMAND_PROCESSING
00741BH   00742FH   000015H   BYTE   UNIT     CODE           ?PR?CYENTERCRITICALSECTION?CYBOOTASMKEIL
007430H   007444H   000015H   BYTE   UNIT     CODE           ?PR?CYSPCSTART?CYSPC
007445H   007459H   000015H   BYTE   UNIT     CODE           ?PR?_STRLEN?STRLEN
00745AH   00746DH   000014H   BYTE   UNIT     CODE           ?PR?CMD_PING?COMMAND_PROCESSING
00746EH   007481H   000014H   BYTE   UNIT     CODE           ?PR?UART_RS485_READRXSTATUS?UART_RS485
007482H   007494H   000013H   BYTE   UNIT     CODE           ?PR?UART_RS485_START?UART_RS485
007495H   0074A7H   000013H   BYTE   UNIT     CODE           ?PR?PACER_TIMER_START?PACER_TIMER
0074A8H   0074BAH   000013H   BYTE   UNIT     CODE           ?PR?MY_TIMER_START?MY_TIMER
0074BBH   0074CDH   000013H   BYTE   UNIT     CODE           ?PR?WATCHDOG_COUNTER_START?WATCHDOG_COUNTER
0074CEH   0074E0H   000013H   BYTE   UNIT     CODE           ?PR?SPI_IMU_START?SPI_IMU
0074E1H   0074F3H   000013H   BYTE   UNIT     CODE           ?PR?CYREAD24?CYMEM
0074F4H   007505H   000012H   BYTE   UNIT     CODE           ?PR?UART_RS485_CLEARTXBUFFER?UART_RS485
007506H   007517H   000012H   BYTE   UNIT     CODE           ?PR?SPI_IMU_CLEARTXBUFFER?SPI_IMU
007518H   007529H   000012H   BYTE   UNIT     CODE           ?PR?CYWRITE24?CYMEM
00752AH   007539H   000010H   BYTE   UNIT     CODE           ?PR?_OPTO_PIN_WRITE?OPTO_PIN
00753AH   007548H   00000FH   BYTE   UNIT     CODE           ?PR?MY_TIMER_READCOUNTER?MY_TIMER
007549H   007557H   00000FH   BYTE   UNIT     CODE           ?PR?SPI_IMU_CLEARRXBUFFER?SPI_IMU
007558H   007566H   00000FH   BYTE   UNIT     CODE           ?PR?SPI_IMU_READSTATUS?SPI_IMU
007567H   007575H   00000FH   BYTE   UNIT     CODE           ?PR?CYREAD16?CYMEM
007576H   007584H   00000FH   BYTE   UNIT     CODE           ?PR?CYWRITE16?CYMEM
007585H   007593H   00000FH   BYTE   UNIT     CODE           ?PR?SPI_IMU_INTCLOCK_START?SPI_IMU_INTCLOCK
007594H   0075A1H   00000EH   BYTE   UNIT     CODE           ?PR?_ISR_RS485_RX_SETVECTOR?ISR_RS485_RX
0075A2H   0075AFH   00000EH   BYTE   UNIT     CODE           ?PR?_PACER_TIMER_WRITEPERIOD?PACER_TIMER
0075B0H   0075BDH   00000EH   BYTE   UNIT     CODE           ?PR?_PACER_TIMER_WRITECOUNTER?PACER_TIMER
0075BEH   0075CBH   00000EH   BYTE   UNIT     CODE           ?PR?_ISR_WATCHDOG_SETVECTOR?ISR_WATCHDOG
LX51 LINKER/LOCATER V4.64.0.0                                                         06/15/2017  12:28:54  PAGE 6


0075CCH   0075D9H   00000EH   BYTE   UNIT     CODE           ?PR?_WATCHDOG_COUNTER_WRITEPERIOD?WATCHDOG_COUNTER
0075DAH   0075E6H   00000DH   BYTE   UNIT     CODE           ?PR?_UART_RS485_PUTCHAR?UART_RS485
0075E7H   0075F3H   00000DH   BYTE   UNIT     CODE           ?PR?MY_TIMER_CLEARFIFO?MY_TIMER
0075F4H   007600H   00000DH   BYTE   UNIT     CODE           ?PR?_SPI_IMU_WRITETXDATA?SPI_IMU
007601H   00760CH   00000CH   BYTE   UNIT     CODE           ?PR?CYREAD8?CYMEM
00760DH   007618H   00000CH   BYTE   UNIT     CODE           ?PR?CYWRITE8?CYMEM
007619H   007624H   00000CH   BYTE   UNIT     CODE           ?PR?CYSPCUNLOCK?CYSPC
007625H   00762EH   00000AH   BYTE   UNIT     CODE           ?PR?_ISR_RS485_RX_SETPRIORITY?ISR_RS485_RX
00762FH   007638H   00000AH   BYTE   UNIT     CODE           ?PR?CLOCK_UART_GETDIVIDERREGISTER?CLOCK_UART
007639H   007642H   00000AH   BYTE   UNIT     CODE           ?PR?BOOTLOADABLE_LOAD?BOOTLOADABLE
007643H   00764CH   00000AH   BYTE   UNIT     CODE           ?PR?_MY_TIMER_WRITEPERIOD?MY_TIMER
00764DH   007656H   00000AH   BYTE   UNIT     CODE           ?PR?MY_TIMER_READCAPTURE?MY_TIMER
007657H   007660H   00000AH   BYTE   UNIT     CODE           ?PR?_MY_TIMER_WRITECOUNTER?MY_TIMER
007661H   00766AH   00000AH   BYTE   UNIT     CODE           ?PR?_ISR_WATCHDOG_SETPRIORITY?ISR_WATCHDOG
00766BH   007672H   000008H   BYTE   UNIT     CODE           ?PR?CLOCK_UART_GETSOURCEREGISTER?CLOCK_UART
007673H   00767AH   000008H   BYTE   UNIT     CODE           ?PR?MY_TIMER_ENABLE?MY_TIMER
00767BH   007682H   000008H   BYTE   UNIT     CODE           ?PR?CYSOFTWARERESET?CYLIB
007683H   007689H   000007H   BYTE   UNIT     CODE           ?PR?ISR_RS485_RX_ENABLE?ISR_RS485_RX
00768AH   007690H   000007H   BYTE   UNIT     CODE           ?PR?ISR_RS485_RX_DISABLE?ISR_RS485_RX
007691H   007697H   000007H   BYTE   UNIT     CODE           ?PR?EEPROM_ENABLE?EEPROM
007698H   00769EH   000007H   BYTE   UNIT     CODE           ?PR?ISR_WATCHDOG_ENABLE?ISR_WATCHDOG
00769FH   0076A5H   000007H   BYTE   UNIT     CODE           ?PR?ISR_WATCHDOG_DISABLE?ISR_WATCHDOG
0076A6H   0076ABH   000006H   BYTE   UNIT     CODE           ?PR?UART_RS485_READTXSTATUS?UART_RS485
0076ACH   0076B1H   000006H   BYTE   UNIT     CODE           ?PR?_PACER_TIMER_SETINTERRUPTMODE?PACER_TIMER
0076B2H   0076B7H   000006H   BYTE   UNIT     CODE           ?PR?_RS485_CTS_WRITE?RS485_CTS
0076B8H   0076BDH   000006H   BYTE   UNIT     CODE           ?PR?_FTDI_ENABLE_REG_WRITE?FTDI_ENABLE_REG
0076BEH   0076C3H   000006H   BYTE   UNIT     CODE           ?PR?_RESET_FF_WRITE?RESET_FF
0076C4H   0076C9H   000006H   BYTE   UNIT     CODE           ?PR?FF_STATUS_READ?FF_STATUS
0076CAH   0076CFH   000006H   BYTE   UNIT     CODE           ?PR?_MY_TIMER_SETINTERRUPTMODE?MY_TIMER
0076D0H   0076D5H   000006H   BYTE   UNIT     CODE           ?PR?MY_TIMER_READSTATUSREGISTER?MY_TIMER
0076D6H   0076DBH   000006H   BYTE   UNIT     CODE           ?PR?_WATCHDOG_COUNTER_SETINTERRUPTMODE?WATCHDOG_COUNTER
0076DCH   0076E1H   000006H   BYTE   UNIT     CODE           ?PR?_WATCHDOG_ENABLER_WRITE?WATCHDOG_ENABLER
0076E2H   0076E7H   000006H   BYTE   UNIT     CODE           ?PR?_WATCHDOG_REFRESH_WRITE?WATCHDOG_REFRESH
0076E8H   0076EDH   000006H   BYTE   UNIT     CODE           ?PR?SPI_IMU_READTXSTATUS?SPI_IMU
0076EEH   0076F3H   000006H   BYTE   UNIT     CODE           ?PR?SPI_IMU_READRXSTATUS?SPI_IMU
0076F4H   0076F9H   000006H   BYTE   UNIT     CODE           ?PR?SPI_IMU_READRXDATA?SPI_IMU
0076FAH   0076FFH   000006H   BYTE   UNIT     CODE           ?PR?_CHIP_SELECT_A_WRITE?CHIP_SELECT_A
007700H   007705H   000006H   BYTE   UNIT     CODE           ?PR?_CHIP_SELECT_B_WRITE?CHIP_SELECT_B
007706H   007709H   000004H   BYTE   UNIT     CODE           ?PR?EEPROM_START?EEPROM
00770AH   00770CH   000003H   BYTE   UNIT     CODE           ?PR?ISR_WATCHDOG_HANDLER?INTERRUPTIONS
00770DH   00770FH   000003H   BYTE   UNIT     CODE           ?PR?ISR_RS485_RX_EXINTERRUPT?INTERRUPTIONS
007710H   007712H   000003H   BYTE   UNIT     CODE           ?PR?_CYCLOCKSTARTUPERROR?CYFITTER_CFG
007713H   007713H   000001H   BYTE   UNIT     CODE           ?PR?CMD_SET_INPUTS?COMMAND_PROCESSING
007714H   007714H   000001H   BYTE   UNIT     CODE           ?PR?CMD_ACTIVATE?COMMAND_PROCESSING
007715H   007715H   000001H   BYTE   UNIT     CODE           ?PR?CMD_GET_ACTIVATE?COMMAND_PROCESSING
007716H   007716H   000001H   BYTE   UNIT     CODE           ?PR?CMD_GET_CURRENTS?COMMAND_PROCESSING
007717H   007717H   000001H   BYTE   UNIT     CODE           ?PR?CMD_GET_INPUTS?COMMAND_PROCESSING
007718H   007718H   000001H   BYTE   UNIT     CODE           ?PR?CMD_GET_EMG?COMMAND_PROCESSING
007719H   007719H   000001H   BYTE   UNIT     CODE           ?PR?ISR_RS485_RX_INTERRUPT?ISR_RS485_RX
00771AH   00771AH   000001H   BYTE   UNIT     CODE           ?PR?ISR_WATCHDOG_INTERRUPT?ISR_WATCHDOG
00771BH   00771BH   000001H   BYTE   UNIT     CODE           ?PR?SPI_IMU_ENABLETXINT?SPI_IMU
00771CH   00771CH   000001H   BYTE   UNIT     CODE           ?PR?SPI_IMU_ENABLERXINT?SPI_IMU
00771DH   0079FBH   0002DFH   BYTE   UNIT     CONST          ?CO?CYFITTER_CFG

* * * * * * * * * * *  X D A T A   M E M O R Y  * * * * * * * * * * * * *
000000H   000582H   000583H   BYTE   UNIT     XDATA          ?XD?GLOBALS
000583H   000A5AH   0004D8H   BYTE   UNIT     XDATA          _XDATA_GROUP_
000A5BH   000EA8H   00044EH   BYTE   UNIT     XDATA          ?XD?COMMAND_PROCESSING
000EA9H   00100EH   000166H   BYTE   UNIT     XDATA          ?XD?ISR_IMU
00100FH   001090H   000082H   BYTE   UNIT     XDATA          ?XD?INTERRUPTIONS
001091H   0010D3H   000043H   BYTE   UNIT     XDATA          ?XD?CYPM
0010D4H   0010FAH   000027H   BYTE   UNIT     XDATA          ?XD?UART_RS485
0010FBH   00111AH   000020H   BYTE   UNIT     XDATA          ?XD?UTILS
00111BH   001129H   00000FH   BYTE   UNIT     XDATA          ?XD?CYLIB
00112AH   00112EH   000005H   BYTE   UNIT     XDATA          ?XD?CYFLASH
LX51 LINKER/LOCATER V4.64.0.0                                                         06/15/2017  12:28:54  PAGE 7


00112FH   001132H   000004H   BYTE   UNIT     XDATA          ?XD?CYFITTER_CFG
001133H   001135H   000003H   BYTE   UNIT     XDATA          ?XD?SPI_IMU
001136H   001136H   000001H   BYTE   UNIT     XDATA          ?XD?IMU_FUNCTIONS
001137H   001137H   000001H   BYTE   UNIT     XDATA          ?XD?PACER_TIMER
001138H   001138H   000001H   BYTE   UNIT     XDATA          ?XD?MY_TIMER
001139H   001139H   000001H   BYTE   UNIT     XDATA          ?XD?WATCHDOG_COUNTER
00113AH   00113AH   000001H   BYTE   UNIT     XDATA          ?XD?CYSPC

* * * * * * * * *   R E M O V E D     S E G M E N T S   * * * * * * * *
   *DEL*:           000013H   BYTE   UNIT     CODE           ?PR?INFOSEND?COMMAND_PROCESSING
   *DEL*:           00044CH   BYTE   UNIT     XDATA          ?XD?INFOSEND?COMMAND_PROCESSING
   *DEL*:           000001H   BYTE   UNIT     CODE           ?PR?CMD_GET_CURR_AND_MEAS?COMMAND_PROCESSING
   *DEL*:           000075H   BYTE   UNIT     CODE           ?PR?_FILTER_V?UTILS
   *DEL*:           000075H   BYTE   UNIT     CODE           ?PR?_FILTER_I1?UTILS
   *DEL*:           000079H   BYTE   UNIT     CODE           ?PR?_FILTER_CH1?UTILS
   *DEL*:           000079H   BYTE   UNIT     CODE           ?PR?_FILTER_CH2?UTILS
   *DEL*:           00006BH   BYTE   UNIT     CODE           ?PR?_CHECK_ENC_DATA?UTILS
   *DEL*:           000054H   BYTE   UNIT     CODE           ?PR?_MY_ROUND?UTILS
   *DEL*:           000004H   BYTE   UNIT     XDATA          ?XD?_MY_ROUND?UTILS
   *DEL*:           000081H   BYTE   UNIT     CODE           ?PR?_MY_MOD?UTILS
   *DEL*:           000008H   BYTE   UNIT     XDATA          ?XD?_MY_MOD?UTILS
   *DEL*:           000001H   BYTE   UNIT     CODE           ?PR?CALIBRATION?UTILS
   *DEL*:           0000DBH   BYTE   UNIT     CODE           ?PR?_CALC_TURNS_FCN?UTILS
   *DEL*:           000008H   BYTE   UNIT     XDATA          ?XD?_CALC_TURNS_FCN?UTILS
   *DEL*:           000003H   BYTE   UNIT     IDATA          ?ID?_CHECK_ENC_DATA?UTILS
   *DEL*:           000001H   BYTE   UNIT     DATA           ?DT?_CHECK_ENC_DATA?UTILS
   *DEL*:           000035H   BYTE   UNIT     CODE           ?PR?IMUSRESET?IMU_FUNCTIONS
   *DEL*:           000002H   BYTE   UNIT     XDATA          ?XD?IMUSRESET?IMU_FUNCTIONS
   *DEL*:           000003H   BYTE   UNIT     CODE           ?PR?UART_RS485_READCONTROLREGISTER?UART_RS485
   *DEL*:           000006H   BYTE   UNIT     CODE           ?PR?_UART_RS485_WRITECONTROLREGISTER?UART_RS485
   *DEL*:           000001H   BYTE   UNIT     XDATA          ?XD?_UART_RS485_WRITECONTROLREGISTER?UART_RS485
   *DEL*:           000006H   BYTE   UNIT     CODE           ?PR?_UART_RS485_SETRXINTERRUPTMODE?UART_RS485
   *DEL*:           00004AH   BYTE   UNIT     CODE           ?PR?UART_RS485_READRXDATA?UART_RS485
   *DEL*:           00001FH   BYTE   UNIT     CODE           ?PR?UART_RS485_GETBYTE?UART_RS485
   *DEL*:           000006H   BYTE   UNIT     CODE           ?PR?_UART_RS485_SETRXADDRESSMODE?UART_RS485
   *DEL*:           000001H   BYTE   UNIT     XDATA          ?XD?_UART_RS485_SETRXADDRESSMODE?UART_RS485
   *DEL*:           000006H   BYTE   UNIT     CODE           ?PR?_UART_RS485_SETRXADDRESS1?UART_RS485
   *DEL*:           000006H   BYTE   UNIT     CODE           ?PR?_UART_RS485_SETRXADDRESS2?UART_RS485
   *DEL*:           000006H   BYTE   UNIT     CODE           ?PR?_UART_RS485_SETTXINTERRUPTMODE?UART_RS485
   *DEL*:           00000CH   BYTE   UNIT     CODE           ?PR?_UART_RS485_WRITETXDATA?UART_RS485
   *DEL*:           000032H   BYTE   UNIT     CODE           ?PR?_UART_RS485_PUTARRAY?UART_RS485
   *DEL*:           000003H   BYTE   UNIT     XDATA          ?XD?_UART_RS485_PUTARRAY?UART_RS485
   *DEL*:           000014H   BYTE   UNIT     CODE           ?PR?_UART_RS485_PUTCRLF?UART_RS485
   *DEL*:           000017H   BYTE   UNIT     CODE           ?PR?UART_RS485_GETTXBUFFERSIZE?UART_RS485
   *DEL*:           000059H   BYTE   UNIT     CODE           ?PR?_UART_RS485_SENDBREAK?UART_RS485
   *DEL*:           000001H   BYTE   UNIT     XDATA          ?XD?_UART_RS485_SENDBREAK?UART_RS485
   *DEL*:           000006H   BYTE   UNIT     CODE           ?PR?_UART_RS485_SETTXADDRESSMODE?UART_RS485
   *DEL*:           000001H   BYTE   UNIT     XDATA          ?XD?_UART_RS485_SETTXADDRESSMODE?UART_RS485
   *DEL*:           000013H   BYTE   UNIT     CODE           ?PR?ISR_RS485_RX_START?ISR_RS485_RX
   *DEL*:           000004H   BYTE   UNIT     CODE           ?PR?ISR_RS485_RX_STOP?ISR_RS485_RX
   *DEL*:           00000AH   BYTE   UNIT     CODE           ?PR?ISR_RS485_RX_GETVECTOR?ISR_RS485_RX
   *DEL*:           00000BH   BYTE   UNIT     CODE           ?PR?ISR_RS485_RX_GETPRIORITY?ISR_RS485_RX
   *DEL*:           00000EH   BYTE   UNIT     CODE           ?PR?ISR_RS485_RX_GETSTATE?ISR_RS485_RX
   *DEL*:           000007H   BYTE   UNIT     CODE           ?PR?ISR_RS485_RX_SETPENDING?ISR_RS485_RX
   *DEL*:           000007H   BYTE   UNIT     CODE           ?PR?ISR_RS485_RX_CLEARPENDING?ISR_RS485_RX
   *DEL*:           000016H   BYTE   UNIT     CODE           ?PR?PACER_TIMER_STOP?PACER_TIMER
   *DEL*:           00000AH   BYTE   UNIT     CODE           ?PR?PACER_TIMER_SOFTWARECAPTURE?PACER_TIMER
   *DEL*:           000006H   BYTE   UNIT     CODE           ?PR?PACER_TIMER_READSTATUSREGISTER?PACER_TIMER
   *DEL*:           000006H   BYTE   UNIT     CODE           ?PR?PACER_TIMER_READCONTROLREGISTER?PACER_TIMER
   *DEL*:           000006H   BYTE   UNIT     CODE           ?PR?_PACER_TIMER_WRITECONTROLREGISTER?PACER_TIMER
   *DEL*:           00000AH   BYTE   UNIT     CODE           ?PR?PACER_TIMER_READPERIOD?PACER_TIMER
   *DEL*:           00000AH   BYTE   UNIT     CODE           ?PR?PACER_TIMER_READCAPTURE?PACER_TIMER
   *DEL*:           000013H   BYTE   UNIT     CODE           ?PR?PACER_TIMER_READCOUNTER?PACER_TIMER
   *DEL*:           00000FH   BYTE   UNIT     CODE           ?PR?CLOCK_UART_START?CLOCK_UART
   *DEL*:           00000FH   BYTE   UNIT     CODE           ?PR?CLOCK_UART_STOP?CLOCK_UART
LX51 LINKER/LOCATER V4.64.0.0                                                         06/15/2017  12:28:54  PAGE 8


   *DEL*:           00006DH   BYTE   UNIT     CODE           ?PR?CLOCK_UART_STOPBLOCK?CLOCK_UART
   *DEL*:           000002H   BYTE   UNIT     XDATA          ?XD?CLOCK_UART_STOPBLOCK?CLOCK_UART
   *DEL*:           000013H   BYTE   UNIT     CODE           ?PR?_CLOCK_UART_STANDBYPOWER?CLOCK_UART
   *DEL*:           00000DH   BYTE   UNIT     CODE           ?PR?_CLOCK_UART_SETMODEREGISTER?CLOCK_UART
   *DEL*:           00000EH   BYTE   UNIT     CODE           ?PR?_CLOCK_UART_CLEARMODEREGISTER?CLOCK_UART
   *DEL*:           000008H   BYTE   UNIT     CODE           ?PR?CLOCK_UART_GETMODEREGISTER?CLOCK_UART
   *DEL*:           000062H   BYTE   UNIT     CODE           ?PR?_CLOCK_UART_SETSOURCEREGISTER?CLOCK_UART
   *DEL*:           000003H   BYTE   UNIT     XDATA          ?XD?_CLOCK_UART_SETSOURCEREGISTER?CLOCK_UART
   *DEL*:           000004H   BYTE   UNIT     CODE           ?PR?EEPROM_STOP?EEPROM
   *DEL*:           000124H   BYTE   UNIT     CODE           ?PR?_EEPROM_WRITEBYTE?EEPROM
   *DEL*:           000008H   BYTE   UNIT     XDATA          ?XD?_EEPROM_WRITEBYTE?EEPROM
   *DEL*:           00003AH   BYTE   UNIT     CODE           ?PR?_EEPROM_READBYTE?EEPROM
   *DEL*:           000004H   BYTE   UNIT     XDATA          ?XD?_EEPROM_READBYTE?EEPROM
   *DEL*:           000004H   BYTE   UNIT     CODE           ?PR?EEPROM_UPDATETEMPERATURE?EEPROM
   *DEL*:           00006FH   BYTE   UNIT     CODE           ?PR?_EEPROM_ERASESECTOR?EEPROM
   *DEL*:           000002H   BYTE   UNIT     XDATA          ?XD?_EEPROM_ERASESECTOR?EEPROM
   *DEL*:           0000B9H   BYTE   UNIT     CODE           ?PR?_EEPROM_STARTWRITE?EEPROM
   *DEL*:           000005H   BYTE   UNIT     XDATA          ?XD?_EEPROM_STARTWRITE?EEPROM
   *DEL*:           000046H   BYTE   UNIT     CODE           ?PR?_EEPROM_STARTERASE?EEPROM
   *DEL*:           000002H   BYTE   UNIT     XDATA          ?XD?_EEPROM_STARTERASE?EEPROM
   *DEL*:           00003BH   BYTE   UNIT     CODE           ?PR?EEPROM_QUERY?EEPROM
   *DEL*:           000001H   BYTE   UNIT     XDATA          ?XD?EEPROM_QUERY?EEPROM
   *DEL*:           0000E5H   BYTE   UNIT     CODE           ?PR?_EEPROM_BYTEWRITEPOS?EEPROM
   *DEL*:           000004H   BYTE   UNIT     XDATA          ?XD?_EEPROM_BYTEWRITEPOS?EEPROM
   *DEL*:           000006H   BYTE   UNIT     CODE           ?PR?RS485_CTS_READ?RS485_CTS
   *DEL*:           0000FBH   BYTE   UNIT     CODE           ?PR?_BOOTLOADABLE_SETFLASHBYTE?BOOTLOADABLE
   *DEL*:           000110H   BYTE   UNIT     XDATA          ?XD?_BOOTLOADABLE_SETFLASHBYTE?BOOTLOADABLE
   *DEL*:           000006H   BYTE   UNIT     CODE           ?PR?FTDI_ENABLE_REG_READ?FTDI_ENABLE_REG
   *DEL*:           000006H   BYTE   UNIT     CODE           ?PR?RESET_FF_READ?RESET_FF
   *DEL*:           00000EH   BYTE   UNIT     CODE           ?PR?FF_STATUS_INTERRUPTENABLE?FF_STATUS
   *DEL*:           00000EH   BYTE   UNIT     CODE           ?PR?FF_STATUS_INTERRUPTDISABLE?FF_STATUS
   *DEL*:           000009H   BYTE   UNIT     CODE           ?PR?_FF_STATUS_WRITEMASK?FF_STATUS
   *DEL*:           000006H   BYTE   UNIT     CODE           ?PR?FF_STATUS_READMASK?FF_STATUS
   *DEL*:           000008H   BYTE   UNIT     CODE           ?PR?MY_TIMER_STOP?MY_TIMER
   *DEL*:           000006H   BYTE   UNIT     CODE           ?PR?MY_TIMER_SOFTWARECAPTURE?MY_TIMER
   *DEL*:           000006H   BYTE   UNIT     CODE           ?PR?MY_TIMER_READCONTROLREGISTER?MY_TIMER
   *DEL*:           000006H   BYTE   UNIT     CODE           ?PR?_MY_TIMER_WRITECONTROLREGISTER?MY_TIMER
   *DEL*:           00000AH   BYTE   UNIT     CODE           ?PR?MY_TIMER_READPERIOD?MY_TIMER
   *DEL*:           000031H   BYTE   UNIT     CODE           ?PR?CYFLASH_START?CYFLASH
   *DEL*:           000015H   BYTE   UNIT     CODE           ?PR?CYFLASH_STOP?CYFLASH
   *DEL*:           00007DH   BYTE   UNIT     CODE           ?PR?_CYSETFLASHEEBUFFER?CYFLASH
   *DEL*:           000004H   BYTE   UNIT     XDATA          ?XD?_CYSETFLASHEEBUFFER?CYFLASH
   *DEL*:           000034H   BYTE   UNIT     CODE           ?PR?_CYWRITEROWDATA?CYFLASH
   *DEL*:           000003H   BYTE   UNIT     XDATA          ?XD?_CYWRITEROWDATA?CYFLASH
   *DEL*:           000190H   BYTE   UNIT     CODE           ?PR?_CYWRITEROWFULL?CYFLASH
   *DEL*:           000009H   BYTE   UNIT     XDATA          ?XD?_CYWRITEROWFULL?CYFLASH
   *DEL*:           000044H   BYTE   UNIT     CODE           ?PR?_CYFLASH_SETWAITCYCLES?CYFLASH
   *DEL*:           000001H   BYTE   UNIT     XDATA          ?XD?_CYFLASH_SETWAITCYCLES?CYFLASH
   *DEL*:           000015H   BYTE   UNIT     CODE           ?PR?CYEEPROM_STOP?CYFLASH
   *DEL*:           000010H   BYTE   UNIT     CODE           ?PR?CYEEPROM_READRESERVE?CYFLASH
   *DEL*:           000008H   BYTE   UNIT     CODE           ?PR?CYEEPROM_READRELEASE?CYFLASH
   *DEL*:           00006EH   BYTE   UNIT     CODE           ?PR?_CYPLL_OUT_START?CYLIB
   *DEL*:           000004H   BYTE   UNIT     XDATA          ?XD?_CYPLL_OUT_START?CYLIB
   *DEL*:           000008H   BYTE   UNIT     CODE           ?PR?CYPLL_OUT_STOP?CYLIB
   *DEL*:           000036H   BYTE   UNIT     CODE           ?PR?_CYPLL_OUT_SETPQ?CYLIB
   *DEL*:           000010H   BYTE   UNIT     CODE           ?PR?_CYPLL_OUT_SETSOURCE?CYLIB
   *DEL*:           000053H   BYTE   UNIT     CODE           ?PR?_CYIMO_START?CYLIB
   *DEL*:           000003H   BYTE   UNIT     XDATA          ?XD?_CYIMO_START?CYLIB
   *DEL*:           00000FH   BYTE   UNIT     CODE           ?PR?CYIMO_STOP?CYLIB
   *DEL*:           000027H   BYTE   UNIT     CODE           ?PR?CYUSB_POWERONCHECK?CYLIB
   *DEL*:           0000B6H   BYTE   UNIT     CODE           ?PR?_CYIMO_SETTRIMVALUE?CYLIB
   *DEL*:           000001H   BYTE   UNIT     XDATA          ?XD?_CYIMO_SETTRIMVALUE?CYLIB
   *DEL*:           000118H   BYTE   UNIT     CODE           ?PR?_CYIMO_SETFREQ?CYLIB
   *DEL*:           000003H   BYTE   UNIT     XDATA          ?XD?_CYIMO_SETFREQ?CYLIB
   *DEL*:           00002FH   BYTE   UNIT     CODE           ?PR?_CYIMO_SETSOURCE?CYLIB
LX51 LINKER/LOCATER V4.64.0.0                                                         06/15/2017  12:28:54  PAGE 9


   *DEL*:           000008H   BYTE   UNIT     CODE           ?PR?CYIMO_ENABLEDOUBLER?CYLIB
   *DEL*:           000008H   BYTE   UNIT     CODE           ?PR?CYIMO_DISABLEDOUBLER?CYLIB
   *DEL*:           00000DH   BYTE   UNIT     CODE           ?PR?_CYMASTERCLK_SETSOURCE?CYLIB
   *DEL*:           000006H   BYTE   UNIT     CODE           ?PR?_CYMASTERCLK_SETDIVIDER?CYLIB
   *DEL*:           000023H   BYTE   UNIT     CODE           ?PR?_CYBUSCLK_INTERNAL_SETDIVIDER?CYLIB
   *DEL*:           00007AH   BYTE   UNIT     CODE           ?PR?_CYBUSCLK_SETDIVIDER?CYLIB
   *DEL*:           000002H   BYTE   UNIT     XDATA          ?XD?_CYBUSCLK_SETDIVIDER?CYLIB
   *DEL*:           00000EH   BYTE   UNIT     CODE           ?PR?_CYCPUCLK_SETDIVIDER?CYLIB
   *DEL*:           00000DH   BYTE   UNIT     CODE           ?PR?_CYUSBCLK_SETSOURCE?CYLIB
   *DEL*:           000008H   BYTE   UNIT     CODE           ?PR?CYILO_START1K?CYLIB
   *DEL*:           000008H   BYTE   UNIT     CODE           ?PR?CYILO_STOP1K?CYLIB
   *DEL*:           000008H   BYTE   UNIT     CODE           ?PR?CYILO_START100K?CYLIB
   *DEL*:           000008H   BYTE   UNIT     CODE           ?PR?CYILO_STOP100K?CYLIB
   *DEL*:           000008H   BYTE   UNIT     CODE           ?PR?CYILO_ENABLE33K?CYLIB
   *DEL*:           000008H   BYTE   UNIT     CODE           ?PR?CYILO_DISABLE33K?CYLIB
   *DEL*:           000011H   BYTE   UNIT     CODE           ?PR?_CYILO_SETSOURCE?CYLIB
   *DEL*:           000029H   BYTE   UNIT     CODE           ?PR?_CYILO_SETPOWERMODE?CYLIB
   *DEL*:           00005EH   BYTE   UNIT     CODE           ?PR?CYXTAL_32KHZ_START?CYLIB
   *DEL*:           000002H   BYTE   UNIT     XDATA          ?XD?CYXTAL_32KHZ_START?CYLIB
   *DEL*:           000020H   BYTE   UNIT     CODE           ?PR?CYXTAL_32KHZ_STOP?CYLIB
   *DEL*:           000008H   BYTE   UNIT     CODE           ?PR?CYXTAL_32KHZ_READSTATUS?CYLIB
   *DEL*:           000066H   BYTE   UNIT     CODE           ?PR?_CYXTAL_32KHZ_SETPOWERMODE?CYLIB
   *DEL*:           000001H   BYTE   UNIT     XDATA          ?XD?_CYXTAL_32KHZ_SETPOWERMODE?CYLIB
   *DEL*:           0000A0H   BYTE   UNIT     CODE           ?PR?_CYXTAL_START?CYLIB
   *DEL*:           000006H   BYTE   UNIT     XDATA          ?XD?_CYXTAL_START?CYLIB
   *DEL*:           000008H   BYTE   UNIT     CODE           ?PR?CYXTAL_STOP?CYLIB
   *DEL*:           000008H   BYTE   UNIT     CODE           ?PR?CYXTAL_ENABLEERRSTATUS?CYLIB
   *DEL*:           000008H   BYTE   UNIT     CODE           ?PR?CYXTAL_DISABLEERRSTATUS?CYLIB
   *DEL*:           00000FH   BYTE   UNIT     CODE           ?PR?CYXTAL_READSTATUS?CYLIB
   *DEL*:           000008H   BYTE   UNIT     CODE           ?PR?CYXTAL_ENABLEFAULTRECOVERY?CYLIB
   *DEL*:           000008H   BYTE   UNIT     CODE           ?PR?CYXTAL_DISABLEFAULTRECOVERY?CYLIB
   *DEL*:           00000DH   BYTE   UNIT     CODE           ?PR?_CYXTAL_SETSTARTUP?CYLIB
   *DEL*:           00000DH   BYTE   UNIT     CODE           ?PR?_CYXTAL_SETFBVOLTAGE?CYLIB
   *DEL*:           00000EH   BYTE   UNIT     CODE           ?PR?_CYXTAL_SETWDVOLTAGE?CYLIB
   *DEL*:           000015H   BYTE   UNIT     CODE           ?PR?_?CYHALT?CYLIB
   *DEL*:           0000B8H   BYTE   UNIT     CODE           ?PR?_?CYDELAYFREQ?CYLIB
   *DEL*:           000026H   BYTE   UNIT     CODE           ?PR?_CYWDTSTART?CYLIB
   *DEL*:           000007H   BYTE   UNIT     CODE           ?PR?CYWDTCLEAR?CYLIB
   *DEL*:           000084H   BYTE   UNIT     CODE           ?PR?_CYVDLVDIGITENABLE?CYLIB
   *DEL*:           000007H   BYTE   UNIT     XDATA          ?XD?_CYVDLVDIGITENABLE?CYLIB
   *DEL*:           000083H   BYTE   UNIT     CODE           ?PR?_CYVDLVANALOGENABLE?CYLIB
   *DEL*:           000007H   BYTE   UNIT     XDATA          ?XD?_CYVDLVANALOGENABLE?CYLIB
   *DEL*:           00001DH   BYTE   UNIT     CODE           ?PR?CYVDLVDIGITDISABLE?CYLIB
   *DEL*:           000018H   BYTE   UNIT     CODE           ?PR?CYVDLVANALOGDISABLE?CYLIB
   *DEL*:           000056H   BYTE   UNIT     CODE           ?PR?CYVDHVANALOGENABLE?CYLIB
   *DEL*:           000005H   BYTE   UNIT     XDATA          ?XD?CYVDHVANALOGENABLE?CYLIB
   *DEL*:           000011H   BYTE   UNIT     CODE           ?PR?CYVDHVANALOGDISABLE?CYLIB
   *DEL*:           000039H   BYTE   UNIT     CODE           ?PR?_CYVDSTICKYSTATUS?CYLIB
   *DEL*:           000002H   BYTE   UNIT     XDATA          ?XD?_CYVDSTICKYSTATUS?CYLIB
   *DEL*:           000018H   BYTE   UNIT     CODE           ?PR?CYVDREALTIMESTATUS?CYLIB
   *DEL*:           000001H   BYTE   UNIT     XDATA          ?XD?CYVDREALTIMESTATUS?CYLIB
   *DEL*:           0000D0H   BYTE   UNIT     CODE           ?PR?CYDISABLEINTS?CYLIB
   *DEL*:           000005H   BYTE   UNIT     XDATA          ?XD?CYDISABLEINTS?CYLIB
   *DEL*:           000067H   BYTE   UNIT     CODE           ?PR?_CYENABLEINTS?CYLIB
   *DEL*:           000004H   BYTE   UNIT     XDATA          ?XD?_CYENABLEINTS?CYLIB
   *DEL*:           000018H   BYTE   UNIT     CODE           ?PR?_CYINTGETVECTOR?CYLIB
   *DEL*:           000014H   BYTE   UNIT     CODE           ?PR?_CYINTGETPRIORITY?CYLIB
   *DEL*:           000036H   BYTE   UNIT     CODE           ?PR?_CYINTGETSTATE?CYLIB
   *DEL*:           000248H   BYTE   UNIT     CODE           ?PR?_CYGETUNIQUEID?CYLIB
   *DEL*:           000003H   BYTE   UNIT     XDATA          ?XD?_CYGETUNIQUEID?CYLIB
   *DEL*:           000013H   BYTE   UNIT     CODE           ?PR?ISR_WATCHDOG_START?ISR_WATCHDOG
   *DEL*:           000004H   BYTE   UNIT     CODE           ?PR?ISR_WATCHDOG_STOP?ISR_WATCHDOG
   *DEL*:           00000AH   BYTE   UNIT     CODE           ?PR?ISR_WATCHDOG_GETVECTOR?ISR_WATCHDOG
   *DEL*:           00000BH   BYTE   UNIT     CODE           ?PR?ISR_WATCHDOG_GETPRIORITY?ISR_WATCHDOG
   *DEL*:           00000EH   BYTE   UNIT     CODE           ?PR?ISR_WATCHDOG_GETSTATE?ISR_WATCHDOG
LX51 LINKER/LOCATER V4.64.0.0                                                         06/15/2017  12:28:54  PAGE 10


   *DEL*:           000007H   BYTE   UNIT     CODE           ?PR?ISR_WATCHDOG_SETPENDING?ISR_WATCHDOG
   *DEL*:           000007H   BYTE   UNIT     CODE           ?PR?ISR_WATCHDOG_CLEARPENDING?ISR_WATCHDOG
   *DEL*:           000016H   BYTE   UNIT     CODE           ?PR?WATCHDOG_COUNTER_STOP?WATCHDOG_COUNTER
   *DEL*:           000006H   BYTE   UNIT     CODE           ?PR?WATCHDOG_COUNTER_READSTATUSREGISTER?WATCHDOG_COUNTER
   *DEL*:           000006H   BYTE   UNIT     CODE           ?PR?WATCHDOG_COUNTER_READCONTROLREGISTER?WATCHDOG_COUNTER
   *DEL*:           000006H   BYTE   UNIT     CODE           ?PR?_WATCHDOG_COUNTER_WRITECONTROLREGISTER?WATCHDOG_COUNTE
                                                             -R
   *DEL*:           000013H   BYTE   UNIT     CODE           ?PR?WATCHDOG_COUNTER_READCOUNTER?WATCHDOG_COUNTER
   *DEL*:           00000AH   BYTE   UNIT     CODE           ?PR?WATCHDOG_COUNTER_READCAPTURE?WATCHDOG_COUNTER
   *DEL*:           00000AH   BYTE   UNIT     CODE           ?PR?WATCHDOG_COUNTER_READPERIOD?WATCHDOG_COUNTER
   *DEL*:           000006H   BYTE   UNIT     CODE           ?PR?WATCHDOG_ENABLER_READ?WATCHDOG_ENABLER
   *DEL*:           000006H   BYTE   UNIT     CODE           ?PR?WATCHDOG_REFRESH_READ?WATCHDOG_REFRESH
   *DEL*:           00001EH   BYTE   UNIT     CODE           ?PR?SPI_IMU_STOP?SPI_IMU
   *DEL*:           000001H   BYTE   UNIT     CODE           ?PR?SPI_IMU_DISABLETXINT?SPI_IMU
   *DEL*:           000001H   BYTE   UNIT     CODE           ?PR?SPI_IMU_DISABLERXINT?SPI_IMU
   *DEL*:           000006H   BYTE   UNIT     CODE           ?PR?_SPI_IMU_SETTXINTERRUPTMODE?SPI_IMU
   *DEL*:           000006H   BYTE   UNIT     CODE           ?PR?_SPI_IMU_SETRXINTERRUPTMODE?SPI_IMU
   *DEL*:           00000EH   BYTE   UNIT     CODE           ?PR?SPI_IMU_GETRXBUFFERSIZE?SPI_IMU
   *DEL*:           000017H   BYTE   UNIT     CODE           ?PR?SPI_IMU_GETTXBUFFERSIZE?SPI_IMU
   *DEL*:           00002EH   BYTE   UNIT     CODE           ?PR?_SPI_IMU_PUTARRAY?SPI_IMU
   *DEL*:           000003H   BYTE   UNIT     XDATA          ?XD?_SPI_IMU_PUTARRAY?SPI_IMU
   *DEL*:           000007H   BYTE   UNIT     CODE           ?PR?SPI_IMU_ENABLEINT?SPI_IMU
   *DEL*:           000007H   BYTE   UNIT     CODE           ?PR?SPI_IMU_DISABLEINT?SPI_IMU
   *DEL*:           00000DH   BYTE   UNIT     CODE           ?PR?_SPI_IMU_SETINTERRUPTMODE?SPI_IMU
   *DEL*:           000013H   BYTE   UNIT     CODE           ?PR?ISR_IMU_START?ISR_IMU
   *DEL*:           00001FH   BYTE   UNIT     CODE           ?PR?_ISR_IMU_STARTEX?ISR_IMU
   *DEL*:           000002H   BYTE   UNIT     XDATA          ?XD?_ISR_IMU_STARTEX?ISR_IMU
   *DEL*:           000004H   BYTE   UNIT     CODE           ?PR?ISR_IMU_STOP?ISR_IMU
   *DEL*:           00000EH   BYTE   UNIT     CODE           ?PR?_ISR_IMU_SETVECTOR?ISR_IMU
   *DEL*:           00000AH   BYTE   UNIT     CODE           ?PR?ISR_IMU_GETVECTOR?ISR_IMU
   *DEL*:           00000AH   BYTE   UNIT     CODE           ?PR?_ISR_IMU_SETPRIORITY?ISR_IMU
   *DEL*:           00000BH   BYTE   UNIT     CODE           ?PR?ISR_IMU_GETPRIORITY?ISR_IMU
   *DEL*:           000007H   BYTE   UNIT     CODE           ?PR?ISR_IMU_ENABLE?ISR_IMU
   *DEL*:           00000EH   BYTE   UNIT     CODE           ?PR?ISR_IMU_GETSTATE?ISR_IMU
   *DEL*:           000007H   BYTE   UNIT     CODE           ?PR?ISR_IMU_DISABLE?ISR_IMU
   *DEL*:           000007H   BYTE   UNIT     CODE           ?PR?ISR_IMU_SETPENDING?ISR_IMU
   *DEL*:           000007H   BYTE   UNIT     CODE           ?PR?ISR_IMU_CLEARPENDING?ISR_IMU
   *DEL*:           00000DH   BYTE   UNIT     CODE           ?PR?_OPTO_PIN_SETDRIVEMODE?OPTO_PIN
   *DEL*:           000013H   BYTE   UNIT     CODE           ?PR?OPTO_PIN_READ?OPTO_PIN
   *DEL*:           000013H   BYTE   UNIT     CODE           ?PR?OPTO_PIN_READDATAREG?OPTO_PIN
   *DEL*:           000006H   BYTE   UNIT     CODE           ?PR?CHIP_SELECT_A_READ?CHIP_SELECT_A
   *DEL*:           000006H   BYTE   UNIT     CODE           ?PR?CHIP_SELECT_B_READ?CHIP_SELECT_B
   *DEL*:           000014H   BYTE   UNIT     CODE           ?PR?_SETANALOGROUTINGPUMPS?CYFITTER_CFG
   *DEL*:           000004H   BYTE   UNIT     CODE           ?PR?_CyDelay?CYBOOTASMKEIL
   *DEL*:           000019H   BYTE   UNIT     CODE           ?PR?CYMEMZERO?CYMEM
   *DEL*:           00002DH   BYTE   UNIT     CODE           ?PR?CFG_WRITE_BYTES?CYMEM
   *DEL*:           00002EH   BYTE   UNIT     CODE           ?PR?CY_WRITE_BYTES_CODE?CYMEM
   *DEL*:           000015H   BYTE   UNIT     CODE           ?PR?CYREAD32?CYMEM
   *DEL*:           000015H   BYTE   UNIT     CODE           ?PR?CYWRITE32?CYMEM
   *DEL*:           0001A9H   BYTE   UNIT     CODE           ?PR?CYPMSAVECLOCKS?CYPM
   *DEL*:           00024CH   BYTE   UNIT     CODE           ?PR?CYPMRESTORECLOCKS?CYPM
   *DEL*:           000003H   BYTE   UNIT     XDATA          ?XD?CYPMRESTORECLOCKS?CYPM
   *DEL*:           0000E0H   BYTE   UNIT     CODE           ?PR?_CYPMALTACT?CYPM
   *DEL*:           000004H   BYTE   UNIT     XDATA          ?XD?_CYPMALTACT?CYPM
   *DEL*:           000160H   BYTE   UNIT     CODE           ?PR?_CYPMSLEEP?CYPM
   *DEL*:           000004H   BYTE   UNIT     XDATA          ?XD?_CYPMSLEEP?CYPM
   *DEL*:           000008H   BYTE   UNIT     CODE           ?PR?CYPMHIBERNATE?CYPM
   *DEL*:           0000D6H   BYTE   UNIT     CODE           ?PR?_CYPMHIBERNATEEX?CYPM
   *DEL*:           000003H   BYTE   UNIT     XDATA          ?XD?_CYPMHIBERNATEEX?CYPM
   *DEL*:           000039H   BYTE   UNIT     CODE           ?PR?_CYPMREADSTATUS?CYPM
   *DEL*:           000002H   BYTE   UNIT     XDATA          ?XD?_CYPMREADSTATUS?CYPM
   *DEL*:           000076H   BYTE   UNIT     CODE           ?PR?CYPMHIBSAVESET?CYPM
   *DEL*:           000040H   BYTE   UNIT     CODE           ?PR?CYPMHIBRESTORE?CYPM
   *DEL*:           000049H   BYTE   UNIT     CODE           ?PR?_CYPMCTWSETINTERVAL?CYPM
   *DEL*:           000001H   BYTE   UNIT     XDATA          ?XD?_CYPMCTWSETINTERVAL?CYPM
LX51 LINKER/LOCATER V4.64.0.0                                                         06/15/2017  12:28:54  PAGE 11


   *DEL*:           000017H   BYTE   UNIT     CODE           ?PR?CYPMOPPSSET?CYPM
   *DEL*:           00004DH   BYTE   UNIT     CODE           ?PR?_CYPMFTWSETINTERVAL?CYPM
   *DEL*:           000001H   BYTE   UNIT     XDATA          ?XD?_CYPMFTWSETINTERVAL?CYPM
   *DEL*:           00018CH   BYTE   UNIT     CODE           ?PR?CYPMHIBSLPSAVESET?CYPM
   *DEL*:           00010DH   BYTE   UNIT     CODE           ?PR?CYPMHIBSLPRESTORE?CYPM
   *DEL*:           000082H   BYTE   UNIT     CODE           ?PR?CYPMHVILVISAVEDISABLE?CYPM
   *DEL*:           000033H   BYTE   UNIT     CODE           ?PR?CYPMHVILVIRESTORE?CYPM
   *DEL*:           00000EH   BYTE   UNIT     CONST          ?CO?CYPM
   *DEL*:           000015H   BYTE   UNIT     CODE           ?PR?CYSPCSTOP?CYSPC
   *DEL*:           0000A7H   BYTE   UNIT     CODE           ?PR?_CYSPCLOADMULTIBYTE?CYSPC
   *DEL*:           000007H   BYTE   UNIT     XDATA          ?XD?_CYSPCLOADMULTIBYTE?CYSPC
   *DEL*:           000143H   BYTE   UNIT     CODE           ?PR?_CYSPCLOADROWFULL?CYSPC
   *DEL*:           00000FH   BYTE   UNIT     XDATA          ?XD?_CYSPCLOADROWFULL?CYSPC
   *DEL*:           000030H   BYTE   UNIT     CODE           ?PR?_CYSPCERASESECTOR?CYSPC
   *DEL*:           00000FH   BYTE   UNIT     CODE           ?PR?SPI_IMU_INTCLOCK_STOP?SPI_IMU_INTCLOCK
   *DEL*:           00006EH   BYTE   UNIT     CODE           ?PR?SPI_IMU_INTCLOCK_STOPBLOCK?SPI_IMU_INTCLOCK
   *DEL*:           000002H   BYTE   UNIT     XDATA          ?XD?SPI_IMU_INTCLOCK_STOPBLOCK?SPI_IMU_INTCLOCK
   *DEL*:           000013H   BYTE   UNIT     CODE           ?PR?_SPI_IMU_INTCLOCK_STANDBYPOWER?SPI_IMU_INTCLOCK
   *DEL*:           000131H   BYTE   UNIT     CODE           ?PR?_SPI_IMU_INTCLOCK_SETDIVIDERREGISTER?SPI_IMU_INTCLOCK
   *DEL*:           000007H   BYTE   UNIT     XDATA          ?XD?_SPI_IMU_INTCLOCK_SETDIVIDERREGISTER?SPI_IMU_INTCLOCK
   *DEL*:           00000AH   BYTE   UNIT     CODE           ?PR?SPI_IMU_INTCLOCK_GETDIVIDERREGISTER?SPI_IMU_INTCLOCK
   *DEL*:           00000DH   BYTE   UNIT     CODE           ?PR?_SPI_IMU_INTCLOCK_SETMODEREGISTER?SPI_IMU_INTCLOCK
   *DEL*:           00000EH   BYTE   UNIT     CODE           ?PR?_SPI_IMU_INTCLOCK_CLEARMODEREGISTER?SPI_IMU_INTCLOCK
   *DEL*:           000008H   BYTE   UNIT     CODE           ?PR?SPI_IMU_INTCLOCK_GETMODEREGISTER?SPI_IMU_INTCLOCK
   *DEL*:           000062H   BYTE   UNIT     CODE           ?PR?_SPI_IMU_INTCLOCK_SETSOURCEREGISTER?SPI_IMU_INTCLOCK
   *DEL*:           000003H   BYTE   UNIT     XDATA          ?XD?_SPI_IMU_INTCLOCK_SETSOURCEREGISTER?SPI_IMU_INTCLOCK
   *DEL*:           000008H   BYTE   UNIT     CODE           ?PR?SPI_IMU_INTCLOCK_GETSOURCEREGISTER?SPI_IMU_INTCLOCK



OVERLAY MAP OF MODULE:   .\DP8051_Keil_951\Release\firmware.omf (COMMAND_PROCESSING)


FUNCTION/MODULE                                BIT_GROUP   DATA_GROUP   XDATA_GROUP
--> CALLED FUNCTION/MODULE                    START  STOP  START  STOP  START  STOP
===================================================================================
ISR_WATCHDOG_HANDLER/INTERRUPTIONS            ----- -----  ----- -----  ----- -----

*** NEW ROOT ********************************

ISR_RS485_RX_EXINTERRUPT/INTERRUPTIONS        ----- -----  ----- -----  ----- -----

*** NEW ROOT ********************************

ISR_RS485_RX_INTERRUPT/ISR_RS485_RX           ----- -----  ----- -----  ----- -----

*** NEW ROOT ********************************

?C_C51STARTUP                                 ----- -----  ----- -----  ----- -----
  +--> ?CO?KEILSTART?3
  +--> CYFITTER_CFG/CYFITTER_CFG
  +--> MAIN/MAIN
  +--> ?C_INITSEG

?CO?KEILSTART?3                               ----- -----  ----- -----  ----- -----

CYFITTER_CFG/CYFITTER_CFG                     ----- -----  ----- -----  ----- -----
  +--> CYREAD8/CYMEM
  +--> CYWRITE8/CYMEM
  +--> CFG_DMA_INIT/CYFITTER_CFG
  +--> _CYCONFIGCPY/CYMEM
  +--> ?CO?CYFITTER_CFG
  +--> CYCONFIGCPYCODE/CYMEM
  +--> CLOCKSETUP/CYFITTER_CFG
  +--> ANALOGSETDEFAULT/CYFITTER_CFG
LX51 LINKER/LOCATER V4.64.0.0                                                         06/15/2017  12:28:54  PAGE 12



CYREAD8/CYMEM                                 ----- -----  ----- -----  ----- -----

CYWRITE8/CYMEM                                ----- -----  ----- -----  ----- -----

CFG_DMA_INIT/CYFITTER_CFG                     ----- -----  ----- -----  ----- -----
  +--> CYWRITE16/CYMEM
  +--> ?CO?CYFITTER_CFG

CYWRITE16/CYMEM                               ----- -----  ----- -----  ----- -----

?CO?CYFITTER_CFG                              ----- -----  ----- -----  ----- -----

_CYCONFIGCPY/CYMEM                            ----- -----  ----- -----  0583H 058AH

CYCONFIGCPYCODE/CYMEM                         ----- -----  ----- -----  ----- -----

CLOCKSETUP/CYFITTER_CFG                       ----- -----  ----- -----  0583H 0587H
  +--> CYWRITE16/CYMEM
  +--> CYREAD8/CYMEM
  +--> CYDELAYCYCLES/CYBOOTASMKEIL
  +--> _CYCLOCKSTARTUPERROR/CYFITTER_CFG

CYDELAYCYCLES/CYBOOTASMKEIL                   ----- -----  ----- -----  ----- -----

_CYCLOCKSTARTUPERROR/CYFITTER_CFG             ----- -----  ----- -----  ----- -----

ANALOGSETDEFAULT/CYFITTER_CFG                 ----- -----  ----- -----  ----- -----
  +--> CYREAD8/CYMEM

MAIN/MAIN                                     ----- -----  ----- -----  0583H 0587H
  +--> EEPROM_START/EEPROM
  +--> MEMRECALL/COMMAND_PROCESSING
  +--> _?CYDELAY/CYLIB
  +--> _FTDI_ENABLE_REG_WRITE/FTDI_ENABLE_REG
  +--> UART_RS485_STOP/UART_RS485
  +--> UART_RS485_START/UART_RS485
  +--> UART_RS485_INIT/UART_RS485
  +--> UART_RS485_CLEARRXBUFFER/UART_RS485
  +--> UART_RS485_CLEARTXBUFFER/UART_RS485
  +--> _ISR_RS485_RX_STARTEX/ISR_RS485_RX
  +--> WATCHDOG_COUNTER_START/WATCHDOG_COUNTER
  +--> _ISR_WATCHDOG_STARTEX/ISR_WATCHDOG
  +--> _RS485_CTS_WRITE/RS485_CTS
  +--> MY_TIMER_START/MY_TIMER
  +--> PACER_TIMER_START/PACER_TIMER
  +--> SPI_IMU_START/SPI_IMU
  +--> SPI_IMU_INIT/SPI_IMU
  +--> SPI_IMU_ENABLE/SPI_IMU
  +--> SPI_IMU_CLEARRXBUFFER/SPI_IMU
  +--> SPI_IMU_CLEARTXBUFFER/SPI_IMU
  +--> SPI_IMU_CLEARFIFO/SPI_IMU
  +--> _OPTO_PIN_WRITE/OPTO_PIN
  +--> INITIMUGENERAL/IMU_FUNCTIONS
  +--> _RESET_FF_WRITE/RESET_FF
  +--> FUNCTION_SCHEDULER/INTERRUPTIONS
  +--> FF_STATUS_READ/FF_STATUS
  +--> _WATCHDOG_REFRESH_WRITE/WATCHDOG_REFRESH
  +--> INTERRUPT_MANAGER/INTERRUPTIONS
  +--> UART_RS485_READRXSTATUS/UART_RS485

EEPROM_START/EEPROM                           ----- -----  ----- -----  ----- -----
  +--> EEPROM_ENABLE/EEPROM

EEPROM_ENABLE/EEPROM                          ----- -----  ----- -----  ----- -----
LX51 LINKER/LOCATER V4.64.0.0                                                         06/15/2017  12:28:54  PAGE 13


  +--> CYSETTEMP/CYFLASH
  +--> CYEEPROM_START/CYFLASH

CYSETTEMP/CYFLASH                             ----- -----  ----- -----  058FH 058FH
  +--> CYFLASHGETSPCALGORITHM/CYFLASH
  +--> CYSETTEMPINT/CYFLASH

CYFLASHGETSPCALGORITHM/CYFLASH                ----- -----  ----- -----  0590H 0590H
  +--> CYSPCSTART/CYSPC
  +--> CYSPCLOCK/CYSPC
  +--> CYSPCGETALGORITHM/CYSPC
  +--> CYDELAYUS/CYBOOTASMKEIL
  +--> CYSPCUNLOCK/CYSPC

CYSPCSTART/CYSPC                              ----- -----  ----- -----  ----- -----
  +--> CYENTERCRITICALSECTION/CYBOOTASMKEIL
  +--> CYEXITCRITICALSECTION/CYBOOTASMKEIL

CYENTERCRITICALSECTION/CYBOOTASMKEIL          ----- -----  ----- -----  ----- -----

CYEXITCRITICALSECTION/CYBOOTASMKEIL           ----- -----  ----- -----  ----- -----

CYSPCLOCK/CYSPC                               ----- -----  ----- -----  0594H 0594H
  +--> CYENTERCRITICALSECTION/CYBOOTASMKEIL
  +--> CYEXITCRITICALSECTION/CYBOOTASMKEIL

CYSPCGETALGORITHM/CYSPC                       ----- -----  ----- -----  ----- -----

CYDELAYUS/CYBOOTASMKEIL                       ----- -----  ----- -----  ----- -----
  +--> CYDELAYCYCLES/CYBOOTASMKEIL

CYSPCUNLOCK/CYSPC                             ----- -----  ----- -----  ----- -----
  +--> CYENTERCRITICALSECTION/CYBOOTASMKEIL
  +--> CYEXITCRITICALSECTION/CYBOOTASMKEIL

CYSETTEMPINT/CYFLASH                          ----- -----  ----- -----  0590H 0590H
  +--> CYSPCSTART/CYSPC
  +--> CYSPCLOCK/CYSPC
  +--> _CYSPCGETTEMP/CYSPC
  +--> _CYSPCREADDATA/CYSPC
  +--> CYDELAYUS/CYBOOTASMKEIL
  +--> CYSPCUNLOCK/CYSPC

_CYSPCGETTEMP/CYSPC                           ----- -----  ----- -----  ----- -----

_CYSPCREADDATA/CYSPC                          ----- -----  ----- -----  0591H 0595H
  +--> CYDELAYUS/CYBOOTASMKEIL

CYEEPROM_START/CYFLASH                        ----- -----  ----- -----  ----- -----
  +--> CYENTERCRITICALSECTION/CYBOOTASMKEIL
  +--> CYEXITCRITICALSECTION/CYBOOTASMKEIL

MEMRECALL/COMMAND_PROCESSING                  ----- -----  ----- -----  ----- -----
  +--> MEMRESTORE/COMMAND_PROCESSING

MEMRESTORE/COMMAND_PROCESSING                 ----- -----  ----- -----  ----- -----
  +--> MEMINIT/COMMAND_PROCESSING
  +--> _MEMSTORE/COMMAND_PROCESSING

MEMINIT/COMMAND_PROCESSING                    ----- -----  ----- -----  ----- -----
  +--> _MEMSTORE/COMMAND_PROCESSING

_MEMSTORE/COMMAND_PROCESSING                  ----- -----  ----- -----  0588H 058EH
  +--> ISR_RS485_RX_DISABLE/ISR_RS485_RX
  +--> CYSETTEMP/CYFLASH
LX51 LINKER/LOCATER V4.64.0.0                                                         06/15/2017  12:28:54  PAGE 14


  +--> _EEPROM_WRITE/EEPROM
  +--> ISR_RS485_RX_ENABLE/ISR_RS485_RX

ISR_RS485_RX_DISABLE/ISR_RS485_RX             ----- -----  ----- -----  ----- -----

_EEPROM_WRITE/EEPROM                          ----- -----  ----- -----  058FH 0593H
  +--> CYSPCSTART/CYSPC
  +--> CYSPCLOCK/CYSPC
  +--> _CYSPCLOADROW/CYSPC
  +--> _CYSPCWRITEROW/CYSPC
  +--> CYSPCUNLOCK/CYSPC

_CYSPCLOADROW/CYSPC                           ----- -----  ----- -----  0594H 059AH

_CYSPCWRITEROW/CYSPC                          ----- -----  ----- -----  0594H 0598H

ISR_RS485_RX_ENABLE/ISR_RS485_RX              ----- -----  ----- -----  ----- -----

_?CYDELAY/CYLIB                               ----- -----  ----- -----  ----- -----
  +--> CYDELAYCYCLES/CYBOOTASMKEIL

_FTDI_ENABLE_REG_WRITE/FTDI_ENABLE_REG        ----- -----  ----- -----  ----- -----

UART_RS485_STOP/UART_RS485                    ----- -----  ----- -----  ----- -----
  +--> CYENTERCRITICALSECTION/CYBOOTASMKEIL
  +--> CYEXITCRITICALSECTION/CYBOOTASMKEIL

UART_RS485_START/UART_RS485                   ----- -----  ----- -----  ----- -----
  +--> UART_RS485_INIT/UART_RS485
  +--> UART_RS485_ENABLE/UART_RS485

UART_RS485_INIT/UART_RS485                    ----- -----  ----- -----  ----- -----
  +--> _CYINTSETVECTOR/CYLIB
  +--> _CYINTSETPRIORITY/CYLIB

_CYINTSETVECTOR/CYLIB                         ----- -----  ----- -----  0588H 058CH
  +--> CYREAD16/CYMEM
  +--> CYWRITE16/CYMEM

CYREAD16/CYMEM                                ----- -----  ----- -----  ----- -----

_CYINTSETPRIORITY/CYLIB                       ----- -----  ----- -----  ----- -----

UART_RS485_ENABLE/UART_RS485                  ----- -----  ----- -----  ----- -----
  +--> CYENTERCRITICALSECTION/CYBOOTASMKEIL
  +--> CYEXITCRITICALSECTION/CYBOOTASMKEIL

UART_RS485_CLEARRXBUFFER/UART_RS485           ----- -----  ----- -----  ----- -----
  +--> CYENTERCRITICALSECTION/CYBOOTASMKEIL
  +--> CYEXITCRITICALSECTION/CYBOOTASMKEIL

UART_RS485_CLEARTXBUFFER/UART_RS485           ----- -----  ----- -----  ----- -----
  +--> CYENTERCRITICALSECTION/CYBOOTASMKEIL
  +--> CYEXITCRITICALSECTION/CYBOOTASMKEIL

_ISR_RS485_RX_STARTEX/ISR_RS485_RX            ----- -----  ----- -----  0588H 0589H
  +--> ISR_RS485_RX_DISABLE/ISR_RS485_RX
  +--> _ISR_RS485_RX_SETVECTOR/ISR_RS485_RX
  +--> _ISR_RS485_RX_SETPRIORITY/ISR_RS485_RX
  +--> ISR_RS485_RX_ENABLE/ISR_RS485_RX

_ISR_RS485_RX_SETVECTOR/ISR_RS485_RX          ----- -----  ----- -----  ----- -----
  +--> CYWRITE16/CYMEM

_ISR_RS485_RX_SETPRIORITY/ISR_RS485_RX        ----- -----  ----- -----  ----- -----
LX51 LINKER/LOCATER V4.64.0.0                                                         06/15/2017  12:28:54  PAGE 15



WATCHDOG_COUNTER_START/WATCHDOG_COUNTER       ----- -----  ----- -----  ----- -----
  +--> WATCHDOG_COUNTER_INIT/WATCHDOG_COUNTER
  +--> WATCHDOG_COUNTER_ENABLE/WATCHDOG_COUNTER

WATCHDOG_COUNTER_INIT/WATCHDOG_COUNTER        ----- -----  ----- -----  ----- -----
  +--> _WATCHDOG_COUNTER_WRITEPERIOD/WATCHDOG_COUNTER
  +--> _WATCHDOG_COUNTER_WRITECOUNTER/WATCHDOG_COUNTER
  +--> _WATCHDOG_COUNTER_SETINTERRUPTMODE/WATCHDOG_COUNTER

_WATCHDOG_COUNTER_WRITEPERIOD/WATCHDOG_C+     ----- -----  ----- -----  ----- -----
... OUNTER
  +--> CYWRITE16/CYMEM

_WATCHDOG_COUNTER_WRITECOUNTER/WATCHDOG_+     ----- -----  ----- -----  ----- -----
... COUNTER
  +--> CYWRITE16/CYMEM

_WATCHDOG_COUNTER_SETINTERRUPTMODE/WATCH+     ----- -----  ----- -----  ----- -----
... DOG_COUNTER

WATCHDOG_COUNTER_ENABLE/WATCHDOG_COUNTER      ----- -----  ----- -----  ----- -----

_ISR_WATCHDOG_STARTEX/ISR_WATCHDOG            ----- -----  ----- -----  0588H 0589H
  +--> ISR_WATCHDOG_DISABLE/ISR_WATCHDOG
  +--> _ISR_WATCHDOG_SETVECTOR/ISR_WATCHDOG
  +--> _ISR_WATCHDOG_SETPRIORITY/ISR_WATCHDOG
  +--> ISR_WATCHDOG_ENABLE/ISR_WATCHDOG

ISR_WATCHDOG_DISABLE/ISR_WATCHDOG             ----- -----  ----- -----  ----- -----

_ISR_WATCHDOG_SETVECTOR/ISR_WATCHDOG          ----- -----  ----- -----  ----- -----
  +--> CYWRITE16/CYMEM

_ISR_WATCHDOG_SETPRIORITY/ISR_WATCHDOG        ----- -----  ----- -----  ----- -----

ISR_WATCHDOG_ENABLE/ISR_WATCHDOG              ----- -----  ----- -----  ----- -----

_RS485_CTS_WRITE/RS485_CTS                    ----- -----  ----- -----  ----- -----

MY_TIMER_START/MY_TIMER                       ----- -----  ----- -----  ----- -----
  +--> MY_TIMER_INIT/MY_TIMER
  +--> MY_TIMER_ENABLE/MY_TIMER

MY_TIMER_INIT/MY_TIMER                        ----- -----  ----- -----  ----- -----
  +--> _MY_TIMER_WRITEPERIOD/MY_TIMER
  +--> _MY_TIMER_WRITECOUNTER/MY_TIMER
  +--> CYENTERCRITICALSECTION/CYBOOTASMKEIL
  +--> CYEXITCRITICALSECTION/CYBOOTASMKEIL
  +--> MY_TIMER_CLEARFIFO/MY_TIMER
  +--> _MY_TIMER_SETINTERRUPTMODE/MY_TIMER

_MY_TIMER_WRITEPERIOD/MY_TIMER                ----- -----  ----- -----  ----- -----
  +--> CYWRITE24/CYMEM

CYWRITE24/CYMEM                               ----- -----  ----- -----  ----- -----

_MY_TIMER_WRITECOUNTER/MY_TIMER               ----- -----  ----- -----  ----- -----
  +--> CYWRITE24/CYMEM

MY_TIMER_CLEARFIFO/MY_TIMER                   ----- -----  ----- -----  ----- -----
  +--> MY_TIMER_READSTATUSREGISTER/MY_TIMER
  +--> MY_TIMER_READCAPTURE/MY_TIMER

MY_TIMER_READSTATUSREGISTER/MY_TIMER          ----- -----  ----- -----  ----- -----
LX51 LINKER/LOCATER V4.64.0.0                                                         06/15/2017  12:28:54  PAGE 16



MY_TIMER_READCAPTURE/MY_TIMER                 ----- -----  ----- -----  ----- -----
  +--> CYREAD24/CYMEM

CYREAD24/CYMEM                                ----- -----  ----- -----  ----- -----

_MY_TIMER_SETINTERRUPTMODE/MY_TIMER           ----- -----  ----- -----  ----- -----

MY_TIMER_ENABLE/MY_TIMER                      ----- -----  ----- -----  ----- -----

PACER_TIMER_START/PACER_TIMER                 ----- -----  ----- -----  ----- -----
  +--> PACER_TIMER_INIT/PACER_TIMER
  +--> PACER_TIMER_ENABLE/PACER_TIMER

PACER_TIMER_INIT/PACER_TIMER                  ----- -----  ----- -----  ----- -----
  +--> _PACER_TIMER_WRITEPERIOD/PACER_TIMER
  +--> _PACER_TIMER_WRITECOUNTER/PACER_TIMER
  +--> _PACER_TIMER_SETINTERRUPTMODE/PACER_TIMER

_PACER_TIMER_WRITEPERIOD/PACER_TIMER          ----- -----  ----- -----  ----- -----
  +--> CYWRITE16/CYMEM

_PACER_TIMER_WRITECOUNTER/PACER_TIMER         ----- -----  ----- -----  ----- -----
  +--> CYWRITE16/CYMEM

_PACER_TIMER_SETINTERRUPTMODE/PACER_TIME+     ----- -----  ----- -----  ----- -----
... R

PACER_TIMER_ENABLE/PACER_TIMER                ----- -----  ----- -----  ----- -----

SPI_IMU_START/SPI_IMU                         ----- -----  ----- -----  ----- -----
  +--> SPI_IMU_INIT/SPI_IMU
  +--> SPI_IMU_ENABLE/SPI_IMU

SPI_IMU_INIT/SPI_IMU                          ----- -----  ----- -----  ----- -----
  +--> SPI_IMU_CLEARFIFO/SPI_IMU
  +--> SPI_IMU_READTXSTATUS/SPI_IMU
  +--> SPI_IMU_READRXSTATUS/SPI_IMU

SPI_IMU_CLEARFIFO/SPI_IMU                     ----- -----  ----- -----  ----- -----
  +--> CYENTERCRITICALSECTION/CYBOOTASMKEIL
  +--> CYEXITCRITICALSECTION/CYBOOTASMKEIL

SPI_IMU_READTXSTATUS/SPI_IMU                  ----- -----  ----- -----  ----- -----

SPI_IMU_READRXSTATUS/SPI_IMU                  ----- -----  ----- -----  ----- -----

SPI_IMU_ENABLE/SPI_IMU                        ----- -----  ----- -----  ----- -----
  +--> CYENTERCRITICALSECTION/CYBOOTASMKEIL
  +--> CYEXITCRITICALSECTION/CYBOOTASMKEIL
  +--> SPI_IMU_INTCLOCK_START/SPI_IMU_INTCLOCK
  +--> SPI_IMU_ENABLETXINT/SPI_IMU
  +--> SPI_IMU_ENABLERXINT/SPI_IMU

SPI_IMU_INTCLOCK_START/SPI_IMU_INTCLOCK       ----- -----  ----- -----  ----- -----

SPI_IMU_ENABLETXINT/SPI_IMU                   ----- -----  ----- -----  ----- -----

SPI_IMU_ENABLERXINT/SPI_IMU                   ----- -----  ----- -----  ----- -----

SPI_IMU_CLEARRXBUFFER/SPI_IMU                 ----- -----  ----- -----  ----- -----

SPI_IMU_CLEARTXBUFFER/SPI_IMU                 ----- -----  ----- -----  ----- -----
  +--> CYENTERCRITICALSECTION/CYBOOTASMKEIL
  +--> CYEXITCRITICALSECTION/CYBOOTASMKEIL
LX51 LINKER/LOCATER V4.64.0.0                                                         06/15/2017  12:28:54  PAGE 17



_OPTO_PIN_WRITE/OPTO_PIN                      ----- -----  ----- -----  ----- -----

INITIMUGENERAL/IMU_FUNCTIONS                  ----- -----  ----- -----  0588H 05ADH
  +--> _CHIPSELECTOR/IMU_FUNCTIONS
  +--> _?CYDELAY/CYLIB
  +--> INITIMUMAGCAL/IMU_FUNCTIONS
  +--> _READMAGCAL/IMU_FUNCTIONS
  +--> _READCONTROLREGISTER/IMU_FUNCTIONS
  +--> _OPTO_PIN_WRITE/OPTO_PIN
  +--> INITIMU/IMU_FUNCTIONS

_CHIPSELECTOR/IMU_FUNCTIONS                   ----- -----  ----- -----  0A55H 0A56H
  +--> _CHIP_SELECT_A_WRITE/CHIP_SELECT_A
  +--> _CHIP_SELECT_B_WRITE/CHIP_SELECT_B

_CHIP_SELECT_A_WRITE/CHIP_SELECT_A            ----- -----  ----- -----  ----- -----

_CHIP_SELECT_B_WRITE/CHIP_SELECT_B            ----- -----  ----- -----  ----- -----

INITIMUMAGCAL/IMU_FUNCTIONS                   ----- -----  ----- -----  ----- -----
  +--> _WRITECONTROLREGISTER/IMU_FUNCTIONS
  +--> _?CYDELAY/CYLIB

_WRITECONTROLREGISTER/IMU_FUNCTIONS           ----- -----  ----- -----  05AEH 05AFH
  +--> SPI_IMU_CLEARRXBUFFER/SPI_IMU
  +--> SPI_IMU_CLEARTXBUFFER/SPI_IMU
  +--> SPI_IMU_CLEARFIFO/SPI_IMU
  +--> _SPI_IMU_WRITETXDATA/SPI_IMU
  +--> SPI_IMU_READSTATUS/SPI_IMU

_SPI_IMU_WRITETXDATA/SPI_IMU                  ----- -----  ----- -----  ----- -----

SPI_IMU_READSTATUS/SPI_IMU                    ----- -----  ----- -----  ----- -----

_READMAGCAL/IMU_FUNCTIONS                     ----- -----  ----- -----  05AEH 05B0H
  +--> _READCONTROLREGISTER/IMU_FUNCTIONS

_READCONTROLREGISTER/IMU_FUNCTIONS            ----- -----  ----- -----  ----- -----
  +--> _SPI_IMU_WRITETXDATA/SPI_IMU
  +--> SPI_IMU_READSTATUS/SPI_IMU
  +--> SPI_IMU_READRXDATA/SPI_IMU

SPI_IMU_READRXDATA/SPI_IMU                    ----- -----  ----- -----  ----- -----

INITIMU/IMU_FUNCTIONS                         ----- -----  ----- -----  ----- -----
  +--> _WRITECONTROLREGISTER/IMU_FUNCTIONS
  +--> _?CYDELAY/CYLIB

_RESET_FF_WRITE/RESET_FF                      ----- -----  ----- -----  ----- -----

FUNCTION_SCHEDULER/INTERRUPTIONS              ----- -----  ----- -----  ----- -----
  +--> MY_TIMER_READCOUNTER/MY_TIMER
  +--> INTERRUPT_MANAGER/INTERRUPTIONS
  +--> READALLIMUS/IMU_FUNCTIONS
  +--> _MY_TIMER_WRITECOUNTER/MY_TIMER

MY_TIMER_READCOUNTER/MY_TIMER                 ----- -----  ----- -----  ----- -----
  +--> CYREAD24/CYMEM

INTERRUPT_MANAGER/INTERRUPTIONS               20H.0 20H.0  0008H 0009H  ----- -----
  +--> UART_RS485_GETRXBUFFERSIZE/UART_RS485
  +--> UART_RS485_GETCHAR/UART_RS485
  +--> _INFOGET/COMMAND_PROCESSING
  +--> COMMPROCESS/COMMAND_PROCESSING
LX51 LINKER/LOCATER V4.64.0.0                                                         06/15/2017  12:28:54  PAGE 18


  +--> _RS485_CTS_WRITE/RS485_CTS

UART_RS485_GETRXBUFFERSIZE/UART_RS485         ----- -----  ----- -----  ----- -----

UART_RS485_GETCHAR/UART_RS485                 ----- -----  ----- -----  ----- -----

_INFOGET/COMMAND_PROCESSING                   ----- -----  ----- -----  ----- -----
  +--> _INFOPREPARE/COMMAND_PROCESSING
  +--> _UART_RS485_PUTSTRING/UART_RS485

_INFOPREPARE/COMMAND_PROCESSING               ----- -----  ----- -----  0588H 05F0H
  +--> ?CO?COMMAND_PROCESSING
  +--> _STRCAT/STRCAT
  +--> PRINTF/PRINTF

?CO?COMMAND_PROCESSING                        ----- -----  ----- -----  ----- -----

_STRCAT/STRCAT                                ----- -----  ----- -----  05F1H 05F9H

PRINTF/PRINTF                                 20H.1 21H.1  0014H 0018H  0A23H 0A52H
  +--> PUTCHAR/PUTCHAR

PUTCHAR/PUTCHAR                               ----- -----  ----- -----  ----- -----

_UART_RS485_PUTSTRING/UART_RS485              ----- -----  ----- -----  0588H 058AH
  +--> _UART_RS485_PUTCHAR/UART_RS485

_UART_RS485_PUTCHAR/UART_RS485                ----- -----  ----- -----  ----- -----

COMMPROCESS/COMMAND_PROCESSING                ----- -----  000AH 000AH  ----- -----
  +--> _LCRCHECKSUM/COMMAND_PROCESSING
  +--> CMD_ACTIVATE/COMMAND_PROCESSING
  +--> CMD_SET_INPUTS/COMMAND_PROCESSING
  +--> CMD_GET_MEASUREMENTS/COMMAND_PROCESSING
  +--> CMD_GET_CURRENTS/COMMAND_PROCESSING
  +--> CMD_GET_EMG/COMMAND_PROCESSING
  +--> CMD_SET_WATCHDOG/COMMAND_PROCESSING
  +--> CMD_GET_ACTIVATE/COMMAND_PROCESSING
  +--> CMD_SET_BAUDRATE/COMMAND_PROCESSING
  +--> CMD_GET_INPUTS/COMMAND_PROCESSING
  +--> _INFOGET/COMMAND_PROCESSING
  +--> SETZEROS/COMMAND_PROCESSING
  +--> _GET_PARAM_LIST/COMMAND_PROCESSING
  +--> CMD_PING/COMMAND_PROCESSING
  +--> CMD_STORE_PARAMS/COMMAND_PROCESSING
  +--> _MEMSTORE/COMMAND_PROCESSING
  +--> _SENDACKNOWLEDGMENT/COMMAND_PROCESSING
  +--> MEMRESTORE/COMMAND_PROCESSING
  +--> MEMINIT/COMMAND_PROCESSING
  +--> _?CYDELAY/CYLIB
  +--> _FTDI_ENABLE_REG_WRITE/FTDI_ENABLE_REG
  +--> BOOTLOADABLE_LOAD/BOOTLOADABLE
  +--> CMD_GET_IMU_READINGS/COMMAND_PROCESSING

_LCRCHECKSUM/COMMAND_PROCESSING               ----- -----  0014H 0015H  0A23H 0A25H

CMD_ACTIVATE/COMMAND_PROCESSING               ----- -----  ----- -----  ----- -----

CMD_SET_INPUTS/COMMAND_PROCESSING             ----- -----  ----- -----  ----- -----

CMD_GET_MEASUREMENTS/COMMAND_PROCESSING       ----- -----  ----- -----  ----- -----

CMD_GET_CURRENTS/COMMAND_PROCESSING           ----- -----  ----- -----  ----- -----

CMD_GET_EMG/COMMAND_PROCESSING                ----- -----  ----- -----  ----- -----
LX51 LINKER/LOCATER V4.64.0.0                                                         06/15/2017  12:28:54  PAGE 19



CMD_SET_WATCHDOG/COMMAND_PROCESSING           ----- -----  ----- -----  ----- -----
  +--> _WATCHDOG_ENABLER_WRITE/WATCHDOG_ENABLER
  +--> _WATCHDOG_COUNTER_WRITEPERIOD/WATCHDOG_COUNTER

_WATCHDOG_ENABLER_WRITE/WATCHDOG_ENABLER      ----- -----  ----- -----  ----- -----

CMD_GET_ACTIVATE/COMMAND_PROCESSING           ----- -----  ----- -----  ----- -----

CMD_SET_BAUDRATE/COMMAND_PROCESSING           ----- -----  ----- -----  ----- -----
  +--> _CLOCK_UART_SETDIVIDERREGISTER/CLOCK_UART

_CLOCK_UART_SETDIVIDERREGISTER/CLOCK_UAR+     ----- -----  ----- -----  0588H 058EH
... T
  +--> CLOCK_UART_GETSOURCEREGISTER/CLOCK_UART
  +--> CLOCK_UART_GETDIVIDERREGISTER/CLOCK_UART
  +--> CYWRITE16/CYMEM

CLOCK_UART_GETSOURCEREGISTER/CLOCK_UART       ----- -----  ----- -----  ----- -----

CLOCK_UART_GETDIVIDERREGISTER/CLOCK_UART      ----- -----  ----- -----  ----- -----
  +--> CYREAD16/CYMEM

CMD_GET_INPUTS/COMMAND_PROCESSING             ----- -----  ----- -----  ----- -----

SETZEROS/COMMAND_PROCESSING                   ----- -----  ----- -----  ----- -----

_GET_PARAM_LIST/COMMAND_PROCESSING            ----- -----  000BH 0013H  0588H 0A22H
  +--> ?CO?COMMAND_PROCESSING
  +--> _STRLEN/STRLEN
  +--> PRINTF/PRINTF
  +--> _LCRCHECKSUM/COMMAND_PROCESSING
  +--> _COMMWRITE/COMMAND_PROCESSING
  +--> UART_RS485_CLEARTXBUFFER/UART_RS485

_STRLEN/STRLEN                                ----- -----  ----- -----  ----- -----

_COMMWRITE/COMMAND_PROCESSING                 ----- -----  0014H 0015H  0A23H 0A27H
  +--> _UART_RS485_PUTCHAR/UART_RS485
  +--> UART_RS485_READTXSTATUS/UART_RS485
  +--> _RS485_CTS_WRITE/RS485_CTS

UART_RS485_READTXSTATUS/UART_RS485            ----- -----  ----- -----  ----- -----

CMD_PING/COMMAND_PROCESSING                   ----- -----  ----- -----  0588H 0589H
  +--> _COMMWRITE/COMMAND_PROCESSING

CMD_STORE_PARAMS/COMMAND_PROCESSING           ----- -----  ----- -----  ----- -----
  +--> _MEMSTORE/COMMAND_PROCESSING
  +--> _SENDACKNOWLEDGMENT/COMMAND_PROCESSING

_SENDACKNOWLEDGMENT/COMMAND_PROCESSING        ----- -----  ----- -----  0588H 0589H
  +--> _COMMWRITE/COMMAND_PROCESSING

BOOTLOADABLE_LOAD/BOOTLOADABLE                ----- -----  ----- -----  ----- -----
  +--> CYSOFTWARERESET/CYLIB

CYSOFTWARERESET/CYLIB                         ----- -----  ----- -----  ----- -----

CMD_GET_IMU_READINGS/COMMAND_PROCESSING       ----- -----  ----- -----  0588H 06FFH
  +--> _LCRCHECKSUM/COMMAND_PROCESSING
  +--> _COMMWRITE/COMMAND_PROCESSING

READALLIMUS/IMU_FUNCTIONS                     ----- -----  ----- -----  0588H 0589H
  +--> _CHIPSELECTOR/IMU_FUNCTIONS
LX51 LINKER/LOCATER V4.64.0.0                                                         06/15/2017  12:28:54  PAGE 20


  +--> _READIMU/IMU_FUNCTIONS

_READIMU/IMU_FUNCTIONS                        ----- -----  ----- -----  0A55H 0A56H
  +--> _READACC/IMU_FUNCTIONS
  +--> _READGYRO/IMU_FUNCTIONS
  +--> _READMAG/IMU_FUNCTIONS
  +--> _READTEMP/IMU_FUNCTIONS

_READACC/IMU_FUNCTIONS                        ----- -----  ----- -----  0A57H 0A5AH
  +--> _READCONTROLREGISTER/IMU_FUNCTIONS

_READGYRO/IMU_FUNCTIONS                       ----- -----  ----- -----  0A57H 0A5AH
  +--> _READCONTROLREGISTER/IMU_FUNCTIONS

_READMAG/IMU_FUNCTIONS                        ----- -----  ----- -----  0A57H 0A5AH
  +--> _READCONTROLREGISTER/IMU_FUNCTIONS

_READTEMP/IMU_FUNCTIONS                       ----- -----  ----- -----  0A57H 0A5AH
  +--> _READCONTROLREGISTER/IMU_FUNCTIONS

FF_STATUS_READ/FF_STATUS                      ----- -----  ----- -----  ----- -----

_WATCHDOG_REFRESH_WRITE/WATCHDOG_REFRESH      ----- -----  ----- -----  ----- -----

UART_RS485_READRXSTATUS/UART_RS485            ----- -----  ----- -----  ----- -----

?C_INITSEG                                    ----- -----  ----- -----  ----- -----

*** NEW ROOT ********************************

ISR_WATCHDOG_INTERRUPT/ISR_WATCHDOG           ----- -----  ----- -----  ----- -----

*** NEW ROOT ********************************

ISR_IMU_INTERRUPT/ISR_IMU                     ----- -----  ----- -----  0A53H 0A54H
  +--> _CHIPSELECTOR/IMU_FUNCTIONS
  +--> _READIMU/IMU_FUNCTIONS

*** NEW ROOT ********************************

UART_RS485_RXISR/UART_RS485_INT               ----- -----  ----- -----  ----- -----



PUBLIC SYMBOLS OF MODULE:  .\DP8051_Keil_951\Release\firmware.omf (COMMAND_PROCESSING)


      VALUE       CLASS    TYPE      PUBLIC SYMBOL NAME
      =================================================
*DEL*:00000000H   XDATA    BYTE      ?_Bootloadable_SetFlashByte?BYTE
*DEL*:00000000H   XDATA    BYTE      ?_calc_turns_fcn?BYTE
      02000583H   XDATA    BYTE      ?_cyconfigcpy?BYTE
*DEL*:00000000H   XDATA    BYTE      ?_CySpcLoadMultiByte?BYTE
      02000594H   XDATA    BYTE      ?_CySpcLoadRow?BYTE
*DEL*:00000000H   XDATA    BYTE      ?_CySpcLoadRowFull?BYTE
      02000594H   XDATA    BYTE      ?_CySpcWriteRow?BYTE
*DEL*:00000000H   XDATA    BYTE      ?_CyWriteRowFull?BYTE
*DEL*:00000000H   XDATA    BYTE      ?_my_mod?BYTE
      02000A23H   XDATA    ---       ?_PRINTF?BYTE
      02000A23H   XDATA    ---       ?_SPRINTF?BYTE
      020005F1H   XDATA    ---       ?_strcat?BYTE
      01002DF2H   CODE     ---       ?C?ADDXBP
      0100278BH   CODE     ---       ?C?CASTF
      01002DCCH   CODE     ---       ?C?CCASE
      01002B7DH   CODE     ---       ?C?CLDOPTR
LX51 LINKER/LOCATER V4.64.0.0                                                         06/15/2017  12:28:54  PAGE 21


      01002B64H   CODE     ---       ?C?CLDPTR
      00000000H   NUMBER   ---       ?C?CODESEG
      01002F2BH   CODE     ---       ?C?COPYAMD
      01002BAAH   CODE     ---       ?C?CSTPTR
      01002621H   CODE     ---       ?C?FPADD
      01002714H   CODE     ---       ?C?FPCMP
      01002712H   CODE     ---       ?C?FPCMP3
      01002849H   CODE     ---       ?C?FPCONVERT
      01002A57H   CODE     ---       ?C?FPDIV
      010027C2H   CODE     ---       ?C?FPGETOPN2
      0100294EH   CODE     ---       ?C?FPMUL
      010027F7H   CODE     ---       ?C?FPNANRESULT
      01002801H   CODE     ---       ?C?FPOVERFLOW
      010027D9H   CODE     ---       ?C?FPRESULT
      010027EDH   CODE     ---       ?C?FPRESULT2
      0100280CH   CODE     ---       ?C?FPROUND
      0100261DH   CODE     ---       ?C?FPSUB
      010027FEH   CODE     ---       ?C?FPUNDERFLOW
      01002B24H   CODE     ---       ?C?FTNPWR
      01003026H   CODE     ---       ?C?IILDX
      0100303CH   CODE     ---       ?C?ILDIX
      01002BBCH   CODE     ---       ?C?IMUL
      01002E16H   CODE     ---       ?C?LIMUL
      01003076H   CODE     ---       ?C?LLDCODE
      01003052H   CODE     ---       ?C?LLDIDATA
      0100306AH   CODE     ---       ?C?LLDPDATA
      01002D5AH   CODE     ---       ?C?LLDPTR
      0100305EH   CODE     ---       ?C?LLDXDATA
      01002BCEH   CODE     ---       ?C?LMUL
      01002CEBH   CODE     ---       ?C?LNEG
      01002D47H   CODE     ---       ?C?LSHL
      01003086H   CODE     ---       ?C?LSTIDATA
      01003092H   CODE     ---       ?C?LSTPDATA
      01002D7AH   CODE     ---       ?C?LSTPTR
      01002D94H   CODE     ---       ?C?LSTXDATA
      01002E43H   CODE     ---       ?C?MEMSET
      01002DA0H   CODE     ---       ?C?OFFXADD
      01002DACH   CODE     ---       ?C?PLDIXDATA
      01002DC3H   CODE     ---       ?C?PSTXDATA
      01002CF9H   CODE     ---       ?C?SLCMP
      01006E4EH   CODE     ---       ?C?SLDIV
      01002D33H   CODE     ---       ?C?SLSHR
      01003009H   CODE     ---       ?C?STRCPYAMD
      01002D0FH   CODE     ---       ?C?ULCMP
      01002C59H   CODE     ---       ?C?ULDIV
      01002D20H   CODE     ---       ?C?ULSHR
      00000000H   NUMBER   ---       ?C?XDATASEG
      00000000H   NUMBER   ---       ?C?XPAGE1RST
      00000093H   DATA     BYTE      ?C?XPAGE1SFR
      01005D45H   CODE     ---       ?C_START
      01002600H   CODE     NEAR LAB  ?C_STARTUP
      00000022H   DATA     ---       ?C_XBP
      01006836H   CODE     ---       _?CyDelay
*DEL*:00000000H   CODE     ---       _?CyDelayFreq
*DEL*:00000000H   CODE     ---       _?CyHalt
*DEL*:00000000H   CODE     ---       _Bootloadable_SetFlashByte
*DEL*:00000000H   CODE     ---       _calc_turns_fcn
*DEL*:00000000H   CODE     NEAR LAB  _cfg_write_bytes
*DEL*:00000000H   CODE     NEAR LAB  _cfg_write_bytes_code
*DEL*:00000000H   CODE     ---       _check_enc_data
      010076FAH   CODE     ---       _Chip_Select_A_Write
      01007700H   CODE     ---       _Chip_Select_B_Write
      01006D7AH   CODE     ---       _ChipSelector
*DEL*:00000000H   CODE     ---       _CLOCK_UART_ClearModeRegister
      010058F8H   CODE     ---       _CLOCK_UART_SetDividerRegister
LX51 LINKER/LOCATER V4.64.0.0                                                         06/15/2017  12:28:54  PAGE 22


*DEL*:00000000H   CODE     ---       _CLOCK_UART_SetModeRegister
*DEL*:00000000H   CODE     ---       _CLOCK_UART_SetSourceRegister
*DEL*:00000000H   CODE     ---       _CLOCK_UART_StandbyPower
      01006720H   CODE     ---       _commWrite
*DEL*:00000000H   CODE     ---       _CyBusClk_SetDivider
      01006F7BH   CODE     NEAR LAB  _cyconfigcpy
      010071ACH   CODE     NEAR LAB  _cyconfigcpycode
*DEL*:00000000H   CODE     ---       _CyCpuClk_SetDivider
*DEL*:00000000H   CODE     NEAR LAB  _CyDelay
      01007000H   CODE     NEAR LAB  _CyDelayCycles
      0100712CH   CODE     NEAR LAB  _CyDelayUs
*DEL*:00000000H   CODE     ---       _CyEnableInts
      01007396H   CODE     NEAR LAB  _CyExitCriticalSection
*DEL*:00000000H   CODE     ---       _CyFlash_SetWaitCycles
*DEL*:00000000H   CODE     ---       _CyGetUniqueId
*DEL*:00000000H   CODE     ---       _CyILO_SetPowerMode
*DEL*:00000000H   CODE     ---       _CyILO_SetSource
*DEL*:00000000H   CODE     ---       _CyIMO_SetFreq
*DEL*:00000000H   CODE     ---       _CyIMO_SetSource
*DEL*:00000000H   CODE     ---       _CyIMO_Start
*DEL*:00000000H   CODE     ---       _CyIntGetPriority
*DEL*:00000000H   CODE     ---       _CyIntGetState
*DEL*:00000000H   CODE     ---       _CyIntGetVector
      0100734CH   CODE     ---       _CyIntSetPriority
      01006BE6H   CODE     ---       _CyIntSetVector
*DEL*:00000000H   CODE     ---       _CyMasterClk_SetDivider
*DEL*:00000000H   CODE     ---       _CyMasterClk_SetSource
*DEL*:00000000H   CODE     NEAR LAB  _cymemzero
*DEL*:00000000H   CODE     ---       _CyPLL_OUT_SetPQ
*DEL*:00000000H   CODE     ---       _CyPLL_OUT_SetSource
*DEL*:00000000H   CODE     ---       _CyPLL_OUT_Start
*DEL*:00000000H   CODE     ---       _CyPmAltAct
*DEL*:00000000H   CODE     ---       _CyPmCtwSetInterval
*DEL*:00000000H   CODE     ---       _CyPmFtwSetInterval
*DEL*:00000000H   CODE     ---       _CyPmHibernateEx
*DEL*:00000000H   CODE     ---       _CyPmReadStatus
*DEL*:00000000H   CODE     ---       _CyPmSleep
      01007567H   CODE     NEAR LAB  _cyread16
      01007569H   CODE     NEAR LAB  _cyread16_nodpx
      010074E1H   CODE     NEAR LAB  _cyread24
      010074E3H   CODE     NEAR LAB  _cyread24_nodpx
*DEL*:00000000H   CODE     NEAR LAB  _cyread32
*DEL*:00000002H   CODE     NEAR LAB  _cyread32_nodpx
      01007601H   CODE     NEAR LAB  _cyread8
      01007603H   CODE     NEAR LAB  _cyread8_nodpx
*DEL*:00000000H   CODE     ---       _CySetFlashEEBuffer
*DEL*:00000000H   CODE     ---       _CySpcEraseSector
      010070FDH   CODE     ---       _CySpcGetTemp
*DEL*:00000000H   CODE     ---       _CySpcLoadMultiByte
      01006942H   CODE     ---       _CySpcLoadRow
*DEL*:00000000H   CODE     ---       _CySpcLoadRowFull
      01006A81H   CODE     ---       _CySpcReadData
      01006C3AH   CODE     ---       _CySpcWriteRow
*DEL*:00000000H   CODE     ---       _CyUsbClk_SetSource
*DEL*:00000000H   CODE     ---       _CyVdLvAnalogEnable
*DEL*:00000000H   CODE     ---       _CyVdLvDigitEnable
*DEL*:00000000H   CODE     ---       _CyVdStickyStatus
*DEL*:00000000H   CODE     ---       _CyWdtStart
      01007576H   CODE     NEAR LAB  _cywrite16
      01007578H   CODE     NEAR LAB  _cywrite16_nodpx
      01007518H   CODE     NEAR LAB  _cywrite24
      0100751AH   CODE     NEAR LAB  _cywrite24_nodpx
*DEL*:00000000H   CODE     NEAR LAB  _cywrite32
*DEL*:00000002H   CODE     NEAR LAB  _cywrite32_nodpx
      0100760DH   CODE     NEAR LAB  _cywrite8
LX51 LINKER/LOCATER V4.64.0.0                                                         06/15/2017  12:28:54  PAGE 23


      0100760FH   CODE     NEAR LAB  _cywrite8_nodpx
*DEL*:00000000H   CODE     ---       _CyWriteRowData
*DEL*:00000000H   CODE     ---       _CyWriteRowFull
*DEL*:00000000H   CODE     ---       _CyXTAL_32KHZ_SetPowerMode
*DEL*:00000000H   CODE     ---       _CyXTAL_SetFbVoltage
*DEL*:00000000H   CODE     ---       _CyXTAL_SetStartup
*DEL*:00000000H   CODE     ---       _CyXTAL_SetWdVoltage
*DEL*:00000000H   CODE     ---       _CyXTAL_Start
      01002604H   CODE     NEAR LAB  _dma_wait
*DEL*:00000000H   CODE     ---       _EEPROM_ByteWritePos
*DEL*:00000000H   CODE     ---       _EEPROM_EraseSector
*DEL*:00000000H   CODE     ---       _EEPROM_ReadByte
*DEL*:00000000H   CODE     ---       _EEPROM_StartErase
*DEL*:00000000H   CODE     ---       _EEPROM_StartWrite
      01006363H   CODE     ---       _EEPROM_Write
*DEL*:00000000H   CODE     ---       _EEPROM_WriteByte
*DEL*:00000000H   CODE     ---       _FF_STATUS_WriteMask
*DEL*:00000000H   CODE     ---       _filter_ch1
*DEL*:00000000H   CODE     ---       _filter_ch2
*DEL*:00000000H   CODE     ---       _filter_i1
*DEL*:00000000H   CODE     ---       _filter_v
      010076B8H   CODE     ---       _FTDI_ENABLE_REG_Write
      010038B7H   CODE     ---       _get_param_list
      01007333H   CODE     ---       _infoGet
      0100309EH   CODE     ---       _infoPrepare
*DEL*:00000000H   CODE     ---       _isr_imu_SetPriority
*DEL*:00000000H   CODE     ---       _isr_imu_SetVector
*DEL*:00000000H   CODE     ---       _isr_imu_StartEx
      01007625H   CODE     ---       _ISR_RS485_RX_SetPriority
      01007594H   CODE     ---       _ISR_RS485_RX_SetVector
      0100729FH   CODE     ---       _ISR_RS485_RX_StartEx
      01007661H   CODE     ---       _ISR_WATCHDOG_SetPriority
      010075BEH   CODE     ---       _ISR_WATCHDOG_SetVector
      010072BEH   CODE     ---       _ISR_WATCHDOG_StartEx
      0100703BH   CODE     ---       _LCRChecksum
      01006673H   CODE     ---       _memStore
*DEL*:00000000H   CODE     ---       _my_mod
*DEL*:00000000H   CODE     ---       _my_round
      010076CAH   CODE     ---       _MY_TIMER_SetInterruptMode
*DEL*:00000000H   CODE     ---       _MY_TIMER_WriteControlRegister
      01007657H   CODE     ---       _MY_TIMER_WriteCounter
      01007643H   CODE     ---       _MY_TIMER_WritePeriod
*DEL*:00000000H   CODE     ---       _Opto_Pin_SetDriveMode
      0100752AH   CODE     ---       _Opto_Pin_Write
      010076ACH   CODE     ---       _PACER_TIMER_SetInterruptMode
*DEL*:00000000H   CODE     ---       _PACER_TIMER_WriteControlRegister
      010075B0H   CODE     ---       _PACER_TIMER_WriteCounter
      010075A2H   CODE     ---       _PACER_TIMER_WritePeriod
      01004601H   CODE     ---       _PRINTF
      01007185H   CODE     ---       _PUTCHAR
      01005E95H   CODE     ---       _ReadAcc
      010073AEH   CODE     ---       _ReadControlRegister
      01005F90H   CODE     ---       _ReadGyro
      010067ADH   CODE     ---       _ReadIMU
      0100608BH   CODE     ---       _ReadMag
      010068BEH   CODE     ---       _ReadMagCal
      01006B92H   CODE     ---       _ReadTemp
      010076BEH   CODE     ---       _RESET_FF_Write
      010076B2H   CODE     ---       _RS485_CTS_Write
      010073F1H   CODE     ---       _sendAcknowledgment
*DEL*:00000000H   CODE     ---       _SetAnalogRoutingPumps
*DEL*:00000000H   CODE     ---       _SPI_IMU_IntClock_ClearModeRegister
*DEL*:00000000H   CODE     ---       _SPI_IMU_IntClock_SetDividerRegister
*DEL*:00000000H   CODE     ---       _SPI_IMU_IntClock_SetModeRegister
*DEL*:00000000H   CODE     ---       _SPI_IMU_IntClock_SetSourceRegister
LX51 LINKER/LOCATER V4.64.0.0                                                         06/15/2017  12:28:54  PAGE 24


*DEL*:00000000H   CODE     ---       _SPI_IMU_IntClock_StandbyPower
*DEL*:00000000H   CODE     ---       _SPI_IMU_PutArray
*DEL*:00000000H   CODE     ---       _SPI_IMU_SetInterruptMode
*DEL*:00000000H   CODE     ---       _SPI_IMU_SetRxInterruptMode
*DEL*:00000000H   CODE     ---       _SPI_IMU_SetTxInterruptMode
      010075F4H   CODE     ---       _SPI_IMU_WriteTxData
      010045FBH   CODE     ---       _SPRINTF
      010069B5H   CODE     ---       _strcat
      01007445H   CODE     ---       _STRLEN
*DEL*:00000000H   CODE     ---       _UART_RS485_PutArray
      010075DAH   CODE     ---       _UART_RS485_PutChar
*DEL*:00000000H   CODE     ---       _UART_RS485_PutCRLF
      01006F47H   CODE     ---       _UART_RS485_PutString
*DEL*:00000000H   CODE     ---       _UART_RS485_SendBreak
*DEL*:00000000H   CODE     ---       _UART_RS485_SetRxAddress1
*DEL*:00000000H   CODE     ---       _UART_RS485_SetRxAddress2
*DEL*:00000000H   CODE     ---       _UART_RS485_SetRxAddressMode
*DEL*:00000000H   CODE     ---       _UART_RS485_SetRxInterruptMode
*DEL*:00000000H   CODE     ---       _UART_RS485_SetTxAddressMode
*DEL*:00000000H   CODE     ---       _UART_RS485_SetTxInterruptMode
*DEL*:00000000H   CODE     ---       _UART_RS485_WriteControlRegister
*DEL*:00000000H   CODE     ---       _UART_RS485_WriteTxData
      010076D6H   CODE     ---       _WATCHDOG_COUNTER_SetInterruptMode
*DEL*:00000000H   CODE     ---       _WATCHDOG_COUNTER_WriteControlRegister
      010072FCH   CODE     ---       _WATCHDOG_COUNTER_WriteCounter
      010075CCH   CODE     ---       _WATCHDOG_COUNTER_WritePeriod
      010076DCH   CODE     ---       _WATCHDOG_ENABLER_Write
      010076E2H   CODE     ---       _WATCHDOG_REFRESH_Write
      0100709EH   CODE     ---       _WriteControlRegister
*SFR* 000000D0H.6 DATA     BIT       AC
*SFR* 000000E0H   DATA     BYTE      ACC
      020004C0H   XDATA    ---       Accel
      02000528H   XDATA    ---       ADC_buf
*SFR* 000000F0H   DATA     BYTE      B
      01007639H   CODE     ---       Bootloadable_Load
      02000000H   XDATA    ---       c_mem
*DEL*:00000000H   CODE     ---       calibration
*DEL*:00000000H   CODE     ---       Chip_Select_A_Read
*DEL*:00000000H   CODE     ---       Chip_Select_B_Read
      0100762FH   CODE     ---       CLOCK_UART_GetDividerRegister
*DEL*:00000000H   CODE     ---       CLOCK_UART_GetModeRegister
      0100766BH   CODE     ---       CLOCK_UART_GetSourceRegister
*DEL*:00000000H   CODE     ---       CLOCK_UART_Start
*DEL*:00000000H   CODE     ---       CLOCK_UART_Stop
*DEL*:00000000H   CODE     ---       CLOCK_UART_StopBlock
      01007714H   CODE     ---       cmd_activate
      01007715H   CODE     ---       cmd_get_activate
*DEL*:00000000H   CODE     ---       cmd_get_curr_and_meas
      01007716H   CODE     ---       cmd_get_currents
      01007718H   CODE     ---       cmd_get_emg
      0100548BH   CODE     ---       cmd_get_imu_readings
      01007717H   CODE     ---       cmd_get_inputs
      0100712BH   CODE     ---       cmd_get_measurements
      0100745AH   CODE     ---       cmd_ping
      0100725FH   CODE     ---       cmd_set_baudrate
      01007713H   CODE     ---       cmd_set_inputs
      01006E92H   CODE     ---       cmd_set_watchdog
      01007406H   CODE     ---       cmd_store_params
      01005B4FH   CODE     ---       commProcess
*SFR* 000000D0H.7 DATA     BIT       CY
      02001126H   XDATA    DWORD     cydelay_32k_ms
      02001121H   XDATA    DWORD     cydelay_freq_hz
      0200111CH   XDATA    DWORD     cydelay_freq_khz
      02001120H   XDATA    BYTE      cydelay_freq_mhz
*DEL*:00000000H   CODE     ---       CyDisableInts
LX51 LINKER/LOCATER V4.64.0.0                                                         06/15/2017  12:28:54  PAGE 25


*DEL*:00000000H   CODE     ---       CyEEPROM_ReadRelease
*DEL*:00000000H   CODE     ---       CyEEPROM_ReadReserve
      0100706DH   CODE     ---       CyEEPROM_Start
*DEL*:00000000H   CODE     ---       CyEEPROM_Stop
      0100741BH   CODE     NEAR LAB  CyEnterCriticalSection
      01005D8AH   CODE     ---       cyfitter_cfg
*DEL*:00000000H   CODE     ---       CyFlash_Start
*DEL*:00000000H   CODE     ---       CyFlash_Stop
*DEL*:00000000H   CODE     ---       CyILO_Disable33K
*DEL*:00000000H   CODE     ---       CyILO_Enable33K
*DEL*:00000000H   CODE     ---       CyILO_Start100K
*DEL*:00000000H   CODE     ---       CyILO_Start1K
*DEL*:00000000H   CODE     ---       CyILO_Stop100K
*DEL*:00000000H   CODE     ---       CyILO_Stop1K
*DEL*:00000000H   CODE     ---       CyIMO_DisableDoubler
*DEL*:00000000H   CODE     ---       CyIMO_EnableDoubler
*DEL*:00000000H   CODE     ---       CyIMO_Stop
*DEL*:00000000H   CODE     ---       CyPLL_OUT_Stop
*DEL*:00000000H   CODE     ---       CyPmHibernate
*DEL*:00000000H   CODE     ---       CyPmOppsSet
*DEL*:00000000H   CODE     ---       CyPmRestoreClocks
*DEL*:00000000H   CODE     ---       CyPmSaveClocks
      02001125H   XDATA    BYTE      CyResetStatus
      0100737EH   CODE     ---       CySetTemp
      0100767BH   CODE     ---       CySoftwareReset
      01007318H   CODE     ---       CySpcGetAlgorithm
      010072DDH   CODE     ---       CySpcLock
      01007430H   CODE     ---       CySpcStart
*DEL*:00000000H   CODE     ---       CySpcStop
      01007619H   CODE     ---       CySpcUnlock
*DEL*:00000000H   CODE     ---       CyVdHvAnalogDisable
*DEL*:00000000H   CODE     ---       CyVdHvAnalogEnable
*DEL*:00000000H   CODE     ---       CyVdLvAnalogDisable
*DEL*:00000000H   CODE     ---       CyVdLvDigitDisable
*DEL*:00000000H   CODE     ---       CyVdRealTimeStatus
*DEL*:00000000H   CODE     ---       CyWdtClear
*DEL*:00000000H   CODE     ---       CyXTAL_32KHZ_ReadStatus
*DEL*:00000000H   CODE     ---       CyXTAL_32KHZ_Start
*DEL*:00000000H   CODE     ---       CyXTAL_32KHZ_Stop
*DEL*:00000000H   CODE     ---       CyXTAL_DisableErrStatus
*DEL*:00000000H   CODE     ---       CyXTAL_DisableFaultRecovery
*DEL*:00000000H   CODE     ---       CyXTAL_EnableErrStatus
*DEL*:00000000H   CODE     ---       CyXTAL_EnableFaultRecovery
*DEL*:00000000H   CODE     ---       CyXTAL_ReadStatus
*DEL*:00000000H   CODE     ---       CyXTAL_Stop
      02000582H   XDATA    BYTE      dev_pwm_limit
      02000273H   XDATA    LONG      dev_tension
      0200112DH   XDATA    ---       dieTemperature
*SFR* 00000083H   DATA     BYTE      DPH
*SFR* 00000085H   DATA     BYTE      DPH1
*SFR* 00000082H   DATA     BYTE      DPL
*SFR* 00000084H   DATA     BYTE      DPL1
*SFR* 00000086H   DATA     BYTE      DPS
*SFR* 00000093H   DATA     BYTE      DPX
*SFR* 00000095H   DATA     BYTE      DPX1
*SFR* 000000A8H.7 DATA     BIT       EA
      02000EA7H   XDATA    ---       EEPROM_ADDR
      01007691H   CODE     ---       EEPROM_Enable
*DEL*:00000000H   CODE     ---       EEPROM_Query
      01007706H   CODE     ---       EEPROM_Start
*DEL*:00000000H   CODE     ---       EEPROM_Stop
*DEL*:00000000H   CODE     ---       EEPROM_UpdateTemperature
*SFR* 000000D0H.5 DATA     BIT       F0
*SFR* 000000D0H.1 DATA     BIT       F1
*DEL*:00000000H   CODE     ---       FF_STATUS_InterruptDisable
LX51 LINKER/LOCATER V4.64.0.0                                                         06/15/2017  12:28:54  PAGE 26


*DEL*:00000000H   CODE     ---       FF_STATUS_InterruptEnable
      010076C4H   CODE     ---       FF_STATUS_Read
*DEL*:00000000H   CODE     ---       FF_STATUS_ReadMask
      02000580H   XDATA    INT       frsAccReg
      02000019H   XDATA    INT       frsGyroReg
*DEL*:00000000H   CODE     ---       FTDI_ENABLE_REG_Read
      01006E0AH   CODE     ---       function_scheduler
      0200001BH   XDATA    ---       g_imu
      02000330H   XDATA    ---       g_imuNew
      02000015H   XDATA    ---       g_mem
      020002AAH   XDATA    ---       g_rx
      02000209H   XDATA    ---       Gyro
*SFR* 000000A8H   DATA     BYTE      IE
      0200052BH   XDATA    ---       IMU_conf
      02000004H   XDATA    ---       IMU_connected
      02000526H   XDATA    INT       imus_data_size
*DEL*:00000000H   CODE     ---       ImusReset
*DEL*:00000000H   CODE     ---       infoSend
      01006181H   CODE     ---       InitIMU
      0100511EH   CODE     ---       InitIMUgeneral
      01006272H   CODE     ---       InitIMUMagCal
      00000021H.4 BIT      BIT       interrupt_flag
      01005A28H   CODE     ---       interrupt_manager
*DEL*:00000000H   CODE     ---       isr_imu_ClearPending
*DEL*:00000000H   CODE     ---       isr_imu_Disable
*DEL*:00000000H   CODE     ---       isr_imu_Enable
*DEL*:00000000H   CODE     ---       isr_imu_GetPriority
*DEL*:00000000H   CODE     ---       isr_imu_GetState
*DEL*:00000000H   CODE     ---       isr_imu_GetVector
      01004A19H   CODE     ---       isr_imu_Interrupt
*DEL*:00000000H   CODE     ---       isr_imu_SetPending
*DEL*:00000000H   CODE     ---       isr_imu_Start
*DEL*:00000000H   CODE     ---       isr_imu_Stop
*DEL*:00000000H   CODE     ---       ISR_RS485_RX_ClearPending
      0100768AH   CODE     ---       ISR_RS485_RX_Disable
      01007683H   CODE     ---       ISR_RS485_RX_Enable
      0100770DH   CODE     ---       ISR_RS485_RX_ExInterrupt
*DEL*:00000000H   CODE     ---       ISR_RS485_RX_GetPriority
*DEL*:00000000H   CODE     ---       ISR_RS485_RX_GetState
*DEL*:00000000H   CODE     ---       ISR_RS485_RX_GetVector
      01007719H   CODE     ---       ISR_RS485_RX_Interrupt
*DEL*:00000000H   CODE     ---       ISR_RS485_RX_SetPending
*DEL*:00000000H   CODE     ---       ISR_RS485_RX_Start
*DEL*:00000000H   CODE     ---       ISR_RS485_RX_Stop
*DEL*:00000000H   CODE     ---       ISR_WATCHDOG_ClearPending
      0100769FH   CODE     ---       ISR_WATCHDOG_Disable
      01007698H   CODE     ---       ISR_WATCHDOG_Enable
*DEL*:00000000H   CODE     ---       ISR_WATCHDOG_GetPriority
*DEL*:00000000H   CODE     ---       ISR_WATCHDOG_GetState
*DEL*:00000000H   CODE     ---       ISR_WATCHDOG_GetVector
      0100770AH   CODE     ---       ISR_WATCHDOG_Handler
      0100771AH   CODE     ---       ISR_WATCHDOG_Interrupt
*DEL*:00000000H   CODE     ---       ISR_WATCHDOG_SetPending
*DEL*:00000000H   CODE     ---       ISR_WATCHDOG_Start
*DEL*:00000000H   CODE     ---       ISR_WATCHDOG_Stop
      02000181H   XDATA    ---       Mag
      02000277H   XDATA    ---       MagCal
      01006442H   CODE     ---       main
      010071F7H   CODE     ---       memInit
      01006D2DH   CODE     ---       memRecall
      01006DC3H   CODE     ---       memRestore
*SFR* 000000EAH   DATA     BYTE      MXAX
      010075E7H   CODE     ---       MY_TIMER_ClearFIFO
      01007673H   CODE     ---       MY_TIMER_Enable
      01007159H   CODE     ---       MY_TIMER_Init
LX51 LINKER/LOCATER V4.64.0.0                                                         06/15/2017  12:28:54  PAGE 27


      02001138H   XDATA    BYTE      MY_TIMER_initVar
      0100764DH   CODE     ---       MY_TIMER_ReadCapture
*DEL*:00000000H   CODE     ---       MY_TIMER_ReadControlRegister
      0100753AH   CODE     ---       MY_TIMER_ReadCounter
*DEL*:00000000H   CODE     ---       MY_TIMER_ReadPeriod
      010076D0H   CODE     ---       MY_TIMER_ReadStatusRegister
*DEL*:00000000H   CODE     ---       MY_TIMER_SoftwareCapture
      010074A8H   CODE     ---       MY_TIMER_Start
*DEL*:00000000H   CODE     ---       MY_TIMER_Stop
      02000180H   XDATA    BYTE      N_IMU_Connected
*DEL*:00000000H   CODE     ---       Opto_Pin_Read
*DEL*:00000000H   CODE     ---       Opto_Pin_ReadDataReg
*SFR* 000000D0H.2 DATA     BIT       OV
*SFR* 000000D0H   DATA     BIT       P
*SFR* 000000A0H   DATA     BYTE      P2AX
      010073C5H   CODE     ---       PACER_TIMER_Enable
      01006ED3H   CODE     ---       PACER_TIMER_Init
      02001137H   XDATA    BYTE      PACER_TIMER_initVar
*DEL*:00000000H   CODE     ---       PACER_TIMER_ReadCapture
*DEL*:00000000H   CODE     ---       PACER_TIMER_ReadControlRegister
*DEL*:00000000H   CODE     ---       PACER_TIMER_ReadCounter
*DEL*:00000000H   CODE     ---       PACER_TIMER_ReadPeriod
*DEL*:00000000H   CODE     ---       PACER_TIMER_ReadStatusRegister
*DEL*:00000000H   CODE     ---       PACER_TIMER_SoftwareCapture
      01007495H   CODE     ---       PACER_TIMER_Start
*DEL*:00000000H   CODE     ---       PACER_TIMER_Stop
*SFR* 000000D0H   DATA     BYTE      PSW
      0200052AH   XDATA    CHAR      pwm_sign
      0200032FH   XDATA    BYTE      rateAcc
      020004B7H   XDATA    BYTE      rateGyro
      01004DA3H   CODE     ---       readAllIMUs
*DEL*:00000000H   CODE     ---       RESET_FF_Read
      00000021H.2 BIT      BIT       reset_last_value_flag
*SFR* 000000D0H.3 DATA     BIT       RS0
*SFR* 000000D0H.4 DATA     BIT       RS1
*DEL*:00000000H   CODE     ---       RS485_CTS_Read
      01006FFFH   CODE     ---       setZeros
*SFR* 00000080H   DATA     BYTE      SFRPRT0DR
*SFR* 00000089H   DATA     BYTE      SFRPRT0PS
*SFR* 0000008AH   DATA     BYTE      SFRPRT0SEL
*SFR* 000000E8H   DATA     BYTE      SFRPRT12DR
*SFR* 000000E9H   DATA     BYTE      SFRPRT12PS
*SFR* 000000F2H   DATA     BYTE      SFRPRT12SEL
*SFR* 000000F8H   DATA     BYTE      SFRPRT15DR
*SFR* 000000F9H   DATA     BYTE      SFRPRT15PS
*SFR* 000000FAH   DATA     BYTE      SFRPRT15SEL
*SFR* 00000090H   DATA     BYTE      SFRPRT1DR
*SFR* 00000091H   DATA     BYTE      SFRPRT1PS
*SFR* 000000A2H   DATA     BYTE      SFRPRT1SEL
*SFR* 00000098H   DATA     BYTE      SFRPRT2DR
*SFR* 00000099H   DATA     BYTE      SFRPRT2PS
*SFR* 0000009AH   DATA     BYTE      SFRPRT2SEL
*SFR* 000000B0H   DATA     BYTE      SFRPRT3DR
*SFR* 000000B1H   DATA     BYTE      SFRPRT3PS
*SFR* 000000B2H   DATA     BYTE      SFRPRT3SEL
*SFR* 000000C0H   DATA     BYTE      SFRPRT4DR
*SFR* 000000C1H   DATA     BYTE      SFRPRT4PS
*SFR* 000000C2H   DATA     BYTE      SFRPRT4SEL
*SFR* 000000C8H   DATA     BYTE      SFRPRT5DR
*SFR* 000000C9H   DATA     BYTE      SFRPRT5PS
*SFR* 000000CAH   DATA     BYTE      SFRPRT5SEL
*SFR* 000000D8H   DATA     BYTE      SFRPRT6DR
*SFR* 000000D9H   DATA     BYTE      SFRPRT6PS
*SFR* 000000DAH   DATA     BYTE      SFRPRT6SEL
      02000495H   XDATA    ---       single_imu_size
LX51 LINKER/LOCATER V4.64.0.0                                                         06/15/2017  12:28:54  PAGE 28


*SFR* 00000081H   DATA     BYTE      SP
      0200113AH   XDATA    BYTE      SpcLockState
      0100727FH   CODE     ---       SPI_IMU_ClearFIFO
      01007549H   CODE     ---       SPI_IMU_ClearRxBuffer
      01007506H   CODE     ---       SPI_IMU_ClearTxBuffer
*DEL*:00000000H   CODE     ---       SPI_IMU_DisableInt
*DEL*:00000000H   CODE     ---       SPI_IMU_DisableRxInt
*DEL*:00000000H   CODE     ---       SPI_IMU_DisableTxInt
      010071D2H   CODE     ---       SPI_IMU_Enable
*DEL*:00000000H   CODE     ---       SPI_IMU_EnableInt
      0100771CH   CODE     ---       SPI_IMU_EnableRxInt
      0100771BH   CODE     ---       SPI_IMU_EnableTxInt
*DEL*:00000000H   CODE     ---       SPI_IMU_GetRxBufferSize
*DEL*:00000000H   CODE     ---       SPI_IMU_GetTxBufferSize
      01007365H   CODE     ---       SPI_IMU_Init
      02001135H   XDATA    BYTE      SPI_IMU_initVar
*DEL*:00000000H   CODE     ---       SPI_IMU_IntClock_GetDividerRegister
*DEL*:00000000H   CODE     ---       SPI_IMU_IntClock_GetModeRegister
*DEL*:00000000H   CODE     ---       SPI_IMU_IntClock_GetSourceRegister
      01007585H   CODE     ---       SPI_IMU_IntClock_Start
*DEL*:00000000H   CODE     ---       SPI_IMU_IntClock_Stop
*DEL*:00000000H   CODE     ---       SPI_IMU_IntClock_StopBlock
      010076F4H   CODE     ---       SPI_IMU_ReadRxData
      010076EEH   CODE     ---       SPI_IMU_ReadRxStatus
      01007558H   CODE     ---       SPI_IMU_ReadStatus
      010076E8H   CODE     ---       SPI_IMU_ReadTxStatus
      010074CEH   CODE     ---       SPI_IMU_Start
*DEL*:00000000H   CODE     ---       SPI_IMU_Stop
      02001133H   XDATA    BYTE      SPI_IMU_swStatusRx
      02001134H   XDATA    BYTE      SPI_IMU_swStatusTx
      01005C70H   CODE     NEAR LAB  STARTUP1
      020004BCH   XDATA    FLOAT     tau_feedback
      020001E7H   XDATA    ---       Temp
      00000021H.5 BIT      BIT       tension_valid
      0200026FH   XDATA    DWORD     timer_value
      020004B8H   XDATA    DWORD     timer_value0
      010070CEH   CODE     ---       UART_RS485_ClearRxBuffer
      010074F4H   CODE     ---       UART_RS485_ClearTxBuffer
      0100721BH   CODE     ---       UART_RS485_Enable
      020010FAH   XDATA    BYTE      UART_RS485_errorStatus
*DEL*:00000000H   CODE     ---       UART_RS485_GetByte
      01006AE1H   CODE     ---       UART_RS485_GetChar
      01006CDEH   CODE     ---       UART_RS485_GetRxBufferSize
*DEL*:00000000H   CODE     ---       UART_RS485_GetTxBufferSize
      01006FAFH   CODE     ---       UART_RS485_Init
      020010F8H   XDATA    BYTE      UART_RS485_initVar
*DEL*:00000000H   CODE     ---       UART_RS485_ReadControlRegister
*DEL*:00000000H   CODE     ---       UART_RS485_ReadRxData
      0100746EH   CODE     ---       UART_RS485_ReadRxStatus
      010076A6H   CODE     ---       UART_RS485_ReadTxStatus
      020010D7H   XDATA    ---       UART_RS485_rxBuffer
      020010D5H   XDATA    BYTE      UART_RS485_rxBufferLoopDetect
      020010F9H   XDATA    BYTE      UART_RS485_rxBufferOverflow
      020010D6H   XDATA    BYTE      UART_RS485_rxBufferRead
      020010F7H   XDATA    BYTE      UART_RS485_rxBufferWrite
      010065C2H   CODE     ---       UART_RS485_RXISR
      01007482H   CODE     ---       UART_RS485_Start
      0100723DH   CODE     ---       UART_RS485_Stop
      010073DBH   CODE     ---       WATCHDOG_COUNTER_Enable
      01006F0FH   CODE     ---       WATCHDOG_COUNTER_Init
      02001139H   XDATA    BYTE      WATCHDOG_COUNTER_initVar
*DEL*:00000000H   CODE     ---       WATCHDOG_COUNTER_ReadCapture
*DEL*:00000000H   CODE     ---       WATCHDOG_COUNTER_ReadControlRegister
*DEL*:00000000H   CODE     ---       WATCHDOG_COUNTER_ReadCounter
*DEL*:00000000H   CODE     ---       WATCHDOG_COUNTER_ReadPeriod
LX51 LINKER/LOCATER V4.64.0.0                                                         06/15/2017  12:28:54  PAGE 29


*DEL*:00000000H   CODE     ---       WATCHDOG_COUNTER_ReadStatusRegister
      010074BBH   CODE     ---       WATCHDOG_COUNTER_Start
*DEL*:00000000H   CODE     ---       WATCHDOG_COUNTER_Stop
*DEL*:00000000H   CODE     ---       WATCHDOG_ENABLER_Read
      00000021H.3 BIT      BIT       watchdog_flag
*DEL*:00000000H   CODE     ---       WATCHDOG_REFRESH_Read



SYMBOL TABLE OF MODULE:  .\DP8051_Keil_951\Release\firmware.omf (COMMAND_PROCESSING)

      VALUE       REP       CLASS    TYPE      SYMBOL NAME
      ====================================================
      ---         MODULE    ---      ---       COMMAND_PROCESSING
      02000EA7H   PUBLIC    XDATA    ---       EEPROM_ADDR
      0100548BH   PUBLIC    CODE     ---       cmd_get_imu_readings
      01007718H   PUBLIC    CODE     ---       cmd_get_emg
      01007406H   PUBLIC    CODE     ---       cmd_store_params
      01007717H   PUBLIC    CODE     ---       cmd_get_inputs
      01006E92H   PUBLIC    CODE     ---       cmd_set_watchdog
      0100745AH   PUBLIC    CODE     ---       cmd_ping
      0100725FH   PUBLIC    CODE     ---       cmd_set_baudrate
      01007716H   PUBLIC    CODE     ---       cmd_get_currents
      01007715H   PUBLIC    CODE     ---       cmd_get_activate
      01007714H   PUBLIC    CODE     ---       cmd_activate
      01007713H   PUBLIC    CODE     ---       cmd_set_inputs
      0100712BH   PUBLIC    CODE     ---       cmd_get_measurements
      010071F7H   PUBLIC    CODE     ---       memInit
      01006DC3H   PUBLIC    CODE     ---       memRestore
      01006D2DH   PUBLIC    CODE     ---       memRecall
      01006673H   PUBLIC    CODE     ---       _memStore
      010073F1H   PUBLIC    CODE     ---       _sendAcknowledgment
      0100703BH   PUBLIC    CODE     ---       _LCRChecksum
      01006720H   PUBLIC    CODE     ---       _commWrite
      0100309EH   PUBLIC    CODE     ---       _infoPrepare
      010038B7H   PUBLIC    CODE     ---       _get_param_list
      01006FFFH   PUBLIC    CODE     ---       setZeros
      01007333H   PUBLIC    CODE     ---       _infoGet
      01005B4FH   PUBLIC    CODE     ---       commProcess
      000000CAH   SFRSYM    DATA     BYTE      SFRPRT5SEL
      000000DAH   SFRSYM    DATA     BYTE      SFRPRT6SEL
      000000D0H.6 SFRSYM    DATA     BIT       AC
      000000A8H.7 SFRSYM    DATA     BIT       EA
      000000A8H   SFRSYM    DATA     BYTE      IE
      00000085H   SFRSYM    DATA     BYTE      DPH1
      00000084H   SFRSYM    DATA     BYTE      DPL1
      000000D0H.7 SFRSYM    DATA     BIT       CY
      000000A0H   SFRSYM    DATA     BYTE      P2AX
      00000095H   SFRSYM    DATA     BYTE      DPX1
      00000081H   SFRSYM    DATA     BYTE      SP
      000000D0H.2 SFRSYM    DATA     BIT       OV
      00000080H   SFRSYM    DATA     BYTE      SFRPRT0DR
      00000090H   SFRSYM    DATA     BYTE      SFRPRT1DR
      000000F2H   SFRSYM    DATA     BYTE      SFRPRT12SEL
      00000098H   SFRSYM    DATA     BYTE      SFRPRT2DR
      000000B0H   SFRSYM    DATA     BYTE      SFRPRT3DR
      000000C0H   SFRSYM    DATA     BYTE      SFRPRT4DR
      000000FAH   SFRSYM    DATA     BYTE      SFRPRT15SEL
      000000C8H   SFRSYM    DATA     BYTE      SFRPRT5DR
      000000D8H   SFRSYM    DATA     BYTE      SFRPRT6DR
      00000089H   SFRSYM    DATA     BYTE      SFRPRT0PS
      00000091H   SFRSYM    DATA     BYTE      SFRPRT1PS
      00000099H   SFRSYM    DATA     BYTE      SFRPRT2PS
      000000B1H   SFRSYM    DATA     BYTE      SFRPRT3PS
      000000C1H   SFRSYM    DATA     BYTE      SFRPRT4PS
LX51 LINKER/LOCATER V4.64.0.0                                                         06/15/2017  12:28:54  PAGE 30


      000000C9H   SFRSYM    DATA     BYTE      SFRPRT5PS
      000000D9H   SFRSYM    DATA     BYTE      SFRPRT6PS
      000000EAH   SFRSYM    DATA     BYTE      MXAX
      000000F0H   SFRSYM    DATA     BYTE      B
      000000E0H   SFRSYM    DATA     BYTE      ACC
      000000D0H   SFRSYM    DATA     BIT       P
      000000D0H.3 SFRSYM    DATA     BIT       RS0
      000000D0H.4 SFRSYM    DATA     BIT       RS1
      00000083H   SFRSYM    DATA     BYTE      DPH
      000000E8H   SFRSYM    DATA     BYTE      SFRPRT12DR
      00000082H   SFRSYM    DATA     BYTE      DPL
      000000F8H   SFRSYM    DATA     BYTE      SFRPRT15DR
      00000086H   SFRSYM    DATA     BYTE      DPS
      000000E9H   SFRSYM    DATA     BYTE      SFRPRT12PS
      00000093H   SFRSYM    DATA     BYTE      DPX
      000000F9H   SFRSYM    DATA     BYTE      SFRPRT15PS
      000000D0H.5 SFRSYM    DATA     BIT       F0
      000000D0H.1 SFRSYM    DATA     BIT       F1
      0000008AH   SFRSYM    DATA     BYTE      SFRPRT0SEL
      000000D0H   SFRSYM    DATA     BYTE      PSW
      000000A2H   SFRSYM    DATA     BYTE      SFRPRT1SEL
      0000009AH   SFRSYM    DATA     BYTE      SFRPRT2SEL
      000000B2H   SFRSYM    DATA     BYTE      SFRPRT3SEL
      000000C2H   SFRSYM    DATA     BYTE      SFRPRT4SEL
      010040FFH   SYMBOL    CODE     ---       _?ix1000
      0100451AH   SYMBOL    CODE     ---       _?ix1001
      01004529H   SYMBOL    CODE     ---       _?ix1002
      01004547H   SYMBOL    CODE     ---       _?ix1003
      01004554H   SYMBOL    CODE     ---       _?ix1004
      0100456CH   SYMBOL    CODE     ---       _?ix1005

      01005B4FH   BLOCK     CODE     ---       LVL=0
      01005B4FH   BLOCK     CODE     NEAR LAB  LVL=1
      0000000AH   SYMBOL    DATA     BYTE      rx_cmd
      ---         BLOCKEND  ---      ---       LVL=1
      01005B4FH   LINE      CODE     ---       #39
      01005B4FH   LINE      CODE     ---       #43
      01005B55H   LINE      CODE     ---       #47
      01005B80H   LINE      CODE     ---       #49
      01005B86H   LINE      CODE     ---       #51
      01005B86H   LINE      CODE     ---       #54
      01005BC8H   LINE      CODE     ---       #57
      01005BC8H   LINE      CODE     ---       #58
      01005BCBH   LINE      CODE     ---       #59
      01005BCCH   LINE      CODE     ---       #63
      01005BCCH   LINE      CODE     ---       #64
      01005BCFH   LINE      CODE     ---       #65
      01005BD0H   LINE      CODE     ---       #69
      01005BD0H   LINE      CODE     ---       #70
      01005BD3H   LINE      CODE     ---       #71
      01005BD4H   LINE      CODE     ---       #75
      01005BD4H   LINE      CODE     ---       #76
      01005BD7H   LINE      CODE     ---       #77
      01005BD8H   LINE      CODE     ---       #82
      01005BD8H   LINE      CODE     ---       #83
      01005BDBH   LINE      CODE     ---       #84
      01005BDCH   LINE      CODE     ---       #88
      01005BDCH   LINE      CODE     ---       #89
      01005BDFH   LINE      CODE     ---       #90
      01005BE0H   LINE      CODE     ---       #94
      01005BE0H   LINE      CODE     ---       #95
      01005BE3H   LINE      CODE     ---       #96
      01005BE4H   LINE      CODE     ---       #100
      01005BE4H   LINE      CODE     ---       #101
      01005BE7H   LINE      CODE     ---       #102
LX51 LINKER/LOCATER V4.64.0.0                                                         06/15/2017  12:28:54  PAGE 31


      01005BE8H   LINE      CODE     ---       #106
      01005BE8H   LINE      CODE     ---       #107
      01005BEBH   LINE      CODE     ---       #108
      01005BECH   LINE      CODE     ---       #112
      01005BECH   LINE      CODE     ---       #113
      01005BF7H   LINE      CODE     ---       #114
      01005BF8H   LINE      CODE     ---       #118
      01005BF8H   LINE      CODE     ---       #119
      01005BFBH   LINE      CODE     ---       #120
      01005BFCH   LINE      CODE     ---       #124
      01005BFCH   LINE      CODE     ---       #125
      01005C07H   LINE      CODE     ---       #126
      01005C08H   LINE      CODE     ---       #130
      01005C08H   LINE      CODE     ---       #131
      01005C0BH   LINE      CODE     ---       #132
      01005C0CH   LINE      CODE     ---       #136
      01005C0CH   LINE      CODE     ---       #137
      01005C0FH   LINE      CODE     ---       #138
      01005C10H   LINE      CODE     ---       #142
      01005C10H   LINE      CODE     ---       #143
      01005C1AH   LINE      CODE     ---       #144
      01005C20H   LINE      CODE     ---       #146
      01005C25H   LINE      CODE     ---       #147
      01005C26H   LINE      CODE     ---       #151
      01005C26H   LINE      CODE     ---       #152
      01005C2CH   LINE      CODE     ---       #153
      01005C32H   LINE      CODE     ---       #155
      01005C37H   LINE      CODE     ---       #156
      01005C38H   LINE      CODE     ---       #160
      01005C38H   LINE      CODE     ---       #161
      01005C3EH   LINE      CODE     ---       #162
      01005C44H   LINE      CODE     ---       #164
      01005C49H   LINE      CODE     ---       #165
      01005C4AH   LINE      CODE     ---       #169
      01005C4AH   LINE      CODE     ---       #171
      01005C4FH   LINE      CODE     ---       #172
      01005C59H   LINE      CODE     ---       #173
      01005C5EH   LINE      CODE     ---       #174
      01005C68H   LINE      CODE     ---       #175
      01005C6BH   LINE      CODE     ---       #176
      01005C6CH   LINE      CODE     ---       #180
      01005C6CH   LINE      CODE     ---       #181
      01005C6CH   LINE      CODE     ---       #185
      01005C6CH   LINE      CODE     ---       #186
      01005C6FH   LINE      CODE     ---       #187
      01005C6FH   LINE      CODE     ---       #191
      01005C6FH   LINE      CODE     ---       #192
      01005C6FH   LINE      CODE     ---       #194
      01005C6FH   LINE      CODE     ---       #196
      ---         BLOCKEND  ---      ---       LVL=0

      01007333H   BLOCK     CODE     ---       LVL=0
      00000006H   SYMBOL    DATA     WORD      info_type
      01007333H   BLOCK     CODE     NEAR LAB  LVL=1
      02000A5BH   SYMBOL    XDATA    ---       packet_string
      ---         BLOCKEND  ---      ---       LVL=1
      01007333H   LINE      CODE     ---       #214
      01007333H   LINE      CODE     ---       #219
      01007339H   LINE      CODE     ---       #220
      01007339H   LINE      CODE     ---       #221
      01007342H   LINE      CODE     ---       #222
      0100734BH   LINE      CODE     ---       #223
      0100734BH   LINE      CODE     ---       #225
      0100734BH   LINE      CODE     ---       #226
      0100734BH   LINE      CODE     ---       #227
LX51 LINKER/LOCATER V4.64.0.0                                                         06/15/2017  12:28:54  PAGE 32


      0100734BH   LINE      CODE     ---       #228
      ---         BLOCKEND  ---      ---       LVL=0

      01006FFFH   BLOCK     CODE     ---       LVL=0
      01006FFFH   LINE      CODE     ---       #234
      01006FFFH   LINE      CODE     ---       #235
      01006FFFH   LINE      CODE     ---       #237
      ---         BLOCKEND  ---      ---       LVL=0

      010038B7H   BLOCK     CODE     ---       LVL=0
      02000588H   SYMBOL    XDATA    WORD      index
      010038BFH   BLOCK     CODE     NEAR LAB  LVL=1
      0200058AH   SYMBOL    XDATA    ---       packet_data
      020009A5H   SYMBOL    XDATA    WORD      packet_lenght
      0000000BH   SYMBOL    DATA     WORD      i
      0000000DH   SYMBOL    DATA     WORD      j
      020009A7H   SYMBOL    XDATA    ---       id_str
      020009B6H   SYMBOL    XDATA    ---       n_imu_str
      020009D4H   SYMBOL    XDATA    ---       ids_str
      020009E1H   SYMBOL    XDATA    ---       mag_param_str
      020009F9H   SYMBOL    XDATA    ---       imu_table_str
      0000000FH   SYMBOL    DATA     BYTE      id_str_len
      00000010H   SYMBOL    DATA     BYTE      n_imu_str_len
      00000011H   SYMBOL    DATA     BYTE      ids_str_len
      00000012H   SYMBOL    DATA     BYTE      mag_param_str_len
      00000013H   SYMBOL    DATA     BYTE      imu_table_str_len
      ---         BLOCKEND  ---      ---       LVL=1
      010038B7H   LINE      CODE     ---       #243
      010038BFH   LINE      CODE     ---       #244
      010038BFH   LINE      CODE     ---       #246
      010038D2H   LINE      CODE     ---       #247
      010038E7H   LINE      CODE     ---       #253
      010038FAH   LINE      CODE     ---       #254
      0100390DH   LINE      CODE     ---       #255
      01003920H   LINE      CODE     ---       #256
      01003933H   LINE      CODE     ---       #257
      01003946H   LINE      CODE     ---       #260
      01003951H   LINE      CODE     ---       #261
      0100395CH   LINE      CODE     ---       #262
      01003967H   LINE      CODE     ---       #263
      01003972H   LINE      CODE     ---       #264
      0100397DH   LINE      CODE     ---       #266
      01003983H   LINE      CODE     ---       #267
      0100398DH   LINE      CODE     ---       #269
      010039B0H   LINE      CODE     ---       #270
      010039B0H   LINE      CODE     ---       #273
      010039B6H   LINE      CODE     ---       #274
      010039B9H   LINE      CODE     ---       #275
      010039C1H   LINE      CODE     ---       #276
      010039CDH   LINE      CODE     ---       #277
      010039F9H   LINE      CODE     ---       #281
      010039FFH   LINE      CODE     ---       #282
      01003A02H   LINE      CODE     ---       #283
      01003A0AH   LINE      CODE     ---       #284
      01003A16H   LINE      CODE     ---       #285
      01003A42H   LINE      CODE     ---       #289
      01003A48H   LINE      CODE     ---       #290
      01003A50H   LINE      CODE     ---       #291
      01003A64H   LINE      CODE     ---       #292
      01003A80H   LINE      CODE     ---       #293
      01003A8AH   LINE      CODE     ---       #294
      01003A96H   LINE      CODE     ---       #295
      01003AD7H   LINE      CODE     ---       #299
      01003ADDH   LINE      CODE     ---       #300
      01003AE9H   LINE      CODE     ---       #301
LX51 LINKER/LOCATER V4.64.0.0                                                         06/15/2017  12:28:54  PAGE 33


      01003B00H   LINE      CODE     ---       #302
      01003B33H   LINE      CODE     ---       #303
      01003B66H   LINE      CODE     ---       #304
      01003B99H   LINE      CODE     ---       #305
      01003BA4H   LINE      CODE     ---       #306
      01003BB0H   LINE      CODE     ---       #307
      01003BF6H   LINE      CODE     ---       #310
      01003C0DH   LINE      CODE     ---       #312
      01003C49H   LINE      CODE     ---       #313
      01003C54H   LINE      CODE     ---       #315
      01003C6CH   LINE      CODE     ---       #316
      01003C84H   LINE      CODE     ---       #318
      01003CB7H   LINE      CODE     ---       #319
      01003CEAH   LINE      CODE     ---       #320
      01003D1DH   LINE      CODE     ---       #321
      01003D50H   LINE      CODE     ---       #322
      01003D83H   LINE      CODE     ---       #324
      01003D8FH   LINE      CODE     ---       #325
      01003DD6H   LINE      CODE     ---       #326
      01003DE1H   LINE      CODE     ---       #331
      01003E05H   LINE      CODE     ---       #332
      01003E0EH   LINE      CODE     ---       #333
      01003E11H   LINE      CODE     ---       #334
      01003E12H   LINE      CODE     ---       #337
      01003E12H   LINE      CODE     ---       #338
      01003E1AH   LINE      CODE     ---       #339
      01003E1BH   LINE      CODE     ---       #342
      01003E1BH   LINE      CODE     ---       #343
      01003E1BH   LINE      CODE     ---       #346
      01003E1BH   LINE      CODE     ---       #347
      01003E1CH   LINE      CODE     ---       #350
      01003E1CH   LINE      CODE     ---       #351
      01003E1CH   LINE      CODE     ---       #354
      01003E1CH   LINE      CODE     ---       #355
      01003E42H   LINE      CODE     ---       #356
      01003E61H   LINE      CODE     ---       #357
      01003E80H   LINE      CODE     ---       #358
      01003E9FH   LINE      CODE     ---       #359
      01003EBEH   LINE      CODE     ---       #362
      01003EC6H   LINE      CODE     ---       #363
      01003EDDH   LINE      CODE     ---       #364
      01003EDDH   LINE      CODE     ---       #365
      01003F67H   LINE      CODE     ---       #366
      01003F90H   LINE      CODE     ---       #367
      01003F9BH   LINE      CODE     ---       #368
      01003FA9H   LINE      CODE     ---       #370
      01003FA9H   LINE      CODE     ---       #372
      01003FA9H   LINE      CODE     ---       #373
      ---         BLOCKEND  ---      ---       LVL=0

      0100309EH   BLOCK     CODE     ---       LVL=0
      02000588H   SYMBOL    XDATA    ---       info_string
      010030A9H   BLOCK     CODE     NEAR LAB  LVL=1
      0200058BH   SYMBOL    XDATA    INT       i
      010030B4H   BLOCK     CODE     NEAR LAB  LVL=2
      0200058DH   SYMBOL    XDATA    ---       str
      ---         BLOCKEND  ---      ---       LVL=2
      ---         BLOCKEND  ---      ---       LVL=1
      0100309EH   LINE      CODE     ---       #380
      010030A9H   LINE      CODE     ---       #381
      010030A9H   LINE      CODE     ---       #383
      010030B4H   LINE      CODE     ---       #385
      010030CCH   LINE      CODE     ---       #386
      010030E8H   LINE      CODE     ---       #387
      01003104H   LINE      CODE     ---       #388
LX51 LINKER/LOCATER V4.64.0.0                                                         06/15/2017  12:28:54  PAGE 34


      01003120H   LINE      CODE     ---       #389
      0100313CH   LINE      CODE     ---       #391
      01003158H   LINE      CODE     ---       #392
      0100317CH   LINE      CODE     ---       #393
      01003198H   LINE      CODE     ---       #395
      010031BCH   LINE      CODE     ---       #396
      010031D8H   LINE      CODE     ---       #398
      010031F4H   LINE      CODE     ---       #401
      01003210H   LINE      CODE     ---       #402
      01003231H   LINE      CODE     ---       #403
      0100326BH   LINE      CODE     ---       #404
      01003287H   LINE      CODE     ---       #406
      0100329EH   LINE      CODE     ---       #407
      010032BFH   LINE      CODE     ---       #408
      010032D8H   LINE      CODE     ---       #410
      010032EFH   LINE      CODE     ---       #411
      01003306H   LINE      CODE     ---       #412
      01003327H   LINE      CODE     ---       #413
      01003340H   LINE      CODE     ---       #415
      01003357H   LINE      CODE     ---       #416
      0100336EH   LINE      CODE     ---       #417
      0100338FH   LINE      CODE     ---       #418
      010033A8H   LINE      CODE     ---       #420
      010033BFH   LINE      CODE     ---       #421
      010033D6H   LINE      CODE     ---       #422
      010033F7H   LINE      CODE     ---       #423
      01003410H   LINE      CODE     ---       #425
      01003427H   LINE      CODE     ---       #426
      0100343EH   LINE      CODE     ---       #427
      0100345FH   LINE      CODE     ---       #428
      01003478H   LINE      CODE     ---       #430
      0100348FH   LINE      CODE     ---       #432
      010034ABH   LINE      CODE     ---       #433
      010034BCH   LINE      CODE     ---       #435
      010034D8H   LINE      CODE     ---       #437
      010034F4H   LINE      CODE     ---       #438
      01003515H   LINE      CODE     ---       #439
      0100354FH   LINE      CODE     ---       #440
      0100356BH   LINE      CODE     ---       #442
      01003590H   LINE      CODE     ---       #443
      01003609H   LINE      CODE     ---       #444
      01003625H   LINE      CODE     ---       #445
      01003625H   LINE      CODE     ---       #447
      0100364AH   LINE      CODE     ---       #448
      010036C3H   LINE      CODE     ---       #449
      010036DFH   LINE      CODE     ---       #450
      010036DFH   LINE      CODE     ---       #452
      01003704H   LINE      CODE     ---       #453
      0100377DH   LINE      CODE     ---       #454
      01003799H   LINE      CODE     ---       #455
      01003799H   LINE      CODE     ---       #457
      010037BBH   LINE      CODE     ---       #458
      010037F1H   LINE      CODE     ---       #459
      0100380DH   LINE      CODE     ---       #460
      0100380DH   LINE      CODE     ---       #462
      0100381EH   LINE      CODE     ---       #464
      01003862H   LINE      CODE     ---       #465
      0100387EH   LINE      CODE     ---       #466
      0100389AH   LINE      CODE     ---       #467
      010038B6H   LINE      CODE     ---       #468
      010038B6H   LINE      CODE     ---       #469
      ---         BLOCKEND  ---      ---       LVL=0

      01006720H   BLOCK     CODE     ---       LVL=0
      02000A23H   SYMBOL    XDATA    ---       packet_data
LX51 LINKER/LOCATER V4.64.0.0                                                         06/15/2017  12:28:54  PAGE 35


      02000A26H   SYMBOL    XDATA    WORD      packet_lenght
      01006731H   BLOCK     CODE     NEAR LAB  LVL=1
      00000014H   SYMBOL    DATA     WORD      index
      ---         BLOCKEND  ---      ---       LVL=1
      01006720H   LINE      CODE     ---       #475
      01006731H   LINE      CODE     ---       #476
      01006731H   LINE      CODE     ---       #480
      01006736H   LINE      CODE     ---       #481
      0100673BH   LINE      CODE     ---       #484
      01006743H   LINE      CODE     ---       #487
      0100674DH   LINE      CODE     ---       #490
      01006761H   LINE      CODE     ---       #491
      01006783H   LINE      CODE     ---       #493
      01006788H   LINE      CODE     ---       #495
      010067A2H   LINE      CODE     ---       #497
      010067A7H   LINE      CODE     ---       #498
      010067ACH   LINE      CODE     ---       #499
      ---         BLOCKEND  ---      ---       LVL=0

      0100703BH   BLOCK     CODE     ---       LVL=0
      02000A23H   SYMBOL    XDATA    ---       data_array
      00000005H   SYMBOL    DATA     BYTE      data_length
      01007046H   BLOCK     CODE     NEAR LAB  LVL=1
      00000014H   SYMBOL    DATA     BYTE      i
      00000015H   SYMBOL    DATA     BYTE      checksum
      ---         BLOCKEND  ---      ---       LVL=1
      0100703BH   LINE      CODE     ---       #508
      01007046H   LINE      CODE     ---       #511
      01007049H   LINE      CODE     ---       #513
      01007051H   LINE      CODE     ---       #514
      0100706AH   LINE      CODE     ---       #516
      0100706CH   LINE      CODE     ---       #517
      ---         BLOCKEND  ---      ---       LVL=0

      010073F1H   BLOCK     CODE     ---       LVL=0
      00000007H   SYMBOL    DATA     BYTE      value
      010073F1H   BLOCK     CODE     NEAR LAB  LVL=1
      00000004H   SYMBOL    DATA     INT       packet_lenght
      02000588H   SYMBOL    XDATA    ---       packet_data
      ---         BLOCKEND  ---      ---       LVL=1
      010073F1H   LINE      CODE     ---       #523
      010073F1H   LINE      CODE     ---       #524
      010073F5H   LINE      CODE     ---       #527
      010073FAH   LINE      CODE     ---       #528
      010073FCH   LINE      CODE     ---       #530
      01007405H   LINE      CODE     ---       #531
      ---         BLOCKEND  ---      ---       LVL=0

      01006673H   BLOCK     CODE     ---       LVL=0
      02000588H   SYMBOL    XDATA    INT       displacement
      0100667BH   BLOCK     CODE     NEAR LAB  LVL=1
      0200058AH   SYMBOL    XDATA    INT       i
      00000007H   SYMBOL    DATA     BYTE      writeStatus
      0200058CH   SYMBOL    XDATA    INT       pages
      0200058EH   SYMBOL    XDATA    BYTE      ret_val
      ---         BLOCKEND  ---      ---       LVL=1
      01006673H   LINE      CODE     ---       #542
      0100667BH   LINE      CODE     ---       #543
      0100667BH   LINE      CODE     ---       #547
      01006681H   LINE      CODE     ---       #550
      01006684H   LINE      CODE     ---       #554
      01006687H   LINE      CODE     ---       #556
      0100669AH   LINE      CODE     ---       #558
      010066A2H   LINE      CODE     ---       #560
      010066C5H   LINE      CODE     ---       #561
LX51 LINKER/LOCATER V4.64.0.0                                                         06/15/2017  12:28:54  PAGE 36


      010066EAH   LINE      CODE     ---       #562
      010066EDH   LINE      CODE     ---       #563
      010066F2H   LINE      CODE     ---       #564
      010066F4H   LINE      CODE     ---       #565
      010066F4H   LINE      CODE     ---       #566
      01006704H   LINE      CODE     ---       #568
      01006717H   LINE      CODE     ---       #571
      0100671AH   LINE      CODE     ---       #573
      0100671FH   LINE      CODE     ---       #574
      ---         BLOCKEND  ---      ---       LVL=0

      01006D2DH   BLOCK     CODE     ---       LVL=0
      01006D2DH   BLOCK     CODE     NEAR LAB  LVL=1
      00000006H   SYMBOL    DATA     WORD      i
      ---         BLOCKEND  ---      ---       LVL=1
      01006D2DH   LINE      CODE     ---       #585
      01006D2DH   LINE      CODE     ---       #586
      01006D2DH   LINE      CODE     ---       #589
      01006D39H   LINE      CODE     ---       #590
      01006D55H   LINE      CODE     ---       #591
      01006D5CH   LINE      CODE     ---       #594
      01006D62H   LINE      CODE     ---       #595
      01006D65H   LINE      CODE     ---       #596
      01006D66H   LINE      CODE     ---       #597
      01006D79H   LINE      CODE     ---       #598
      01006D79H   LINE      CODE     ---       #599
      ---         BLOCKEND  ---      ---       LVL=0

      01006DC3H   BLOCK     CODE     ---       LVL=0
      01006DC3H   BLOCK     CODE     NEAR LAB  LVL=1
      00000006H   SYMBOL    DATA     WORD      i
      ---         BLOCKEND  ---      ---       LVL=1
      01006DC3H   LINE      CODE     ---       #610
      01006DC3H   LINE      CODE     ---       #613
      01006DCFH   LINE      CODE     ---       #614
      01006DF2H   LINE      CODE     ---       #615
      01006DF9H   LINE      CODE     ---       #618
      01006DFFH   LINE      CODE     ---       #619
      01006E03H   LINE      CODE     ---       #620
      01006E03H   LINE      CODE     ---       #621
      01006E09H   LINE      CODE     ---       #622
      01006E09H   LINE      CODE     ---       #623
      ---         BLOCKEND  ---      ---       LVL=0

      010071F7H   BLOCK     CODE     ---       LVL=0
      010071F7H   LINE      CODE     ---       #633
      010071F7H   LINE      CODE     ---       #634
      010071F7H   LINE      CODE     ---       #637
      010071FDH   LINE      CODE     ---       #641
      01007201H   LINE      CODE     ---       #644
      0100721AH   LINE      CODE     ---       #645
      ---         BLOCKEND  ---      ---       LVL=0

      0100712BH   BLOCK     CODE     ---       LVL=0
      0100712BH   LINE      CODE     ---       #654
      0100712BH   LINE      CODE     ---       #656
      ---         BLOCKEND  ---      ---       LVL=0

      01007713H   BLOCK     CODE     ---       LVL=0
      01007713H   LINE      CODE     ---       #658
      01007713H   LINE      CODE     ---       #660
      ---         BLOCKEND  ---      ---       LVL=0

      01007714H   BLOCK     CODE     ---       LVL=0
      01007714H   LINE      CODE     ---       #662
LX51 LINKER/LOCATER V4.64.0.0                                                         06/15/2017  12:28:54  PAGE 37


      01007714H   LINE      CODE     ---       #664
      ---         BLOCKEND  ---      ---       LVL=0

      01007715H   BLOCK     CODE     ---       LVL=0
      01007715H   LINE      CODE     ---       #666
      01007715H   LINE      CODE     ---       #668
      ---         BLOCKEND  ---      ---       LVL=0

      01007716H   BLOCK     CODE     ---       LVL=0
      01007716H   LINE      CODE     ---       #674
      01007716H   LINE      CODE     ---       #676
      ---         BLOCKEND  ---      ---       LVL=0

      0100725FH   BLOCK     CODE     ---       LVL=0
      0100725FH   LINE      CODE     ---       #678
      0100725FH   LINE      CODE     ---       #681
      01007267H   LINE      CODE     ---       #683
      0100726BH   LINE      CODE     ---       #684
      0100726BH   LINE      CODE     ---       #685
      01007274H   LINE      CODE     ---       #686
      01007275H   LINE      CODE     ---       #687
      01007275H   LINE      CODE     ---       #688
      0100727EH   LINE      CODE     ---       #689
      0100727EH   LINE      CODE     ---       #690
      ---         BLOCKEND  ---      ---       LVL=0

      0100745AH   BLOCK     CODE     ---       LVL=0
      0100745AH   BLOCK     CODE     NEAR LAB  LVL=1
      02000588H   SYMBOL    XDATA    ---       packet_data
      ---         BLOCKEND  ---      ---       LVL=1
      0100745AH   LINE      CODE     ---       #692
      0100745AH   LINE      CODE     ---       #697
      0100745FH   LINE      CODE     ---       #700
      01007461H   LINE      CODE     ---       #703
      0100746DH   LINE      CODE     ---       #704
      ---         BLOCKEND  ---      ---       LVL=0

      01006E92H   BLOCK     CODE     ---       LVL=0
      01006E92H   LINE      CODE     ---       #706
      01006E92H   LINE      CODE     ---       #708
      01006E9BH   LINE      CODE     ---       #710
      01006EA0H   LINE      CODE     ---       #711
      01006EA5H   LINE      CODE     ---       #712
      01006EA6H   LINE      CODE     ---       #713
      01006EA6H   LINE      CODE     ---       #715
      01006EAFH   LINE      CODE     ---       #716
      01006EB2H   LINE      CODE     ---       #721
      01006ECAH   LINE      CODE     ---       #722
      01006ECDH   LINE      CODE     ---       #723
      01006ED2H   LINE      CODE     ---       #724
      01006ED2H   LINE      CODE     ---       #725
      ---         BLOCKEND  ---      ---       LVL=0

      01007717H   BLOCK     CODE     ---       LVL=0
      01007717H   LINE      CODE     ---       #727
      01007717H   LINE      CODE     ---       #729
      ---         BLOCKEND  ---      ---       LVL=0

      01007406H   BLOCK     CODE     ---       LVL=0
      01007406H   LINE      CODE     ---       #731
      01007406H   LINE      CODE     ---       #733
      0100740FH   LINE      CODE     ---       #734
      01007415H   LINE      CODE     ---       #736
      0100741AH   LINE      CODE     ---       #737
      ---         BLOCKEND  ---      ---       LVL=0
LX51 LINKER/LOCATER V4.64.0.0                                                         06/15/2017  12:28:54  PAGE 38



      01007718H   BLOCK     CODE     ---       LVL=0
      01007718H   LINE      CODE     ---       #739
      01007718H   LINE      CODE     ---       #741
      ---         BLOCKEND  ---      ---       LVL=0

      0100548BH   BLOCK     CODE     ---       LVL=0
      0100548BH   BLOCK     CODE     NEAR LAB  LVL=1
      02000588H   SYMBOL    XDATA    BYTE      k_imu
      02000589H   SYMBOL    XDATA    BYTE      c
      0200058AH   SYMBOL    XDATA    BYTE      k
      0200058BH   SYMBOL    XDATA    BYTE      gl_c
      0200058CH   SYMBOL    XDATA    ---       packet_data
      020006EAH   SYMBOL    XDATA    ---       single_packet
      ---         BLOCKEND  ---      ---       LVL=1
      0100548BH   LINE      CODE     ---       #743
      0100548BH   LINE      CODE     ---       #747
      01005491H   LINE      CODE     ---       #748
      01005494H   LINE      CODE     ---       #749
      01005497H   LINE      CODE     ---       #759
      0100549BH   LINE      CODE     ---       #761
      010054B1H   LINE      CODE     ---       #762
      010054B1H   LINE      CODE     ---       #764
      010054B7H   LINE      CODE     ---       #765
      010054D2H   LINE      CODE     ---       #766
      010054FDH   LINE      CODE     ---       #767
      01005520H   LINE      CODE     ---       #768
      01005546H   LINE      CODE     ---       #769
      0100554DH   LINE      CODE     ---       #770
      0100554DH   LINE      CODE     ---       #771
      0100556CH   LINE      CODE     ---       #772
      01005597H   LINE      CODE     ---       #773
      010055BAH   LINE      CODE     ---       #774
      010055DDH   LINE      CODE     ---       #775
      010055E4H   LINE      CODE     ---       #776
      010055E4H   LINE      CODE     ---       #777
      01005603H   LINE      CODE     ---       #778
      0100562EH   LINE      CODE     ---       #779
      01005651H   LINE      CODE     ---       #780
      01005674H   LINE      CODE     ---       #781
      0100567BH   LINE      CODE     ---       #782
      0100567BH   LINE      CODE     ---       #783
      0100569AH   LINE      CODE     ---       #784
      010056C0H   LINE      CODE     ---       #785
      010056C7H   LINE      CODE     ---       #786
      010056C7H   LINE      CODE     ---       #787
      010056F0H   LINE      CODE     ---       #788
      010056F6H   LINE      CODE     ---       #790
      01005729H   LINE      CODE     ---       #791
      0100574CH   LINE      CODE     ---       #792
      01005754H   LINE      CODE     ---       #793
      0100576AH   LINE      CODE     ---       #795
      01005779H   LINE      CODE     ---       #797
      01005782H   LINE      CODE     ---       #800
      010057A6H   LINE      CODE     ---       #801
      010057AFH   LINE      CODE     ---       #804
      ---         BLOCKEND  ---      ---       LVL=0

      ---         MODULE    ---      ---       GLOBALS
      02000582H   PUBLIC    XDATA    BYTE      dev_pwm_limit
      00000021H.5 PUBLIC    BIT      BIT       tension_valid
      02000580H   PUBLIC    XDATA    INT       frsAccReg
      0200052BH   PUBLIC    XDATA    ---       IMU_conf
      00000021H.4 PUBLIC    BIT      BIT       interrupt_flag
      0200052AH   PUBLIC    XDATA    CHAR      pwm_sign
LX51 LINKER/LOCATER V4.64.0.0                                                         06/15/2017  12:28:54  PAGE 39


      02000528H   PUBLIC    XDATA    ---       ADC_buf
      02000526H   PUBLIC    XDATA    INT       imus_data_size
      020004C0H   PUBLIC    XDATA    ---       Accel
      020004BCH   PUBLIC    XDATA    FLOAT     tau_feedback
      020004B8H   PUBLIC    XDATA    DWORD     timer_value0
      00000021H.3 PUBLIC    BIT      BIT       watchdog_flag
      020004B7H   PUBLIC    XDATA    BYTE      rateGyro
      02000495H   PUBLIC    XDATA    ---       single_imu_size
      02000330H   PUBLIC    XDATA    ---       g_imuNew
      00000021H.2 PUBLIC    BIT      BIT       reset_last_value_flag
      0200032FH   PUBLIC    XDATA    BYTE      rateAcc
      020002AAH   PUBLIC    XDATA    ---       g_rx
      02000277H   PUBLIC    XDATA    ---       MagCal
      02000273H   PUBLIC    XDATA    LONG      dev_tension
      0200026FH   PUBLIC    XDATA    DWORD     timer_value
      02000209H   PUBLIC    XDATA    ---       Gyro
      020001E7H   PUBLIC    XDATA    ---       Temp
      02000181H   PUBLIC    XDATA    ---       Mag
      02000180H   PUBLIC    XDATA    BYTE      N_IMU_Connected
      0200001BH   PUBLIC    XDATA    ---       g_imu
      02000019H   PUBLIC    XDATA    INT       frsGyroReg
      02000015H   PUBLIC    XDATA    ---       g_mem
      02000004H   PUBLIC    XDATA    ---       IMU_connected
      02000000H   PUBLIC    XDATA    ---       c_mem
      000000CAH   SFRSYM    DATA     BYTE      SFRPRT5SEL
      000000DAH   SFRSYM    DATA     BYTE      SFRPRT6SEL
      000000D0H.6 SFRSYM    DATA     BIT       AC
      000000A8H.7 SFRSYM    DATA     BIT       EA
      000000A8H   SFRSYM    DATA     BYTE      IE
      00000085H   SFRSYM    DATA     BYTE      DPH1
      00000084H   SFRSYM    DATA     BYTE      DPL1
      000000D0H.7 SFRSYM    DATA     BIT       CY
      000000A0H   SFRSYM    DATA     BYTE      P2AX
      00000095H   SFRSYM    DATA     BYTE      DPX1
      00000081H   SFRSYM    DATA     BYTE      SP
      000000D0H.2 SFRSYM    DATA     BIT       OV
      00000080H   SFRSYM    DATA     BYTE      SFRPRT0DR
      00000090H   SFRSYM    DATA     BYTE      SFRPRT1DR
      000000F2H   SFRSYM    DATA     BYTE      SFRPRT12SEL
      00000098H   SFRSYM    DATA     BYTE      SFRPRT2DR
      000000B0H   SFRSYM    DATA     BYTE      SFRPRT3DR
      000000C0H   SFRSYM    DATA     BYTE      SFRPRT4DR
      000000FAH   SFRSYM    DATA     BYTE      SFRPRT15SEL
      000000C8H   SFRSYM    DATA     BYTE      SFRPRT5DR
      000000D8H   SFRSYM    DATA     BYTE      SFRPRT6DR
      00000089H   SFRSYM    DATA     BYTE      SFRPRT0PS
      00000091H   SFRSYM    DATA     BYTE      SFRPRT1PS
      00000099H   SFRSYM    DATA     BYTE      SFRPRT2PS
      000000B1H   SFRSYM    DATA     BYTE      SFRPRT3PS
      000000C1H   SFRSYM    DATA     BYTE      SFRPRT4PS
      000000C9H   SFRSYM    DATA     BYTE      SFRPRT5PS
      000000D9H   SFRSYM    DATA     BYTE      SFRPRT6PS
      000000EAH   SFRSYM    DATA     BYTE      MXAX
      000000F0H   SFRSYM    DATA     BYTE      B
      000000E0H   SFRSYM    DATA     BYTE      ACC
      000000D0H   SFRSYM    DATA     BIT       P
      000000D0H.3 SFRSYM    DATA     BIT       RS0
      000000D0H.4 SFRSYM    DATA     BIT       RS1
      00000083H   SFRSYM    DATA     BYTE      DPH
      000000E8H   SFRSYM    DATA     BYTE      SFRPRT12DR
      00000082H   SFRSYM    DATA     BYTE      DPL
      000000F8H   SFRSYM    DATA     BYTE      SFRPRT15DR
      00000086H   SFRSYM    DATA     BYTE      DPS
      000000E9H   SFRSYM    DATA     BYTE      SFRPRT12PS
      00000093H   SFRSYM    DATA     BYTE      DPX
LX51 LINKER/LOCATER V4.64.0.0                                                         06/15/2017  12:28:54  PAGE 40


      000000F9H   SFRSYM    DATA     BYTE      SFRPRT15PS
      000000D0H.5 SFRSYM    DATA     BIT       F0
      000000D0H.1 SFRSYM    DATA     BIT       F1
      0000008AH   SFRSYM    DATA     BYTE      SFRPRT0SEL
      000000D0H   SFRSYM    DATA     BYTE      PSW
      000000A2H   SFRSYM    DATA     BYTE      SFRPRT1SEL
      0000009AH   SFRSYM    DATA     BYTE      SFRPRT2SEL
      000000B2H   SFRSYM    DATA     BYTE      SFRPRT3SEL
      000000C2H   SFRSYM    DATA     BYTE      SFRPRT4SEL

      ---         MODULE    ---      ---       INTERRUPTIONS
      01006E0AH   PUBLIC    CODE     ---       function_scheduler
      01005A28H   PUBLIC    CODE     ---       interrupt_manager
      0100770DH   PUBLIC    CODE     ---       ISR_RS485_RX_ExInterrupt
      0100770AH   PUBLIC    CODE     ---       ISR_WATCHDOG_Handler
      000000CAH   SFRSYM    DATA     BYTE      SFRPRT5SEL
      000000DAH   SFRSYM    DATA     BYTE      SFRPRT6SEL
      000000D0H.6 SFRSYM    DATA     BIT       AC
      000000A8H.7 SFRSYM    DATA     BIT       EA
      000000A8H   SFRSYM    DATA     BYTE      IE
      00000085H   SFRSYM    DATA     BYTE      DPH1
      00000084H   SFRSYM    DATA     BYTE      DPL1
      000000D0H.7 SFRSYM    DATA     BIT       CY
      000000A0H   SFRSYM    DATA     BYTE      P2AX
      00000095H   SFRSYM    DATA     BYTE      DPX1
      00000081H   SFRSYM    DATA     BYTE      SP
      000000D0H.2 SFRSYM    DATA     BIT       OV
      00000080H   SFRSYM    DATA     BYTE      SFRPRT0DR
      00000090H   SFRSYM    DATA     BYTE      SFRPRT1DR
      000000F2H   SFRSYM    DATA     BYTE      SFRPRT12SEL
      00000098H   SFRSYM    DATA     BYTE      SFRPRT2DR
      000000B0H   SFRSYM    DATA     BYTE      SFRPRT3DR
      000000C0H   SFRSYM    DATA     BYTE      SFRPRT4DR
      000000FAH   SFRSYM    DATA     BYTE      SFRPRT15SEL
      000000C8H   SFRSYM    DATA     BYTE      SFRPRT5DR
      000000D8H   SFRSYM    DATA     BYTE      SFRPRT6DR
      00000089H   SFRSYM    DATA     BYTE      SFRPRT0PS
      00000091H   SFRSYM    DATA     BYTE      SFRPRT1PS
      00000099H   SFRSYM    DATA     BYTE      SFRPRT2PS
      000000B1H   SFRSYM    DATA     BYTE      SFRPRT3PS
      000000C1H   SFRSYM    DATA     BYTE      SFRPRT4PS
      000000C9H   SFRSYM    DATA     BYTE      SFRPRT5PS
      000000D9H   SFRSYM    DATA     BYTE      SFRPRT6PS
      000000EAH   SFRSYM    DATA     BYTE      MXAX
      000000F0H   SFRSYM    DATA     BYTE      B
      000000E0H   SFRSYM    DATA     BYTE      ACC
      000000D0H   SFRSYM    DATA     BIT       P
      000000D0H.3 SFRSYM    DATA     BIT       RS0
      000000D0H.4 SFRSYM    DATA     BIT       RS1
      00000083H   SFRSYM    DATA     BYTE      DPH
      000000E8H   SFRSYM    DATA     BYTE      SFRPRT12DR
      00000082H   SFRSYM    DATA     BYTE      DPL
      000000F8H   SFRSYM    DATA     BYTE      SFRPRT15DR
      00000086H   SFRSYM    DATA     BYTE      DPS
      000000E9H   SFRSYM    DATA     BYTE      SFRPRT12PS
      00000093H   SFRSYM    DATA     BYTE      DPX
      000000F9H   SFRSYM    DATA     BYTE      SFRPRT15PS
      000000D0H.5 SFRSYM    DATA     BIT       F0
      000000D0H.1 SFRSYM    DATA     BIT       F1
      0000008AH   SFRSYM    DATA     BYTE      SFRPRT0SEL
      000000D0H   SFRSYM    DATA     BYTE      PSW
      000000A2H   SFRSYM    DATA     BYTE      SFRPRT1SEL
      0000009AH   SFRSYM    DATA     BYTE      SFRPRT2SEL
      000000B2H   SFRSYM    DATA     BYTE      SFRPRT3SEL
      000000C2H   SFRSYM    DATA     BYTE      SFRPRT4SEL
LX51 LINKER/LOCATER V4.64.0.0                                                         06/15/2017  12:28:54  PAGE 41



      0100770AH   BLOCK     CODE     ---       LVL=0
      0100770AH   LINE      CODE     ---       #41
      0100770AH   LINE      CODE     ---       #45
      0100770CH   LINE      CODE     ---       #47
      ---         BLOCKEND  ---      ---       LVL=0

      0100770DH   BLOCK     CODE     ---       LVL=0
      0100770DH   LINE      CODE     ---       #53
      0100770DH   LINE      CODE     ---       #57
      0100770FH   LINE      CODE     ---       #59
      ---         BLOCKEND  ---      ---       LVL=0

      01005A28H   BLOCK     CODE     ---       LVL=0
      01005A28H   BLOCK     CODE     NEAR LAB  LVL=1
      00000019H   SYMBOL    DATA     BYTE      state
      0000001AH   SYMBOL    DATA     BYTE      data_packet_index
      0000001BH   SYMBOL    DATA     BYTE      data_packet_length
      0200100FH   SYMBOL    XDATA    ---       data_packet_buffer
      0000001CH   SYMBOL    DATA     ---       rx_queue
      00000008H   SYMBOL    DATA     BYTE      rx_data
      00000020H.0 SYMBOL    BIT      BIT       rx_data_type
      00000009H   SYMBOL    DATA     BYTE      package_count
      ---         BLOCKEND  ---      ---       LVL=1
      01005A28H   LINE      CODE     ---       #76
      01005A28H   LINE      CODE     ---       #92
      01005A2BH   LINE      CODE     ---       #98
      01005A3EH   LINE      CODE     ---       #102
      01005A43H   LINE      CODE     ---       #104
      01005A5BH   LINE      CODE     ---       #106
      01005A5BH   LINE      CODE     ---       #108
      01005A5EH   LINE      CODE     ---       #109
      01005A61H   LINE      CODE     ---       #110
      01005A64H   LINE      CODE     ---       #113
      01005A6EH   LINE      CODE     ---       #114
      01005A71H   LINE      CODE     ---       #115
      01005A73H   LINE      CODE     ---       #116
      01005A75H   LINE      CODE     ---       #117
      01005A78H   LINE      CODE     ---       #118
      01005A7AH   LINE      CODE     ---       #119
      01005A8AH   LINE      CODE     ---       #122
      01005A8FH   LINE      CODE     ---       #123
      01005A91H   LINE      CODE     ---       #126
      01005A91H   LINE      CODE     ---       #129
      01005A9DH   LINE      CODE     ---       #130
      01005AA1H   LINE      CODE     ---       #132
      01005AA3H   LINE      CODE     ---       #134
      01005AA6H   LINE      CODE     ---       #135
      01005AA9H   LINE      CODE     ---       #136
      01005AABH   LINE      CODE     ---       #139
      01005AABH   LINE      CODE     ---       #142
      01005AAEH   LINE      CODE     ---       #144
      01005AB5H   LINE      CODE     ---       #145
      01005AB8H   LINE      CODE     ---       #146
      01005ABAH   LINE      CODE     ---       #147
      01005AC4H   LINE      CODE     ---       #148
      01005AC7H   LINE      CODE     ---       #149
      01005AC9H   LINE      CODE     ---       #150
      01005ACCH   LINE      CODE     ---       #151
      01005ACFH   LINE      CODE     ---       #153
      01005AD2H   LINE      CODE     ---       #154
      01005AD8H   LINE      CODE     ---       #156
      01005ADBH   LINE      CODE     ---       #157
      01005ADBH   LINE      CODE     ---       #158
      01005ADEH   LINE      CODE     ---       #161
LX51 LINKER/LOCATER V4.64.0.0                                                         06/15/2017  12:28:54  PAGE 42


      01005ADEH   LINE      CODE     ---       #163
      01005AECH   LINE      CODE     ---       #164
      01005AEEH   LINE      CODE     ---       #167
      01005AF8H   LINE      CODE     ---       #169
      01005AFBH   LINE      CODE     ---       #171
      01005B0EH   LINE      CODE     ---       #172
      01005B17H   LINE      CODE     ---       #173
      01005B1DH   LINE      CODE     ---       #174
      01005B20H   LINE      CODE     ---       #175
      01005B20H   LINE      CODE     ---       #177
      01005B23H   LINE      CODE     ---       #178
      01005B25H   LINE      CODE     ---       #179
      01005B27H   LINE      CODE     ---       #180
      01005B29H   LINE      CODE     ---       #182
      01005B29H   LINE      CODE     ---       #183
      01005B2CH   LINE      CODE     ---       #186
      01005B2CH   LINE      CODE     ---       #187
      01005B35H   LINE      CODE     ---       #188
      01005B37H   LINE      CODE     ---       #189
      01005B39H   LINE      CODE     ---       #190
      01005B3EH   LINE      CODE     ---       #191
      01005B43H   LINE      CODE     ---       #192
      01005B46H   LINE      CODE     ---       #193
      01005B48H   LINE      CODE     ---       #194
      01005B48H   LINE      CODE     ---       #195
      01005B4BH   LINE      CODE     ---       #196
      01005B4BH   LINE      CODE     ---       #197
      01005B4EH   LINE      CODE     ---       #198
      ---         BLOCKEND  ---      ---       LVL=0

      01006E0AH   BLOCK     CODE     ---       LVL=0
      01006E0AH   BLOCK     CODE     NEAR LAB  LVL=1
      0200108FH   SYMBOL    XDATA    WORD      counter_calibration
      ---         BLOCKEND  ---      ---       LVL=1
      01006E0AH   LINE      CODE     ---       #207
      01006E0AH   LINE      CODE     ---       #211
      01006E13H   LINE      CODE     ---       #215
      01006E16H   LINE      CODE     ---       #216
      01006E18H   LINE      CODE     ---       #217
      01006E1BH   LINE      CODE     ---       #218
      01006E1BH   LINE      CODE     ---       #220
      01006E1EH   LINE      CODE     ---       #232
      01006E31H   LINE      CODE     ---       #234
      01006E34H   LINE      CODE     ---       #235
      01006E36H   LINE      CODE     ---       #236
      01006E39H   LINE      CODE     ---       #237
      01006E39H   LINE      CODE     ---       #239
      01006E42H   LINE      CODE     ---       #240
      01006E4DH   LINE      CODE     ---       #242
      ---         BLOCKEND  ---      ---       LVL=0

      ---         MODULE    ---      ---       MAIN
      01006442H   PUBLIC    CODE     ---       main
      000000CAH   SFRSYM    DATA     BYTE      SFRPRT5SEL
      000000DAH   SFRSYM    DATA     BYTE      SFRPRT6SEL
      000000D0H.6 SFRSYM    DATA     BIT       AC
      000000A8H.7 SFRSYM    DATA     BIT       EA
      000000A8H   SFRSYM    DATA     BYTE      IE
      00000085H   SFRSYM    DATA     BYTE      DPH1
      00000084H   SFRSYM    DATA     BYTE      DPL1
      000000D0H.7 SFRSYM    DATA     BIT       CY
      000000A0H   SFRSYM    DATA     BYTE      P2AX
      00000095H   SFRSYM    DATA     BYTE      DPX1
      00000081H   SFRSYM    DATA     BYTE      SP
      000000D0H.2 SFRSYM    DATA     BIT       OV
LX51 LINKER/LOCATER V4.64.0.0                                                         06/15/2017  12:28:54  PAGE 43


      00000080H   SFRSYM    DATA     BYTE      SFRPRT0DR
      00000090H   SFRSYM    DATA     BYTE      SFRPRT1DR
      000000F2H   SFRSYM    DATA     BYTE      SFRPRT12SEL
      00000098H   SFRSYM    DATA     BYTE      SFRPRT2DR
      000000B0H   SFRSYM    DATA     BYTE      SFRPRT3DR
      000000C0H   SFRSYM    DATA     BYTE      SFRPRT4DR
      000000FAH   SFRSYM    DATA     BYTE      SFRPRT15SEL
      000000C8H   SFRSYM    DATA     BYTE      SFRPRT5DR
      000000D8H   SFRSYM    DATA     BYTE      SFRPRT6DR
      00000089H   SFRSYM    DATA     BYTE      SFRPRT0PS
      00000091H   SFRSYM    DATA     BYTE      SFRPRT1PS
      00000099H   SFRSYM    DATA     BYTE      SFRPRT2PS
      000000B1H   SFRSYM    DATA     BYTE      SFRPRT3PS
      000000C1H   SFRSYM    DATA     BYTE      SFRPRT4PS
      000000C9H   SFRSYM    DATA     BYTE      SFRPRT5PS
      000000D9H   SFRSYM    DATA     BYTE      SFRPRT6PS
      000000EAH   SFRSYM    DATA     BYTE      MXAX
      000000F0H   SFRSYM    DATA     BYTE      B
      000000E0H   SFRSYM    DATA     BYTE      ACC
      000000D0H   SFRSYM    DATA     BIT       P
      000000D0H.3 SFRSYM    DATA     BIT       RS0
      000000D0H.4 SFRSYM    DATA     BIT       RS1
      00000083H   SFRSYM    DATA     BYTE      DPH
      000000E8H   SFRSYM    DATA     BYTE      SFRPRT12DR
      00000082H   SFRSYM    DATA     BYTE      DPL
      000000F8H   SFRSYM    DATA     BYTE      SFRPRT15DR
      00000086H   SFRSYM    DATA     BYTE      DPS
      000000E9H   SFRSYM    DATA     BYTE      SFRPRT12PS
      00000093H   SFRSYM    DATA     BYTE      DPX
      000000F9H   SFRSYM    DATA     BYTE      SFRPRT15PS
      000000D0H.5 SFRSYM    DATA     BIT       F0
      000000D0H.1 SFRSYM    DATA     BIT       F1
      0000008AH   SFRSYM    DATA     BYTE      SFRPRT0SEL
      000000D0H   SFRSYM    DATA     BYTE      PSW
      000000A2H   SFRSYM    DATA     BYTE      SFRPRT1SEL
      0000009AH   SFRSYM    DATA     BYTE      SFRPRT2SEL
      000000B2H   SFRSYM    DATA     BYTE      SFRPRT3SEL
      000000C2H   SFRSYM    DATA     BYTE      SFRPRT4SEL

      01006442H   BLOCK     CODE     ---       LVL=0
      01006442H   BLOCK     CODE     NEAR LAB  LVL=1
      02000583H   SYMBOL    XDATA    BYTE      i
      02000584H   SYMBOL    XDATA    BYTE      DMA_Chan
      02000585H   SYMBOL    XDATA    ---       DMA_TD
      02000586H   SYMBOL    XDATA    INT       k_imu
      ---         BLOCKEND  ---      ---       LVL=1
      01006442H   LINE      CODE     ---       #50
      01006442H   LINE      CODE     ---       #51
      01006442H   LINE      CODE     ---       #67
      01006445H   LINE      CODE     ---       #68
      01006448H   LINE      CODE     ---       #72
      01006451H   LINE      CODE     ---       #73
      01006456H   LINE      CODE     ---       #77
      01006459H   LINE      CODE     ---       #78
      0100645CH   LINE      CODE     ---       #79
      0100645FH   LINE      CODE     ---       #81
      01006462H   LINE      CODE     ---       #82
      01006465H   LINE      CODE     ---       #84
      0100646CH   LINE      CODE     ---       #88
      0100646FH   LINE      CODE     ---       #90
      01006476H   LINE      CODE     ---       #92
      0100647BH   LINE      CODE     ---       #96
      0100647EH   LINE      CODE     ---       #97
      01006481H   LINE      CODE     ---       #99
      01006489H   LINE      CODE     ---       #102
LX51 LINKER/LOCATER V4.64.0.0                                                         06/15/2017  12:28:54  PAGE 44


      0100648CH   LINE      CODE     ---       #103
      0100648FH   LINE      CODE     ---       #104
      01006492H   LINE      CODE     ---       #105
      01006495H   LINE      CODE     ---       #106
      01006498H   LINE      CODE     ---       #107
      0100649BH   LINE      CODE     ---       #108
      010064A4H   LINE      CODE     ---       #110
      010064A9H   LINE      CODE     ---       #113
      010064ACH   LINE      CODE     ---       #135
      010064B1H   LINE      CODE     ---       #136
      010064B3H   LINE      CODE     ---       #138
      010064B5H   LINE      CODE     ---       #141
      010064BBH   LINE      CODE     ---       #142
      010064BFH   LINE      CODE     ---       #146
      010064BFH   LINE      CODE     ---       #147
      010064BFH   LINE      CODE     ---       #149
      010064C4H   LINE      CODE     ---       #152
      010064C7H   LINE      CODE     ---       #155
      010064CDH   LINE      CODE     ---       #157
      010064D0H   LINE      CODE     ---       #159
      010064D5H   LINE      CODE     ---       #161
      010064D7H   LINE      CODE     ---       #162
      010064D9H   LINE      CODE     ---       #164
      010064DCH   LINE      CODE     ---       #165
      010064DEH   LINE      CODE     ---       #167
      010064DEH   LINE      CODE     ---       #168
      010064E1H   LINE      CODE     ---       #170
      010064E6H   LINE      CODE     ---       #172
      010064E6H   LINE      CODE     ---       #173
      010064E6H   LINE      CODE     ---       #174
      010064E8H   LINE      CODE     ---       #177
      010064EDH   LINE      CODE     ---       #180
      010064F5H   LINE      CODE     ---       #182
      010064FCH   LINE      CODE     ---       #183
      010064FFH   LINE      CODE     ---       #184
      01006501H   LINE      CODE     ---       #185
      01006501H   LINE      CODE     ---       #186
      ---         BLOCKEND  ---      ---       LVL=0

      ---         MODULE    ---      ---       UTILS
      000000CAH   SFRSYM    DATA     BYTE      SFRPRT5SEL
      000000DAH   SFRSYM    DATA     BYTE      SFRPRT6SEL
      000000D0H.6 SFRSYM    DATA     BIT       AC
      000000A8H.7 SFRSYM    DATA     BIT       EA
      000000A8H   SFRSYM    DATA     BYTE      IE
      00000085H   SFRSYM    DATA     BYTE      DPH1
      00000084H   SFRSYM    DATA     BYTE      DPL1
      000000D0H.7 SFRSYM    DATA     BIT       CY
      000000A0H   SFRSYM    DATA     BYTE      P2AX
      00000095H   SFRSYM    DATA     BYTE      DPX1
      00000081H   SFRSYM    DATA     BYTE      SP
      000000D0H.2 SFRSYM    DATA     BIT       OV
      00000080H   SFRSYM    DATA     BYTE      SFRPRT0DR
      00000090H   SFRSYM    DATA     BYTE      SFRPRT1DR
      000000F2H   SFRSYM    DATA     BYTE      SFRPRT12SEL
      00000098H   SFRSYM    DATA     BYTE      SFRPRT2DR
      000000B0H   SFRSYM    DATA     BYTE      SFRPRT3DR
      000000C0H   SFRSYM    DATA     BYTE      SFRPRT4DR
      000000FAH   SFRSYM    DATA     BYTE      SFRPRT15SEL
      000000C8H   SFRSYM    DATA     BYTE      SFRPRT5DR
      000000D8H   SFRSYM    DATA     BYTE      SFRPRT6DR
      00000089H   SFRSYM    DATA     BYTE      SFRPRT0PS
      00000091H   SFRSYM    DATA     BYTE      SFRPRT1PS
      00000099H   SFRSYM    DATA     BYTE      SFRPRT2PS
      000000B1H   SFRSYM    DATA     BYTE      SFRPRT3PS
LX51 LINKER/LOCATER V4.64.0.0                                                         06/15/2017  12:28:54  PAGE 45


      000000C1H   SFRSYM    DATA     BYTE      SFRPRT4PS
      000000C9H   SFRSYM    DATA     BYTE      SFRPRT5PS
      000000D9H   SFRSYM    DATA     BYTE      SFRPRT6PS
      000000EAH   SFRSYM    DATA     BYTE      MXAX
      000000F0H   SFRSYM    DATA     BYTE      B
      000000E0H   SFRSYM    DATA     BYTE      ACC
      000000D0H   SFRSYM    DATA     BIT       P
      000000D0H.3 SFRSYM    DATA     BIT       RS0
      000000D0H.4 SFRSYM    DATA     BIT       RS1
      00000083H   SFRSYM    DATA     BYTE      DPH
      000000E8H   SFRSYM    DATA     BYTE      SFRPRT12DR
      00000082H   SFRSYM    DATA     BYTE      DPL
      000000F8H   SFRSYM    DATA     BYTE      SFRPRT15DR
      00000086H   SFRSYM    DATA     BYTE      DPS
      000000E9H   SFRSYM    DATA     BYTE      SFRPRT12PS
      00000093H   SFRSYM    DATA     BYTE      DPX
      000000F9H   SFRSYM    DATA     BYTE      SFRPRT15PS
      000000D0H.5 SFRSYM    DATA     BIT       F0
      000000D0H.1 SFRSYM    DATA     BIT       F1
      0000008AH   SFRSYM    DATA     BYTE      SFRPRT0SEL
      000000D0H   SFRSYM    DATA     BYTE      PSW
      000000A2H   SFRSYM    DATA     BYTE      SFRPRT1SEL
      0000009AH   SFRSYM    DATA     BYTE      SFRPRT2SEL
      000000B2H   SFRSYM    DATA     BYTE      SFRPRT3SEL
      000000C2H   SFRSYM    DATA     BYTE      SFRPRT4SEL
      00000004H   SYMBOL    DATA     LONG      new_value
      020010FBH   SYMBOL    XDATA    LONG      old_value
      020010FFH   SYMBOL    XDATA    LONG      aux
      00000004H   SYMBOL    DATA     LONG      new_value
      02001103H   SYMBOL    XDATA    LONG      old_value
      02001107H   SYMBOL    XDATA    LONG      aux
      00000004H   SYMBOL    DATA     LONG      new_value
      0200110BH   SYMBOL    XDATA    LONG      old_value
      0200110FH   SYMBOL    XDATA    LONG      aux
      00000004H   SYMBOL    DATA     LONG      new_value
      02001113H   SYMBOL    XDATA    LONG      old_value
      02001117H   SYMBOL    XDATA    LONG      aux
      00000001H   SYMBOL    DATA     ---       value
      00000004H   SYMBOL    DATA     LONG      x
      00000004H   SYMBOL    DATA     LONG      aux

      ---         MODULE    ---      ---       IMU_FUNCTIONS
      010073AEH   PUBLIC    CODE     ---       _ReadControlRegister
      0100709EH   PUBLIC    CODE     ---       _WriteControlRegister
      01006B92H   PUBLIC    CODE     ---       _ReadTemp
      01004DA3H   PUBLIC    CODE     ---       ReadAllIMUs
      010068BEH   PUBLIC    CODE     ---       _ReadMagCal
      0100608BH   PUBLIC    CODE     ---       _ReadMag
      01005F90H   PUBLIC    CODE     ---       _ReadGyro
      01005E95H   PUBLIC    CODE     ---       _ReadAcc
      010067ADH   PUBLIC    CODE     ---       _ReadIMU
      0100511EH   PUBLIC    CODE     ---       InitIMUgeneral
      01006D7AH   PUBLIC    CODE     ---       _ChipSelector
      01006272H   PUBLIC    CODE     ---       InitIMUMagCal
      01006181H   PUBLIC    CODE     ---       InitIMU
      000000CAH   SFRSYM    DATA     BYTE      SFRPRT5SEL
      000000DAH   SFRSYM    DATA     BYTE      SFRPRT6SEL
      000000D0H.6 SFRSYM    DATA     BIT       AC
      000000A8H.7 SFRSYM    DATA     BIT       EA
      000000A8H   SFRSYM    DATA     BYTE      IE
      00000085H   SFRSYM    DATA     BYTE      DPH1
      00000084H   SFRSYM    DATA     BYTE      DPL1
      000000D0H.7 SFRSYM    DATA     BIT       CY
      000000A0H   SFRSYM    DATA     BYTE      P2AX
      00000095H   SFRSYM    DATA     BYTE      DPX1
LX51 LINKER/LOCATER V4.64.0.0                                                         06/15/2017  12:28:54  PAGE 46


      00000081H   SFRSYM    DATA     BYTE      SP
      000000D0H.2 SFRSYM    DATA     BIT       OV
      00000080H   SFRSYM    DATA     BYTE      SFRPRT0DR
      00000090H   SFRSYM    DATA     BYTE      SFRPRT1DR
      000000F2H   SFRSYM    DATA     BYTE      SFRPRT12SEL
      00000098H   SFRSYM    DATA     BYTE      SFRPRT2DR
      000000B0H   SFRSYM    DATA     BYTE      SFRPRT3DR
      000000C0H   SFRSYM    DATA     BYTE      SFRPRT4DR
      000000FAH   SFRSYM    DATA     BYTE      SFRPRT15SEL
      000000C8H   SFRSYM    DATA     BYTE      SFRPRT5DR
      000000D8H   SFRSYM    DATA     BYTE      SFRPRT6DR
      00000089H   SFRSYM    DATA     BYTE      SFRPRT0PS
      00000091H   SFRSYM    DATA     BYTE      SFRPRT1PS
      00000099H   SFRSYM    DATA     BYTE      SFRPRT2PS
      000000B1H   SFRSYM    DATA     BYTE      SFRPRT3PS
      000000C1H   SFRSYM    DATA     BYTE      SFRPRT4PS
      000000C9H   SFRSYM    DATA     BYTE      SFRPRT5PS
      000000D9H   SFRSYM    DATA     BYTE      SFRPRT6PS
      000000EAH   SFRSYM    DATA     BYTE      MXAX
      000000F0H   SFRSYM    DATA     BYTE      B
      000000E0H   SFRSYM    DATA     BYTE      ACC
      000000D0H   SFRSYM    DATA     BIT       P
      000000D0H.3 SFRSYM    DATA     BIT       RS0
      000000D0H.4 SFRSYM    DATA     BIT       RS1
      00000083H   SFRSYM    DATA     BYTE      DPH
      000000E8H   SFRSYM    DATA     BYTE      SFRPRT12DR
      00000082H   SFRSYM    DATA     BYTE      DPL
      000000F8H   SFRSYM    DATA     BYTE      SFRPRT15DR
      00000086H   SFRSYM    DATA     BYTE      DPS
      000000E9H   SFRSYM    DATA     BYTE      SFRPRT12PS
      00000093H   SFRSYM    DATA     BYTE      DPX
      000000F9H   SFRSYM    DATA     BYTE      SFRPRT15PS
      000000D0H.5 SFRSYM    DATA     BIT       F0
      000000D0H.1 SFRSYM    DATA     BIT       F1
      0000008AH   SFRSYM    DATA     BYTE      SFRPRT0SEL
      000000D0H   SFRSYM    DATA     BYTE      PSW
      000000A2H   SFRSYM    DATA     BYTE      SFRPRT1SEL
      0000009AH   SFRSYM    DATA     BYTE      SFRPRT2SEL
      000000B2H   SFRSYM    DATA     BYTE      SFRPRT3SEL
      000000C2H   SFRSYM    DATA     BYTE      SFRPRT4SEL

      01006181H   BLOCK     CODE     ---       LVL=0
      01006181H   LINE      CODE     ---       #45
      01006181H   LINE      CODE     ---       #47
      01006188H   LINE      CODE     ---       #48
      01006191H   LINE      CODE     ---       #49
      01006198H   LINE      CODE     ---       #50
      010061A1H   LINE      CODE     ---       #51
      010061A8H   LINE      CODE     ---       #52
      010061B1H   LINE      CODE     ---       #53
      010061B8H   LINE      CODE     ---       #54
      010061C1H   LINE      CODE     ---       #55
      010061C8H   LINE      CODE     ---       #56
      010061D1H   LINE      CODE     ---       #57
      010061D8H   LINE      CODE     ---       #58
      010061E1H   LINE      CODE     ---       #60
      010061E8H   LINE      CODE     ---       #61
      010061F1H   LINE      CODE     ---       #63
      010061F8H   LINE      CODE     ---       #64
      01006201H   LINE      CODE     ---       #65
      01006208H   LINE      CODE     ---       #66
      01006211H   LINE      CODE     ---       #68
      01006218H   LINE      CODE     ---       #69
      01006221H   LINE      CODE     ---       #70
      01006228H   LINE      CODE     ---       #71
LX51 LINKER/LOCATER V4.64.0.0                                                         06/15/2017  12:28:54  PAGE 47


      01006231H   LINE      CODE     ---       #73
      01006238H   LINE      CODE     ---       #74
      01006241H   LINE      CODE     ---       #76
      01006248H   LINE      CODE     ---       #77
      01006251H   LINE      CODE     ---       #79
      01006258H   LINE      CODE     ---       #80
      01006261H   LINE      CODE     ---       #81
      01006268H   LINE      CODE     ---       #82
      01006271H   LINE      CODE     ---       #83
      ---         BLOCKEND  ---      ---       LVL=0

      01006272H   BLOCK     CODE     ---       LVL=0
      01006272H   LINE      CODE     ---       #88
      01006272H   LINE      CODE     ---       #90
      01006279H   LINE      CODE     ---       #91
      01006282H   LINE      CODE     ---       #92
      01006289H   LINE      CODE     ---       #93
      01006292H   LINE      CODE     ---       #94
      01006299H   LINE      CODE     ---       #95
      010062A2H   LINE      CODE     ---       #96
      010062A9H   LINE      CODE     ---       #97
      010062B2H   LINE      CODE     ---       #98
      010062B9H   LINE      CODE     ---       #99
      010062C2H   LINE      CODE     ---       #100
      010062C9H   LINE      CODE     ---       #101
      010062D2H   LINE      CODE     ---       #103
      010062D9H   LINE      CODE     ---       #104
      010062E2H   LINE      CODE     ---       #106
      010062E9H   LINE      CODE     ---       #107
      010062F2H   LINE      CODE     ---       #108
      010062F9H   LINE      CODE     ---       #109
      01006302H   LINE      CODE     ---       #110
      01006309H   LINE      CODE     ---       #111
      01006312H   LINE      CODE     ---       #112
      01006319H   LINE      CODE     ---       #113
      01006322H   LINE      CODE     ---       #115
      01006329H   LINE      CODE     ---       #116
      01006332H   LINE      CODE     ---       #117
      01006339H   LINE      CODE     ---       #118
      01006342H   LINE      CODE     ---       #119
      01006349H   LINE      CODE     ---       #120
      01006352H   LINE      CODE     ---       #121
      01006359H   LINE      CODE     ---       #122
      01006362H   LINE      CODE     ---       #123
      ---         BLOCKEND  ---      ---       LVL=0

      01006D7AH   BLOCK     CODE     ---       LVL=0
      02000A55H   SYMBOL    XDATA    INT       n
      01006D7AH   LINE      CODE     ---       #128
      01006D82H   LINE      CODE     ---       #129
      01006D82H   LINE      CODE     ---       #130
      01006D87H   LINE      CODE     ---       #131
      01006D8CH   LINE      CODE     ---       #133
      01006D9EH   LINE      CODE     ---       #134
      01006DA1H   LINE      CODE     ---       #135
      01006DADH   LINE      CODE     ---       #136
      01006DB1H   LINE      CODE     ---       #137
      01006DBDH   LINE      CODE     ---       #138
      01006DC2H   LINE      CODE     ---       #139
      ---         BLOCKEND  ---      ---       LVL=0

      0100511EH   BLOCK     CODE     ---       LVL=0
      0100511EH   BLOCK     CODE     NEAR LAB  LVL=1
      02000588H   SYMBOL    XDATA    BYTE      k_imu
      02000589H   SYMBOL    XDATA    BYTE      count
LX51 LINKER/LOCATER V4.64.0.0                                                         06/15/2017  12:28:54  PAGE 48


      0200058AH   SYMBOL    XDATA    INT       IMU_ack
      0200058CH   SYMBOL    XDATA    ---       tmp
      ---         BLOCKEND  ---      ---       LVL=1
      0100511EH   LINE      CODE     ---       #144
      0100511EH   LINE      CODE     ---       #145
      0100511EH   LINE      CODE     ---       #147
      01005123H   LINE      CODE     ---       #152
      01005130H   LINE      CODE     ---       #153
      0100513FH   LINE      CODE     ---       #157
      0100514EH   LINE      CODE     ---       #158
      0100514EH   LINE      CODE     ---       #159
      01005153H   LINE      CODE     ---       #160
      0100515CH   LINE      CODE     ---       #161
      0100515FH   LINE      CODE     ---       #162
      01005168H   LINE      CODE     ---       #163
      0100517DH   LINE      CODE     ---       #164
      0100518EH   LINE      CODE     ---       #165
      0100519EH   LINE      CODE     ---       #166
      010051AEH   LINE      CODE     ---       #167
      010051BFH   LINE      CODE     ---       #168
      010051C8H   LINE      CODE     ---       #171
      010051D1H   LINE      CODE     ---       #172
      010051E0H   LINE      CODE     ---       #173
      010051E5H   LINE      CODE     ---       #174
      010051EFH   LINE      CODE     ---       #175
      010051F7H   LINE      CODE     ---       #178
      010051FDH   LINE      CODE     ---       #179
      01005206H   LINE      CODE     ---       #180
      01005213H   LINE      CODE     ---       #181
      0100521AH   LINE      CODE     ---       #182
      0100521EH   LINE      CODE     ---       #183
      0100522CH   LINE      CODE     ---       #184
      0100522CH   LINE      CODE     ---       #185
      01005231H   LINE      CODE     ---       #186
      0100523AH   LINE      CODE     ---       #187
      01005249H   LINE      CODE     ---       #188
      0100524DH   LINE      CODE     ---       #189
      0100524DH   LINE      CODE     ---       #190
      01005253H   LINE      CODE     ---       #191
      0100525AH   LINE      CODE     ---       #192
      0100526EH   LINE      CODE     ---       #193
      01005270H   LINE      CODE     ---       #195
      01005283H   LINE      CODE     ---       #196
      0100528BH   LINE      CODE     ---       #197
      0100529AH   LINE      CODE     ---       #198
      010052A9H   LINE      CODE     ---       #199
      010052B8H   LINE      CODE     ---       #200
      010052C7H   LINE      CODE     ---       #201
      010052C7H   LINE      CODE     ---       #202
      010052DCH   LINE      CODE     ---       #203
      010052DCH   LINE      CODE     ---       #204
      010052EDH   LINE      CODE     ---       #205
      010052F3H   LINE      CODE     ---       #206
      010052F3H   LINE      CODE     ---       #207
      010052FBH   LINE      CODE     ---       #210
      01005300H   LINE      CODE     ---       #211
      01005309H   LINE      CODE     ---       #212
      0100530EH   LINE      CODE     ---       #213
      01005317H   LINE      CODE     ---       #214
      01005326H   LINE      CODE     ---       #215
      01005326H   LINE      CODE     ---       #216
      0100532BH   LINE      CODE     ---       #217
      01005334H   LINE      CODE     ---       #218
      01005337H   LINE      CODE     ---       #219
      01005340H   LINE      CODE     ---       #220
LX51 LINKER/LOCATER V4.64.0.0                                                         06/15/2017  12:28:54  PAGE 49


      01005355H   LINE      CODE     ---       #221
      01005366H   LINE      CODE     ---       #222
      01005376H   LINE      CODE     ---       #223
      01005386H   LINE      CODE     ---       #224
      01005397H   LINE      CODE     ---       #225
      010053A0H   LINE      CODE     ---       #226
      010053A9H   LINE      CODE     ---       #229
      010053B1H   LINE      CODE     ---       #230
      010053C7H   LINE      CODE     ---       #231
      010053C7H   LINE      CODE     ---       #232
      0100544CH   LINE      CODE     ---       #233
      01005473H   LINE      CODE     ---       #234
      0100547CH   LINE      CODE     ---       #235
      0100548AH   LINE      CODE     ---       #238
      ---         BLOCKEND  ---      ---       LVL=0

      010067ADH   BLOCK     CODE     ---       LVL=0
      02000A55H   SYMBOL    XDATA    INT       n
      010067ADH   LINE      CODE     ---       #243
      010067B5H   LINE      CODE     ---       #244
      010067B5H   LINE      CODE     ---       #245
      010067D5H   LINE      CODE     ---       #246
      010067F5H   LINE      CODE     ---       #247
      01006815H   LINE      CODE     ---       #249
      01006835H   LINE      CODE     ---       #250
      ---         BLOCKEND  ---      ---       LVL=0

      01005E95H   BLOCK     CODE     ---       LVL=0
      00000006H   SYMBOL    DATA     INT       n
      01005E95H   BLOCK     CODE     NEAR LAB  LVL=1
      02000A57H   SYMBOL    XDATA    BYTE      low
      02000A58H   SYMBOL    XDATA    BYTE      high
      02000A59H   SYMBOL    XDATA    INT       row
      ---         BLOCKEND  ---      ---       LVL=1
      01005E95H   LINE      CODE     ---       #255
      01005E95H   LINE      CODE     ---       #256
      01005E95H   LINE      CODE     ---       #257
      01005E9CH   LINE      CODE     ---       #259
      01005EA2H   LINE      CODE     ---       #262
      01005EACH   LINE      CODE     ---       #263
      01005EB6H   LINE      CODE     ---       #265
      01005ED0H   LINE      CODE     ---       #266
      01005EEAH   LINE      CODE     ---       #267
      01005EF1H   LINE      CODE     ---       #270
      01005EFBH   LINE      CODE     ---       #271
      01005F05H   LINE      CODE     ---       #273
      01005F1FH   LINE      CODE     ---       #274
      01005F39H   LINE      CODE     ---       #275
      01005F40H   LINE      CODE     ---       #278
      01005F4AH   LINE      CODE     ---       #279
      01005F54H   LINE      CODE     ---       #281
      01005F6EH   LINE      CODE     ---       #282
      01005F88H   LINE      CODE     ---       #283
      01005F8FH   LINE      CODE     ---       #285
      ---         BLOCKEND  ---      ---       LVL=0

      01005F90H   BLOCK     CODE     ---       LVL=0
      00000006H   SYMBOL    DATA     INT       n
      01005F90H   BLOCK     CODE     NEAR LAB  LVL=1
      02000A57H   SYMBOL    XDATA    BYTE      low
      02000A58H   SYMBOL    XDATA    BYTE      high
      02000A59H   SYMBOL    XDATA    INT       row
      ---         BLOCKEND  ---      ---       LVL=1
      01005F90H   LINE      CODE     ---       #290
      01005F90H   LINE      CODE     ---       #291
LX51 LINKER/LOCATER V4.64.0.0                                                         06/15/2017  12:28:54  PAGE 50


      01005F97H   LINE      CODE     ---       #293
      01005F9DH   LINE      CODE     ---       #296
      01005FA7H   LINE      CODE     ---       #297
      01005FB1H   LINE      CODE     ---       #299
      01005FCBH   LINE      CODE     ---       #300
      01005FE5H   LINE      CODE     ---       #301
      01005FECH   LINE      CODE     ---       #303
      01005FF6H   LINE      CODE     ---       #304
      01006000H   LINE      CODE     ---       #306
      0100601AH   LINE      CODE     ---       #307
      01006034H   LINE      CODE     ---       #308
      0100603BH   LINE      CODE     ---       #311
      01006045H   LINE      CODE     ---       #312
      0100604FH   LINE      CODE     ---       #314
      01006069H   LINE      CODE     ---       #315
      01006083H   LINE      CODE     ---       #317
      0100608AH   LINE      CODE     ---       #318
      ---         BLOCKEND  ---      ---       LVL=0

      0100608BH   BLOCK     CODE     ---       LVL=0
      00000006H   SYMBOL    DATA     INT       n
      0100608BH   BLOCK     CODE     NEAR LAB  LVL=1
      02000A57H   SYMBOL    XDATA    BYTE      low
      02000A58H   SYMBOL    XDATA    BYTE      high
      02000A59H   SYMBOL    XDATA    INT       row
      ---         BLOCKEND  ---      ---       LVL=1
      0100608BH   LINE      CODE     ---       #322
      0100608BH   LINE      CODE     ---       #325
      01006093H   LINE      CODE     ---       #327
      0100609DH   LINE      CODE     ---       #328
      010060A7H   LINE      CODE     ---       #330
      010060C1H   LINE      CODE     ---       #331
      010060DBH   LINE      CODE     ---       #332
      010060E2H   LINE      CODE     ---       #334
      010060ECH   LINE      CODE     ---       #335
      010060F6H   LINE      CODE     ---       #337
      01006110H   LINE      CODE     ---       #338
      0100612AH   LINE      CODE     ---       #339
      01006131H   LINE      CODE     ---       #341
      0100613BH   LINE      CODE     ---       #342
      01006145H   LINE      CODE     ---       #344
      0100615FH   LINE      CODE     ---       #345
      01006179H   LINE      CODE     ---       #346
      01006180H   LINE      CODE     ---       #347
      ---         BLOCKEND  ---      ---       LVL=0

      010068BEH   BLOCK     CODE     ---       LVL=0
      00000006H   SYMBOL    DATA     INT       n
      010068BEH   BLOCK     CODE     NEAR LAB  LVL=1
      020005AEH   SYMBOL    XDATA    BYTE      read
      020005AFH   SYMBOL    XDATA    INT       row
      ---         BLOCKEND  ---      ---       LVL=1
      010068BEH   LINE      CODE     ---       #351
      010068BEH   LINE      CODE     ---       #353
      010068C3H   LINE      CODE     ---       #354
      010068C9H   LINE      CODE     ---       #356
      010068D3H   LINE      CODE     ---       #357
      010068ECH   LINE      CODE     ---       #358
      010068F1H   LINE      CODE     ---       #360
      010068FBH   LINE      CODE     ---       #361
      01006914H   LINE      CODE     ---       #362
      01006919H   LINE      CODE     ---       #364
      01006923H   LINE      CODE     ---       #365
      0100693CH   LINE      CODE     ---       #366
      01006941H   LINE      CODE     ---       #368
LX51 LINKER/LOCATER V4.64.0.0                                                         06/15/2017  12:28:54  PAGE 51


      ---         BLOCKEND  ---      ---       LVL=0

      01004DA3H   BLOCK     CODE     ---       LVL=0
      01004DA3H   BLOCK     CODE     NEAR LAB  LVL=1
      02001136H   SYMBOL    XDATA    BYTE      k_imu
      02000588H   SYMBOL    XDATA    WORD      tmp
      ---         BLOCKEND  ---      ---       LVL=1
      01004DA3H   LINE      CODE     ---       #373
      01004DA3H   LINE      CODE     ---       #375
      01004DAAH   LINE      CODE     ---       #378
      01004DBFH   LINE      CODE     ---       #380
      01004DD0H   LINE      CODE     ---       #381
      01004DE4H   LINE      CODE     ---       #383
      01004E0BH   LINE      CODE     ---       #384
      01004E36H   LINE      CODE     ---       #385
      01004E5DH   LINE      CODE     ---       #386
      01004E88H   LINE      CODE     ---       #387
      01004EAFH   LINE      CODE     ---       #388
      01004EDAH   LINE      CODE     ---       #390
      01004F01H   LINE      CODE     ---       #391
      01004F2CH   LINE      CODE     ---       #392
      01004F53H   LINE      CODE     ---       #393
      01004F7EH   LINE      CODE     ---       #394
      01004FA5H   LINE      CODE     ---       #395
      01004FD0H   LINE      CODE     ---       #397
      01004FF7H   LINE      CODE     ---       #398
      01005022H   LINE      CODE     ---       #399
      01005049H   LINE      CODE     ---       #400
      01005074H   LINE      CODE     ---       #401
      0100509BH   LINE      CODE     ---       #402
      010050C6H   LINE      CODE     ---       #404
      010050EBH   LINE      CODE     ---       #405
      01005114H   LINE      CODE     ---       #406
      0100511DH   LINE      CODE     ---       #407
      ---         BLOCKEND  ---      ---       LVL=0

      01006B92H   BLOCK     CODE     ---       LVL=0
      00000006H   SYMBOL    DATA     INT       n
      01006B92H   BLOCK     CODE     NEAR LAB  LVL=1
      02000A57H   SYMBOL    XDATA    BYTE      low
      02000A58H   SYMBOL    XDATA    BYTE      high
      02000A59H   SYMBOL    XDATA    INT       row
      ---         BLOCKEND  ---      ---       LVL=1
      01006B92H   LINE      CODE     ---       #413
      01006B92H   LINE      CODE     ---       #414
      01006B92H   LINE      CODE     ---       #415
      01006B99H   LINE      CODE     ---       #417
      01006B9FH   LINE      CODE     ---       #420
      01006BA9H   LINE      CODE     ---       #421
      01006BB4H   LINE      CODE     ---       #423
      01006BCDH   LINE      CODE     ---       #424
      01006BDEH   LINE      CODE     ---       #425
      01006BE5H   LINE      CODE     ---       #426
      ---         BLOCKEND  ---      ---       LVL=0

      0100709EH   BLOCK     CODE     ---       LVL=0
      020005AEH   SYMBOL    XDATA    BYTE      address
      020005AFH   SYMBOL    XDATA    BYTE      dta
      0100709EH   LINE      CODE     ---       #539
      010070A6H   LINE      CODE     ---       #541
      010070A9H   LINE      CODE     ---       #542
      010070ACH   LINE      CODE     ---       #543
      010070AFH   LINE      CODE     ---       #544
      010070B7H   LINE      CODE     ---       #545
      010070BEH   LINE      CODE     ---       #546
LX51 LINKER/LOCATER V4.64.0.0                                                         06/15/2017  12:28:54  PAGE 52


      010070C6H   LINE      CODE     ---       #547
      010070CDH   LINE      CODE     ---       #548
      ---         BLOCKEND  ---      ---       LVL=0

      010073AEH   BLOCK     CODE     ---       LVL=0
      00000007H   SYMBOL    DATA     BYTE      address
      010073AEH   BLOCK     CODE     NEAR LAB  LVL=1
      00000007H   SYMBOL    DATA     BYTE      controlreg
      ---         BLOCKEND  ---      ---       LVL=1
      010073AEH   LINE      CODE     ---       #553
      010073AEH   LINE      CODE     ---       #557
      010073B5H   LINE      CODE     ---       #558
      010073BAH   LINE      CODE     ---       #559
      010073C1H   LINE      CODE     ---       #560
      010073C4H   LINE      CODE     ---       #561
      010073C4H   LINE      CODE     ---       #562
      ---         BLOCKEND  ---      ---       LVL=0

      ---         MODULE    ---      ---       UART_RS485
      020010FAH   PUBLIC    XDATA    BYTE      UART_RS485_errorStatus
      020010F9H   PUBLIC    XDATA    BYTE      UART_RS485_rxBufferOverflow
      020010F8H   PUBLIC    XDATA    BYTE      UART_RS485_initVar
      020010F7H   PUBLIC    XDATA    BYTE      UART_RS485_rxBufferWrite
      020010D7H   PUBLIC    XDATA    ---       UART_RS485_rxBuffer
      020010D6H   PUBLIC    XDATA    BYTE      UART_RS485_rxBufferRead
      020010D5H   PUBLIC    XDATA    BYTE      UART_RS485_rxBufferLoopDetect
      010074F4H   PUBLIC    CODE     ---       UART_RS485_ClearTxBuffer
      01006F47H   PUBLIC    CODE     ---       _UART_RS485_PutString
      010075DAH   PUBLIC    CODE     ---       _UART_RS485_PutChar
      010076A6H   PUBLIC    CODE     ---       UART_RS485_ReadTxStatus
      010070CEH   PUBLIC    CODE     ---       UART_RS485_ClearRxBuffer
      01006CDEH   PUBLIC    CODE     ---       UART_RS485_GetRxBufferSize
      01006AE1H   PUBLIC    CODE     ---       UART_RS485_GetChar
      0100746EH   PUBLIC    CODE     ---       UART_RS485_ReadRxStatus
      0100723DH   PUBLIC    CODE     ---       UART_RS485_Stop
      0100721BH   PUBLIC    CODE     ---       UART_RS485_Enable
      01006FAFH   PUBLIC    CODE     ---       UART_RS485_Init
      01007482H   PUBLIC    CODE     ---       UART_RS485_Start
      000000CAH   SFRSYM    DATA     BYTE      SFRPRT5SEL
      000000DAH   SFRSYM    DATA     BYTE      SFRPRT6SEL
      000000D0H.6 SFRSYM    DATA     BIT       AC
      000000A8H.7 SFRSYM    DATA     BIT       EA
      000000A8H   SFRSYM    DATA     BYTE      IE
      00000085H   SFRSYM    DATA     BYTE      DPH1
      00000084H   SFRSYM    DATA     BYTE      DPL1
      000000D0H.7 SFRSYM    DATA     BIT       CY
      000000A0H   SFRSYM    DATA     BYTE      P2AX
      00000095H   SFRSYM    DATA     BYTE      DPX1
      00000081H   SFRSYM    DATA     BYTE      SP
      000000D0H.2 SFRSYM    DATA     BIT       OV
      00000080H   SFRSYM    DATA     BYTE      SFRPRT0DR
      00000090H   SFRSYM    DATA     BYTE      SFRPRT1DR
      000000F2H   SFRSYM    DATA     BYTE      SFRPRT12SEL
      00000098H   SFRSYM    DATA     BYTE      SFRPRT2DR
      000000B0H   SFRSYM    DATA     BYTE      SFRPRT3DR
      000000C0H   SFRSYM    DATA     BYTE      SFRPRT4DR
      000000FAH   SFRSYM    DATA     BYTE      SFRPRT15SEL
      000000C8H   SFRSYM    DATA     BYTE      SFRPRT5DR
      000000D8H   SFRSYM    DATA     BYTE      SFRPRT6DR
      00000089H   SFRSYM    DATA     BYTE      SFRPRT0PS
      00000091H   SFRSYM    DATA     BYTE      SFRPRT1PS
      00000099H   SFRSYM    DATA     BYTE      SFRPRT2PS
      000000B1H   SFRSYM    DATA     BYTE      SFRPRT3PS
      000000C1H   SFRSYM    DATA     BYTE      SFRPRT4PS
      000000C9H   SFRSYM    DATA     BYTE      SFRPRT5PS
LX51 LINKER/LOCATER V4.64.0.0                                                         06/15/2017  12:28:54  PAGE 53


      000000D9H   SFRSYM    DATA     BYTE      SFRPRT6PS
      000000EAH   SFRSYM    DATA     BYTE      MXAX
      000000F0H   SFRSYM    DATA     BYTE      B
      000000E0H   SFRSYM    DATA     BYTE      ACC
      000000D0H   SFRSYM    DATA     BIT       P
      000000D0H.3 SFRSYM    DATA     BIT       RS0
      000000D0H.4 SFRSYM    DATA     BIT       RS1
      00000083H   SFRSYM    DATA     BYTE      DPH
      000000E8H   SFRSYM    DATA     BYTE      SFRPRT12DR
      00000082H   SFRSYM    DATA     BYTE      DPL
      000000F8H   SFRSYM    DATA     BYTE      SFRPRT15DR
      00000086H   SFRSYM    DATA     BYTE      DPS
      000000E9H   SFRSYM    DATA     BYTE      SFRPRT12PS
      00000093H   SFRSYM    DATA     BYTE      DPX
      000000F9H   SFRSYM    DATA     BYTE      SFRPRT15PS
      000000D0H.5 SFRSYM    DATA     BIT       F0
      000000D0H.1 SFRSYM    DATA     BIT       F1
      0000008AH   SFRSYM    DATA     BYTE      SFRPRT0SEL
      000000D0H   SFRSYM    DATA     BYTE      PSW
      000000A2H   SFRSYM    DATA     BYTE      SFRPRT1SEL
      0000009AH   SFRSYM    DATA     BYTE      SFRPRT2SEL
      000000B2H   SFRSYM    DATA     BYTE      SFRPRT3SEL
      000000C2H   SFRSYM    DATA     BYTE      SFRPRT4SEL

      01007482H   BLOCK     CODE     ---       LVL=0
      01007482H   LINE      CODE     ---       #76
      01007482H   LINE      CODE     ---       #77
      01007482H   LINE      CODE     ---       #79
      01007488H   LINE      CODE     ---       #80
      01007488H   LINE      CODE     ---       #81
      0100748BH   LINE      CODE     ---       #82
      01007491H   LINE      CODE     ---       #83
      01007491H   LINE      CODE     ---       #85
      01007494H   LINE      CODE     ---       #86
      ---         BLOCKEND  ---      ---       LVL=0

      01006FAFH   BLOCK     CODE     ---       LVL=0
      01006FAFH   LINE      CODE     ---       #106
      01006FAFH   LINE      CODE     ---       #107
      01006FAFH   LINE      CODE     ---       #112
      01006FB8H   LINE      CODE     ---       #113
      01006FBFH   LINE      CODE     ---       #114
      01006FC4H   LINE      CODE     ---       #124
      01006FCAH   LINE      CODE     ---       #126
      01006FD0H   LINE      CODE     ---       #138
      01006FD6H   LINE      CODE     ---       #139
      01006FDCH   LINE      CODE     ---       #150
      01006FE1H   LINE      CODE     ---       #160
      ---         BLOCKEND  ---      ---       LVL=0

      0100721BH   BLOCK     CODE     ---       LVL=0
      0100721BH   BLOCK     CODE     NEAR LAB  LVL=1
      00000007H   SYMBOL    DATA     BYTE      enableInterrupts
      ---         BLOCKEND  ---      ---       LVL=1
      0100721BH   LINE      CODE     ---       #183
      0100721BH   LINE      CODE     ---       #184
      0100721BH   LINE      CODE     ---       #186
      0100721EH   LINE      CODE     ---       #190
      01007225H   LINE      CODE     ---       #193
      0100722CH   LINE      CODE     ---       #196
      01007232H   LINE      CODE     ---       #211
      01007239H   LINE      CODE     ---       #222
      0100723CH   LINE      CODE     ---       #223
      ---         BLOCKEND  ---      ---       LVL=0

LX51 LINKER/LOCATER V4.64.0.0                                                         06/15/2017  12:28:54  PAGE 54


      0100723DH   BLOCK     CODE     ---       LVL=0
      0100723DH   BLOCK     CODE     NEAR LAB  LVL=1
      00000007H   SYMBOL    DATA     BYTE      enableInterrupts
      ---         BLOCKEND  ---      ---       LVL=1
      0100723DH   LINE      CODE     ---       #240
      0100723DH   LINE      CODE     ---       #241
      0100723DH   LINE      CODE     ---       #243
      01007240H   LINE      CODE     ---       #247
      01007247H   LINE      CODE     ---       #262
      0100724EH   LINE      CODE     ---       #265
      01007254H   LINE      CODE     ---       #270
      0100725BH   LINE      CODE     ---       #277
      0100725EH   LINE      CODE     ---       #278
      ---         BLOCKEND  ---      ---       LVL=0
      00000007H   SYMBOL    DATA     BYTE      intSrc
      00000007H   SYMBOL    DATA     BYTE      rxData
      00000006H   SYMBOL    DATA     BYTE      locRxBufferRead
      00000005H   SYMBOL    DATA     BYTE      locRxBufferWrite

      0100746EH   BLOCK     CODE     ---       LVL=0
      0100746EH   BLOCK     CODE     NEAR LAB  LVL=1
      00000007H   SYMBOL    DATA     BYTE      status
      ---         BLOCKEND  ---      ---       LVL=1
      0100746EH   LINE      CODE     ---       #485
      0100746EH   LINE      CODE     ---       #486
      0100746EH   LINE      CODE     ---       #489
      01007475H   LINE      CODE     ---       #492
      0100747BH   LINE      CODE     ---       #493
      0100747BH   LINE      CODE     ---       #494
      0100747FH   LINE      CODE     ---       #495
      01007481H   LINE      CODE     ---       #496
      01007481H   LINE      CODE     ---       #499
      01007481H   LINE      CODE     ---       #500
      ---         BLOCKEND  ---      ---       LVL=0

      01006AE1H   BLOCK     CODE     ---       LVL=0
      01006AE1H   BLOCK     CODE     NEAR LAB  LVL=1
      00000007H   SYMBOL    DATA     BYTE      rxData
      00000006H   SYMBOL    DATA     BYTE      rxStatus
      00000006H   SYMBOL    DATA     BYTE      locRxBufferRead
      00000005H   SYMBOL    DATA     BYTE      locRxBufferWrite
      ---         BLOCKEND  ---      ---       LVL=1
      01006AE1H   LINE      CODE     ---       #532
      01006AE1H   LINE      CODE     ---       #533
      01006AE1H   LINE      CODE     ---       #534
      01006AE3H   LINE      CODE     ---       #542
      01006AE9H   LINE      CODE     ---       #544
      01006AEEH   LINE      CODE     ---       #545
      01006AF3H   LINE      CODE     ---       #547
      01006AFDH   LINE      CODE     ---       #548
      01006AFDH   LINE      CODE     ---       #549
      01006B09H   LINE      CODE     ---       #550
      01006B0AH   LINE      CODE     ---       #551
      01006B10H   LINE      CODE     ---       #552
      01006B10H   LINE      CODE     ---       #553
      01006B12H   LINE      CODE     ---       #554
      01006B12H   LINE      CODE     ---       #556
      01006B17H   LINE      CODE     ---       #558
      01006B1DH   LINE      CODE     ---       #559
      01006B1DH   LINE      CODE     ---       #560
      01006B1FH   LINE      CODE     ---       #575
      01006B1FH   LINE      CODE     ---       #577
      01006B21H   LINE      CODE     ---       #579
      01006B26H   LINE      CODE     ---       #580
      01006B29H   LINE      CODE     ---       #581
LX51 LINKER/LOCATER V4.64.0.0                                                         06/15/2017  12:28:54  PAGE 55


      01006B29H   LINE      CODE     ---       #582
      01006B2EH   LINE      CODE     ---       #585
      01006B33H   LINE      CODE     ---       #586
      01006B33H   LINE      CODE     ---       #587
      01006B35H   LINE      CODE     ---       #588
      01006B35H   LINE      CODE     ---       #589
      01006B35H   LINE      CODE     ---       #590
      01006B35H   LINE      CODE     ---       #592
      01006B3BH   LINE      CODE     ---       #611
      01006B3BH   LINE      CODE     ---       #612
      ---         BLOCKEND  ---      ---       LVL=0
      00000002H   SYMBOL    DATA     WORD      locErrorStatus

      01006CDEH   BLOCK     CODE     ---       LVL=0
      01006CDEH   BLOCK     CODE     NEAR LAB  LVL=1
      00000007H   SYMBOL    DATA     BYTE      size
      ---         BLOCKEND  ---      ---       LVL=1
      01006CDEH   LINE      CODE     ---       #683
      01006CDEH   LINE      CODE     ---       #685
      01006CDEH   LINE      CODE     ---       #691
      01006CE4H   LINE      CODE     ---       #693
      01006CF0H   LINE      CODE     ---       #694
      01006CF0H   LINE      CODE     ---       #695
      01006CF6H   LINE      CODE     ---       #696
      01006CF6H   LINE      CODE     ---       #697
      01006CF8H   LINE      CODE     ---       #698
      01006CFAH   LINE      CODE     ---       #700
      01006CFAH   LINE      CODE     ---       #701
      01006CFCH   LINE      CODE     ---       #702
      01006CFCH   LINE      CODE     ---       #703
      01006CFEH   LINE      CODE     ---       #704
      01006D0BH   LINE      CODE     ---       #705
      01006D0BH   LINE      CODE     ---       #706
      01006D14H   LINE      CODE     ---       #707
      01006D16H   LINE      CODE     ---       #709
      01006D16H   LINE      CODE     ---       #710
      01006D26H   LINE      CODE     ---       #711
      01006D26H   LINE      CODE     ---       #713
      01006D2CH   LINE      CODE     ---       #722
      01006D2CH   LINE      CODE     ---       #723
      ---         BLOCKEND  ---      ---       LVL=0

      010070CEH   BLOCK     CODE     ---       LVL=0
      010070CEH   BLOCK     CODE     NEAR LAB  LVL=1
      00000007H   SYMBOL    DATA     BYTE      enableInterrupts
      ---         BLOCKEND  ---      ---       LVL=1
      010070CEH   LINE      CODE     ---       #757
      010070CEH   LINE      CODE     ---       #758
      010070CEH   LINE      CODE     ---       #762
      010070D1H   LINE      CODE     ---       #763
      010070D8H   LINE      CODE     ---       #764
      010070DCH   LINE      CODE     ---       #765
      010070DFH   LINE      CODE     ---       #770
      010070E5H   LINE      CODE     ---       #772
      010070EAH   LINE      CODE     ---       #773
      010070EEH   LINE      CODE     ---       #774
      010070F2H   LINE      CODE     ---       #775
      010070F6H   LINE      CODE     ---       #777
      010070FCH   LINE      CODE     ---       #781
      ---         BLOCKEND  ---      ---       LVL=0
      00000007H   SYMBOL    DATA     BYTE      address
      00000007H   SYMBOL    DATA     BYTE      address
      00000007H   SYMBOL    DATA     BYTE      intSrc
      00000007H   SYMBOL    DATA     BYTE      txDataByte

LX51 LINKER/LOCATER V4.64.0.0                                                         06/15/2017  12:28:54  PAGE 56


      010076A6H   BLOCK     CODE     ---       LVL=0
      010076A6H   LINE      CODE     ---       #1003
      010076A6H   LINE      CODE     ---       #1004
      010076A6H   LINE      CODE     ---       #1005
      010076ABH   LINE      CODE     ---       #1006
      ---         BLOCKEND  ---      ---       LVL=0

      010075DAH   BLOCK     CODE     ---       LVL=0
      00000007H   SYMBOL    DATA     BYTE      txDataByte
      010075DAH   LINE      CODE     ---       #1041
      010075DAH   LINE      CODE     ---       #1042
      010075DAH   LINE      CODE     ---       #1107
      010075E1H   LINE      CODE     ---       #1108
      010075E1H   LINE      CODE     ---       #1110
      010075E1H   LINE      CODE     ---       #1113
      010075E6H   LINE      CODE     ---       #1116
      ---         BLOCKEND  ---      ---       LVL=0

      01006F47H   BLOCK     CODE     ---       LVL=0
      02000588H   SYMBOL    XDATA    ---       string
      01006F52H   BLOCK     CODE     NEAR LAB  LVL=1
      00000004H   SYMBOL    DATA     WORD      bufIndex
      ---         BLOCKEND  ---      ---       LVL=1
      01006F47H   LINE      CODE     ---       #1145
      01006F52H   LINE      CODE     ---       #1146
      01006F52H   LINE      CODE     ---       #1147
      01006F55H   LINE      CODE     ---       #1150
      01006F5BH   LINE      CODE     ---       #1151
      01006F5BH   LINE      CODE     ---       #1153
      01006F70H   LINE      CODE     ---       #1154
      01006F70H   LINE      CODE     ---       #1155
      01006F73H   LINE      CODE     ---       #1156
      01006F78H   LINE      CODE     ---       #1157
      01006F7AH   LINE      CODE     ---       #1158
      01006F7AH   LINE      CODE     ---       #1159
      ---         BLOCKEND  ---      ---       LVL=0
      00000005H   SYMBOL    DATA     BYTE      byteCount
      00000006H   SYMBOL    DATA     BYTE      bufIndex
      00000007H   SYMBOL    DATA     BYTE      txDataByte
      00000007H   SYMBOL    DATA     BYTE      size

      010074F4H   BLOCK     CODE     ---       LVL=0
      010074F4H   BLOCK     CODE     NEAR LAB  LVL=1
      00000007H   SYMBOL    DATA     BYTE      enableInterrupts
      ---         BLOCKEND  ---      ---       LVL=1
      010074F4H   LINE      CODE     ---       #1354
      010074F4H   LINE      CODE     ---       #1355
      010074F4H   LINE      CODE     ---       #1358
      010074F7H   LINE      CODE     ---       #1360
      010074FEH   LINE      CODE     ---       #1361
      01007502H   LINE      CODE     ---       #1362
      01007505H   LINE      CODE     ---       #1376
      ---         BLOCKEND  ---      ---       LVL=0
      00000007H   SYMBOL    DATA     BYTE      retMode
      020010D4H   SYMBOL    XDATA    BYTE      txPeriod

      ---         MODULE    ---      ---       ISR_RS485_RX
      0100768AH   PUBLIC    CODE     ---       ISR_RS485_RX_Disable
      01007683H   PUBLIC    CODE     ---       ISR_RS485_RX_Enable
      01007625H   PUBLIC    CODE     ---       _ISR_RS485_RX_SetPriority
      01007594H   PUBLIC    CODE     ---       _ISR_RS485_RX_SetVector
      01007719H   PUBLIC    CODE     ---       ISR_RS485_RX_Interrupt
      0100729FH   PUBLIC    CODE     ---       _ISR_RS485_RX_StartEx
      000000CAH   SFRSYM    DATA     BYTE      SFRPRT5SEL
      000000DAH   SFRSYM    DATA     BYTE      SFRPRT6SEL
LX51 LINKER/LOCATER V4.64.0.0                                                         06/15/2017  12:28:54  PAGE 57


      000000D0H.6 SFRSYM    DATA     BIT       AC
      000000A8H.7 SFRSYM    DATA     BIT       EA
      000000A8H   SFRSYM    DATA     BYTE      IE
      00000085H   SFRSYM    DATA     BYTE      DPH1
      00000084H   SFRSYM    DATA     BYTE      DPL1
      000000D0H.7 SFRSYM    DATA     BIT       CY
      000000A0H   SFRSYM    DATA     BYTE      P2AX
      00000095H   SFRSYM    DATA     BYTE      DPX1
      00000081H   SFRSYM    DATA     BYTE      SP
      000000D0H.2 SFRSYM    DATA     BIT       OV
      00000080H   SFRSYM    DATA     BYTE      SFRPRT0DR
      00000090H   SFRSYM    DATA     BYTE      SFRPRT1DR
      000000F2H   SFRSYM    DATA     BYTE      SFRPRT12SEL
      00000098H   SFRSYM    DATA     BYTE      SFRPRT2DR
      000000B0H   SFRSYM    DATA     BYTE      SFRPRT3DR
      000000C0H   SFRSYM    DATA     BYTE      SFRPRT4DR
      000000FAH   SFRSYM    DATA     BYTE      SFRPRT15SEL
      000000C8H   SFRSYM    DATA     BYTE      SFRPRT5DR
      000000D8H   SFRSYM    DATA     BYTE      SFRPRT6DR
      00000089H   SFRSYM    DATA     BYTE      SFRPRT0PS
      00000091H   SFRSYM    DATA     BYTE      SFRPRT1PS
      00000099H   SFRSYM    DATA     BYTE      SFRPRT2PS
      000000B1H   SFRSYM    DATA     BYTE      SFRPRT3PS
      000000C1H   SFRSYM    DATA     BYTE      SFRPRT4PS
      000000C9H   SFRSYM    DATA     BYTE      SFRPRT5PS
      000000D9H   SFRSYM    DATA     BYTE      SFRPRT6PS
      000000EAH   SFRSYM    DATA     BYTE      MXAX
      000000F0H   SFRSYM    DATA     BYTE      B
      000000E0H   SFRSYM    DATA     BYTE      ACC
      000000D0H   SFRSYM    DATA     BIT       P
      000000D0H.3 SFRSYM    DATA     BIT       RS0
      000000D0H.4 SFRSYM    DATA     BIT       RS1
      00000083H   SFRSYM    DATA     BYTE      DPH
      000000E8H   SFRSYM    DATA     BYTE      SFRPRT12DR
      00000082H   SFRSYM    DATA     BYTE      DPL
      000000F8H   SFRSYM    DATA     BYTE      SFRPRT15DR
      00000086H   SFRSYM    DATA     BYTE      DPS
      000000E9H   SFRSYM    DATA     BYTE      SFRPRT12PS
      00000093H   SFRSYM    DATA     BYTE      DPX
      000000F9H   SFRSYM    DATA     BYTE      SFRPRT15PS
      000000D0H.5 SFRSYM    DATA     BIT       F0
      000000D0H.1 SFRSYM    DATA     BIT       F1
      0000008AH   SFRSYM    DATA     BYTE      SFRPRT0SEL
      000000D0H   SFRSYM    DATA     BYTE      PSW
      000000A2H   SFRSYM    DATA     BYTE      SFRPRT1SEL
      0000009AH   SFRSYM    DATA     BYTE      SFRPRT2SEL
      000000B2H   SFRSYM    DATA     BYTE      SFRPRT3SEL
      000000C2H   SFRSYM    DATA     BYTE      SFRPRT4SEL

      0100729FH   BLOCK     CODE     ---       LVL=0
      02000588H   SYMBOL    XDATA    ---       address
      0100729FH   LINE      CODE     ---       #94
      010072A7H   LINE      CODE     ---       #95
      010072A7H   LINE      CODE     ---       #97
      010072AAH   LINE      CODE     ---       #100
      010072B5H   LINE      CODE     ---       #103
      010072BAH   LINE      CODE     ---       #106
      010072BDH   LINE      CODE     ---       #107
      ---         BLOCKEND  ---      ---       LVL=0

      01007719H   BLOCK     CODE     ---       LVL=0
      01007719H   LINE      CODE     ---       #151
      01007719H   LINE      CODE     ---       #168
      ---         BLOCKEND  ---      ---       LVL=0

LX51 LINKER/LOCATER V4.64.0.0                                                         06/15/2017  12:28:54  PAGE 58


      01007594H   BLOCK     CODE     ---       LVL=0
      00000006H   SYMBOL    DATA     ---       address
      01007594H   LINE      CODE     ---       #198
      01007594H   LINE      CODE     ---       #199
      01007594H   LINE      CODE     ---       #200
      010075A1H   LINE      CODE     ---       #201
      ---         BLOCKEND  ---      ---       LVL=0

      01007625H   BLOCK     CODE     ---       LVL=0
      00000007H   SYMBOL    DATA     BYTE      priority
      01007625H   LINE      CODE     ---       #248
      01007625H   LINE      CODE     ---       #249
      01007625H   LINE      CODE     ---       #250
      0100762EH   LINE      CODE     ---       #251
      ---         BLOCKEND  ---      ---       LVL=0
      00000007H   SYMBOL    DATA     BYTE      priority

      01007683H   BLOCK     CODE     ---       LVL=0
      01007683H   LINE      CODE     ---       #297
      01007683H   LINE      CODE     ---       #298
      01007683H   LINE      CODE     ---       #300
      01007689H   LINE      CODE     ---       #301
      ---         BLOCKEND  ---      ---       LVL=0

      0100768AH   BLOCK     CODE     ---       LVL=0
      0100768AH   LINE      CODE     ---       #339
      0100768AH   LINE      CODE     ---       #340
      0100768AH   LINE      CODE     ---       #342
      01007690H   LINE      CODE     ---       #343
      ---         BLOCKEND  ---      ---       LVL=0

      ---         MODULE    ---      ---       PACER_TIMER
      02001137H   PUBLIC    XDATA    BYTE      PACER_TIMER_initVar
      010075B0H   PUBLIC    CODE     ---       _PACER_TIMER_WriteCounter
      010075A2H   PUBLIC    CODE     ---       _PACER_TIMER_WritePeriod
      010076ACH   PUBLIC    CODE     ---       _PACER_TIMER_SetInterruptMode
      01007495H   PUBLIC    CODE     ---       PACER_TIMER_Start
      010073C5H   PUBLIC    CODE     ---       PACER_TIMER_Enable
      01006ED3H   PUBLIC    CODE     ---       PACER_TIMER_Init
      000000CAH   SFRSYM    DATA     BYTE      SFRPRT5SEL
      000000DAH   SFRSYM    DATA     BYTE      SFRPRT6SEL
      000000D0H.6 SFRSYM    DATA     BIT       AC
      000000A8H.7 SFRSYM    DATA     BIT       EA
      000000A8H   SFRSYM    DATA     BYTE      IE
      00000085H   SFRSYM    DATA     BYTE      DPH1
      00000084H   SFRSYM    DATA     BYTE      DPL1
      000000D0H.7 SFRSYM    DATA     BIT       CY
      000000A0H   SFRSYM    DATA     BYTE      P2AX
      00000095H   SFRSYM    DATA     BYTE      DPX1
      00000081H   SFRSYM    DATA     BYTE      SP
      000000D0H.2 SFRSYM    DATA     BIT       OV
      00000080H   SFRSYM    DATA     BYTE      SFRPRT0DR
      00000090H   SFRSYM    DATA     BYTE      SFRPRT1DR
      000000F2H   SFRSYM    DATA     BYTE      SFRPRT12SEL
      00000098H   SFRSYM    DATA     BYTE      SFRPRT2DR
      000000B0H   SFRSYM    DATA     BYTE      SFRPRT3DR
      000000C0H   SFRSYM    DATA     BYTE      SFRPRT4DR
      000000FAH   SFRSYM    DATA     BYTE      SFRPRT15SEL
      000000C8H   SFRSYM    DATA     BYTE      SFRPRT5DR
      000000D8H   SFRSYM    DATA     BYTE      SFRPRT6DR
      00000089H   SFRSYM    DATA     BYTE      SFRPRT0PS
      00000091H   SFRSYM    DATA     BYTE      SFRPRT1PS
      00000099H   SFRSYM    DATA     BYTE      SFRPRT2PS
      000000B1H   SFRSYM    DATA     BYTE      SFRPRT3PS
      000000C1H   SFRSYM    DATA     BYTE      SFRPRT4PS
LX51 LINKER/LOCATER V4.64.0.0                                                         06/15/2017  12:28:54  PAGE 59


      000000C9H   SFRSYM    DATA     BYTE      SFRPRT5PS
      000000D9H   SFRSYM    DATA     BYTE      SFRPRT6PS
      000000EAH   SFRSYM    DATA     BYTE      MXAX
      000000F0H   SFRSYM    DATA     BYTE      B
      000000E0H   SFRSYM    DATA     BYTE      ACC
      000000D0H   SFRSYM    DATA     BIT       P
      000000D0H.3 SFRSYM    DATA     BIT       RS0
      000000D0H.4 SFRSYM    DATA     BIT       RS1
      00000083H   SFRSYM    DATA     BYTE      DPH
      000000E8H   SFRSYM    DATA     BYTE      SFRPRT12DR
      00000082H   SFRSYM    DATA     BYTE      DPL
      000000F8H   SFRSYM    DATA     BYTE      SFRPRT15DR
      00000086H   SFRSYM    DATA     BYTE      DPS
      000000E9H   SFRSYM    DATA     BYTE      SFRPRT12PS
      00000093H   SFRSYM    DATA     BYTE      DPX
      000000F9H   SFRSYM    DATA     BYTE      SFRPRT15PS
      000000D0H.5 SFRSYM    DATA     BIT       F0
      000000D0H.1 SFRSYM    DATA     BIT       F1
      0000008AH   SFRSYM    DATA     BYTE      SFRPRT0SEL
      000000D0H   SFRSYM    DATA     BYTE      PSW
      000000A2H   SFRSYM    DATA     BYTE      SFRPRT1SEL
      0000009AH   SFRSYM    DATA     BYTE      SFRPRT2SEL
      000000B2H   SFRSYM    DATA     BYTE      SFRPRT3SEL
      000000C2H   SFRSYM    DATA     BYTE      SFRPRT4SEL

      01006ED3H   BLOCK     CODE     ---       LVL=0
      01006ED3H   LINE      CODE     ---       #43
      01006ED3H   LINE      CODE     ---       #44
      01006ED3H   LINE      CODE     ---       #52
      01006EDAH   LINE      CODE     ---       #60
      01006EE1H   LINE      CODE     ---       #106
      01006EE8H   LINE      CODE     ---       #107
      01006EECH   LINE      CODE     ---       #110
      01006EF0H   LINE      CODE     ---       #111
      01006EF4H   LINE      CODE     ---       #114
      01006EFBH   LINE      CODE     ---       #118
      01006F02H   LINE      CODE     ---       #119
      01006F09H   LINE      CODE     ---       #162
      01006F0EH   LINE      CODE     ---       #163
      ---         BLOCKEND  ---      ---       LVL=0

      010073C5H   BLOCK     CODE     ---       LVL=0
      010073C5H   LINE      CODE     ---       #180
      010073C5H   LINE      CODE     ---       #181
      010073C5H   LINE      CODE     ---       #184
      010073CCH   LINE      CODE     ---       #185
      010073D3H   LINE      CODE     ---       #190
      010073DAH   LINE      CODE     ---       #192
      ---         BLOCKEND  ---      ---       LVL=0

      01007495H   BLOCK     CODE     ---       LVL=0
      01007495H   LINE      CODE     ---       #215
      01007495H   LINE      CODE     ---       #216
      01007495H   LINE      CODE     ---       #217
      0100749BH   LINE      CODE     ---       #218
      0100749BH   LINE      CODE     ---       #219
      0100749EH   LINE      CODE     ---       #221
      010074A4H   LINE      CODE     ---       #222
      010074A4H   LINE      CODE     ---       #225
      010074A7H   LINE      CODE     ---       #226
      ---         BLOCKEND  ---      ---       LVL=0

      010076ACH   BLOCK     CODE     ---       LVL=0
      00000007H   SYMBOL    DATA     BYTE      interruptMode
      010076ACH   LINE      CODE     ---       #279
LX51 LINKER/LOCATER V4.64.0.0                                                         06/15/2017  12:28:54  PAGE 60


      010076ACH   LINE      CODE     ---       #280
      010076ACH   LINE      CODE     ---       #281
      010076B1H   LINE      CODE     ---       #282
      ---         BLOCKEND  ---      ---       LVL=0
      00000007H   SYMBOL    DATA     BYTE      control

      010075A2H   BLOCK     CODE     ---       LVL=0
      00000006H   SYMBOL    DATA     WORD      period
      010075A2H   BLOCK     CODE     NEAR LAB  LVL=1
      00000006H   SYMBOL    DATA     WORD      period_temp
      ---         BLOCKEND  ---      ---       LVL=1
      010075A2H   LINE      CODE     ---       #431
      010075A2H   LINE      CODE     ---       #432
      010075A2H   LINE      CODE     ---       #434
      010075A2H   LINE      CODE     ---       #435
      010075AFH   LINE      CODE     ---       #439
      ---         BLOCKEND  ---      ---       LVL=0

      010075B0H   BLOCK     CODE     ---       LVL=0
      00000006H   SYMBOL    DATA     WORD      counter
      010075B0H   LINE      CODE     ---       #480
      010075B0H   LINE      CODE     ---       #481
      010075B0H   LINE      CODE     ---       #486
      010075BDH   LINE      CODE     ---       #491
      ---         BLOCKEND  ---      ---       LVL=0

      ---         MODULE    ---      ---       CLOCK_UART
      0100766BH   PUBLIC    CODE     ---       CLOCK_UART_GetSourceRegister
      0100762FH   PUBLIC    CODE     ---       CLOCK_UART_GetDividerRegister
      010058F8H   PUBLIC    CODE     ---       _CLOCK_UART_SetDividerRegister
      00000007H   SYMBOL    DATA     BYTE      state

      010058F8H   BLOCK     CODE     ---       LVL=0
      02000588H   SYMBOL    XDATA    WORD      clkDivider
      0200058AH   SYMBOL    XDATA    BYTE      restart
      01005903H   BLOCK     CODE     NEAR LAB  LVL=1
      0200058BH   SYMBOL    XDATA    BYTE      enabled
      0200058CH   SYMBOL    XDATA    BYTE      currSrc
      0200058DH   SYMBOL    XDATA    WORD      oldDivider
      ---         BLOCKEND  ---      ---       LVL=1
      010058F8H   LINE      CODE     ---       #193
      01005903H   LINE      CODE     ---       #195
      01005903H   LINE      CODE     ---       #198
      0100590BH   LINE      CODE     ---       #199
      01005916H   LINE      CODE     ---       #201
      01005928H   LINE      CODE     ---       #202
      01005928H   LINE      CODE     ---       #203
      01005932H   LINE      CODE     ---       #205
      01005943H   LINE      CODE     ---       #206
      01005943H   LINE      CODE     ---       #208
      01005947H   LINE      CODE     ---       #209
      01005947H   LINE      CODE     ---       #213
      01005950H   LINE      CODE     ---       #214
      01005957H   LINE      CODE     ---       #215
      01005958H   LINE      CODE     ---       #217
      01005958H   LINE      CODE     ---       #220
      0100595FH   LINE      CODE     ---       #221
      01005970H   LINE      CODE     ---       #222
      01005970H   LINE      CODE     ---       #223
      01005971H   LINE      CODE     ---       #225
      01005971H   LINE      CODE     ---       #227
      01005977H   LINE      CODE     ---       #228
      01005977H   LINE      CODE     ---       #229
      0100597CH   LINE      CODE     ---       #236
      01005981H   LINE      CODE     ---       #237
LX51 LINKER/LOCATER V4.64.0.0                                                         06/15/2017  12:28:54  PAGE 61


      01005986H   LINE      CODE     ---       #240
      0100598DH   LINE      CODE     ---       #243
      0100599FH   LINE      CODE     ---       #244
      0100599FH   LINE      CODE     ---       #246
      010059B0H   LINE      CODE     ---       #247
      010059B6H   LINE      CODE     ---       #250
      010059BEH   LINE      CODE     ---       #253
      010059C5H   LINE      CODE     ---       #257
      010059CAH   LINE      CODE     ---       #259
      010059CAH   LINE      CODE     ---       #260
      010059CAH   LINE      CODE     ---       #263
      010059D2H   LINE      CODE     ---       #264
      010059D2H   LINE      CODE     ---       #266
      010059E3H   LINE      CODE     ---       #268
      010059F6H   LINE      CODE     ---       #269
      01005A00H   LINE      CODE     ---       #270
      01005A01H   LINE      CODE     ---       #272
      01005A01H   LINE      CODE     ---       #274
      01005A12H   LINE      CODE     ---       #275
      01005A27H   LINE      CODE     ---       #276
      01005A27H   LINE      CODE     ---       #277
      01005A27H   LINE      CODE     ---       #278
      01005A27H   LINE      CODE     ---       #279
      ---         BLOCKEND  ---      ---       LVL=0

      0100762FH   BLOCK     CODE     ---       LVL=0
      0100762FH   LINE      CODE     ---       #297
      0100762FH   LINE      CODE     ---       #298
      0100762FH   LINE      CODE     ---       #299
      01007638H   LINE      CODE     ---       #300
      ---         BLOCKEND  ---      ---       LVL=0
      00000007H   SYMBOL    DATA     BYTE      modeBitMask
      00000007H   SYMBOL    DATA     BYTE      modeBitMask
      00000007H   SYMBOL    DATA     BYTE      oldSrc

      0100766BH   BLOCK     CODE     ---       LVL=0
      0100766BH   LINE      CODE     ---       #464
      0100766BH   LINE      CODE     ---       #465
      0100766BH   LINE      CODE     ---       #466
      01007672H   LINE      CODE     ---       #467
      ---         BLOCKEND  ---      ---       LVL=0

      ---         MODULE    ---      ---       EEPROM
      01006363H   PUBLIC    CODE     ---       _EEPROM_Write
      01007706H   PUBLIC    CODE     ---       EEPROM_Start
      01007691H   PUBLIC    CODE     ---       EEPROM_Enable
      000000CAH   SFRSYM    DATA     BYTE      SFRPRT5SEL
      000000DAH   SFRSYM    DATA     BYTE      SFRPRT6SEL
      000000D0H.6 SFRSYM    DATA     BIT       AC
      000000A8H.7 SFRSYM    DATA     BIT       EA
      000000A8H   SFRSYM    DATA     BYTE      IE
      00000085H   SFRSYM    DATA     BYTE      DPH1
      00000084H   SFRSYM    DATA     BYTE      DPL1
      000000D0H.7 SFRSYM    DATA     BIT       CY
      000000A0H   SFRSYM    DATA     BYTE      P2AX
      00000095H   SFRSYM    DATA     BYTE      DPX1
      00000081H   SFRSYM    DATA     BYTE      SP
      000000D0H.2 SFRSYM    DATA     BIT       OV
      00000080H   SFRSYM    DATA     BYTE      SFRPRT0DR
      00000090H   SFRSYM    DATA     BYTE      SFRPRT1DR
      000000F2H   SFRSYM    DATA     BYTE      SFRPRT12SEL
      00000098H   SFRSYM    DATA     BYTE      SFRPRT2DR
      000000B0H   SFRSYM    DATA     BYTE      SFRPRT3DR
      000000C0H   SFRSYM    DATA     BYTE      SFRPRT4DR
      000000FAH   SFRSYM    DATA     BYTE      SFRPRT15SEL
LX51 LINKER/LOCATER V4.64.0.0                                                         06/15/2017  12:28:54  PAGE 62


      000000C8H   SFRSYM    DATA     BYTE      SFRPRT5DR
      000000D8H   SFRSYM    DATA     BYTE      SFRPRT6DR
      00000089H   SFRSYM    DATA     BYTE      SFRPRT0PS
      00000091H   SFRSYM    DATA     BYTE      SFRPRT1PS
      00000099H   SFRSYM    DATA     BYTE      SFRPRT2PS
      000000B1H   SFRSYM    DATA     BYTE      SFRPRT3PS
      000000C1H   SFRSYM    DATA     BYTE      SFRPRT4PS
      000000C9H   SFRSYM    DATA     BYTE      SFRPRT5PS
      000000D9H   SFRSYM    DATA     BYTE      SFRPRT6PS
      000000EAH   SFRSYM    DATA     BYTE      MXAX
      000000F0H   SFRSYM    DATA     BYTE      B
      000000E0H   SFRSYM    DATA     BYTE      ACC
      000000D0H   SFRSYM    DATA     BIT       P
      000000D0H.3 SFRSYM    DATA     BIT       RS0
      000000D0H.4 SFRSYM    DATA     BIT       RS1
      00000083H   SFRSYM    DATA     BYTE      DPH
      000000E8H   SFRSYM    DATA     BYTE      SFRPRT12DR
      00000082H   SFRSYM    DATA     BYTE      DPL
      000000F8H   SFRSYM    DATA     BYTE      SFRPRT15DR
      00000086H   SFRSYM    DATA     BYTE      DPS
      000000E9H   SFRSYM    DATA     BYTE      SFRPRT12PS
      00000093H   SFRSYM    DATA     BYTE      DPX
      000000F9H   SFRSYM    DATA     BYTE      SFRPRT15PS
      000000D0H.5 SFRSYM    DATA     BIT       F0
      000000D0H.1 SFRSYM    DATA     BIT       F1
      0000008AH   SFRSYM    DATA     BYTE      SFRPRT0SEL
      000000D0H   SFRSYM    DATA     BYTE      PSW
      000000A2H   SFRSYM    DATA     BYTE      SFRPRT1SEL
      0000009AH   SFRSYM    DATA     BYTE      SFRPRT2SEL
      000000B2H   SFRSYM    DATA     BYTE      SFRPRT3SEL
      000000C2H   SFRSYM    DATA     BYTE      SFRPRT4SEL

      01007691H   BLOCK     CODE     ---       LVL=0
      01007691H   LINE      CODE     ---       #33
      01007691H   LINE      CODE     ---       #34
      01007691H   LINE      CODE     ---       #36
      01007694H   LINE      CODE     ---       #39
      01007697H   LINE      CODE     ---       #40
      ---         BLOCKEND  ---      ---       LVL=0

      01007706H   BLOCK     CODE     ---       LVL=0
      01007706H   LINE      CODE     ---       #57
      01007706H   LINE      CODE     ---       #58
      01007706H   LINE      CODE     ---       #59
      01007709H   LINE      CODE     ---       #60
      ---         BLOCKEND  ---      ---       LVL=0

      01006363H   BLOCK     CODE     ---       LVL=0
      0200058FH   SYMBOL    XDATA    ---       rowData
      02000592H   SYMBOL    XDATA    BYTE      rowNumber
      01006371H   BLOCK     CODE     NEAR LAB  LVL=1
      02000593H   SYMBOL    XDATA    BYTE      status
      ---         BLOCKEND  ---      ---       LVL=1
      01006363H   LINE      CODE     ---       #345
      01006371H   LINE      CODE     ---       #346
      01006371H   LINE      CODE     ---       #349
      01006374H   LINE      CODE     ---       #351
      01006380H   LINE      CODE     ---       #352
      01006380H   LINE      CODE     ---       #354
      01006389H   LINE      CODE     ---       #355
      01006389H   LINE      CODE     ---       #357
      0100638FH   LINE      CODE     ---       #360
      010063ADH   LINE      CODE     ---       #361
      010063ADH   LINE      CODE     ---       #362
      010063B5H   LINE      CODE     ---       #363
LX51 LINKER/LOCATER V4.64.0.0                                                         06/15/2017  12:28:54  PAGE 63


      010063B5H   LINE      CODE     ---       #365
      010063B5H   LINE      CODE     ---       #368
      010063CBH   LINE      CODE     ---       #369
      010063CBH   LINE      CODE     ---       #370
      010063CFH   LINE      CODE     ---       #371
      010063CFH   LINE      CODE     ---       #374
      010063D5H   LINE      CODE     ---       #375
      010063D5H   LINE      CODE     ---       #376
      010063F1H   LINE      CODE     ---       #378
      010063F1H   LINE      CODE     ---       #380
      010063F7H   LINE      CODE     ---       #382
      010063FFH   LINE      CODE     ---       #383
      010063FFH   LINE      CODE     ---       #385
      010063FFH   LINE      CODE     ---       #388
      01006415H   LINE      CODE     ---       #389
      01006415H   LINE      CODE     ---       #390
      01006419H   LINE      CODE     ---       #391
      01006419H   LINE      CODE     ---       #392
      0100641BH   LINE      CODE     ---       #394
      0100641BH   LINE      CODE     ---       #395
      01006421H   LINE      CODE     ---       #396
      01006421H   LINE      CODE     ---       #397
      01006423H   LINE      CODE     ---       #399
      01006423H   LINE      CODE     ---       #400
      01006429H   LINE      CODE     ---       #401
      01006429H   LINE      CODE     ---       #402
      01006429H   LINE      CODE     ---       #405
      0100642CH   LINE      CODE     ---       #406
      0100642EH   LINE      CODE     ---       #408
      0100642EH   LINE      CODE     ---       #409
      01006434H   LINE      CODE     ---       #410
      01006434H   LINE      CODE     ---       #411
      01006436H   LINE      CODE     ---       #413
      01006436H   LINE      CODE     ---       #414
      0100643CH   LINE      CODE     ---       #415
      0100643CH   LINE      CODE     ---       #417
      01006441H   LINE      CODE     ---       #418
      ---         BLOCKEND  ---      ---       LVL=0

      ---         MODULE    ---      ---       RS485_CTS
      010076B2H   PUBLIC    CODE     ---       _RS485_CTS_Write

      010076B2H   BLOCK     CODE     ---       LVL=0
      00000007H   SYMBOL    DATA     BYTE      control
      010076B2H   LINE      CODE     ---       #37
      010076B2H   LINE      CODE     ---       #38
      010076B2H   LINE      CODE     ---       #39
      010076B7H   LINE      CODE     ---       #40
      ---         BLOCKEND  ---      ---       LVL=0

      ---         MODULE    ---      ---       BOOTLOADABLE
      01007639H   PUBLIC    CODE     ---       Bootloadable_Load
      000000CAH   SFRSYM    DATA     BYTE      SFRPRT5SEL
      000000DAH   SFRSYM    DATA     BYTE      SFRPRT6SEL
      000000D0H.6 SFRSYM    DATA     BIT       AC
      000000A8H.7 SFRSYM    DATA     BIT       EA
      000000A8H   SFRSYM    DATA     BYTE      IE
      00000085H   SFRSYM    DATA     BYTE      DPH1
      00000084H   SFRSYM    DATA     BYTE      DPL1
      000000D0H.7 SFRSYM    DATA     BIT       CY
      000000A0H   SFRSYM    DATA     BYTE      P2AX
      00000095H   SFRSYM    DATA     BYTE      DPX1
      00000081H   SFRSYM    DATA     BYTE      SP
      000000D0H.2 SFRSYM    DATA     BIT       OV
      00000080H   SFRSYM    DATA     BYTE      SFRPRT0DR
LX51 LINKER/LOCATER V4.64.0.0                                                         06/15/2017  12:28:54  PAGE 64


      00000090H   SFRSYM    DATA     BYTE      SFRPRT1DR
      000000F2H   SFRSYM    DATA     BYTE      SFRPRT12SEL
      00000098H   SFRSYM    DATA     BYTE      SFRPRT2DR
      000000B0H   SFRSYM    DATA     BYTE      SFRPRT3DR
      000000C0H   SFRSYM    DATA     BYTE      SFRPRT4DR
      000000FAH   SFRSYM    DATA     BYTE      SFRPRT15SEL
      000000C8H   SFRSYM    DATA     BYTE      SFRPRT5DR
      000000D8H   SFRSYM    DATA     BYTE      SFRPRT6DR
      00000089H   SFRSYM    DATA     BYTE      SFRPRT0PS
      00000091H   SFRSYM    DATA     BYTE      SFRPRT1PS
      00000099H   SFRSYM    DATA     BYTE      SFRPRT2PS
      000000B1H   SFRSYM    DATA     BYTE      SFRPRT3PS
      000000C1H   SFRSYM    DATA     BYTE      SFRPRT4PS
      000000C9H   SFRSYM    DATA     BYTE      SFRPRT5PS
      000000D9H   SFRSYM    DATA     BYTE      SFRPRT6PS
      000000EAH   SFRSYM    DATA     BYTE      MXAX
      000000F0H   SFRSYM    DATA     BYTE      B
      000000E0H   SFRSYM    DATA     BYTE      ACC
      000000D0H   SFRSYM    DATA     BIT       P
      000000D0H.3 SFRSYM    DATA     BIT       RS0
      000000D0H.4 SFRSYM    DATA     BIT       RS1
      00000083H   SFRSYM    DATA     BYTE      DPH
      000000E8H   SFRSYM    DATA     BYTE      SFRPRT12DR
      00000082H   SFRSYM    DATA     BYTE      DPL
      000000F8H   SFRSYM    DATA     BYTE      SFRPRT15DR
      00000086H   SFRSYM    DATA     BYTE      DPS
      000000E9H   SFRSYM    DATA     BYTE      SFRPRT12PS
      00000093H   SFRSYM    DATA     BYTE      DPX
      000000F9H   SFRSYM    DATA     BYTE      SFRPRT15PS
      000000D0H.5 SFRSYM    DATA     BIT       F0
      000000D0H.1 SFRSYM    DATA     BIT       F1
      0000008AH   SFRSYM    DATA     BYTE      SFRPRT0SEL
      000000D0H   SFRSYM    DATA     BYTE      PSW
      000000A2H   SFRSYM    DATA     BYTE      SFRPRT1SEL
      0000009AH   SFRSYM    DATA     BYTE      SFRPRT2SEL
      000000B2H   SFRSYM    DATA     BYTE      SFRPRT3SEL
      000000C2H   SFRSYM    DATA     BYTE      SFRPRT4SEL

      01007639H   BLOCK     CODE     ---       LVL=0
      01007639H   LINE      CODE     ---       #41
      01007639H   LINE      CODE     ---       #42
      01007639H   LINE      CODE     ---       #44
      0100763FH   LINE      CODE     ---       #46
      01007642H   LINE      CODE     ---       #47
      ---         BLOCKEND  ---      ---       LVL=0
      00000002H   SYMBOL    DATA     WORD      idx

      ---         MODULE    ---      ---       FTDI_ENABLE_REG
      010076B8H   PUBLIC    CODE     ---       _FTDI_ENABLE_REG_Write

      010076B8H   BLOCK     CODE     ---       LVL=0
      00000007H   SYMBOL    DATA     BYTE      control
      010076B8H   LINE      CODE     ---       #37
      010076B8H   LINE      CODE     ---       #38
      010076B8H   LINE      CODE     ---       #39
      010076BDH   LINE      CODE     ---       #40
      ---         BLOCKEND  ---      ---       LVL=0

      ---         MODULE    ---      ---       RESET_FF
      010076BEH   PUBLIC    CODE     ---       _RESET_FF_Write

      010076BEH   BLOCK     CODE     ---       LVL=0
      00000007H   SYMBOL    DATA     BYTE      control
      010076BEH   LINE      CODE     ---       #37
      010076BEH   LINE      CODE     ---       #38
LX51 LINKER/LOCATER V4.64.0.0                                                         06/15/2017  12:28:54  PAGE 65


      010076BEH   LINE      CODE     ---       #39
      010076C3H   LINE      CODE     ---       #40
      ---         BLOCKEND  ---      ---       LVL=0

      ---         MODULE    ---      ---       FF_STATUS
      010076C4H   PUBLIC    CODE     ---       FF_STATUS_Read
      000000CAH   SFRSYM    DATA     BYTE      SFRPRT5SEL
      000000DAH   SFRSYM    DATA     BYTE      SFRPRT6SEL
      000000D0H.6 SFRSYM    DATA     BIT       AC
      000000A8H.7 SFRSYM    DATA     BIT       EA
      000000A8H   SFRSYM    DATA     BYTE      IE
      00000085H   SFRSYM    DATA     BYTE      DPH1
      00000084H   SFRSYM    DATA     BYTE      DPL1
      000000D0H.7 SFRSYM    DATA     BIT       CY
      000000A0H   SFRSYM    DATA     BYTE      P2AX
      00000095H   SFRSYM    DATA     BYTE      DPX1
      00000081H   SFRSYM    DATA     BYTE      SP
      000000D0H.2 SFRSYM    DATA     BIT       OV
      00000080H   SFRSYM    DATA     BYTE      SFRPRT0DR
      00000090H   SFRSYM    DATA     BYTE      SFRPRT1DR
      000000F2H   SFRSYM    DATA     BYTE      SFRPRT12SEL
      00000098H   SFRSYM    DATA     BYTE      SFRPRT2DR
      000000B0H   SFRSYM    DATA     BYTE      SFRPRT3DR
      000000C0H   SFRSYM    DATA     BYTE      SFRPRT4DR
      000000FAH   SFRSYM    DATA     BYTE      SFRPRT15SEL
      000000C8H   SFRSYM    DATA     BYTE      SFRPRT5DR
      000000D8H   SFRSYM    DATA     BYTE      SFRPRT6DR
      00000089H   SFRSYM    DATA     BYTE      SFRPRT0PS
      00000091H   SFRSYM    DATA     BYTE      SFRPRT1PS
      00000099H   SFRSYM    DATA     BYTE      SFRPRT2PS
      000000B1H   SFRSYM    DATA     BYTE      SFRPRT3PS
      000000C1H   SFRSYM    DATA     BYTE      SFRPRT4PS
      000000C9H   SFRSYM    DATA     BYTE      SFRPRT5PS
      000000D9H   SFRSYM    DATA     BYTE      SFRPRT6PS
      000000EAH   SFRSYM    DATA     BYTE      MXAX
      000000F0H   SFRSYM    DATA     BYTE      B
      000000E0H   SFRSYM    DATA     BYTE      ACC
      000000D0H   SFRSYM    DATA     BIT       P
      000000D0H.3 SFRSYM    DATA     BIT       RS0
      000000D0H.4 SFRSYM    DATA     BIT       RS1
      00000083H   SFRSYM    DATA     BYTE      DPH
      000000E8H   SFRSYM    DATA     BYTE      SFRPRT12DR
      00000082H   SFRSYM    DATA     BYTE      DPL
      000000F8H   SFRSYM    DATA     BYTE      SFRPRT15DR
      00000086H   SFRSYM    DATA     BYTE      DPS
      000000E9H   SFRSYM    DATA     BYTE      SFRPRT12PS
      00000093H   SFRSYM    DATA     BYTE      DPX
      000000F9H   SFRSYM    DATA     BYTE      SFRPRT15PS
      000000D0H.5 SFRSYM    DATA     BIT       F0
      000000D0H.1 SFRSYM    DATA     BIT       F1
      0000008AH   SFRSYM    DATA     BYTE      SFRPRT0SEL
      000000D0H   SFRSYM    DATA     BYTE      PSW
      000000A2H   SFRSYM    DATA     BYTE      SFRPRT1SEL
      0000009AH   SFRSYM    DATA     BYTE      SFRPRT2SEL
      000000B2H   SFRSYM    DATA     BYTE      SFRPRT3SEL
      000000C2H   SFRSYM    DATA     BYTE      SFRPRT4SEL

      010076C4H   BLOCK     CODE     ---       LVL=0
      010076C4H   LINE      CODE     ---       #37
      010076C4H   LINE      CODE     ---       #38
      010076C4H   LINE      CODE     ---       #39
      010076C9H   LINE      CODE     ---       #40
      ---         BLOCKEND  ---      ---       LVL=0
      00000007H   SYMBOL    DATA     BYTE      interruptState
      00000007H   SYMBOL    DATA     BYTE      interruptState
LX51 LINKER/LOCATER V4.64.0.0                                                         06/15/2017  12:28:54  PAGE 66


      00000007H   SYMBOL    DATA     BYTE      mask

      ---         MODULE    ---      ---       MY_TIMER
      02001138H   PUBLIC    XDATA    BYTE      MY_TIMER_initVar
      010075E7H   PUBLIC    CODE     ---       MY_TIMER_ClearFIFO
      0100753AH   PUBLIC    CODE     ---       MY_TIMER_ReadCounter
      01007657H   PUBLIC    CODE     ---       _MY_TIMER_WriteCounter
      0100764DH   PUBLIC    CODE     ---       MY_TIMER_ReadCapture
      01007643H   PUBLIC    CODE     ---       _MY_TIMER_WritePeriod
      010076D0H   PUBLIC    CODE     ---       MY_TIMER_ReadStatusRegister
      010076CAH   PUBLIC    CODE     ---       _MY_TIMER_SetInterruptMode
      010074A8H   PUBLIC    CODE     ---       MY_TIMER_Start
      01007673H   PUBLIC    CODE     ---       MY_TIMER_Enable
      01007159H   PUBLIC    CODE     ---       MY_TIMER_Init
      000000CAH   SFRSYM    DATA     BYTE      SFRPRT5SEL
      000000DAH   SFRSYM    DATA     BYTE      SFRPRT6SEL
      000000D0H.6 SFRSYM    DATA     BIT       AC
      000000A8H.7 SFRSYM    DATA     BIT       EA
      000000A8H   SFRSYM    DATA     BYTE      IE
      00000085H   SFRSYM    DATA     BYTE      DPH1
      00000084H   SFRSYM    DATA     BYTE      DPL1
      000000D0H.7 SFRSYM    DATA     BIT       CY
      000000A0H   SFRSYM    DATA     BYTE      P2AX
      00000095H   SFRSYM    DATA     BYTE      DPX1
      00000081H   SFRSYM    DATA     BYTE      SP
      000000D0H.2 SFRSYM    DATA     BIT       OV
      00000080H   SFRSYM    DATA     BYTE      SFRPRT0DR
      00000090H   SFRSYM    DATA     BYTE      SFRPRT1DR
      000000F2H   SFRSYM    DATA     BYTE      SFRPRT12SEL
      00000098H   SFRSYM    DATA     BYTE      SFRPRT2DR
      000000B0H   SFRSYM    DATA     BYTE      SFRPRT3DR
      000000C0H   SFRSYM    DATA     BYTE      SFRPRT4DR
      000000FAH   SFRSYM    DATA     BYTE      SFRPRT15SEL
      000000C8H   SFRSYM    DATA     BYTE      SFRPRT5DR
      000000D8H   SFRSYM    DATA     BYTE      SFRPRT6DR
      00000089H   SFRSYM    DATA     BYTE      SFRPRT0PS
      00000091H   SFRSYM    DATA     BYTE      SFRPRT1PS
      00000099H   SFRSYM    DATA     BYTE      SFRPRT2PS
      000000B1H   SFRSYM    DATA     BYTE      SFRPRT3PS
      000000C1H   SFRSYM    DATA     BYTE      SFRPRT4PS
      000000C9H   SFRSYM    DATA     BYTE      SFRPRT5PS
      000000D9H   SFRSYM    DATA     BYTE      SFRPRT6PS
      000000EAH   SFRSYM    DATA     BYTE      MXAX
      000000F0H   SFRSYM    DATA     BYTE      B
      000000E0H   SFRSYM    DATA     BYTE      ACC
      000000D0H   SFRSYM    DATA     BIT       P
      000000D0H.3 SFRSYM    DATA     BIT       RS0
      000000D0H.4 SFRSYM    DATA     BIT       RS1
      00000083H   SFRSYM    DATA     BYTE      DPH
      000000E8H   SFRSYM    DATA     BYTE      SFRPRT12DR
      00000082H   SFRSYM    DATA     BYTE      DPL
      000000F8H   SFRSYM    DATA     BYTE      SFRPRT15DR
      00000086H   SFRSYM    DATA     BYTE      DPS
      000000E9H   SFRSYM    DATA     BYTE      SFRPRT12PS
      00000093H   SFRSYM    DATA     BYTE      DPX
      000000F9H   SFRSYM    DATA     BYTE      SFRPRT15PS
      000000D0H.5 SFRSYM    DATA     BIT       F0
      000000D0H.1 SFRSYM    DATA     BIT       F1
      0000008AH   SFRSYM    DATA     BYTE      SFRPRT0SEL
      000000D0H   SFRSYM    DATA     BYTE      PSW
      000000A2H   SFRSYM    DATA     BYTE      SFRPRT1SEL
      0000009AH   SFRSYM    DATA     BYTE      SFRPRT2SEL
      000000B2H   SFRSYM    DATA     BYTE      SFRPRT3SEL
      000000C2H   SFRSYM    DATA     BYTE      SFRPRT4SEL

LX51 LINKER/LOCATER V4.64.0.0                                                         06/15/2017  12:28:54  PAGE 67


      01007159H   BLOCK     CODE     ---       LVL=0
      01007159H   BLOCK     CODE     NEAR LAB  LVL=1
      00000007H   SYMBOL    DATA     BYTE      MY_TIMER_interruptState
      ---         BLOCKEND  ---      ---       LVL=1
      01007159H   LINE      CODE     ---       #43
      01007159H   LINE      CODE     ---       #44
      01007159H   LINE      CODE     ---       #118
      01007164H   LINE      CODE     ---       #119
      0100716FH   LINE      CODE     ---       #142
      01007172H   LINE      CODE     ---       #145
      01007179H   LINE      CODE     ---       #148
      0100717CH   LINE      CODE     ---       #159
      0100717FH   LINE      CODE     ---       #162
      01007184H   LINE      CODE     ---       #163
      ---         BLOCKEND  ---      ---       LVL=0

      01007673H   BLOCK     CODE     ---       LVL=0
      01007673H   LINE      CODE     ---       #180
      01007673H   LINE      CODE     ---       #181
      01007673H   LINE      CODE     ---       #190
      0100767AH   LINE      CODE     ---       #192
      ---         BLOCKEND  ---      ---       LVL=0

      010074A8H   BLOCK     CODE     ---       LVL=0
      010074A8H   LINE      CODE     ---       #215
      010074A8H   LINE      CODE     ---       #216
      010074A8H   LINE      CODE     ---       #217
      010074AEH   LINE      CODE     ---       #218
      010074AEH   LINE      CODE     ---       #219
      010074B1H   LINE      CODE     ---       #221
      010074B7H   LINE      CODE     ---       #222
      010074B7H   LINE      CODE     ---       #225
      010074BAH   LINE      CODE     ---       #226
      ---         BLOCKEND  ---      ---       LVL=0

      010076CAH   BLOCK     CODE     ---       LVL=0
      00000007H   SYMBOL    DATA     BYTE      interruptMode
      010076CAH   LINE      CODE     ---       #279
      010076CAH   LINE      CODE     ---       #280
      010076CAH   LINE      CODE     ---       #281
      010076CFH   LINE      CODE     ---       #282
      ---         BLOCKEND  ---      ---       LVL=0

      010076D0H   BLOCK     CODE     ---       LVL=0
      010076D0H   LINE      CODE     ---       #333
      010076D0H   LINE      CODE     ---       #334
      010076D0H   LINE      CODE     ---       #335
      010076D5H   LINE      CODE     ---       #336
      ---         BLOCKEND  ---      ---       LVL=0
      00000007H   SYMBOL    DATA     BYTE      control

      01007643H   BLOCK     CODE     ---       LVL=0
      00000004H   SYMBOL    DATA     DWORD     period
      01007643H   LINE      CODE     ---       #431
      01007643H   LINE      CODE     ---       #432
      01007643H   LINE      CODE     ---       #437
      0100764CH   LINE      CODE     ---       #439
      ---         BLOCKEND  ---      ---       LVL=0

      0100764DH   BLOCK     CODE     ---       LVL=0
      0100764DH   LINE      CODE     ---       #456
      0100764DH   LINE      CODE     ---       #457
      0100764DH   LINE      CODE     ---       #461
      01007656H   LINE      CODE     ---       #463
      ---         BLOCKEND  ---      ---       LVL=0
LX51 LINKER/LOCATER V4.64.0.0                                                         06/15/2017  12:28:54  PAGE 68



      01007657H   BLOCK     CODE     ---       LVL=0
      00000004H   SYMBOL    DATA     DWORD     counter
      01007657H   LINE      CODE     ---       #480
      01007657H   LINE      CODE     ---       #481
      01007657H   LINE      CODE     ---       #489
      01007660H   LINE      CODE     ---       #491
      ---         BLOCKEND  ---      ---       LVL=0

      0100753AH   BLOCK     CODE     ---       LVL=0
      0100753AH   LINE      CODE     ---       #508
      0100753AH   LINE      CODE     ---       #509
      0100753AH   LINE      CODE     ---       #516
      0100753FH   LINE      CODE     ---       #523
      01007548H   LINE      CODE     ---       #525
      ---         BLOCKEND  ---      ---       LVL=0

      010075E7H   BLOCK     CODE     ---       LVL=0
      010075E7H   LINE      CODE     ---       #763
      010075E7H   LINE      CODE     ---       #764
      010075E7H   LINE      CODE     ---       #765
      010075EEH   LINE      CODE     ---       #766
      010075EEH   LINE      CODE     ---       #767
      010075F1H   LINE      CODE     ---       #768
      010075F3H   LINE      CODE     ---       #769
      ---         BLOCKEND  ---      ---       LVL=0

      ---         MODULE    ---      ---       CYFLASH
      0200112DH   PUBLIC    XDATA    ---       dieTemperature
      0100706DH   PUBLIC    CODE     ---       CyEEPROM_Start
      0100737EH   PUBLIC    CODE     ---       CySetTemp
      000000CAH   SFRSYM    DATA     BYTE      SFRPRT5SEL
      000000DAH   SFRSYM    DATA     BYTE      SFRPRT6SEL
      000000D0H.6 SFRSYM    DATA     BIT       AC
      000000A8H.7 SFRSYM    DATA     BIT       EA
      000000A8H   SFRSYM    DATA     BYTE      IE
      00000085H   SFRSYM    DATA     BYTE      DPH1
      00000084H   SFRSYM    DATA     BYTE      DPL1
      000000D0H.7 SFRSYM    DATA     BIT       CY
      000000A0H   SFRSYM    DATA     BYTE      P2AX
      00000095H   SFRSYM    DATA     BYTE      DPX1
      00000081H   SFRSYM    DATA     BYTE      SP
      000000D0H.2 SFRSYM    DATA     BIT       OV
      00000080H   SFRSYM    DATA     BYTE      SFRPRT0DR
      00000090H   SFRSYM    DATA     BYTE      SFRPRT1DR
      000000F2H   SFRSYM    DATA     BYTE      SFRPRT12SEL
      00000098H   SFRSYM    DATA     BYTE      SFRPRT2DR
      000000B0H   SFRSYM    DATA     BYTE      SFRPRT3DR
      000000C0H   SFRSYM    DATA     BYTE      SFRPRT4DR
      000000FAH   SFRSYM    DATA     BYTE      SFRPRT15SEL
      000000C8H   SFRSYM    DATA     BYTE      SFRPRT5DR
      000000D8H   SFRSYM    DATA     BYTE      SFRPRT6DR
      00000089H   SFRSYM    DATA     BYTE      SFRPRT0PS
      00000091H   SFRSYM    DATA     BYTE      SFRPRT1PS
      00000099H   SFRSYM    DATA     BYTE      SFRPRT2PS
      000000B1H   SFRSYM    DATA     BYTE      SFRPRT3PS
      000000C1H   SFRSYM    DATA     BYTE      SFRPRT4PS
      000000C9H   SFRSYM    DATA     BYTE      SFRPRT5PS
      000000D9H   SFRSYM    DATA     BYTE      SFRPRT6PS
      000000EAH   SFRSYM    DATA     BYTE      MXAX
      000000F0H   SFRSYM    DATA     BYTE      B
      000000E0H   SFRSYM    DATA     BYTE      ACC
      000000D0H   SFRSYM    DATA     BIT       P
      000000D0H.3 SFRSYM    DATA     BIT       RS0
      000000D0H.4 SFRSYM    DATA     BIT       RS1
LX51 LINKER/LOCATER V4.64.0.0                                                         06/15/2017  12:28:54  PAGE 69


      00000083H   SFRSYM    DATA     BYTE      DPH
      000000E8H   SFRSYM    DATA     BYTE      SFRPRT12DR
      00000082H   SFRSYM    DATA     BYTE      DPL
      000000F8H   SFRSYM    DATA     BYTE      SFRPRT15DR
      00000086H   SFRSYM    DATA     BYTE      DPS
      000000E9H   SFRSYM    DATA     BYTE      SFRPRT12PS
      00000093H   SFRSYM    DATA     BYTE      DPX
      000000F9H   SFRSYM    DATA     BYTE      SFRPRT15PS
      000000D0H.5 SFRSYM    DATA     BIT       F0
      000000D0H.1 SFRSYM    DATA     BIT       F1
      0000008AH   SFRSYM    DATA     BYTE      SFRPRT0SEL
      000000D0H   SFRSYM    DATA     BYTE      PSW
      000000A2H   SFRSYM    DATA     BYTE      SFRPRT1SEL
      0000009AH   SFRSYM    DATA     BYTE      SFRPRT2SEL
      000000B2H   SFRSYM    DATA     BYTE      SFRPRT3SEL
      000000C2H   SFRSYM    DATA     BYTE      SFRPRT4SEL
      01006C8EH   SYMBOL    CODE     ---       CyFlashGetSpcAlgorithm
      01006B3CH   SYMBOL    CODE     ---       CySetTempInt
      0200112AH   SYMBOL    XDATA    ---       rowBuffer
      00000007H   SYMBOL    DATA     BYTE      interruptState
      00000007H   SYMBOL    DATA     BYTE      interruptState

      01006B3CH   BLOCK     CODE     ---       LVL=0
      01006B3CH   BLOCK     CODE     NEAR LAB  LVL=1
      02000590H   SYMBOL    XDATA    BYTE      status
      ---         BLOCKEND  ---      ---       LVL=1
      01006B3CH   LINE      CODE     ---       #155
      01006B3CH   LINE      CODE     ---       #156
      01006B3CH   LINE      CODE     ---       #160
      01006B3FH   LINE      CODE     ---       #163
      01006B45H   LINE      CODE     ---       #165
      01006B4BH   LINE      CODE     ---       #166
      01006B4BH   LINE      CODE     ---       #168
      01006B55H   LINE      CODE     ---       #169
      01006B55H   LINE      CODE     ---       #171
      01006B55H   LINE      CODE     ---       #172
      01006B64H   LINE      CODE     ---       #173
      01006B64H   LINE      CODE     ---       #174
      01006B69H   LINE      CODE     ---       #176
      01006B71H   LINE      CODE     ---       #177
      01006B71H   LINE      CODE     ---       #179
      01006B77H   LINE      CODE     ---       #180
      01006B79H   LINE      CODE     ---       #181
      01006B79H   LINE      CODE     ---       #182
      01006B79H   LINE      CODE     ---       #184
      01006B81H   LINE      CODE     ---       #185
      01006B81H   LINE      CODE     ---       #187
      01006B84H   LINE      CODE     ---       #188
      01006B86H   LINE      CODE     ---       #190
      01006B86H   LINE      CODE     ---       #191
      01006B8CH   LINE      CODE     ---       #192
      01006B8CH   LINE      CODE     ---       #194
      01006B91H   LINE      CODE     ---       #195
      ---         BLOCKEND  ---      ---       LVL=0

      01006C8EH   BLOCK     CODE     ---       LVL=0
      01006C8EH   BLOCK     CODE     NEAR LAB  LVL=1
      02000590H   SYMBOL    XDATA    BYTE      status
      ---         BLOCKEND  ---      ---       LVL=1
      01006C8EH   LINE      CODE     ---       #215
      01006C8EH   LINE      CODE     ---       #216
      01006C8EH   LINE      CODE     ---       #220
      01006C91H   LINE      CODE     ---       #222
      01006C97H   LINE      CODE     ---       #223
      01006C97H   LINE      CODE     ---       #224
LX51 LINKER/LOCATER V4.64.0.0                                                         06/15/2017  12:28:54  PAGE 70


      01006C9FH   LINE      CODE     ---       #226
      01006CA3H   LINE      CODE     ---       #227
      01006CA3H   LINE      CODE     ---       #228
      01006CABH   LINE      CODE     ---       #229
      01006CABH   LINE      CODE     ---       #231
      01006CB1H   LINE      CODE     ---       #232
      01006CB3H   LINE      CODE     ---       #234
      01006CC9H   LINE      CODE     ---       #235
      01006CC9H   LINE      CODE     ---       #236
      01006CCDH   LINE      CODE     ---       #237
      01006CCDH   LINE      CODE     ---       #238
      01006CCDH   LINE      CODE     ---       #239
      01006CD0H   LINE      CODE     ---       #240
      01006CD2H   LINE      CODE     ---       #242
      01006CD2H   LINE      CODE     ---       #243
      01006CD8H   LINE      CODE     ---       #244
      01006CD8H   LINE      CODE     ---       #246
      01006CDDH   LINE      CODE     ---       #247
      ---         BLOCKEND  ---      ---       LVL=0

      0100737EH   BLOCK     CODE     ---       LVL=0
      0100737EH   BLOCK     CODE     NEAR LAB  LVL=1
      0200058FH   SYMBOL    XDATA    BYTE      status
      ---         BLOCKEND  ---      ---       LVL=1
      0100737EH   LINE      CODE     ---       #273
      0100737EH   LINE      CODE     ---       #274
      0100737EH   LINE      CODE     ---       #275
      01007386H   LINE      CODE     ---       #277
      01007388H   LINE      CODE     ---       #278
      01007388H   LINE      CODE     ---       #279
      01007390H   LINE      CODE     ---       #280
      01007390H   LINE      CODE     ---       #282
      01007395H   LINE      CODE     ---       #283
      ---         BLOCKEND  ---      ---       LVL=0
      00000004H   SYMBOL    DATA     WORD      rowAddress
      00000001H   SYMBOL    DATA     ---       rowData
      00000007H   SYMBOL    DATA     BYTE      status
      00000007H   SYMBOL    DATA     BYTE      interruptState

      0100706DH   BLOCK     CODE     ---       LVL=0
      0100706DH   BLOCK     CODE     NEAR LAB  LVL=1
      00000007H   SYMBOL    DATA     BYTE      interruptState
      ---         BLOCKEND  ---      ---       LVL=1
      0100706DH   LINE      CODE     ---       #636
      0100706DH   LINE      CODE     ---       #637
      0100706DH   LINE      CODE     ---       #640
      01007070H   LINE      CODE     ---       #647
      01007077H   LINE      CODE     ---       #648
      0100707EH   LINE      CODE     ---       #661
      01007084H   LINE      CODE     ---       #668
      0100708BH   LINE      CODE     ---       #669
      01007092H   LINE      CODE     ---       #671
      0100709AH   LINE      CODE     ---       #672
      0100709AH   LINE      CODE     ---       #674
      0100709AH   LINE      CODE     ---       #676
      0100709DH   LINE      CODE     ---       #677
      ---         BLOCKEND  ---      ---       LVL=0
      00000007H   SYMBOL    DATA     BYTE      interruptState

      ---         MODULE    ---      ---       CYLIB
      02001126H   PUBLIC    XDATA    DWORD     cydelay_32k_ms
      02001125H   PUBLIC    XDATA    BYTE      CyResetStatus
      02001121H   PUBLIC    XDATA    DWORD     cydelay_freq_hz
      02001120H   PUBLIC    XDATA    BYTE      cydelay_freq_mhz
      0200111CH   PUBLIC    XDATA    DWORD     cydelay_freq_khz
LX51 LINKER/LOCATER V4.64.0.0                                                         06/15/2017  12:28:54  PAGE 71


      0100734CH   PUBLIC    CODE     ---       _CyIntSetPriority
      01006BE6H   PUBLIC    CODE     ---       _CyIntSetVector
      01006836H   PUBLIC    CODE     ---       _?CyDelay
      0100767BH   PUBLIC    CODE     ---       CySoftwareReset
      000000CAH   SFRSYM    DATA     BYTE      SFRPRT5SEL
      000000DAH   SFRSYM    DATA     BYTE      SFRPRT6SEL
      000000D0H.6 SFRSYM    DATA     BIT       AC
      000000A8H.7 SFRSYM    DATA     BIT       EA
      000000A8H   SFRSYM    DATA     BYTE      IE
      00000085H   SFRSYM    DATA     BYTE      DPH1
      00000084H   SFRSYM    DATA     BYTE      DPL1
      000000D0H.7 SFRSYM    DATA     BIT       CY
      000000A0H   SFRSYM    DATA     BYTE      P2AX
      00000095H   SFRSYM    DATA     BYTE      DPX1
      00000081H   SFRSYM    DATA     BYTE      SP
      000000D0H.2 SFRSYM    DATA     BIT       OV
      00000080H   SFRSYM    DATA     BYTE      SFRPRT0DR
      00000090H   SFRSYM    DATA     BYTE      SFRPRT1DR
      000000F2H   SFRSYM    DATA     BYTE      SFRPRT12SEL
      00000098H   SFRSYM    DATA     BYTE      SFRPRT2DR
      000000B0H   SFRSYM    DATA     BYTE      SFRPRT3DR
      000000C0H   SFRSYM    DATA     BYTE      SFRPRT4DR
      000000FAH   SFRSYM    DATA     BYTE      SFRPRT15SEL
      000000C8H   SFRSYM    DATA     BYTE      SFRPRT5DR
      000000D8H   SFRSYM    DATA     BYTE      SFRPRT6DR
      00000089H   SFRSYM    DATA     BYTE      SFRPRT0PS
      00000091H   SFRSYM    DATA     BYTE      SFRPRT1PS
      00000099H   SFRSYM    DATA     BYTE      SFRPRT2PS
      000000B1H   SFRSYM    DATA     BYTE      SFRPRT3PS
      000000C1H   SFRSYM    DATA     BYTE      SFRPRT4PS
      000000C9H   SFRSYM    DATA     BYTE      SFRPRT5PS
      000000D9H   SFRSYM    DATA     BYTE      SFRPRT6PS
      000000EAH   SFRSYM    DATA     BYTE      MXAX
      000000F0H   SFRSYM    DATA     BYTE      B
      000000E0H   SFRSYM    DATA     BYTE      ACC
      000000D0H   SFRSYM    DATA     BIT       P
      000000D0H.3 SFRSYM    DATA     BIT       RS0
      000000D0H.4 SFRSYM    DATA     BIT       RS1
      00000083H   SFRSYM    DATA     BYTE      DPH
      000000E8H   SFRSYM    DATA     BYTE      SFRPRT12DR
      00000082H   SFRSYM    DATA     BYTE      DPL
      000000F8H   SFRSYM    DATA     BYTE      SFRPRT15DR
      00000086H   SFRSYM    DATA     BYTE      DPS
      000000E9H   SFRSYM    DATA     BYTE      SFRPRT12PS
      00000093H   SFRSYM    DATA     BYTE      DPX
      000000F9H   SFRSYM    DATA     BYTE      SFRPRT15PS
      000000D0H.5 SFRSYM    DATA     BIT       F0
      000000D0H.1 SFRSYM    DATA     BIT       F1
      0000008AH   SFRSYM    DATA     BYTE      SFRPRT0SEL
      000000D0H   SFRSYM    DATA     BYTE      PSW
      000000A2H   SFRSYM    DATA     BYTE      SFRPRT1SEL
      0000009AH   SFRSYM    DATA     BYTE      SFRPRT2SEL
      000000B2H   SFRSYM    DATA     BYTE      SFRPRT3SEL
      000000C2H   SFRSYM    DATA     BYTE      SFRPRT4SEL
      00000007H   SYMBOL    DATA     BYTE      wait
      00000007H   SYMBOL    DATA     BYTE      pDiv
      00000005H   SYMBOL    DATA     BYTE      qDiv
      00000003H   SYMBOL    DATA     BYTE      current
      00000007H   SYMBOL    DATA     BYTE      source
      00000007H   SYMBOL    DATA     BYTE      wait
      00000007H   SYMBOL    DATA     BYTE      poweredOn
      00000006H   SYMBOL    DATA     BYTE      freq
      00000007H   SYMBOL    DATA     BYTE      source
      00000007H   SYMBOL    DATA     BYTE      source
      00000007H   SYMBOL    DATA     BYTE      divider
LX51 LINKER/LOCATER V4.64.0.0                                                         06/15/2017  12:28:54  PAGE 72


      00000006H   SYMBOL    DATA     WORD      divider
      00000005H   SYMBOL    DATA     BYTE      masterClkDiv
      00000006H   SYMBOL    DATA     WORD      busClkDiv
      00000001H   SYMBOL    DATA     BYTE      interruptState
      00000007H   SYMBOL    DATA     BYTE      divider
      00000007H   SYMBOL    DATA     BYTE      source
      00000007H   SYMBOL    DATA     BYTE      source
      00000007H   SYMBOL    DATA     BYTE      mode
      00000006H   SYMBOL    DATA     BYTE      state
      00000007H   SYMBOL    DATA     BYTE      mode
      00000007H   SYMBOL    DATA     BYTE      wait
      00000007H   SYMBOL    DATA     BYTE      setting
      00000007H   SYMBOL    DATA     BYTE      setting
      00000007H   SYMBOL    DATA     BYTE      setting
      00000000H   SYMBOL    XSTK     BYTE      reason

      0100767BH   BLOCK     CODE     ---       LVL=0
      0100767BH   LINE      CODE     ---       #1666
      0100767BH   LINE      CODE     ---       #1667
      0100767BH   LINE      CODE     ---       #1668
      01007682H   LINE      CODE     ---       #1669
      ---         BLOCKEND  ---      ---       LVL=0

      01006836H   BLOCK     CODE     ---       LVL=0
      00000000H   SYMBOL    XSTK     DWORD     milliseconds
      01006836H   LINE      CODE     ---       #1692
      0100683FH   LINE      CODE     ---       #1694
      01006855H   LINE      CODE     ---       #1695
      01006855H   LINE      CODE     ---       #1700
      01006866H   LINE      CODE     ---       #1701
      01006890H   LINE      CODE     ---       #1702
      01006892H   LINE      CODE     ---       #1704
      010068B7H   LINE      CODE     ---       #1705
      ---         BLOCKEND  ---      ---       LVL=0
      00000000H   SYMBOL    XSTK     DWORD     freq
      00000007H   SYMBOL    DATA     BYTE      ticks
      00000005H   SYMBOL    DATA     BYTE      lpMode
      0200111BH   SYMBOL    XDATA    BYTE      interruptStatus
      00000005H   SYMBOL    DATA     BYTE      interruptState
      00000005H   SYMBOL    DATA     BYTE      interruptState
      00000003H   SYMBOL    DATA     BYTE      interruptState

      01006BE6H   BLOCK     CODE     ---       LVL=0
      02000588H   SYMBOL    XDATA    BYTE      number
      02000589H   SYMBOL    XDATA    ---       address
      01006BF3H   BLOCK     CODE     NEAR LAB  LVL=1
      0200058BH   SYMBOL    XDATA    ---       oldIsr
      ---         BLOCKEND  ---      ---       LVL=1
      01006BE6H   LINE      CODE     ---       #2641
      01006BF3H   LINE      CODE     ---       #2642
      01006BF3H   LINE      CODE     ---       #2648
      01006C11H   LINE      CODE     ---       #2652
      01006C31H   LINE      CODE     ---       #2654
      01006C39H   LINE      CODE     ---       #2655
      ---         BLOCKEND  ---      ---       LVL=0
      00000007H   SYMBOL    DATA     BYTE      number

      0100734CH   BLOCK     CODE     ---       LVL=0
      00000004H   SYMBOL    DATA     BYTE      number
      00000005H   SYMBOL    DATA     BYTE      priority
      0100734CH   LINE      CODE     ---       #2696
      0100734EH   LINE      CODE     ---       #2697
      0100734EH   LINE      CODE     ---       #2702
      01007364H   LINE      CODE     ---       #2704
      ---         BLOCKEND  ---      ---       LVL=0
LX51 LINKER/LOCATER V4.64.0.0                                                         06/15/2017  12:28:54  PAGE 73


      00000007H   SYMBOL    DATA     BYTE      number
      00000007H   SYMBOL    DATA     BYTE      priority
      00000005H   SYMBOL    DATA     BYTE      number
      00000006H   SYMBOL    DATA     ---       stateReg

      ---         MODULE    ---      ---       ?C_STARTUP
      00000000H   PUBLIC    NUMBER   ---       ?C?XPAGE1RST
      00000093H   PUBLIC    DATA     BYTE      ?C?XPAGE1SFR
      01002600H   PUBLIC    CODE     NEAR LAB  ?C_STARTUP
      01005C70H   PUBLIC    CODE     NEAR LAB  STARTUP1
      01002604H   PUBLIC    CODE     NEAR LAB  _dma_wait

      ---         MODULE    ---      ---       ISR_WATCHDOG
      0100769FH   PUBLIC    CODE     ---       ISR_WATCHDOG_Disable
      01007698H   PUBLIC    CODE     ---       ISR_WATCHDOG_Enable
      01007661H   PUBLIC    CODE     ---       _ISR_WATCHDOG_SetPriority
      010075BEH   PUBLIC    CODE     ---       _ISR_WATCHDOG_SetVector
      0100771AH   PUBLIC    CODE     ---       ISR_WATCHDOG_Interrupt
      010072BEH   PUBLIC    CODE     ---       _ISR_WATCHDOG_StartEx
      000000CAH   SFRSYM    DATA     BYTE      SFRPRT5SEL
      000000DAH   SFRSYM    DATA     BYTE      SFRPRT6SEL
      000000D0H.6 SFRSYM    DATA     BIT       AC
      000000A8H.7 SFRSYM    DATA     BIT       EA
      000000A8H   SFRSYM    DATA     BYTE      IE
      00000085H   SFRSYM    DATA     BYTE      DPH1
      00000084H   SFRSYM    DATA     BYTE      DPL1
      000000D0H.7 SFRSYM    DATA     BIT       CY
      000000A0H   SFRSYM    DATA     BYTE      P2AX
      00000095H   SFRSYM    DATA     BYTE      DPX1
      00000081H   SFRSYM    DATA     BYTE      SP
      000000D0H.2 SFRSYM    DATA     BIT       OV
      00000080H   SFRSYM    DATA     BYTE      SFRPRT0DR
      00000090H   SFRSYM    DATA     BYTE      SFRPRT1DR
      000000F2H   SFRSYM    DATA     BYTE      SFRPRT12SEL
      00000098H   SFRSYM    DATA     BYTE      SFRPRT2DR
      000000B0H   SFRSYM    DATA     BYTE      SFRPRT3DR
      000000C0H   SFRSYM    DATA     BYTE      SFRPRT4DR
      000000FAH   SFRSYM    DATA     BYTE      SFRPRT15SEL
      000000C8H   SFRSYM    DATA     BYTE      SFRPRT5DR
      000000D8H   SFRSYM    DATA     BYTE      SFRPRT6DR
      00000089H   SFRSYM    DATA     BYTE      SFRPRT0PS
      00000091H   SFRSYM    DATA     BYTE      SFRPRT1PS
      00000099H   SFRSYM    DATA     BYTE      SFRPRT2PS
      000000B1H   SFRSYM    DATA     BYTE      SFRPRT3PS
      000000C1H   SFRSYM    DATA     BYTE      SFRPRT4PS
      000000C9H   SFRSYM    DATA     BYTE      SFRPRT5PS
      000000D9H   SFRSYM    DATA     BYTE      SFRPRT6PS
      000000EAH   SFRSYM    DATA     BYTE      MXAX
      000000F0H   SFRSYM    DATA     BYTE      B
      000000E0H   SFRSYM    DATA     BYTE      ACC
      000000D0H   SFRSYM    DATA     BIT       P
      000000D0H.3 SFRSYM    DATA     BIT       RS0
      000000D0H.4 SFRSYM    DATA     BIT       RS1
      00000083H   SFRSYM    DATA     BYTE      DPH
      000000E8H   SFRSYM    DATA     BYTE      SFRPRT12DR
      00000082H   SFRSYM    DATA     BYTE      DPL
      000000F8H   SFRSYM    DATA     BYTE      SFRPRT15DR
      00000086H   SFRSYM    DATA     BYTE      DPS
      000000E9H   SFRSYM    DATA     BYTE      SFRPRT12PS
      00000093H   SFRSYM    DATA     BYTE      DPX
      000000F9H   SFRSYM    DATA     BYTE      SFRPRT15PS
      000000D0H.5 SFRSYM    DATA     BIT       F0
      000000D0H.1 SFRSYM    DATA     BIT       F1
      0000008AH   SFRSYM    DATA     BYTE      SFRPRT0SEL
      000000D0H   SFRSYM    DATA     BYTE      PSW
LX51 LINKER/LOCATER V4.64.0.0                                                         06/15/2017  12:28:54  PAGE 74


      000000A2H   SFRSYM    DATA     BYTE      SFRPRT1SEL
      0000009AH   SFRSYM    DATA     BYTE      SFRPRT2SEL
      000000B2H   SFRSYM    DATA     BYTE      SFRPRT3SEL
      000000C2H   SFRSYM    DATA     BYTE      SFRPRT4SEL

      010072BEH   BLOCK     CODE     ---       LVL=0
      02000588H   SYMBOL    XDATA    ---       address
      010072BEH   LINE      CODE     ---       #94
      010072C6H   LINE      CODE     ---       #95
      010072C6H   LINE      CODE     ---       #97
      010072C9H   LINE      CODE     ---       #100
      010072D4H   LINE      CODE     ---       #103
      010072D9H   LINE      CODE     ---       #106
      010072DCH   LINE      CODE     ---       #107
      ---         BLOCKEND  ---      ---       LVL=0

      0100771AH   BLOCK     CODE     ---       LVL=0
      0100771AH   LINE      CODE     ---       #151
      0100771AH   LINE      CODE     ---       #168
      ---         BLOCKEND  ---      ---       LVL=0

      010075BEH   BLOCK     CODE     ---       LVL=0
      00000006H   SYMBOL    DATA     ---       address
      010075BEH   LINE      CODE     ---       #198
      010075BEH   LINE      CODE     ---       #199
      010075BEH   LINE      CODE     ---       #200
      010075CBH   LINE      CODE     ---       #201
      ---         BLOCKEND  ---      ---       LVL=0

      01007661H   BLOCK     CODE     ---       LVL=0
      00000007H   SYMBOL    DATA     BYTE      priority
      01007661H   LINE      CODE     ---       #248
      01007661H   LINE      CODE     ---       #249
      01007661H   LINE      CODE     ---       #250
      0100766AH   LINE      CODE     ---       #251
      ---         BLOCKEND  ---      ---       LVL=0
      00000007H   SYMBOL    DATA     BYTE      priority

      01007698H   BLOCK     CODE     ---       LVL=0
      01007698H   LINE      CODE     ---       #297
      01007698H   LINE      CODE     ---       #298
      01007698H   LINE      CODE     ---       #300
      0100769EH   LINE      CODE     ---       #301
      ---         BLOCKEND  ---      ---       LVL=0

      0100769FH   BLOCK     CODE     ---       LVL=0
      0100769FH   LINE      CODE     ---       #339
      0100769FH   LINE      CODE     ---       #340
      0100769FH   LINE      CODE     ---       #342
      010076A5H   LINE      CODE     ---       #343
      ---         BLOCKEND  ---      ---       LVL=0

      ---         MODULE    ---      ---       WATCHDOG_COUNTER
      02001139H   PUBLIC    XDATA    BYTE      WATCHDOG_COUNTER_initVar
      010075CCH   PUBLIC    CODE     ---       _WATCHDOG_COUNTER_WritePeriod
      010072FCH   PUBLIC    CODE     ---       _WATCHDOG_COUNTER_WriteCounter
      010076D6H   PUBLIC    CODE     ---       _WATCHDOG_COUNTER_SetInterruptMode
      010074BBH   PUBLIC    CODE     ---       WATCHDOG_COUNTER_Start
      010073DBH   PUBLIC    CODE     ---       WATCHDOG_COUNTER_Enable
      01006F0FH   PUBLIC    CODE     ---       WATCHDOG_COUNTER_Init
      000000CAH   SFRSYM    DATA     BYTE      SFRPRT5SEL
      000000DAH   SFRSYM    DATA     BYTE      SFRPRT6SEL
      000000D0H.6 SFRSYM    DATA     BIT       AC
      000000A8H.7 SFRSYM    DATA     BIT       EA
      000000A8H   SFRSYM    DATA     BYTE      IE
LX51 LINKER/LOCATER V4.64.0.0                                                         06/15/2017  12:28:54  PAGE 75


      00000085H   SFRSYM    DATA     BYTE      DPH1
      00000084H   SFRSYM    DATA     BYTE      DPL1
      000000D0H.7 SFRSYM    DATA     BIT       CY
      000000A0H   SFRSYM    DATA     BYTE      P2AX
      00000095H   SFRSYM    DATA     BYTE      DPX1
      00000081H   SFRSYM    DATA     BYTE      SP
      000000D0H.2 SFRSYM    DATA     BIT       OV
      00000080H   SFRSYM    DATA     BYTE      SFRPRT0DR
      00000090H   SFRSYM    DATA     BYTE      SFRPRT1DR
      000000F2H   SFRSYM    DATA     BYTE      SFRPRT12SEL
      00000098H   SFRSYM    DATA     BYTE      SFRPRT2DR
      000000B0H   SFRSYM    DATA     BYTE      SFRPRT3DR
      000000C0H   SFRSYM    DATA     BYTE      SFRPRT4DR
      000000FAH   SFRSYM    DATA     BYTE      SFRPRT15SEL
      000000C8H   SFRSYM    DATA     BYTE      SFRPRT5DR
      000000D8H   SFRSYM    DATA     BYTE      SFRPRT6DR
      00000089H   SFRSYM    DATA     BYTE      SFRPRT0PS
      00000091H   SFRSYM    DATA     BYTE      SFRPRT1PS
      00000099H   SFRSYM    DATA     BYTE      SFRPRT2PS
      000000B1H   SFRSYM    DATA     BYTE      SFRPRT3PS
      000000C1H   SFRSYM    DATA     BYTE      SFRPRT4PS
      000000C9H   SFRSYM    DATA     BYTE      SFRPRT5PS
      000000D9H   SFRSYM    DATA     BYTE      SFRPRT6PS
      000000EAH   SFRSYM    DATA     BYTE      MXAX
      000000F0H   SFRSYM    DATA     BYTE      B
      000000E0H   SFRSYM    DATA     BYTE      ACC
      000000D0H   SFRSYM    DATA     BIT       P
      000000D0H.3 SFRSYM    DATA     BIT       RS0
      000000D0H.4 SFRSYM    DATA     BIT       RS1
      00000083H   SFRSYM    DATA     BYTE      DPH
      000000E8H   SFRSYM    DATA     BYTE      SFRPRT12DR
      00000082H   SFRSYM    DATA     BYTE      DPL
      000000F8H   SFRSYM    DATA     BYTE      SFRPRT15DR
      00000086H   SFRSYM    DATA     BYTE      DPS
      000000E9H   SFRSYM    DATA     BYTE      SFRPRT12PS
      00000093H   SFRSYM    DATA     BYTE      DPX
      000000F9H   SFRSYM    DATA     BYTE      SFRPRT15PS
      000000D0H.5 SFRSYM    DATA     BIT       F0
      000000D0H.1 SFRSYM    DATA     BIT       F1
      0000008AH   SFRSYM    DATA     BYTE      SFRPRT0SEL
      000000D0H   SFRSYM    DATA     BYTE      PSW
      000000A2H   SFRSYM    DATA     BYTE      SFRPRT1SEL
      0000009AH   SFRSYM    DATA     BYTE      SFRPRT2SEL
      000000B2H   SFRSYM    DATA     BYTE      SFRPRT3SEL
      000000C2H   SFRSYM    DATA     BYTE      SFRPRT4SEL

      01006F0FH   BLOCK     CODE     ---       LVL=0
      01006F0FH   LINE      CODE     ---       #37
      01006F0FH   LINE      CODE     ---       #38
      01006F0FH   LINE      CODE     ---       #50
      01006F16H   LINE      CODE     ---       #57
      01006F1DH   LINE      CODE     ---       #66
      01006F24H   LINE      CODE     ---       #69
      01006F2BH   LINE      CODE     ---       #70
      01006F2FH   LINE      CODE     ---       #73
      01006F33H   LINE      CODE     ---       #74
      01006F37H   LINE      CODE     ---       #100
      01006F3CH   LINE      CODE     ---       #102
      01006F41H   LINE      CODE     ---       #104
      01006F46H   LINE      CODE     ---       #123
      ---         BLOCKEND  ---      ---       LVL=0

      010073DBH   BLOCK     CODE     ---       LVL=0
      010073DBH   LINE      CODE     ---       #143
      010073DBH   LINE      CODE     ---       #144
LX51 LINKER/LOCATER V4.64.0.0                                                         06/15/2017  12:28:54  PAGE 76


      010073DBH   LINE      CODE     ---       #147
      010073E2H   LINE      CODE     ---       #148
      010073E9H   LINE      CODE     ---       #155
      010073F0H   LINE      CODE     ---       #158
      ---         BLOCKEND  ---      ---       LVL=0

      010074BBH   BLOCK     CODE     ---       LVL=0
      010074BBH   LINE      CODE     ---       #178
      010074BBH   LINE      CODE     ---       #179
      010074BBH   LINE      CODE     ---       #180
      010074C1H   LINE      CODE     ---       #181
      010074C1H   LINE      CODE     ---       #182
      010074C4H   LINE      CODE     ---       #184
      010074CAH   LINE      CODE     ---       #185
      010074CAH   LINE      CODE     ---       #188
      010074CDH   LINE      CODE     ---       #189
      ---         BLOCKEND  ---      ---       LVL=0

      010076D6H   BLOCK     CODE     ---       LVL=0
      00000007H   SYMBOL    DATA     BYTE      interruptsMask
      010076D6H   LINE      CODE     ---       #237
      010076D6H   LINE      CODE     ---       #238
      010076D6H   LINE      CODE     ---       #239
      010076DBH   LINE      CODE     ---       #240
      ---         BLOCKEND  ---      ---       LVL=0
      00000007H   SYMBOL    DATA     BYTE      control

      010072FCH   BLOCK     CODE     ---       LVL=0
      00000007H   SYMBOL    DATA     BYTE      counter
      010072FCH   LINE      CODE     ---       #326
      010072FCH   LINE      CODE     ---       #328
      010072FCH   LINE      CODE     ---       #333
      01007303H   LINE      CODE     ---       #334
      01007310H   LINE      CODE     ---       #335
      01007317H   LINE      CODE     ---       #339
      ---         BLOCKEND  ---      ---       LVL=0

      010075CCH   BLOCK     CODE     ---       LVL=0
      00000007H   SYMBOL    DATA     BYTE      period
      010075CCH   LINE      CODE     ---       #415
      010075CCH   LINE      CODE     ---       #416
      010075CCH   LINE      CODE     ---       #418
      010075D9H   LINE      CODE     ---       #422
      ---         BLOCKEND  ---      ---       LVL=0

      ---         MODULE    ---      ---       WATCHDOG_ENABLER
      010076DCH   PUBLIC    CODE     ---       _WATCHDOG_ENABLER_Write

      010076DCH   BLOCK     CODE     ---       LVL=0
      00000007H   SYMBOL    DATA     BYTE      control
      010076DCH   LINE      CODE     ---       #37
      010076DCH   LINE      CODE     ---       #38
      010076DCH   LINE      CODE     ---       #39
      010076E1H   LINE      CODE     ---       #40
      ---         BLOCKEND  ---      ---       LVL=0

      ---         MODULE    ---      ---       WATCHDOG_REFRESH
      010076E2H   PUBLIC    CODE     ---       _WATCHDOG_REFRESH_Write

      010076E2H   BLOCK     CODE     ---       LVL=0
      00000007H   SYMBOL    DATA     BYTE      control
      010076E2H   LINE      CODE     ---       #37
      010076E2H   LINE      CODE     ---       #38
      010076E2H   LINE      CODE     ---       #39
      010076E7H   LINE      CODE     ---       #40
LX51 LINKER/LOCATER V4.64.0.0                                                         06/15/2017  12:28:54  PAGE 77


      ---         BLOCKEND  ---      ---       LVL=0

      ---         MODULE    ---      ---       SPI_IMU
      02001135H   PUBLIC    XDATA    BYTE      SPI_IMU_initVar
      02001134H   PUBLIC    XDATA    BYTE      SPI_IMU_swStatusTx
      02001133H   PUBLIC    XDATA    BYTE      SPI_IMU_swStatusRx
      01007558H   PUBLIC    CODE     ---       SPI_IMU_ReadStatus
      0100727FH   PUBLIC    CODE     ---       SPI_IMU_ClearFIFO
      01007506H   PUBLIC    CODE     ---       SPI_IMU_ClearTxBuffer
      01007549H   PUBLIC    CODE     ---       SPI_IMU_ClearRxBuffer
      010076F4H   PUBLIC    CODE     ---       SPI_IMU_ReadRxData
      010075F4H   PUBLIC    CODE     ---       _SPI_IMU_WriteTxData
      010076EEH   PUBLIC    CODE     ---       SPI_IMU_ReadRxStatus
      010076E8H   PUBLIC    CODE     ---       SPI_IMU_ReadTxStatus
      0100771CH   PUBLIC    CODE     ---       SPI_IMU_EnableRxInt
      0100771BH   PUBLIC    CODE     ---       SPI_IMU_EnableTxInt
      010074CEH   PUBLIC    CODE     ---       SPI_IMU_Start
      010071D2H   PUBLIC    CODE     ---       SPI_IMU_Enable
      01007365H   PUBLIC    CODE     ---       SPI_IMU_Init
      000000CAH   SFRSYM    DATA     BYTE      SFRPRT5SEL
      000000DAH   SFRSYM    DATA     BYTE      SFRPRT6SEL
      000000D0H.6 SFRSYM    DATA     BIT       AC
      000000A8H.7 SFRSYM    DATA     BIT       EA
      000000A8H   SFRSYM    DATA     BYTE      IE
      00000085H   SFRSYM    DATA     BYTE      DPH1
      00000084H   SFRSYM    DATA     BYTE      DPL1
      000000D0H.7 SFRSYM    DATA     BIT       CY
      000000A0H   SFRSYM    DATA     BYTE      P2AX
      00000095H   SFRSYM    DATA     BYTE      DPX1
      00000081H   SFRSYM    DATA     BYTE      SP
      000000D0H.2 SFRSYM    DATA     BIT       OV
      00000080H   SFRSYM    DATA     BYTE      SFRPRT0DR
      00000090H   SFRSYM    DATA     BYTE      SFRPRT1DR
      000000F2H   SFRSYM    DATA     BYTE      SFRPRT12SEL
      00000098H   SFRSYM    DATA     BYTE      SFRPRT2DR
      000000B0H   SFRSYM    DATA     BYTE      SFRPRT3DR
      000000C0H   SFRSYM    DATA     BYTE      SFRPRT4DR
      000000FAH   SFRSYM    DATA     BYTE      SFRPRT15SEL
      000000C8H   SFRSYM    DATA     BYTE      SFRPRT5DR
      000000D8H   SFRSYM    DATA     BYTE      SFRPRT6DR
      00000089H   SFRSYM    DATA     BYTE      SFRPRT0PS
      00000091H   SFRSYM    DATA     BYTE      SFRPRT1PS
      00000099H   SFRSYM    DATA     BYTE      SFRPRT2PS
      000000B1H   SFRSYM    DATA     BYTE      SFRPRT3PS
      000000C1H   SFRSYM    DATA     BYTE      SFRPRT4PS
      000000C9H   SFRSYM    DATA     BYTE      SFRPRT5PS
      000000D9H   SFRSYM    DATA     BYTE      SFRPRT6PS
      000000EAH   SFRSYM    DATA     BYTE      MXAX
      000000F0H   SFRSYM    DATA     BYTE      B
      000000E0H   SFRSYM    DATA     BYTE      ACC
      000000D0H   SFRSYM    DATA     BIT       P
      000000D0H.3 SFRSYM    DATA     BIT       RS0
      000000D0H.4 SFRSYM    DATA     BIT       RS1
      00000083H   SFRSYM    DATA     BYTE      DPH
      000000E8H   SFRSYM    DATA     BYTE      SFRPRT12DR
      00000082H   SFRSYM    DATA     BYTE      DPL
      000000F8H   SFRSYM    DATA     BYTE      SFRPRT15DR
      00000086H   SFRSYM    DATA     BYTE      DPS
      000000E9H   SFRSYM    DATA     BYTE      SFRPRT12PS
      00000093H   SFRSYM    DATA     BYTE      DPX
      000000F9H   SFRSYM    DATA     BYTE      SFRPRT15PS
      000000D0H.5 SFRSYM    DATA     BIT       F0
      000000D0H.1 SFRSYM    DATA     BIT       F1
      0000008AH   SFRSYM    DATA     BYTE      SFRPRT0SEL
      000000D0H   SFRSYM    DATA     BYTE      PSW
LX51 LINKER/LOCATER V4.64.0.0                                                         06/15/2017  12:28:54  PAGE 78


      000000A2H   SFRSYM    DATA     BYTE      SFRPRT1SEL
      0000009AH   SFRSYM    DATA     BYTE      SFRPRT2SEL
      000000B2H   SFRSYM    DATA     BYTE      SFRPRT3SEL
      000000C2H   SFRSYM    DATA     BYTE      SFRPRT4SEL

      01007365H   BLOCK     CODE     ---       LVL=0
      01007365H   LINE      CODE     ---       #63
      01007365H   LINE      CODE     ---       #64
      01007365H   LINE      CODE     ---       #66
      0100736BH   LINE      CODE     ---       #83
      0100736EH   LINE      CODE     ---       #97
      01007371H   LINE      CODE     ---       #98
      01007374H   LINE      CODE     ---       #101
      01007379H   LINE      CODE     ---       #102
      0100737DH   LINE      CODE     ---       #103
      ---         BLOCKEND  ---      ---       LVL=0

      010071D2H   BLOCK     CODE     ---       LVL=0
      010071D2H   BLOCK     CODE     NEAR LAB  LVL=1
      00000007H   SYMBOL    DATA     BYTE      enableInterrupts
      ---         BLOCKEND  ---      ---       LVL=1
      010071D2H   LINE      CODE     ---       #120
      010071D2H   LINE      CODE     ---       #121
      010071D2H   LINE      CODE     ---       #124
      010071D5H   LINE      CODE     ---       #125
      010071DCH   LINE      CODE     ---       #126
      010071E3H   LINE      CODE     ---       #127
      010071EAH   LINE      CODE     ---       #128
      010071EDH   LINE      CODE     ---       #131
      010071F0H   LINE      CODE     ---       #134
      010071F3H   LINE      CODE     ---       #135
      010071F6H   LINE      CODE     ---       #136
      ---         BLOCKEND  ---      ---       LVL=0

      010074CEH   BLOCK     CODE     ---       LVL=0
      010074CEH   LINE      CODE     ---       #163
      010074CEH   LINE      CODE     ---       #164
      010074CEH   LINE      CODE     ---       #165
      010074D4H   LINE      CODE     ---       #166
      010074D4H   LINE      CODE     ---       #167
      010074D7H   LINE      CODE     ---       #168
      010074DDH   LINE      CODE     ---       #169
      010074DDH   LINE      CODE     ---       #171
      010074E0H   LINE      CODE     ---       #172
      ---         BLOCKEND  ---      ---       LVL=0
      00000007H   SYMBOL    DATA     BYTE      enableInterrupts

      0100771BH   BLOCK     CODE     ---       LVL=0
      0100771BH   LINE      CODE     ---       #227
      0100771BH   LINE      CODE     ---       #228
      0100771BH   LINE      CODE     ---       #232
      ---         BLOCKEND  ---      ---       LVL=0

      0100771CH   BLOCK     CODE     ---       LVL=0
      0100771CH   LINE      CODE     ---       #252
      0100771CH   LINE      CODE     ---       #253
      0100771CH   LINE      CODE     ---       #257
      ---         BLOCKEND  ---      ---       LVL=0
      00000007H   SYMBOL    DATA     BYTE      intSrc
      00000007H   SYMBOL    DATA     BYTE      intSrc

      010076E8H   BLOCK     CODE     ---       LVL=0
      010076E8H   BLOCK     CODE     NEAR LAB  LVL=1
      00000007H   SYMBOL    DATA     BYTE      tmpStatus
      ---         BLOCKEND  ---      ---       LVL=1
LX51 LINKER/LOCATER V4.64.0.0                                                         06/15/2017  12:28:54  PAGE 79


      010076E8H   LINE      CODE     ---       #386
      010076E8H   LINE      CODE     ---       #387
      010076E8H   LINE      CODE     ---       #401
      010076EDH   LINE      CODE     ---       #405
      010076EDH   LINE      CODE     ---       #406
      ---         BLOCKEND  ---      ---       LVL=0

      010076EEH   BLOCK     CODE     ---       LVL=0
      010076EEH   BLOCK     CODE     NEAR LAB  LVL=1
      00000007H   SYMBOL    DATA     BYTE      tmpStatus
      ---         BLOCKEND  ---      ---       LVL=1
      010076EEH   LINE      CODE     ---       #437
      010076EEH   LINE      CODE     ---       #438
      010076EEH   LINE      CODE     ---       #452
      010076F3H   LINE      CODE     ---       #456
      010076F3H   LINE      CODE     ---       #457
      ---         BLOCKEND  ---      ---       LVL=0

      010075F4H   BLOCK     CODE     ---       LVL=0
      00000007H   SYMBOL    DATA     BYTE      txData
      010075F4H   LINE      CODE     ---       #494
      010075F4H   LINE      CODE     ---       #495
      010075F4H   LINE      CODE     ---       #557
      010075FBH   LINE      CODE     ---       #558
      010075FBH   LINE      CODE     ---       #559
      010075FBH   LINE      CODE     ---       #562
      01007600H   LINE      CODE     ---       #565
      ---         BLOCKEND  ---      ---       LVL=0

      010076F4H   BLOCK     CODE     ---       LVL=0
      010076F4H   BLOCK     CODE     NEAR LAB  LVL=1
      00000007H   SYMBOL    DATA     BYTE      rxData
      ---         BLOCKEND  ---      ---       LVL=1
      010076F4H   LINE      CODE     ---       #602
      010076F4H   LINE      CODE     ---       #603
      010076F4H   LINE      CODE     ---       #633
      010076F9H   LINE      CODE     ---       #637
      010076F9H   LINE      CODE     ---       #638
      ---         BLOCKEND  ---      ---       LVL=0
      00000007H   SYMBOL    DATA     BYTE      size
      00000007H   SYMBOL    DATA     BYTE      size

      01007549H   BLOCK     CODE     ---       LVL=0
      01007549H   LINE      CODE     ---       #806
      01007549H   LINE      CODE     ---       #807
      01007549H   LINE      CODE     ---       #809
      01007550H   LINE      CODE     ---       #810
      01007550H   LINE      CODE     ---       #811
      01007555H   LINE      CODE     ---       #812
      01007557H   LINE      CODE     ---       #824
      ---         BLOCKEND  ---      ---       LVL=0

      01007506H   BLOCK     CODE     ---       LVL=0
      01007506H   BLOCK     CODE     NEAR LAB  LVL=1
      00000007H   SYMBOL    DATA     BYTE      enableInterrupts
      ---         BLOCKEND  ---      ---       LVL=1
      01007506H   LINE      CODE     ---       #861
      01007506H   LINE      CODE     ---       #862
      01007506H   LINE      CODE     ---       #865
      01007509H   LINE      CODE     ---       #867
      01007510H   LINE      CODE     ---       #868
      01007514H   LINE      CODE     ---       #875
      01007517H   LINE      CODE     ---       #890
      ---         BLOCKEND  ---      ---       LVL=0
      00000005H   SYMBOL    DATA     BYTE      byteCount
LX51 LINKER/LOCATER V4.64.0.0                                                         06/15/2017  12:28:54  PAGE 80


      00000006H   SYMBOL    DATA     BYTE      bufIndex

      0100727FH   BLOCK     CODE     ---       LVL=0
      0100727FH   BLOCK     CODE     NEAR LAB  LVL=1
      00000007H   SYMBOL    DATA     BYTE      enableInterrupts
      ---         BLOCKEND  ---      ---       LVL=1
      0100727FH   LINE      CODE     ---       #995
      0100727FH   LINE      CODE     ---       #996
      0100727FH   LINE      CODE     ---       #1000
      01007286H   LINE      CODE     ---       #1001
      01007286H   LINE      CODE     ---       #1002
      0100728BH   LINE      CODE     ---       #1003
      0100728DH   LINE      CODE     ---       #1005
      01007290H   LINE      CODE     ---       #1007
      01007297H   LINE      CODE     ---       #1008
      0100729BH   LINE      CODE     ---       #1015
      0100729EH   LINE      CODE     ---       #1016
      ---         BLOCKEND  ---      ---       LVL=0
      00000007H   SYMBOL    DATA     BYTE      intSrc

      01007558H   BLOCK     CODE     ---       LVL=0
      01007558H   BLOCK     CODE     NEAR LAB  LVL=1
      00000007H   SYMBOL    DATA     BYTE      tmpStatus
      ---         BLOCKEND  ---      ---       LVL=1
      01007558H   LINE      CODE     ---       #1125
      01007558H   LINE      CODE     ---       #1126
      01007558H   LINE      CODE     ---       #1144
      0100755DH   LINE      CODE     ---       #1145
      01007563H   LINE      CODE     ---       #1146
      01007566H   LINE      CODE     ---       #1150
      01007566H   LINE      CODE     ---       #1151
      ---         BLOCKEND  ---      ---       LVL=0

      ---         MODULE    ---      ---       ISR_IMU
      01004A19H   PUBLIC    CODE     ---       isr_imu_Interrupt
      000000CAH   SFRSYM    DATA     BYTE      SFRPRT5SEL
      000000DAH   SFRSYM    DATA     BYTE      SFRPRT6SEL
      000000D0H.6 SFRSYM    DATA     BIT       AC
      000000A8H.7 SFRSYM    DATA     BIT       EA
      000000A8H   SFRSYM    DATA     BYTE      IE
      00000085H   SFRSYM    DATA     BYTE      DPH1
      00000084H   SFRSYM    DATA     BYTE      DPL1
      000000D0H.7 SFRSYM    DATA     BIT       CY
      000000A0H   SFRSYM    DATA     BYTE      P2AX
      00000095H   SFRSYM    DATA     BYTE      DPX1
      00000081H   SFRSYM    DATA     BYTE      SP
      000000D0H.2 SFRSYM    DATA     BIT       OV
      00000080H   SFRSYM    DATA     BYTE      SFRPRT0DR
      00000090H   SFRSYM    DATA     BYTE      SFRPRT1DR
      000000F2H   SFRSYM    DATA     BYTE      SFRPRT12SEL
      00000098H   SFRSYM    DATA     BYTE      SFRPRT2DR
      000000B0H   SFRSYM    DATA     BYTE      SFRPRT3DR
      000000C0H   SFRSYM    DATA     BYTE      SFRPRT4DR
      000000FAH   SFRSYM    DATA     BYTE      SFRPRT15SEL
      000000C8H   SFRSYM    DATA     BYTE      SFRPRT5DR
      000000D8H   SFRSYM    DATA     BYTE      SFRPRT6DR
      00000089H   SFRSYM    DATA     BYTE      SFRPRT0PS
      00000091H   SFRSYM    DATA     BYTE      SFRPRT1PS
      00000099H   SFRSYM    DATA     BYTE      SFRPRT2PS
      000000B1H   SFRSYM    DATA     BYTE      SFRPRT3PS
      000000C1H   SFRSYM    DATA     BYTE      SFRPRT4PS
      000000C9H   SFRSYM    DATA     BYTE      SFRPRT5PS
      000000D9H   SFRSYM    DATA     BYTE      SFRPRT6PS
      000000EAH   SFRSYM    DATA     BYTE      MXAX
      000000F0H   SFRSYM    DATA     BYTE      B
LX51 LINKER/LOCATER V4.64.0.0                                                         06/15/2017  12:28:54  PAGE 81


      000000E0H   SFRSYM    DATA     BYTE      ACC
      000000D0H   SFRSYM    DATA     BIT       P
      000000D0H.3 SFRSYM    DATA     BIT       RS0
      000000D0H.4 SFRSYM    DATA     BIT       RS1
      00000083H   SFRSYM    DATA     BYTE      DPH
      000000E8H   SFRSYM    DATA     BYTE      SFRPRT12DR
      00000082H   SFRSYM    DATA     BYTE      DPL
      000000F8H   SFRSYM    DATA     BYTE      SFRPRT15DR
      00000086H   SFRSYM    DATA     BYTE      DPS
      000000E9H   SFRSYM    DATA     BYTE      SFRPRT12PS
      00000093H   SFRSYM    DATA     BYTE      DPX
      000000F9H   SFRSYM    DATA     BYTE      SFRPRT15PS
      000000D0H.5 SFRSYM    DATA     BIT       F0
      000000D0H.1 SFRSYM    DATA     BIT       F1
      0000008AH   SFRSYM    DATA     BYTE      SFRPRT0SEL
      000000D0H   SFRSYM    DATA     BYTE      PSW
      000000A2H   SFRSYM    DATA     BYTE      SFRPRT1SEL
      0000009AH   SFRSYM    DATA     BYTE      SFRPRT2SEL
      000000B2H   SFRSYM    DATA     BYTE      SFRPRT3SEL
      000000C2H   SFRSYM    DATA     BYTE      SFRPRT4SEL

      01004A19H   BLOCK     CODE     ---       LVL=0
      01004A44H   BLOCK     CODE     NEAR LAB  LVL=1
      02000EA9H   SYMBOL    XDATA    BYTE      k_imu
      02000EAAH   SYMBOL    XDATA    ---       g_imuTMP
      02000A53H   SYMBOL    XDATA    WORD      tmp
      ---         BLOCKEND  ---      ---       LVL=1
      01004A19H   LINE      CODE     ---       #168
      01004A44H   LINE      CODE     ---       #178
      01004A4BH   LINE      CODE     ---       #181
      01004A5FH   LINE      CODE     ---       #182
      01004A73H   LINE      CODE     ---       #184
      01004A9AH   LINE      CODE     ---       #185
      01004AC5H   LINE      CODE     ---       #186
      01004AECH   LINE      CODE     ---       #187
      01004B17H   LINE      CODE     ---       #188
      01004B3EH   LINE      CODE     ---       #189
      01004B69H   LINE      CODE     ---       #191
      01004B90H   LINE      CODE     ---       #192
      01004BBBH   LINE      CODE     ---       #193
      01004BE2H   LINE      CODE     ---       #194
      01004C0DH   LINE      CODE     ---       #195
      01004C34H   LINE      CODE     ---       #196
      01004C5FH   LINE      CODE     ---       #198
      01004C86H   LINE      CODE     ---       #199
      01004CB1H   LINE      CODE     ---       #200
      01004CD8H   LINE      CODE     ---       #201
      01004D03H   LINE      CODE     ---       #202
      01004D2AH   LINE      CODE     ---       #203
      01004D55H   LINE      CODE     ---       #205
      01004D6BH   LINE      CODE     ---       #208
      01004D6DH   LINE      CODE     ---       #209
      01004D80H   LINE      CODE     ---       #210
      01004D80H   LINE      CODE     ---       #220
      ---         BLOCKEND  ---      ---       LVL=0
      00000006H   SYMBOL    DATA     ---       address
      00000007H   SYMBOL    DATA     BYTE      priority
      00000007H   SYMBOL    DATA     BYTE      priority

      ---         MODULE    ---      ---       OPTO_PIN
      0100752AH   PUBLIC    CODE     ---       _Opto_Pin_Write

      0100752AH   BLOCK     CODE     ---       LVL=0
      00000007H   SYMBOL    DATA     BYTE      value
      0100752AH   BLOCK     CODE     NEAR LAB  LVL=1
LX51 LINKER/LOCATER V4.64.0.0                                                         06/15/2017  12:28:54  PAGE 82


      00000006H   SYMBOL    DATA     BYTE      staticBits
      ---         BLOCKEND  ---      ---       LVL=1
      0100752AH   LINE      CODE     ---       #53
      0100752AH   LINE      CODE     ---       #54
      0100752AH   LINE      CODE     ---       #55
      01007531H   LINE      CODE     ---       #56
      01007539H   LINE      CODE     ---       #57
      ---         BLOCKEND  ---      ---       LVL=0
      00000007H   SYMBOL    DATA     BYTE      mode

      ---         MODULE    ---      ---       CHIP_SELECT_A
      010076FAH   PUBLIC    CODE     ---       _Chip_Select_A_Write

      010076FAH   BLOCK     CODE     ---       LVL=0
      00000007H   SYMBOL    DATA     BYTE      control
      010076FAH   LINE      CODE     ---       #37
      010076FAH   LINE      CODE     ---       #38
      010076FAH   LINE      CODE     ---       #39
      010076FFH   LINE      CODE     ---       #40
      ---         BLOCKEND  ---      ---       LVL=0

      ---         MODULE    ---      ---       CHIP_SELECT_B
      01007700H   PUBLIC    CODE     ---       _Chip_Select_B_Write

      01007700H   BLOCK     CODE     ---       LVL=0
      00000007H   SYMBOL    DATA     BYTE      control
      01007700H   LINE      CODE     ---       #37
      01007700H   LINE      CODE     ---       #38
      01007700H   LINE      CODE     ---       #39
      01007705H   LINE      CODE     ---       #40
      ---         BLOCKEND  ---      ---       LVL=0

      ---         MODULE    ---      ---       CYFITTER_CFG
      01005D8AH   PUBLIC    CODE     ---       cyfitter_cfg
      000000CAH   SFRSYM    DATA     BYTE      SFRPRT5SEL
      000000DAH   SFRSYM    DATA     BYTE      SFRPRT6SEL
      000000D0H.6 SFRSYM    DATA     BIT       AC
      000000A8H.7 SFRSYM    DATA     BIT       EA
      000000A8H   SFRSYM    DATA     BYTE      IE
      00000085H   SFRSYM    DATA     BYTE      DPH1
      00000084H   SFRSYM    DATA     BYTE      DPL1
      000000D0H.7 SFRSYM    DATA     BIT       CY
      000000A0H   SFRSYM    DATA     BYTE      P2AX
      00000095H   SFRSYM    DATA     BYTE      DPX1
      00000081H   SFRSYM    DATA     BYTE      SP
      000000D0H.2 SFRSYM    DATA     BIT       OV
      00000080H   SFRSYM    DATA     BYTE      SFRPRT0DR
      00000090H   SFRSYM    DATA     BYTE      SFRPRT1DR
      000000F2H   SFRSYM    DATA     BYTE      SFRPRT12SEL
      00000098H   SFRSYM    DATA     BYTE      SFRPRT2DR
      000000B0H   SFRSYM    DATA     BYTE      SFRPRT3DR
      000000C0H   SFRSYM    DATA     BYTE      SFRPRT4DR
      000000FAH   SFRSYM    DATA     BYTE      SFRPRT15SEL
      000000C8H   SFRSYM    DATA     BYTE      SFRPRT5DR
      000000D8H   SFRSYM    DATA     BYTE      SFRPRT6DR
      00000089H   SFRSYM    DATA     BYTE      SFRPRT0PS
      00000091H   SFRSYM    DATA     BYTE      SFRPRT1PS
      00000099H   SFRSYM    DATA     BYTE      SFRPRT2PS
      000000B1H   SFRSYM    DATA     BYTE      SFRPRT3PS
      000000C1H   SFRSYM    DATA     BYTE      SFRPRT4PS
      000000C9H   SFRSYM    DATA     BYTE      SFRPRT5PS
      000000D9H   SFRSYM    DATA     BYTE      SFRPRT6PS
      000000EAH   SFRSYM    DATA     BYTE      MXAX
      000000F0H   SFRSYM    DATA     BYTE      B
      000000E0H   SFRSYM    DATA     BYTE      ACC
LX51 LINKER/LOCATER V4.64.0.0                                                         06/15/2017  12:28:54  PAGE 83


      000000D0H   SFRSYM    DATA     BIT       P
      000000D0H.3 SFRSYM    DATA     BIT       RS0
      000000D0H.4 SFRSYM    DATA     BIT       RS1
      00000083H   SFRSYM    DATA     BYTE      DPH
      000000E8H   SFRSYM    DATA     BYTE      SFRPRT12DR
      00000082H   SFRSYM    DATA     BYTE      DPL
      000000F8H   SFRSYM    DATA     BYTE      SFRPRT15DR
      00000086H   SFRSYM    DATA     BYTE      DPS
      000000E9H   SFRSYM    DATA     BYTE      SFRPRT12PS
      00000093H   SFRSYM    DATA     BYTE      DPX
      000000F9H   SFRSYM    DATA     BYTE      SFRPRT15PS
      000000D0H.5 SFRSYM    DATA     BIT       F0
      000000D0H.1 SFRSYM    DATA     BIT       F1
      0000008AH   SFRSYM    DATA     BYTE      SFRPRT0SEL
      000000D0H   SFRSYM    DATA     BYTE      PSW
      000000A2H   SFRSYM    DATA     BYTE      SFRPRT1SEL
      0000009AH   SFRSYM    DATA     BYTE      SFRPRT2SEL
      000000B2H   SFRSYM    DATA     BYTE      SFRPRT3SEL
      000000C2H   SFRSYM    DATA     BYTE      SFRPRT4SEL
      010057B0H   SYMBOL    CODE     ---       ClockSetup
      01007710H   SYMBOL    CODE     ---       _CyClockStartupError
      01006FE2H   SYMBOL    CODE     ---       AnalogSetDefault
      01006502H   SYMBOL    CODE     ---       cfg_dma_init

      01007710H   BLOCK     CODE     ---       LVL=0
      02000000H   SYMBOL    XDATA    BYTE      errorCode
      01007710H   LINE      CODE     ---       #72
      01007710H   LINE      CODE     ---       #73
      01007710H   LINE      CODE     ---       #75
      01007710H   LINE      CODE     ---       #87
      ---         BLOCKEND  ---      ---       LVL=0

      01006502H   BLOCK     CODE     ---       LVL=0
      01006502H   BLOCK     CODE     NEAR LAB  LVL=1
      0100771DH   SYMBOL    CONST    ---       CH1_ADDR_DATA0
      01007725H   SYMBOL    CONST    ---       CH2_ADDR_DATA0
      0100772DH   SYMBOL    CONST    ---       CH5_ADDR_DATA0
      01007735H   SYMBOL    CONST    ---       CH6_ADDR_DATA0
      0100773DH   SYMBOL    CONST    ---       DMA_TD_START_CMD
      0200112FH   SYMBOL    XDATA    DWORD     DMA_ZERO_VAL
      01007742H   SYMBOL    CONST    ---       CFG_TD_LIST0
      ---         BLOCKEND  ---      ---       LVL=1
      01006502H   LINE      CODE     ---       #309
      01006502H   LINE      CODE     ---       #310
      01006502H   LINE      CODE     ---       #427
      0100650DH   LINE      CODE     ---       #428
      01006513H   LINE      CODE     ---       #429
      01006519H   LINE      CODE     ---       #430
      0100651EH   LINE      CODE     ---       #431
      0100652AH   LINE      CODE     ---       #432
      01006530H   LINE      CODE     ---       #433
      01006534H   LINE      CODE     ---       #434
      01006556H   LINE      CODE     ---       #435
      01006563H   LINE      CODE     ---       #436
      01006570H   LINE      CODE     ---       #437
      0100657CH   LINE      CODE     ---       #438
      01006582H   LINE      CODE     ---       #439
      01006587H   LINE      CODE     ---       #440
      0100658DH   LINE      CODE     ---       #441
      01006593H   LINE      CODE     ---       #443
      01006593H   LINE      CODE     ---       #444
      01006599H   LINE      CODE     ---       #445
      01006599H   LINE      CODE     ---       #448
      010065A1H   LINE      CODE     ---       #449
      010065A9H   LINE      CODE     ---       #450
LX51 LINKER/LOCATER V4.64.0.0                                                         06/15/2017  12:28:54  PAGE 84


      010065B1H   LINE      CODE     ---       #451
      010065B9H   LINE      CODE     ---       #452
      010065C1H   LINE      CODE     ---       #455
      ---         BLOCKEND  ---      ---       LVL=0

      010057B0H   BLOCK     CODE     ---       LVL=0
      010057B0H   BLOCK     CODE     NEAR LAB  LVL=1
      02000583H   SYMBOL    XDATA    DWORD     timeout
      02000587H   SYMBOL    XDATA    BYTE      pllLock
      ---         BLOCKEND  ---      ---       LVL=1
      010057B0H   LINE      CODE     ---       #473
      010057B0H   LINE      CODE     ---       #474
      010057B0H   LINE      CODE     ---       #480
      010057BDH   LINE      CODE     ---       #481
      010057C3H   LINE      CODE     ---       #482
      010057D0H   LINE      CODE     ---       #483
      010057D6H   LINE      CODE     ---       #484
      010057E3H   LINE      CODE     ---       #485
      010057E9H   LINE      CODE     ---       #486
      010057F6H   LINE      CODE     ---       #487
      010057FCH   LINE      CODE     ---       #488
      01005809H   LINE      CODE     ---       #489
      0100580FH   LINE      CODE     ---       #492
      01005815H   LINE      CODE     ---       #495
      0100581BH   LINE      CODE     ---       #496
      01005829H   LINE      CODE     ---       #499
      01005836H   LINE      CODE     ---       #500
      01005843H   LINE      CODE     ---       #502
      01005848H   LINE      CODE     ---       #503
      0100586DH   LINE      CODE     ---       #504
      0100586DH   LINE      CODE     ---       #505
      0100587EH   LINE      CODE     ---       #506
      01005888H   LINE      CODE     ---       #507
      010058B0H   LINE      CODE     ---       #509
      010058BEH   LINE      CODE     ---       #510
      010058BEH   LINE      CODE     ---       #511
      010058C3H   LINE      CODE     ---       #512
      010058C3H   LINE      CODE     ---       #515
      010058D0H   LINE      CODE     ---       #516
      010058D6H   LINE      CODE     ---       #517
      010058DBH   LINE      CODE     ---       #518
      010058E1H   LINE      CODE     ---       #519
      010058E6H   LINE      CODE     ---       #522
      010058EAH   LINE      CODE     ---       #523
      010058F0H   LINE      CODE     ---       #525
      010058F7H   LINE      CODE     ---       #526
      ---         BLOCKEND  ---      ---       LVL=0

      01006FE2H   BLOCK     CODE     ---       LVL=0
      01006FE2H   BLOCK     CODE     NEAR LAB  LVL=1
      00000007H   SYMBOL    DATA     BYTE      bg_xover_inl_trim
      ---         BLOCKEND  ---      ---       LVL=1
      01006FE2H   LINE      CODE     ---       #548
      01006FE2H   LINE      CODE     ---       #549
      01006FE2H   LINE      CODE     ---       #550
      01006FEBH   LINE      CODE     ---       #551
      01006FF2H   LINE      CODE     ---       #552
      01006FF8H   LINE      CODE     ---       #553
      01006FFEH   LINE      CODE     ---       #554
      ---         BLOCKEND  ---      ---       LVL=0
      00000007H   SYMBOL    DATA     BYTE      enabled
      00000006H   SYMBOL    DATA     BYTE      regValue

      01005D8AH   BLOCK     CODE     ---       LVL=0
      01005D8AH   BLOCK     CODE     NEAR LAB  LVL=1
LX51 LINKER/LOCATER V4.64.0.0                                                         06/15/2017  12:28:54  PAGE 85


      010079E2H   SYMBOL    CONST    ---       BS_IOPINS0_8_VAL
      010079EAH   SYMBOL    CONST    ---       BS_IOPINS0_1_VAL
      010079F4H   SYMBOL    CONST    ---       BS_IOPINS0_2_VAL
      ---         BLOCKEND  ---      ---       LVL=1
      01005D8AH   LINE      CODE     ---       #608
      01005D8AH   LINE      CODE     ---       #609
      01005D8AH   LINE      CODE     ---       #623
      01005DA0H   LINE      CODE     ---       #625
      01005DA0H   LINE      CODE     ---       #626
      01005DA3H   LINE      CODE     ---       #629
      01005DB9H   LINE      CODE     ---       #630
      01005DCFH   LINE      CODE     ---       #633
      01005DD6H   LINE      CODE     ---       #634
      01005DDDH   LINE      CODE     ---       #635
      01005DDDH   LINE      CODE     ---       #639
      01005DF7H   LINE      CODE     ---       #640
      01005E11H   LINE      CODE     ---       #641
      01005E22H   LINE      CODE     ---       #642
      01005E33H   LINE      CODE     ---       #643
      01005E44H   LINE      CODE     ---       #644
      01005E4AH   LINE      CODE     ---       #646
      01005E51H   LINE      CODE     ---       #647
      01005E5AH   LINE      CODE     ---       #648
      01005E5AH   LINE      CODE     ---       #649
      01005E60H   LINE      CODE     ---       #650
      01005E60H   LINE      CODE     ---       #654
      01005E66H   LINE      CODE     ---       #656
      01005E69H   LINE      CODE     ---       #659
      01005E6CH   LINE      CODE     ---       #662
      01005E8DH   LINE      CODE     ---       #663
      01005E94H   LINE      CODE     ---       #664
      ---         BLOCKEND  ---      ---       LVL=0

      ---         MODULE    ---      ---       UART_RS485_INT
      010065C2H   PUBLIC    CODE     ---       UART_RS485_RXISR
      000000CAH   SFRSYM    DATA     BYTE      SFRPRT5SEL
      000000DAH   SFRSYM    DATA     BYTE      SFRPRT6SEL
      000000D0H.6 SFRSYM    DATA     BIT       AC
      000000A8H.7 SFRSYM    DATA     BIT       EA
      000000A8H   SFRSYM    DATA     BYTE      IE
      00000085H   SFRSYM    DATA     BYTE      DPH1
      00000084H   SFRSYM    DATA     BYTE      DPL1
      000000D0H.7 SFRSYM    DATA     BIT       CY
      000000A0H   SFRSYM    DATA     BYTE      P2AX
      00000095H   SFRSYM    DATA     BYTE      DPX1
      00000081H   SFRSYM    DATA     BYTE      SP
      000000D0H.2 SFRSYM    DATA     BIT       OV
      00000080H   SFRSYM    DATA     BYTE      SFRPRT0DR
      00000090H   SFRSYM    DATA     BYTE      SFRPRT1DR
      000000F2H   SFRSYM    DATA     BYTE      SFRPRT12SEL
      00000098H   SFRSYM    DATA     BYTE      SFRPRT2DR
      000000B0H   SFRSYM    DATA     BYTE      SFRPRT3DR
      000000C0H   SFRSYM    DATA     BYTE      SFRPRT4DR
      000000FAH   SFRSYM    DATA     BYTE      SFRPRT15SEL
      000000C8H   SFRSYM    DATA     BYTE      SFRPRT5DR
      000000D8H   SFRSYM    DATA     BYTE      SFRPRT6DR
      00000089H   SFRSYM    DATA     BYTE      SFRPRT0PS
      00000091H   SFRSYM    DATA     BYTE      SFRPRT1PS
      00000099H   SFRSYM    DATA     BYTE      SFRPRT2PS
      000000B1H   SFRSYM    DATA     BYTE      SFRPRT3PS
      000000C1H   SFRSYM    DATA     BYTE      SFRPRT4PS
      000000C9H   SFRSYM    DATA     BYTE      SFRPRT5PS
      000000D9H   SFRSYM    DATA     BYTE      SFRPRT6PS
      000000EAH   SFRSYM    DATA     BYTE      MXAX
      000000F0H   SFRSYM    DATA     BYTE      B
LX51 LINKER/LOCATER V4.64.0.0                                                         06/15/2017  12:28:54  PAGE 86


      000000E0H   SFRSYM    DATA     BYTE      ACC
      000000D0H   SFRSYM    DATA     BIT       P
      000000D0H.3 SFRSYM    DATA     BIT       RS0
      000000D0H.4 SFRSYM    DATA     BIT       RS1
      00000083H   SFRSYM    DATA     BYTE      DPH
      000000E8H   SFRSYM    DATA     BYTE      SFRPRT12DR
      00000082H   SFRSYM    DATA     BYTE      DPL
      000000F8H   SFRSYM    DATA     BYTE      SFRPRT15DR
      00000086H   SFRSYM    DATA     BYTE      DPS
      000000E9H   SFRSYM    DATA     BYTE      SFRPRT12PS
      00000093H   SFRSYM    DATA     BYTE      DPX
      000000F9H   SFRSYM    DATA     BYTE      SFRPRT15PS
      000000D0H.5 SFRSYM    DATA     BIT       F0
      000000D0H.1 SFRSYM    DATA     BIT       F1
      0000008AH   SFRSYM    DATA     BYTE      SFRPRT0SEL
      000000D0H   SFRSYM    DATA     BYTE      PSW
      000000A2H   SFRSYM    DATA     BYTE      SFRPRT1SEL
      0000009AH   SFRSYM    DATA     BYTE      SFRPRT2SEL
      000000B2H   SFRSYM    DATA     BYTE      SFRPRT3SEL
      000000C2H   SFRSYM    DATA     BYTE      SFRPRT4SEL

      010065C2H   BLOCK     CODE     ---       LVL=0
      010065E5H   BLOCK     CODE     NEAR LAB  LVL=1
      00000006H   SYMBOL    DATA     BYTE      readData
      00000007H   SYMBOL    DATA     BYTE      readStatus
      00000003H   SYMBOL    DATA     BYTE      increment_pointer
      00000002H   SYMBOL    DATA     BYTE      int_en
      ---         BLOCKEND  ---      ---       LVL=1
      010065C2H   LINE      CODE     ---       #59
      010065E5H   LINE      CODE     ---       #63
      010065E7H   LINE      CODE     ---       #79
      010065EBH   LINE      CODE     ---       #80
      010065F3H   LINE      CODE     ---       #84
      010065F3H   LINE      CODE     ---       #86
      010065F8H   LINE      CODE     ---       #90
      010065F9H   LINE      CODE     ---       #95
      010065FEH   LINE      CODE     ---       #96
      010065FEH   LINE      CODE     ---       #101
      01006604H   LINE      CODE     ---       #109
      01006604H   LINE      CODE     ---       #111
      01006608H   LINE      CODE     ---       #112
      01006608H   LINE      CODE     ---       #114
      0100660DH   LINE      CODE     ---       #141
      0100661CH   LINE      CODE     ---       #142
      0100661EH   LINE      CODE     ---       #146
      01006621H   LINE      CODE     ---       #147
      01006621H   LINE      CODE     ---       #148
      01006627H   LINE      CODE     ---       #149
      01006627H   LINE      CODE     ---       #150
      0100662DH   LINE      CODE     ---       #151
      0100662DH   LINE      CODE     ---       #153
      01006633H   LINE      CODE     ---       #156
      01006639H   LINE      CODE     ---       #157
      01006639H   LINE      CODE     ---       #158
      0100663BH   LINE      CODE     ---       #159
      0100663BH   LINE      CODE     ---       #162
      01006647H   LINE      CODE     ---       #163
      01006647H   LINE      CODE     ---       #164
      0100664DH   LINE      CODE     ---       #172
      0100664DH   LINE      CODE     ---       #173
      0100664DH   LINE      CODE     ---       #174
      0100664DH   LINE      CODE     ---       #175
      01006651H   LINE      CODE     ---       #187
      01006658H   LINE      CODE     ---       #189
      ---         BLOCKEND  ---      ---       LVL=0
LX51 LINKER/LOCATER V4.64.0.0                                                         06/15/2017  12:28:54  PAGE 87



      ---         MODULE    ---      ---       CYBOOTASMKEIL
      0100741BH   PUBLIC    CODE     NEAR LAB  CyEnterCriticalSection
      01007000H   PUBLIC    CODE     NEAR LAB  _CyDelayCycles
      0100712CH   PUBLIC    CODE     NEAR LAB  _CyDelayUs
      01007396H   PUBLIC    CODE     NEAR LAB  _CyExitCriticalSection

      ---         MODULE    ---      ---       CYMEM
      02000583H   PUBLIC    XDATA    BYTE      ?_cyconfigcpy?BYTE
      01006F7BH   PUBLIC    CODE     NEAR LAB  _cyconfigcpy
      010071ACH   PUBLIC    CODE     NEAR LAB  _cyconfigcpycode
      01007567H   PUBLIC    CODE     NEAR LAB  _cyread16
      01007569H   PUBLIC    CODE     NEAR LAB  _cyread16_nodpx
      010074E1H   PUBLIC    CODE     NEAR LAB  _cyread24
      010074E3H   PUBLIC    CODE     NEAR LAB  _cyread24_nodpx
      01007601H   PUBLIC    CODE     NEAR LAB  _cyread8
      01007603H   PUBLIC    CODE     NEAR LAB  _cyread8_nodpx
      01007576H   PUBLIC    CODE     NEAR LAB  _cywrite16
      01007578H   PUBLIC    CODE     NEAR LAB  _cywrite16_nodpx
      01007518H   PUBLIC    CODE     NEAR LAB  _cywrite24
      0100751AH   PUBLIC    CODE     NEAR LAB  _cywrite24_nodpx
      0100760DH   PUBLIC    CODE     NEAR LAB  _cywrite8
      0100760FH   PUBLIC    CODE     NEAR LAB  _cywrite8_nodpx

      ---         MODULE    ---      ---       CYPM
      000000CAH   SFRSYM    DATA     BYTE      SFRPRT5SEL
      000000DAH   SFRSYM    DATA     BYTE      SFRPRT6SEL
      000000D0H.6 SFRSYM    DATA     BIT       AC
      000000A8H.7 SFRSYM    DATA     BIT       EA
      000000A8H   SFRSYM    DATA     BYTE      IE
      00000085H   SFRSYM    DATA     BYTE      DPH1
      00000084H   SFRSYM    DATA     BYTE      DPL1
      000000D0H.7 SFRSYM    DATA     BIT       CY
      000000A0H   SFRSYM    DATA     BYTE      P2AX
      00000095H   SFRSYM    DATA     BYTE      DPX1
      00000081H   SFRSYM    DATA     BYTE      SP
      000000D0H.2 SFRSYM    DATA     BIT       OV
      00000080H   SFRSYM    DATA     BYTE      SFRPRT0DR
      00000090H   SFRSYM    DATA     BYTE      SFRPRT1DR
      000000F2H   SFRSYM    DATA     BYTE      SFRPRT12SEL
      00000098H   SFRSYM    DATA     BYTE      SFRPRT2DR
      000000B0H   SFRSYM    DATA     BYTE      SFRPRT3DR
      000000C0H   SFRSYM    DATA     BYTE      SFRPRT4DR
      000000FAH   SFRSYM    DATA     BYTE      SFRPRT15SEL
      000000C8H   SFRSYM    DATA     BYTE      SFRPRT5DR
      000000D8H   SFRSYM    DATA     BYTE      SFRPRT6DR
      00000089H   SFRSYM    DATA     BYTE      SFRPRT0PS
      00000091H   SFRSYM    DATA     BYTE      SFRPRT1PS
      00000099H   SFRSYM    DATA     BYTE      SFRPRT2PS
      000000B1H   SFRSYM    DATA     BYTE      SFRPRT3PS
      000000C1H   SFRSYM    DATA     BYTE      SFRPRT4PS
      000000C9H   SFRSYM    DATA     BYTE      SFRPRT5PS
      000000D9H   SFRSYM    DATA     BYTE      SFRPRT6PS
      000000EAH   SFRSYM    DATA     BYTE      MXAX
      000000F0H   SFRSYM    DATA     BYTE      B
      000000E0H   SFRSYM    DATA     BYTE      ACC
      000000D0H   SFRSYM    DATA     BIT       P
      000000D0H.3 SFRSYM    DATA     BIT       RS0
      000000D0H.4 SFRSYM    DATA     BIT       RS1
      00000083H   SFRSYM    DATA     BYTE      DPH
      000000E8H   SFRSYM    DATA     BYTE      SFRPRT12DR
      00000082H   SFRSYM    DATA     BYTE      DPL
      000000F8H   SFRSYM    DATA     BYTE      SFRPRT15DR
      00000086H   SFRSYM    DATA     BYTE      DPS
      000000E9H   SFRSYM    DATA     BYTE      SFRPRT12PS
LX51 LINKER/LOCATER V4.64.0.0                                                         06/15/2017  12:28:54  PAGE 88


      00000093H   SFRSYM    DATA     BYTE      DPX
      000000F9H   SFRSYM    DATA     BYTE      SFRPRT15PS
      000000D0H.5 SFRSYM    DATA     BIT       F0
      000000D0H.1 SFRSYM    DATA     BIT       F1
      0000008AH   SFRSYM    DATA     BYTE      SFRPRT0SEL
      000000D0H   SFRSYM    DATA     BYTE      PSW
      000000A2H   SFRSYM    DATA     BYTE      SFRPRT1SEL
      0000009AH   SFRSYM    DATA     BYTE      SFRPRT2SEL
      000000B2H   SFRSYM    DATA     BYTE      SFRPRT3SEL
      000000C2H   SFRSYM    DATA     BYTE      SFRPRT4SEL
      02001092H   SYMBOL    XDATA    ---       cyPmClockBackup
      020010A2H   SYMBOL    XDATA    ---       cyPmBackup
      00000006H   SYMBOL    DATA     WORD      clkBusDivTmp
      02001091H   SYMBOL    XDATA    BYTE      interruptStatus
      00000005H   SYMBOL    DATA     BYTE      interruptState

      ---         MODULE    ---      ---       CYSPC
      0200113AH   PUBLIC    XDATA    BYTE      SpcLockState
      01007318H   PUBLIC    CODE     ---       CySpcGetAlgorithm
      01007619H   PUBLIC    CODE     ---       CySpcUnlock
      010072DDH   PUBLIC    CODE     ---       CySpcLock
      010070FDH   PUBLIC    CODE     ---       _CySpcGetTemp
      02000594H   PUBLIC    XDATA    BYTE      ?_CySpcWriteRow?BYTE
      01006C3AH   PUBLIC    CODE     ---       _CySpcWriteRow
      02000594H   PUBLIC    XDATA    BYTE      ?_CySpcLoadRow?BYTE
      01006942H   PUBLIC    CODE     ---       _CySpcLoadRow
      01006A81H   PUBLIC    CODE     ---       _CySpcReadData
      01007430H   PUBLIC    CODE     ---       CySpcStart
      000000CAH   SFRSYM    DATA     BYTE      SFRPRT5SEL
      000000DAH   SFRSYM    DATA     BYTE      SFRPRT6SEL
      000000D0H.6 SFRSYM    DATA     BIT       AC
      000000A8H.7 SFRSYM    DATA     BIT       EA
      000000A8H   SFRSYM    DATA     BYTE      IE
      00000085H   SFRSYM    DATA     BYTE      DPH1
      00000084H   SFRSYM    DATA     BYTE      DPL1
      000000D0H.7 SFRSYM    DATA     BIT       CY
      000000A0H   SFRSYM    DATA     BYTE      P2AX
      00000095H   SFRSYM    DATA     BYTE      DPX1
      00000081H   SFRSYM    DATA     BYTE      SP
      000000D0H.2 SFRSYM    DATA     BIT       OV
      00000080H   SFRSYM    DATA     BYTE      SFRPRT0DR
      00000090H   SFRSYM    DATA     BYTE      SFRPRT1DR
      000000F2H   SFRSYM    DATA     BYTE      SFRPRT12SEL
      00000098H   SFRSYM    DATA     BYTE      SFRPRT2DR
      000000B0H   SFRSYM    DATA     BYTE      SFRPRT3DR
      000000C0H   SFRSYM    DATA     BYTE      SFRPRT4DR
      000000FAH   SFRSYM    DATA     BYTE      SFRPRT15SEL
      000000C8H   SFRSYM    DATA     BYTE      SFRPRT5DR
      000000D8H   SFRSYM    DATA     BYTE      SFRPRT6DR
      00000089H   SFRSYM    DATA     BYTE      SFRPRT0PS
      00000091H   SFRSYM    DATA     BYTE      SFRPRT1PS
      00000099H   SFRSYM    DATA     BYTE      SFRPRT2PS
      000000B1H   SFRSYM    DATA     BYTE      SFRPRT3PS
      000000C1H   SFRSYM    DATA     BYTE      SFRPRT4PS
      000000C9H   SFRSYM    DATA     BYTE      SFRPRT5PS
      000000D9H   SFRSYM    DATA     BYTE      SFRPRT6PS
      000000EAH   SFRSYM    DATA     BYTE      MXAX
      000000F0H   SFRSYM    DATA     BYTE      B
      000000E0H   SFRSYM    DATA     BYTE      ACC
      000000D0H   SFRSYM    DATA     BIT       P
      000000D0H.3 SFRSYM    DATA     BIT       RS0
      000000D0H.4 SFRSYM    DATA     BIT       RS1
      00000083H   SFRSYM    DATA     BYTE      DPH
      000000E8H   SFRSYM    DATA     BYTE      SFRPRT12DR
      00000082H   SFRSYM    DATA     BYTE      DPL
LX51 LINKER/LOCATER V4.64.0.0                                                         06/15/2017  12:28:54  PAGE 89


      000000F8H   SFRSYM    DATA     BYTE      SFRPRT15DR
      00000086H   SFRSYM    DATA     BYTE      DPS
      000000E9H   SFRSYM    DATA     BYTE      SFRPRT12PS
      00000093H   SFRSYM    DATA     BYTE      DPX
      000000F9H   SFRSYM    DATA     BYTE      SFRPRT15PS
      000000D0H.5 SFRSYM    DATA     BIT       F0
      000000D0H.1 SFRSYM    DATA     BIT       F1
      0000008AH   SFRSYM    DATA     BYTE      SFRPRT0SEL
      000000D0H   SFRSYM    DATA     BYTE      PSW
      000000A2H   SFRSYM    DATA     BYTE      SFRPRT1SEL
      0000009AH   SFRSYM    DATA     BYTE      SFRPRT2SEL
      000000B2H   SFRSYM    DATA     BYTE      SFRPRT3SEL
      000000C2H   SFRSYM    DATA     BYTE      SFRPRT4SEL

      01007430H   BLOCK     CODE     ---       LVL=0
      01007430H   BLOCK     CODE     NEAR LAB  LVL=1
      00000007H   SYMBOL    DATA     BYTE      interruptState
      ---         BLOCKEND  ---      ---       LVL=1
      01007430H   LINE      CODE     ---       #78
      01007430H   LINE      CODE     ---       #79
      01007430H   LINE      CODE     ---       #81
      01007433H   LINE      CODE     ---       #83
      0100743AH   LINE      CODE     ---       #84
      01007441H   LINE      CODE     ---       #87
      01007444H   LINE      CODE     ---       #88
      ---         BLOCKEND  ---      ---       LVL=0
      00000007H   SYMBOL    DATA     BYTE      interruptState

      01006A81H   BLOCK     CODE     ---       LVL=0
      02000591H   SYMBOL    XDATA    ---       buffer
      02000594H   SYMBOL    XDATA    BYTE      size
      01006A8FH   BLOCK     CODE     NEAR LAB  LVL=1
      02000595H   SYMBOL    XDATA    BYTE      i
      ---         BLOCKEND  ---      ---       LVL=1
      01006A81H   LINE      CODE     ---       #135
      01006A8FH   LINE      CODE     ---       #136
      01006A8FH   LINE      CODE     ---       #139
      01006A9DH   LINE      CODE     ---       #140
      01006A9DH   LINE      CODE     ---       #141
      01006AABH   LINE      CODE     ---       #142
      01006AABH   LINE      CODE     ---       #143
      01006AB2H   LINE      CODE     ---       #144
      01006AB4H   LINE      CODE     ---       #145
      01006AD3H   LINE      CODE     ---       #146
      01006ADBH   LINE      CODE     ---       #148
      01006AE0H   LINE      CODE     ---       #149
      ---         BLOCKEND  ---      ---       LVL=0
      00000005H   SYMBOL    DATA     BYTE      status
      00000007H   SYMBOL    DATA     BYTE      i

      01006942H   BLOCK     CODE     ---       LVL=0
      00000007H   SYMBOL    DATA     BYTE      array
      02000595H   SYMBOL    XDATA    ---       buffer
      02000598H   SYMBOL    XDATA    WORD      size
      0100694DH   BLOCK     CODE     NEAR LAB  LVL=1
      0200059AH   SYMBOL    XDATA    BYTE      status
      00000006H   SYMBOL    DATA     WORD      i
      ---         BLOCKEND  ---      ---       LVL=1
      01006942H   LINE      CODE     ---       #258
      0100694DH   LINE      CODE     ---       #259
      0100694DH   LINE      CODE     ---       #260
      01006953H   LINE      CODE     ---       #264
      0100695BH   LINE      CODE     ---       #265
      0100695BH   LINE      CODE     ---       #266
      01006961H   LINE      CODE     ---       #267
LX51 LINKER/LOCATER V4.64.0.0                                                         06/15/2017  12:28:54  PAGE 90


      01006964H   LINE      CODE     ---       #268
      01006967H   LINE      CODE     ---       #271
      0100696FH   LINE      CODE     ---       #272
      0100696FH   LINE      CODE     ---       #273
      01006974H   LINE      CODE     ---       #275
      01006984H   LINE      CODE     ---       #276
      01006984H   LINE      CODE     ---       #277
      0100699AH   LINE      CODE     ---       #278
      010069A1H   LINE      CODE     ---       #279
      010069A1H   LINE      CODE     ---       #281
      010069A1H   LINE      CODE     ---       #282
      010069A7H   LINE      CODE     ---       #283
      010069A7H   LINE      CODE     ---       #284
      010069A9H   LINE      CODE     ---       #286
      010069A9H   LINE      CODE     ---       #287
      010069AFH   LINE      CODE     ---       #288
      010069AFH   LINE      CODE     ---       #290
      010069B4H   LINE      CODE     ---       #291
      ---         BLOCKEND  ---      ---       LVL=0

      01006C3AH   BLOCK     CODE     ---       LVL=0
      00000004H   SYMBOL    DATA     BYTE      array
      02000595H   SYMBOL    XDATA    WORD      address
      00000003H   SYMBOL    DATA     BYTE      tempPolarity
      02000598H   SYMBOL    XDATA    BYTE      tempMagnitude
      01006C44H   BLOCK     CODE     NEAR LAB  LVL=1
      00000005H   SYMBOL    DATA     BYTE      status
      ---         BLOCKEND  ---      ---       LVL=1
      01006C3AH   LINE      CODE     ---       #464
      01006C44H   LINE      CODE     ---       #466
      01006C44H   LINE      CODE     ---       #467
      01006C46H   LINE      CODE     ---       #470
      01006C4EH   LINE      CODE     ---       #471
      01006C4EH   LINE      CODE     ---       #472
      01006C54H   LINE      CODE     ---       #473
      01006C57H   LINE      CODE     ---       #474
      01006C5AH   LINE      CODE     ---       #477
      01006C62H   LINE      CODE     ---       #478
      01006C62H   LINE      CODE     ---       #479
      01006C67H   LINE      CODE     ---       #480
      01006C6FH   LINE      CODE     ---       #481
      01006C79H   LINE      CODE     ---       #482
      01006C7BH   LINE      CODE     ---       #483
      01006C83H   LINE      CODE     ---       #484
      01006C85H   LINE      CODE     ---       #486
      01006C85H   LINE      CODE     ---       #487
      01006C87H   LINE      CODE     ---       #488
      01006C87H   LINE      CODE     ---       #489
      01006C89H   LINE      CODE     ---       #491
      01006C89H   LINE      CODE     ---       #492
      01006C8BH   LINE      CODE     ---       #493
      01006C8BH   LINE      CODE     ---       #495
      01006C8DH   LINE      CODE     ---       #496
      ---         BLOCKEND  ---      ---       LVL=0
      00000007H   SYMBOL    DATA     BYTE      array
      00000005H   SYMBOL    DATA     BYTE      sectorNumber
      00000006H   SYMBOL    DATA     BYTE      status

      010070FDH   BLOCK     CODE     ---       LVL=0
      00000007H   SYMBOL    DATA     BYTE      numSamples
      010070FDH   BLOCK     CODE     NEAR LAB  LVL=1
      00000006H   SYMBOL    DATA     BYTE      status
      ---         BLOCKEND  ---      ---       LVL=1
      010070FDH   LINE      CODE     ---       #573
      010070FDH   LINE      CODE     ---       #574
LX51 LINKER/LOCATER V4.64.0.0                                                         06/15/2017  12:28:54  PAGE 91


      010070FDH   LINE      CODE     ---       #575
      010070FFH   LINE      CODE     ---       #578
      01007107H   LINE      CODE     ---       #579
      01007107H   LINE      CODE     ---       #580
      0100710DH   LINE      CODE     ---       #581
      01007110H   LINE      CODE     ---       #582
      01007113H   LINE      CODE     ---       #585
      0100711BH   LINE      CODE     ---       #586
      0100711BH   LINE      CODE     ---       #587
      01007120H   LINE      CODE     ---       #588
      01007122H   LINE      CODE     ---       #590
      01007122H   LINE      CODE     ---       #591
      01007124H   LINE      CODE     ---       #592
      01007124H   LINE      CODE     ---       #593
      01007126H   LINE      CODE     ---       #595
      01007126H   LINE      CODE     ---       #596
      01007128H   LINE      CODE     ---       #597
      01007128H   LINE      CODE     ---       #599
      0100712AH   LINE      CODE     ---       #600
      ---         BLOCKEND  ---      ---       LVL=0

      010072DDH   BLOCK     CODE     ---       LVL=0
      010072DDH   BLOCK     CODE     NEAR LAB  LVL=1
      02000594H   SYMBOL    XDATA    BYTE      status
      00000007H   SYMBOL    DATA     BYTE      interruptState
      ---         BLOCKEND  ---      ---       LVL=1
      010072DDH   LINE      CODE     ---       #618
      010072DDH   LINE      CODE     ---       #619
      010072DDH   LINE      CODE     ---       #620
      010072E3H   LINE      CODE     ---       #624
      010072E6H   LINE      CODE     ---       #626
      010072ECH   LINE      CODE     ---       #627
      010072ECH   LINE      CODE     ---       #628
      010072EEH   LINE      CODE     ---       #629
      010072F3H   LINE      CODE     ---       #647
      010072F3H   LINE      CODE     ---       #650
      010072F6H   LINE      CODE     ---       #652
      010072FBH   LINE      CODE     ---       #653
      ---         BLOCKEND  ---      ---       LVL=0

      01007619H   BLOCK     CODE     ---       LVL=0
      01007619H   BLOCK     CODE     NEAR LAB  LVL=1
      00000007H   SYMBOL    DATA     BYTE      interruptState
      ---         BLOCKEND  ---      ---       LVL=1
      01007619H   LINE      CODE     ---       #670
      01007619H   LINE      CODE     ---       #671
      01007619H   LINE      CODE     ---       #675
      0100761CH   LINE      CODE     ---       #678
      01007621H   LINE      CODE     ---       #698
      01007624H   LINE      CODE     ---       #699
      ---         BLOCKEND  ---      ---       LVL=0

      01007318H   BLOCK     CODE     ---       LVL=0
      01007318H   BLOCK     CODE     NEAR LAB  LVL=1
      00000007H   SYMBOL    DATA     BYTE      status
      ---         BLOCKEND  ---      ---       LVL=1
      01007318H   LINE      CODE     ---       #716
      01007318H   LINE      CODE     ---       #717
      01007318H   LINE      CODE     ---       #718
      0100731AH   LINE      CODE     ---       #721
      01007322H   LINE      CODE     ---       #722
      01007322H   LINE      CODE     ---       #723
      01007328H   LINE      CODE     ---       #724
      0100732BH   LINE      CODE     ---       #725
      0100732EH   LINE      CODE     ---       #726
LX51 LINKER/LOCATER V4.64.0.0                                                         06/15/2017  12:28:54  PAGE 92


      01007330H   LINE      CODE     ---       #728
      01007330H   LINE      CODE     ---       #729
      01007332H   LINE      CODE     ---       #730
      01007332H   LINE      CODE     ---       #732
      01007332H   LINE      CODE     ---       #733
      ---         BLOCKEND  ---      ---       LVL=0

      ---         MODULE    ---      ---       SPI_IMU_INTCLOCK
      01007585H   PUBLIC    CODE     ---       SPI_IMU_IntClock_Start

      01007585H   BLOCK     CODE     ---       LVL=0
      01007585H   LINE      CODE     ---       #45
      01007585H   LINE      CODE     ---       #46
      01007585H   LINE      CODE     ---       #48
      0100758CH   LINE      CODE     ---       #49
      01007593H   LINE      CODE     ---       #50
      ---         BLOCKEND  ---      ---       LVL=0
      00000007H   SYMBOL    DATA     BYTE      state
      00000007H   SYMBOL    DATA     BYTE      modeBitMask
      00000007H   SYMBOL    DATA     BYTE      modeBitMask
      00000007H   SYMBOL    DATA     BYTE      oldSrc

      ---         MODULE    ---      ---       ?C?FPADD
      01002621H   PUBLIC    CODE     ---       ?C?FPADD
      0100261DH   PUBLIC    CODE     ---       ?C?FPSUB

      ---         MODULE    ---      ---       ?C?FPCMP
      01002714H   PUBLIC    CODE     ---       ?C?FPCMP
      01002712H   PUBLIC    CODE     ---       ?C?FPCMP3

      ---         MODULE    ---      ---       ?C?CASTF
      0100278BH   PUBLIC    CODE     ---       ?C?CASTF

      ---         MODULE    ---      ---       PRINTF
      02000A23H   PUBLIC    XDATA    ---       ?_PRINTF?BYTE
      02000A23H   PUBLIC    XDATA    ---       ?_SPRINTF?BYTE
      01004601H   PUBLIC    CODE     ---       _PRINTF
      010045FBH   PUBLIC    CODE     ---       _SPRINTF

      ---         MODULE    ---      ---       ?C?FPGETOPN
      010027C2H   PUBLIC    CODE     ---       ?C?FPGETOPN2
      010027F7H   PUBLIC    CODE     ---       ?C?FPNANRESULT
      01002801H   PUBLIC    CODE     ---       ?C?FPOVERFLOW
      010027D9H   PUBLIC    CODE     ---       ?C?FPRESULT
      010027EDH   PUBLIC    CODE     ---       ?C?FPRESULT2
      010027FEH   PUBLIC    CODE     ---       ?C?FPUNDERFLOW

      ---         MODULE    ---      ---       ?C?FPROUND
      0100280CH   PUBLIC    CODE     ---       ?C?FPROUND

      ---         MODULE    ---      ---       ?C?FPCONVERT
      01002849H   PUBLIC    CODE     ---       ?C?FPCONVERT

      ---         MODULE    ---      ---       ?C?FPMUL
      0100294EH   PUBLIC    CODE     ---       ?C?FPMUL

      ---         MODULE    ---      ---       ?C?FPDIV
      01002A57H   PUBLIC    CODE     ---       ?C?FPDIV

      ---         MODULE    ---      ---       ?C?FTNPWR
      01002B24H   PUBLIC    CODE     ---       ?C?FTNPWR

      ---         MODULE    ---      ---       ?C_INIT
      01005D45H   PUBLIC    CODE     ---       ?C_START

LX51 LINKER/LOCATER V4.64.0.0                                                         06/15/2017  12:28:54  PAGE 93


      ---         MODULE    ---      ---       ?C?CLDPTR
      01002B64H   PUBLIC    CODE     ---       ?C?CLDPTR

      ---         MODULE    ---      ---       ?C?CLDOPTR
      01002B7DH   PUBLIC    CODE     ---       ?C?CLDOPTR

      ---         MODULE    ---      ---       ?C?CSTPTR
      01002BAAH   PUBLIC    CODE     ---       ?C?CSTPTR

      ---         MODULE    ---      ---       ?C?IMUL
      01002BBCH   PUBLIC    CODE     ---       ?C?IMUL

      ---         MODULE    ---      ---       ?C?LMUL
      01002BCEH   PUBLIC    CODE     ---       ?C?LMUL

      ---         MODULE    ---      ---       ?C?ULDIV
      01002C59H   PUBLIC    CODE     ---       ?C?ULDIV

      ---         MODULE    ---      ---       ?C?SLDIV
      01006E4EH   PUBLIC    CODE     ---       ?C?SLDIV

      ---         MODULE    ---      ---       ?C?LNEG
      01002CEBH   PUBLIC    CODE     ---       ?C?LNEG

      ---         MODULE    ---      ---       ?C?SLCMP
      01002CF9H   PUBLIC    CODE     ---       ?C?SLCMP

      ---         MODULE    ---      ---       ?C?ULCMP
      01002D0FH   PUBLIC    CODE     ---       ?C?ULCMP

      ---         MODULE    ---      ---       ?C?ULSHR
      01002D20H   PUBLIC    CODE     ---       ?C?ULSHR

      ---         MODULE    ---      ---       ?C?SLSHR
      01002D33H   PUBLIC    CODE     ---       ?C?SLSHR

      ---         MODULE    ---      ---       ?C?LSHL
      01002D47H   PUBLIC    CODE     ---       ?C?LSHL

      ---         MODULE    ---      ---       ?C?LLDPTR
      01002D5AH   PUBLIC    CODE     ---       ?C?LLDPTR

      ---         MODULE    ---      ---       ?C?LSTPTR
      01002D7AH   PUBLIC    CODE     ---       ?C?LSTPTR

      ---         MODULE    ---      ---       ?C?LSTXDATA
      01002D94H   PUBLIC    CODE     ---       ?C?LSTXDATA

      ---         MODULE    ---      ---       ?C?OFFXADD
      01002DA0H   PUBLIC    CODE     ---       ?C?OFFXADD

      ---         MODULE    ---      ---       ?C?PLDIXDATA
      01002DACH   PUBLIC    CODE     ---       ?C?PLDIXDATA

      ---         MODULE    ---      ---       ?C?PSTXDATA
      01002DC3H   PUBLIC    CODE     ---       ?C?PSTXDATA

      ---         MODULE    ---      ---       ?C?CCASE
      01002DCCH   PUBLIC    CODE     ---       ?C?CCASE

      ---         MODULE    ---      ---       ?C_XBP
      00000022H   PUBLIC    DATA     ---       ?C_XBP

      ---         MODULE    ---      ---       ?C?ADDXBP
      01002DF2H   PUBLIC    CODE     ---       ?C?ADDXBP
LX51 LINKER/LOCATER V4.64.0.0                                                         06/15/2017  12:28:54  PAGE 94



      ---         MODULE    ---      ---       ?C?LIMUL
      01002E16H   PUBLIC    CODE     ---       ?C?LIMUL

      ---         MODULE    ---      ---       PUTCHAR
      01007185H   PUBLIC    CODE     ---       _PUTCHAR

      ---         MODULE    ---      ---       STRCAT
      020005F1H   PUBLIC    XDATA    ---       ?_STRCAT?BYTE
      010069B5H   PUBLIC    CODE     ---       _STRCAT

      ---         MODULE    ---      ---       STRLEN
      01007445H   PUBLIC    CODE     ---       _STRLEN

      ---         MODULE    ---      ---       ?C?MEMSET
      01002E43H   PUBLIC    CODE     ---       ?C?MEMSET

      ---         MODULE    ---      ---       ?C?COPYAMD
      01002F2BH   PUBLIC    CODE     ---       ?C?COPYAMD

      ---         MODULE    ---      ---       ?C?STRCPYAMD
      01003009H   PUBLIC    CODE     ---       ?C?STRCPYAMD

      ---         MODULE    ---      ---       ?C?IILDX
      01003026H   PUBLIC    CODE     ---       ?C?IILDX

      ---         MODULE    ---      ---       ?C?ILDIX
      0100303CH   PUBLIC    CODE     ---       ?C?ILDIX

      ---         MODULE    ---      ---       ?C?LLDIDATA
      01003052H   PUBLIC    CODE     ---       ?C?LLDIDATA

      ---         MODULE    ---      ---       ?C?LLDXDATA
      0100305EH   PUBLIC    CODE     ---       ?C?LLDXDATA

      ---         MODULE    ---      ---       ?C?LLDPDATA
      0100306AH   PUBLIC    CODE     ---       ?C?LLDPDATA

      ---         MODULE    ---      ---       ?C?LLDCODE
      01003076H   PUBLIC    CODE     ---       ?C?LLDCODE

      ---         MODULE    ---      ---       ?C?LSTIDATA
      01003086H   PUBLIC    CODE     ---       ?C?LSTIDATA

      ---         MODULE    ---      ---       ?C?LSTPDATA
      01003092H   PUBLIC    CODE     ---       ?C?LSTPDATA



INTER-MODULE CROSS-REFERENCE LISTING


NAME . . . . . . . . . . . . . . . . . . CLASS    MODULE NAMES
==============================================================

?_Bootloadable_SetFlashByte?BYTE . . . . XDATA    BOOTLOADABLE  
?_calc_turns_fcn?BYTE. . . . . . . . . . XDATA    UTILS  
?_cyconfigcpy?BYTE . . . . . . . . . . . XDATA    CYMEM  CYFITTER_CFG  
?_CySpcLoadMultiByte?BYTE. . . . . . . . XDATA    CYSPC  EEPROM  
?_CySpcLoadRow?BYTE. . . . . . . . . . . XDATA    CYSPC  EEPROM  
?_CySpcLoadRowFull?BYTE. . . . . . . . . XDATA    CYSPC  CYFLASH  
?_CySpcWriteRow?BYTE . . . . . . . . . . XDATA    CYSPC  CYFLASH  EEPROM  
?_CyWriteRowFull?BYTE. . . . . . . . . . XDATA    CYFLASH  
?_my_mod?BYTE. . . . . . . . . . . . . . XDATA    UTILS  
?_PRINTF?BYTE. . . . . . . . . . . . . . XDATA    PRINTF  
LX51 LINKER/LOCATER V4.64.0.0                                                         06/15/2017  12:28:54  PAGE 95


?_SPRINTF?BYTE . . . . . . . . . . . . . XDATA    PRINTF  COMMAND_PROCESSING  
?_strcat?BYTE. . . . . . . . . . . . . . XDATA    STRCAT  COMMAND_PROCESSING  
?C?ADDXBP. . . . . . . . . . . . . . . . CODE     ?C?ADDXBP  CYLIB  
?C?CASTF . . . . . . . . . . . . . . . . CODE     ?C?CASTF  UTILS  
?C?CCASE . . . . . . . . . . . . . . . . CODE     ?C?CCASE  COMMAND_PROCESSING  PRINTF  
?C?CLDOPTR . . . . . . . . . . . . . . . CODE     ?C?CLDOPTR  PRINTF  
?C?CLDPTR. . . . . . . . . . . . . . . . CODE     ?C?CLDPTR  COMMAND_PROCESSING  CYSPC  PRINTF  SPI_IMU  STRCAT  STRLEN 
                                                   UART_RS485  UTILS  
?C?CODESEG . . . . . . . . . . . . . . . NUMBER   ** LX51 GENERATED **  
?C?COPYAMD . . . . . . . . . . . . . . . CODE     ?C?COPYAMD  COMMAND_PROCESSING  INTERRUPTIONS  ISR_IMU  
?C?CSTPTR. . . . . . . . . . . . . . . . CODE     ?C?CSTPTR  CYSPC  PRINTF  STRCAT  
?C?FPADD . . . . . . . . . . . . . . . . CODE     ?C?FPADD  ?C?FPCONVERT  UTILS  
?C?FPCMP . . . . . . . . . . . . . . . . CODE     ?C?FPCMP  
?C?FPCMP3. . . . . . . . . . . . . . . . CODE     ?C?FPCMP  UTILS  
?C?FPCONVERT . . . . . . . . . . . . . . CODE     ?C?FPCONVERT  PRINTF  
?C?FPDIV . . . . . . . . . . . . . . . . CODE     ?C?FPDIV  ?C?FPCONVERT  
?C?FPGETOPN2 . . . . . . . . . . . . . . CODE     ?C?FPGETOPN  ?C?FPADD  ?C?FPDIV  ?C?FPMUL  
?C?FPMUL . . . . . . . . . . . . . . . . CODE     ?C?FPMUL  ?C?FPCONVERT  ?C?FTNPWR  
?C?FPNANRESULT . . . . . . . . . . . . . CODE     ?C?FPGETOPN  ?C?FPADD  ?C?FPDIV  ?C?FPMUL  
?C?FPOVERFLOW. . . . . . . . . . . . . . CODE     ?C?FPGETOPN  ?C?FPADD  ?C?FPDIV  ?C?FPMUL  
?C?FPRESULT. . . . . . . . . . . . . . . CODE     ?C?FPGETOPN  ?C?FPADD  ?C?FPDIV  ?C?FPMUL  
?C?FPRESULT2 . . . . . . . . . . . . . . CODE     ?C?FPGETOPN  ?C?FPDIV  ?C?FPMUL  
?C?FPROUND . . . . . . . . . . . . . . . CODE     ?C?FPROUND  PRINTF  
?C?FPSUB . . . . . . . . . . . . . . . . CODE     ?C?FPADD  
?C?FPUNDERFLOW . . . . . . . . . . . . . CODE     ?C?FPGETOPN  ?C?FPADD  ?C?FPDIV  ?C?FPMUL  
?C?FTNPWR. . . . . . . . . . . . . . . . CODE     ?C?FTNPWR  ?C?FPCONVERT  
?C?IILDX . . . . . . . . . . . . . . . . CODE     ?C?IILDX  STRCAT  
?C?ILDIX . . . . . . . . . . . . . . . . CODE     ?C?ILDIX  STRCAT  
?C?IMUL. . . . . . . . . . . . . . . . . CODE     ?C?IMUL  COMMAND_PROCESSING  
?C?LIMUL . . . . . . . . . . . . . . . . CODE     ?C?LIMUL  COMMAND_PROCESSING  CYSPC  
?C?LLDCODE . . . . . . . . . . . . . . . CODE     ?C?LLDCODE  ?C?LLDPTR  
?C?LLDIDATA. . . . . . . . . . . . . . . CODE     ?C?LLDIDATA  ?C?LLDPTR  
?C?LLDPDATA. . . . . . . . . . . . . . . CODE     ?C?LLDPDATA  ?C?LLDPTR  
?C?LLDPTR. . . . . . . . . . . . . . . . CODE     ?C?LLDPTR  CYLIB  
?C?LLDXDATA. . . . . . . . . . . . . . . CODE     ?C?LLDXDATA  ?C?LLDPTR  
?C?LMUL. . . . . . . . . . . . . . . . . CODE     ?C?LMUL  CYLIB  CYPM  UTILS  
?C?LNEG. . . . . . . . . . . . . . . . . CODE     ?C?LNEG  ?C?CASTF  UTILS  
?C?LSHL. . . . . . . . . . . . . . . . . CODE     ?C?LSHL  CYLIB  UTILS  
?C?LSTIDATA. . . . . . . . . . . . . . . CODE     ?C?LSTIDATA  ?C?LSTPTR  
?C?LSTPDATA. . . . . . . . . . . . . . . CODE     ?C?LSTPDATA  ?C?LSTPTR  
?C?LSTPTR. . . . . . . . . . . . . . . . CODE     ?C?LSTPTR  CYLIB  
?C?LSTXDATA. . . . . . . . . . . . . . . CODE     ?C?LSTXDATA  ?C?LSTPTR  BOOTLOADABLE  COMMAND_PROCESSING  CYFITTER_CFG
                                                    CYLIB  CYSPC  INTERRUPTIONS  UTILS  
?C?MEMSET. . . . . . . . . . . . . . . . CODE     ?C?MEMSET  COMMAND_PROCESSING  IMU_FUNCTIONS  
?C?OFFXADD . . . . . . . . . . . . . . . CODE     ?C?OFFXADD  COMMAND_PROCESSING  IMU_FUNCTIONS  
?C?PLDIXDATA . . . . . . . . . . . . . . CODE     ?C?PLDIXDATA  PRINTF  
?C?PSTXDATA. . . . . . . . . . . . . . . CODE     ?C?PSTXDATA  PRINTF  
?C?SLCMP . . . . . . . . . . . . . . . . CODE     ?C?SLCMP  UTILS  
?C?SLDIV . . . . . . . . . . . . . . . . CODE     ?C?SLDIV  UTILS  
?C?SLSHR . . . . . . . . . . . . . . . . CODE     ?C?SLSHR  UTILS  
?C?STRCPYAMD . . . . . . . . . . . . . . CODE     ?C?STRCPYAMD  COMMAND_PROCESSING  
?C?ULCMP . . . . . . . . . . . . . . . . CODE     ?C?ULCMP  CYFLASH  
?C?ULDIV . . . . . . . . . . . . . . . . CODE     ?C?ULDIV  ?C?SLDIV  BOOTLOADABLE  CYLIB  CYPM  UTILS  
?C?ULSHR . . . . . . . . . . . . . . . . CODE     ?C?ULSHR  COMMAND_PROCESSING  CYLIB  
?C?XDATASEG. . . . . . . . . . . . . . . NUMBER   ** LX51 GENERATED **  
?C?XPAGE1RST . . . . . . . . . . . . . . NUMBER   ?C_STARTUP  INTERRUPTIONS  ISR_IMU  ISR_RS485_RX  ISR_WATCHDOG  UART_R
                                                  S485_INT  
?C?XPAGE1SFR . . . . . . . . . . . . . . DATA     ?C_STARTUP  INTERRUPTIONS  ISR_IMU  ISR_RS485_RX  ISR_WATCHDOG  UART_R
                                                  S485_INT  
?C_START . . . . . . . . . . . . . . . . CODE     ?C_INIT  ?C_STARTUP  
?C_STARTUP . . . . . . . . . . . . . . . CODE     ?C_STARTUP  MAIN  
?C_XBP . . . . . . . . . . . . . . . . . DATA     ?C_XBP  ?C?ADDXBP  ?C_STARTUP  CYLIB  
_?CyDelay. . . . . . . . . . . . . . . . CODE     CYLIB  COMMAND_PROCESSING  CYBOOTASMKEIL  IMU_FUNCTIONS  MAIN  
_?CyDelayFreq. . . . . . . . . . . . . . CODE     CYLIB  
_?CyHalt . . . . . . . . . . . . . . . . CODE     CYLIB  
LX51 LINKER/LOCATER V4.64.0.0                                                         06/15/2017  12:28:54  PAGE 96


_Bootloadable_SetFlashByte . . . . . . . CODE     BOOTLOADABLE  
_calc_turns_fcn. . . . . . . . . . . . . CODE     UTILS  
_cfg_write_bytes . . . . . . . . . . . . CODE     CYMEM  
_cfg_write_bytes_code. . . . . . . . . . CODE     CYMEM  
_check_enc_data. . . . . . . . . . . . . CODE     UTILS  
_Chip_Select_A_Write . . . . . . . . . . CODE     CHIP_SELECT_A  IMU_FUNCTIONS  
_Chip_Select_B_Write . . . . . . . . . . CODE     CHIP_SELECT_B  IMU_FUNCTIONS  
_ChipSelector. . . . . . . . . . . . . . CODE     IMU_FUNCTIONS  ISR_IMU  
_CLOCK_UART_ClearModeRegister. . . . . . CODE     CLOCK_UART  
_CLOCK_UART_SetDividerRegister . . . . . CODE     CLOCK_UART  COMMAND_PROCESSING  
_CLOCK_UART_SetModeRegister. . . . . . . CODE     CLOCK_UART  
_CLOCK_UART_SetSourceRegister. . . . . . CODE     CLOCK_UART  
_CLOCK_UART_StandbyPower . . . . . . . . CODE     CLOCK_UART  
_commWrite . . . . . . . . . . . . . . . CODE     COMMAND_PROCESSING  
_CyBusClk_SetDivider . . . . . . . . . . CODE     CYLIB  CYPM  
_cyconfigcpy . . . . . . . . . . . . . . CODE     CYMEM  CYFITTER_CFG  
_cyconfigcpycode . . . . . . . . . . . . CODE     CYMEM  CYFITTER_CFG  
_CyCpuClk_SetDivider . . . . . . . . . . CODE     CYLIB  
_CyDelay . . . . . . . . . . . . . . . . CODE     CYBOOTASMKEIL  
_CyDelayCycles . . . . . . . . . . . . . CODE     CYBOOTASMKEIL  CYFITTER_CFG  CYLIB  CYPM  
_CyDelayUs . . . . . . . . . . . . . . . CODE     CYBOOTASMKEIL  CYFLASH  CYLIB  CYPM  CYSPC  
_CyEnableInts. . . . . . . . . . . . . . CODE     CYLIB  
_CyExitCriticalSection . . . . . . . . . CODE     CYBOOTASMKEIL  CYFLASH  CYLIB  CYPM  CYSPC  EEPROM  FF_STATUS  MY_TIME
                                                  R  SPI_IMU  UART_RS485  
_CyFlash_SetWaitCycles . . . . . . . . . CODE     CYFLASH  CYPM  
_CyGetUniqueId . . . . . . . . . . . . . CODE     CYLIB  
_CyILO_SetPowerMode. . . . . . . . . . . CODE     CYLIB  CYPM  
_CyILO_SetSource . . . . . . . . . . . . CODE     CYLIB  
_CyIMO_SetFreq . . . . . . . . . . . . . CODE     CYLIB  CYPM  
_CyIMO_SetSource . . . . . . . . . . . . CODE     CYLIB  CYPM  
_CyIMO_Start . . . . . . . . . . . . . . CODE     CYLIB  CYPM  
_CyIntGetPriority. . . . . . . . . . . . CODE     CYLIB  
_CyIntGetState . . . . . . . . . . . . . CODE     CYLIB  
_CyIntGetVector. . . . . . . . . . . . . CODE     CYLIB  
_CyIntSetPriority. . . . . . . . . . . . CODE     CYLIB  UART_RS485  
_CyIntSetVector. . . . . . . . . . . . . CODE     CYLIB  UART_RS485  
_CyMasterClk_SetDivider. . . . . . . . . CODE     CYLIB  CYPM  
_CyMasterClk_SetSource . . . . . . . . . CODE     CYLIB  CYPM  
_cymemzero . . . . . . . . . . . . . . . CODE     CYMEM  
_CyPLL_OUT_SetPQ . . . . . . . . . . . . CODE     CYLIB  
_CyPLL_OUT_SetSource . . . . . . . . . . CODE     CYLIB  
_CyPLL_OUT_Start . . . . . . . . . . . . CODE     CYLIB  CYPM  
_CyPmAltAct. . . . . . . . . . . . . . . CODE     CYPM  
_CyPmCtwSetInterval. . . . . . . . . . . CODE     CYPM  
_CyPmFtwSetInterval. . . . . . . . . . . CODE     CYPM  CYLIB  
_CyPmHibernateEx . . . . . . . . . . . . CODE     CYPM  
_CyPmReadStatus. . . . . . . . . . . . . CODE     CYPM  CYLIB  
_CyPmSleep . . . . . . . . . . . . . . . CODE     CYPM  
_cyread16. . . . . . . . . . . . . . . . CODE     CYMEM  
_cyread16_nodpx. . . . . . . . . . . . . CODE     CYMEM  CLOCK_UART  CYLIB  ISR_IMU  ISR_RS485_RX  ISR_WATCHDOG  PACER_T
                                                  IMER  SPI_IMU_INTCLOCK  WATCHDOG_COUNTER  
_cyread24. . . . . . . . . . . . . . . . CODE     CYMEM  
_cyread24_nodpx. . . . . . . . . . . . . CODE     CYMEM  MY_TIMER  
_cyread32. . . . . . . . . . . . . . . . CODE     CYMEM  
_cyread32_nodpx. . . . . . . . . . . . . CODE     CYMEM  
_cyread8 . . . . . . . . . . . . . . . . CODE     CYMEM  CYFITTER_CFG  CYLIB  CYSPC  
_cyread8_nodpx . . . . . . . . . . . . . CODE     CYMEM  
_CySetFlashEEBuffer. . . . . . . . . . . CODE     CYFLASH  
_CySpcEraseSector. . . . . . . . . . . . CODE     CYSPC  EEPROM  
_CySpcGetTemp. . . . . . . . . . . . . . CODE     CYSPC  CYFLASH  
_CySpcLoadMultiByte. . . . . . . . . . . CODE     CYSPC  EEPROM  
_CySpcLoadRow. . . . . . . . . . . . . . CODE     CYSPC  EEPROM  
_CySpcLoadRowFull. . . . . . . . . . . . CODE     CYSPC  CYFLASH  
_CySpcReadData . . . . . . . . . . . . . CODE     CYSPC  CYFLASH  
_CySpcWriteRow . . . . . . . . . . . . . CODE     CYSPC  CYFLASH  EEPROM  
LX51 LINKER/LOCATER V4.64.0.0                                                         06/15/2017  12:28:54  PAGE 97


_CyUsbClk_SetSource. . . . . . . . . . . CODE     CYLIB  
_CyVdLvAnalogEnable. . . . . . . . . . . CODE     CYLIB  CYPM  
_CyVdLvDigitEnable . . . . . . . . . . . CODE     CYLIB  CYPM  
_CyVdStickyStatus. . . . . . . . . . . . CODE     CYLIB  
_CyWdtStart. . . . . . . . . . . . . . . CODE     CYLIB  
_cywrite16 . . . . . . . . . . . . . . . CODE     CYMEM  CYFITTER_CFG  
_cywrite16_nodpx . . . . . . . . . . . . CODE     CYMEM  CLOCK_UART  CYFITTER_CFG  CYLIB  ISR_IMU  ISR_RS485_RX  ISR_WAT
                                                  CHDOG  PACER_TIMER  SPI_IMU_INTCLOCK  WATCHDOG_COUNTER  
_cywrite24 . . . . . . . . . . . . . . . CODE     CYMEM  
_cywrite24_nodpx . . . . . . . . . . . . CODE     CYMEM  MY_TIMER  
_cywrite32 . . . . . . . . . . . . . . . CODE     CYMEM  
_cywrite32_nodpx . . . . . . . . . . . . CODE     CYMEM  
_cywrite8. . . . . . . . . . . . . . . . CODE     CYMEM  CYFITTER_CFG  
_cywrite8_nodpx. . . . . . . . . . . . . CODE     CYMEM  
_CyWriteRowData. . . . . . . . . . . . . CODE     CYFLASH  BOOTLOADABLE  
_CyWriteRowFull. . . . . . . . . . . . . CODE     CYFLASH  
_CyXTAL_32KHZ_SetPowerMode . . . . . . . CODE     CYLIB  
_CyXTAL_SetFbVoltage . . . . . . . . . . CODE     CYLIB  
_CyXTAL_SetStartup . . . . . . . . . . . CODE     CYLIB  
_CyXTAL_SetWdVoltage . . . . . . . . . . CODE     CYLIB  
_CyXTAL_Start. . . . . . . . . . . . . . CODE     CYLIB  CYPM  
_dma_wait. . . . . . . . . . . . . . . . CODE     ?C_STARTUP  
_EEPROM_ByteWritePos . . . . . . . . . . CODE     EEPROM  
_EEPROM_EraseSector. . . . . . . . . . . CODE     EEPROM  
_EEPROM_ReadByte . . . . . . . . . . . . CODE     EEPROM  
_EEPROM_StartErase . . . . . . . . . . . CODE     EEPROM  
_EEPROM_StartWrite . . . . . . . . . . . CODE     EEPROM  
_EEPROM_Write. . . . . . . . . . . . . . CODE     EEPROM  COMMAND_PROCESSING  
_EEPROM_WriteByte. . . . . . . . . . . . CODE     EEPROM  
_FF_STATUS_WriteMask . . . . . . . . . . CODE     FF_STATUS  
_filter_ch1. . . . . . . . . . . . . . . CODE     UTILS  
_filter_ch2. . . . . . . . . . . . . . . CODE     UTILS  
_filter_i1 . . . . . . . . . . . . . . . CODE     UTILS  
_filter_v. . . . . . . . . . . . . . . . CODE     UTILS  
_FTDI_ENABLE_REG_Write . . . . . . . . . CODE     FTDI_ENABLE_REG  COMMAND_PROCESSING  MAIN  
_get_param_list. . . . . . . . . . . . . CODE     COMMAND_PROCESSING  
_infoGet . . . . . . . . . . . . . . . . CODE     COMMAND_PROCESSING  INTERRUPTIONS  
_infoPrepare . . . . . . . . . . . . . . CODE     COMMAND_PROCESSING  
_isr_imu_SetPriority . . . . . . . . . . CODE     ISR_IMU  
_isr_imu_SetVector . . . . . . . . . . . CODE     ISR_IMU  
_isr_imu_StartEx . . . . . . . . . . . . CODE     ISR_IMU  
_ISR_RS485_RX_SetPriority. . . . . . . . CODE     ISR_RS485_RX  
_ISR_RS485_RX_SetVector. . . . . . . . . CODE     ISR_RS485_RX  
_ISR_RS485_RX_StartEx. . . . . . . . . . CODE     ISR_RS485_RX  MAIN  
_ISR_WATCHDOG_SetPriority. . . . . . . . CODE     ISR_WATCHDOG  
_ISR_WATCHDOG_SetVector. . . . . . . . . CODE     ISR_WATCHDOG  
_ISR_WATCHDOG_StartEx. . . . . . . . . . CODE     ISR_WATCHDOG  MAIN  
_LCRChecksum . . . . . . . . . . . . . . CODE     COMMAND_PROCESSING  
_memStore. . . . . . . . . . . . . . . . CODE     COMMAND_PROCESSING  
_my_mod. . . . . . . . . . . . . . . . . CODE     UTILS  
_my_round. . . . . . . . . . . . . . . . CODE     UTILS  
_MY_TIMER_SetInterruptMode . . . . . . . CODE     MY_TIMER  
_MY_TIMER_WriteControlRegister . . . . . CODE     MY_TIMER  
_MY_TIMER_WriteCounter . . . . . . . . . CODE     MY_TIMER  INTERRUPTIONS  
_MY_TIMER_WritePeriod. . . . . . . . . . CODE     MY_TIMER  
_Opto_Pin_SetDriveMode . . . . . . . . . CODE     OPTO_PIN  
_Opto_Pin_Write. . . . . . . . . . . . . CODE     OPTO_PIN  IMU_FUNCTIONS  MAIN  
_PACER_TIMER_SetInterruptMode. . . . . . CODE     PACER_TIMER  
_PACER_TIMER_WriteControlRegister. . . . CODE     PACER_TIMER  
_PACER_TIMER_WriteCounter. . . . . . . . CODE     PACER_TIMER  
_PACER_TIMER_WritePeriod . . . . . . . . CODE     PACER_TIMER  
_PRINTF. . . . . . . . . . . . . . . . . CODE     PRINTF  
_PUTCHAR . . . . . . . . . . . . . . . . CODE     PUTCHAR  PRINTF  
_ReadAcc . . . . . . . . . . . . . . . . CODE     IMU_FUNCTIONS  
_ReadControlRegister . . . . . . . . . . CODE     IMU_FUNCTIONS  
LX51 LINKER/LOCATER V4.64.0.0                                                         06/15/2017  12:28:54  PAGE 98


_ReadGyro. . . . . . . . . . . . . . . . CODE     IMU_FUNCTIONS  
_ReadIMU . . . . . . . . . . . . . . . . CODE     IMU_FUNCTIONS  ISR_IMU  
_ReadMag . . . . . . . . . . . . . . . . CODE     IMU_FUNCTIONS  
_ReadMagCal. . . . . . . . . . . . . . . CODE     IMU_FUNCTIONS  
_ReadTemp. . . . . . . . . . . . . . . . CODE     IMU_FUNCTIONS  
_RESET_FF_Write. . . . . . . . . . . . . CODE     RESET_FF  MAIN  
_RS485_CTS_Write . . . . . . . . . . . . CODE     RS485_CTS  COMMAND_PROCESSING  INTERRUPTIONS  MAIN  
_sendAcknowledgment. . . . . . . . . . . CODE     COMMAND_PROCESSING  
_SetAnalogRoutingPumps . . . . . . . . . CODE     CYFITTER_CFG  
_SPI_IMU_IntClock_ClearModeRegister. . . CODE     SPI_IMU_INTCLOCK  
_SPI_IMU_IntClock_SetDividerRegister . . CODE     SPI_IMU_INTCLOCK  
_SPI_IMU_IntClock_SetModeRegister. . . . CODE     SPI_IMU_INTCLOCK  
_SPI_IMU_IntClock_SetSourceRegister. . . CODE     SPI_IMU_INTCLOCK  
_SPI_IMU_IntClock_StandbyPower . . . . . CODE     SPI_IMU_INTCLOCK  
_SPI_IMU_PutArray. . . . . . . . . . . . CODE     SPI_IMU  
_SPI_IMU_SetInterruptMode. . . . . . . . CODE     SPI_IMU  
_SPI_IMU_SetRxInterruptMode. . . . . . . CODE     SPI_IMU  
_SPI_IMU_SetTxInterruptMode. . . . . . . CODE     SPI_IMU  
_SPI_IMU_WriteTxData . . . . . . . . . . CODE     SPI_IMU  IMU_FUNCTIONS  
_SPRINTF . . . . . . . . . . . . . . . . CODE     PRINTF  COMMAND_PROCESSING  
_strcat. . . . . . . . . . . . . . . . . CODE     STRCAT  COMMAND_PROCESSING  
_STRLEN. . . . . . . . . . . . . . . . . CODE     STRLEN  COMMAND_PROCESSING  
_UART_RS485_PutArray . . . . . . . . . . CODE     UART_RS485  
_UART_RS485_PutChar. . . . . . . . . . . CODE     UART_RS485  COMMAND_PROCESSING  
_UART_RS485_PutCRLF. . . . . . . . . . . CODE     UART_RS485  
_UART_RS485_PutString. . . . . . . . . . CODE     UART_RS485  COMMAND_PROCESSING  
_UART_RS485_SendBreak. . . . . . . . . . CODE     UART_RS485  
_UART_RS485_SetRxAddress1. . . . . . . . CODE     UART_RS485  
_UART_RS485_SetRxAddress2. . . . . . . . CODE     UART_RS485  
_UART_RS485_SetRxAddressMode . . . . . . CODE     UART_RS485  
_UART_RS485_SetRxInterruptMode . . . . . CODE     UART_RS485  
_UART_RS485_SetTxAddressMode . . . . . . CODE     UART_RS485  
_UART_RS485_SetTxInterruptMode . . . . . CODE     UART_RS485  
_UART_RS485_WriteControlRegister . . . . CODE     UART_RS485  
_UART_RS485_WriteTxData. . . . . . . . . CODE     UART_RS485  
_WATCHDOG_COUNTER_SetInterruptMode . . . CODE     WATCHDOG_COUNTER  
_WATCHDOG_COUNTER_WriteControlRegister . CODE     WATCHDOG_COUNTER  
_WATCHDOG_COUNTER_WriteCounter . . . . . CODE     WATCHDOG_COUNTER  
_WATCHDOG_COUNTER_WritePeriod. . . . . . CODE     WATCHDOG_COUNTER  COMMAND_PROCESSING  
_WATCHDOG_ENABLER_Write. . . . . . . . . CODE     WATCHDOG_ENABLER  COMMAND_PROCESSING  
_WATCHDOG_REFRESH_Write. . . . . . . . . CODE     WATCHDOG_REFRESH  MAIN  
_WriteControlRegister. . . . . . . . . . CODE     IMU_FUNCTIONS  
AC . . . . . . . . . . . . . . . . . . . DATA     COMMAND_PROCESSING  
ACC. . . . . . . . . . . . . . . . . . . DATA     COMMAND_PROCESSING  
Accel. . . . . . . . . . . . . . . . . . XDATA    GLOBALS  IMU_FUNCTIONS  ISR_IMU  
ADC_buf. . . . . . . . . . . . . . . . . XDATA    GLOBALS  
B. . . . . . . . . . . . . . . . . . . . DATA     COMMAND_PROCESSING  
Bootloadable_Load. . . . . . . . . . . . CODE     BOOTLOADABLE  COMMAND_PROCESSING  
c_mem. . . . . . . . . . . . . . . . . . XDATA    GLOBALS  COMMAND_PROCESSING  INTERRUPTIONS  
calibration. . . . . . . . . . . . . . . CODE     UTILS  
Chip_Select_A_Read . . . . . . . . . . . CODE     CHIP_SELECT_A  
Chip_Select_B_Read . . . . . . . . . . . CODE     CHIP_SELECT_B  
CLOCK_UART_GetDividerRegister. . . . . . CODE     CLOCK_UART  
CLOCK_UART_GetModeRegister . . . . . . . CODE     CLOCK_UART  
CLOCK_UART_GetSourceRegister . . . . . . CODE     CLOCK_UART  
CLOCK_UART_Start . . . . . . . . . . . . CODE     CLOCK_UART  
CLOCK_UART_Stop. . . . . . . . . . . . . CODE     CLOCK_UART  
CLOCK_UART_StopBlock . . . . . . . . . . CODE     CLOCK_UART  
cmd_activate . . . . . . . . . . . . . . CODE     COMMAND_PROCESSING  
cmd_get_activate . . . . . . . . . . . . CODE     COMMAND_PROCESSING  
cmd_get_curr_and_meas. . . . . . . . . . CODE     COMMAND_PROCESSING  
cmd_get_currents . . . . . . . . . . . . CODE     COMMAND_PROCESSING  
cmd_get_emg. . . . . . . . . . . . . . . CODE     COMMAND_PROCESSING  
cmd_get_imu_readings . . . . . . . . . . CODE     COMMAND_PROCESSING  
cmd_get_inputs . . . . . . . . . . . . . CODE     COMMAND_PROCESSING  
LX51 LINKER/LOCATER V4.64.0.0                                                         06/15/2017  12:28:54  PAGE 99


cmd_get_measurements . . . . . . . . . . CODE     COMMAND_PROCESSING  
cmd_ping . . . . . . . . . . . . . . . . CODE     COMMAND_PROCESSING  
cmd_set_baudrate . . . . . . . . . . . . CODE     COMMAND_PROCESSING  
cmd_set_inputs . . . . . . . . . . . . . CODE     COMMAND_PROCESSING  
cmd_set_watchdog . . . . . . . . . . . . CODE     COMMAND_PROCESSING  
cmd_store_params . . . . . . . . . . . . CODE     COMMAND_PROCESSING  
commProcess. . . . . . . . . . . . . . . CODE     COMMAND_PROCESSING  INTERRUPTIONS  
CY . . . . . . . . . . . . . . . . . . . DATA     COMMAND_PROCESSING  
cydelay_32k_ms . . . . . . . . . . . . . XDATA    CYLIB  
cydelay_freq_hz. . . . . . . . . . . . . XDATA    CYLIB  
cydelay_freq_khz . . . . . . . . . . . . XDATA    CYLIB  
cydelay_freq_mhz . . . . . . . . . . . . XDATA    CYLIB  CYBOOTASMKEIL  
CyDisableInts. . . . . . . . . . . . . . CODE     CYLIB  
CyEEPROM_ReadRelease . . . . . . . . . . CODE     CYFLASH  EEPROM  
CyEEPROM_ReadReserve . . . . . . . . . . CODE     CYFLASH  EEPROM  
CyEEPROM_Start . . . . . . . . . . . . . CODE     CYFLASH  EEPROM  
CyEEPROM_Stop. . . . . . . . . . . . . . CODE     CYFLASH  EEPROM  
CyEnterCriticalSection . . . . . . . . . CODE     CYBOOTASMKEIL  CYFLASH  CYLIB  CYPM  CYSPC  EEPROM  FF_STATUS  MY_TIME
                                                  R  SPI_IMU  UART_RS485  
cyfitter_cfg . . . . . . . . . . . . . . CODE     CYFITTER_CFG  ?C_STARTUP  
CyFlash_Start. . . . . . . . . . . . . . CODE     CYFLASH  
CyFlash_Stop . . . . . . . . . . . . . . CODE     CYFLASH  
CyILO_Disable33K . . . . . . . . . . . . CODE     CYLIB  
CyILO_Enable33K. . . . . . . . . . . . . CODE     CYLIB  
CyILO_Start100K. . . . . . . . . . . . . CODE     CYLIB  CYPM  
CyILO_Start1K. . . . . . . . . . . . . . CODE     CYLIB  CYPM  
CyILO_Stop100K . . . . . . . . . . . . . CODE     CYLIB  
CyILO_Stop1K . . . . . . . . . . . . . . CODE     CYLIB  
CyIMO_DisableDoubler . . . . . . . . . . CODE     CYLIB  CYPM  
CyIMO_EnableDoubler. . . . . . . . . . . CODE     CYLIB  CYPM  
CyIMO_Stop . . . . . . . . . . . . . . . CODE     CYLIB  CYPM  
CyPLL_OUT_Stop . . . . . . . . . . . . . CODE     CYLIB  CYPM  
CyPmHibernate. . . . . . . . . . . . . . CODE     CYPM  
CyPmOppsSet. . . . . . . . . . . . . . . CODE     CYPM  
CyPmRestoreClocks. . . . . . . . . . . . CODE     CYPM  
CyPmSaveClocks . . . . . . . . . . . . . CODE     CYPM  
CyResetStatus. . . . . . . . . . . . . . XDATA    CYLIB  ?C_STARTUP  
CySetTemp. . . . . . . . . . . . . . . . CODE     CYFLASH  COMMAND_PROCESSING  EEPROM  
CySoftwareReset. . . . . . . . . . . . . CODE     CYLIB  BOOTLOADABLE  
CySpcGetAlgorithm. . . . . . . . . . . . CODE     CYSPC  CYFLASH  
CySpcLock. . . . . . . . . . . . . . . . CODE     CYSPC  CYFLASH  EEPROM  
CySpcStart . . . . . . . . . . . . . . . CODE     CYSPC  CYFLASH  EEPROM  
CySpcStop. . . . . . . . . . . . . . . . CODE     CYSPC  
CySpcUnlock. . . . . . . . . . . . . . . CODE     CYSPC  CYFLASH  EEPROM  
CyVdHvAnalogDisable. . . . . . . . . . . CODE     CYLIB  CYPM  
CyVdHvAnalogEnable . . . . . . . . . . . CODE     CYLIB  CYPM  
CyVdLvAnalogDisable. . . . . . . . . . . CODE     CYLIB  CYPM  
CyVdLvDigitDisable . . . . . . . . . . . CODE     CYLIB  CYPM  
CyVdRealTimeStatus . . . . . . . . . . . CODE     CYLIB  
CyWdtClear . . . . . . . . . . . . . . . CODE     CYLIB  
CyXTAL_32KHZ_ReadStatus. . . . . . . . . CODE     CYLIB  
CyXTAL_32KHZ_Start . . . . . . . . . . . CODE     CYLIB  CYPM  
CyXTAL_32KHZ_Stop. . . . . . . . . . . . CODE     CYLIB  
CyXTAL_DisableErrStatus. . . . . . . . . CODE     CYLIB  
CyXTAL_DisableFaultRecovery. . . . . . . CODE     CYLIB  
CyXTAL_EnableErrStatus . . . . . . . . . CODE     CYLIB  
CyXTAL_EnableFaultRecovery . . . . . . . CODE     CYLIB  
CyXTAL_ReadStatus. . . . . . . . . . . . CODE     CYLIB  
CyXTAL_Stop. . . . . . . . . . . . . . . CODE     CYLIB  CYPM  
dev_pwm_limit. . . . . . . . . . . . . . XDATA    GLOBALS  MAIN  
dev_tension. . . . . . . . . . . . . . . XDATA    GLOBALS  
dieTemperature . . . . . . . . . . . . . XDATA    CYFLASH  EEPROM  
DPH. . . . . . . . . . . . . . . . . . . DATA     COMMAND_PROCESSING  
DPH1 . . . . . . . . . . . . . . . . . . DATA     COMMAND_PROCESSING  
DPL. . . . . . . . . . . . . . . . . . . DATA     COMMAND_PROCESSING  
LX51 LINKER/LOCATER V4.64.0.0                                                         06/15/2017  12:28:54  PAGE 100


DPL1 . . . . . . . . . . . . . . . . . . DATA     COMMAND_PROCESSING  
DPS. . . . . . . . . . . . . . . . . . . DATA     COMMAND_PROCESSING  
DPX. . . . . . . . . . . . . . . . . . . DATA     COMMAND_PROCESSING  
DPX1 . . . . . . . . . . . . . . . . . . DATA     COMMAND_PROCESSING  
EA . . . . . . . . . . . . . . . . . . . DATA     COMMAND_PROCESSING  
EEPROM_ADDR. . . . . . . . . . . . . . . XDATA    COMMAND_PROCESSING  
EEPROM_Enable. . . . . . . . . . . . . . CODE     EEPROM  
EEPROM_Query . . . . . . . . . . . . . . CODE     EEPROM  
EEPROM_Start . . . . . . . . . . . . . . CODE     EEPROM  MAIN  
EEPROM_Stop. . . . . . . . . . . . . . . CODE     EEPROM  
EEPROM_UpdateTemperature . . . . . . . . CODE     EEPROM  
F0 . . . . . . . . . . . . . . . . . . . DATA     COMMAND_PROCESSING  
F1 . . . . . . . . . . . . . . . . . . . DATA     COMMAND_PROCESSING  
FF_STATUS_InterruptDisable . . . . . . . CODE     FF_STATUS  
FF_STATUS_InterruptEnable. . . . . . . . CODE     FF_STATUS  
FF_STATUS_Read . . . . . . . . . . . . . CODE     FF_STATUS  MAIN  
FF_STATUS_ReadMask . . . . . . . . . . . CODE     FF_STATUS  
frsAccReg. . . . . . . . . . . . . . . . XDATA    GLOBALS  
frsGyroReg . . . . . . . . . . . . . . . XDATA    GLOBALS  
FTDI_ENABLE_REG_Read . . . . . . . . . . CODE     FTDI_ENABLE_REG  
function_scheduler . . . . . . . . . . . CODE     INTERRUPTIONS  MAIN  
g_imu. . . . . . . . . . . . . . . . . . XDATA    GLOBALS  COMMAND_PROCESSING  IMU_FUNCTIONS  INTERRUPTIONS  
g_imuNew . . . . . . . . . . . . . . . . XDATA    GLOBALS  IMU_FUNCTIONS  INTERRUPTIONS  ISR_IMU  
g_mem. . . . . . . . . . . . . . . . . . XDATA    GLOBALS  COMMAND_PROCESSING  
g_rx . . . . . . . . . . . . . . . . . . XDATA    GLOBALS  COMMAND_PROCESSING  INTERRUPTIONS  MAIN  
Gyro . . . . . . . . . . . . . . . . . . XDATA    GLOBALS  IMU_FUNCTIONS  ISR_IMU  
IE . . . . . . . . . . . . . . . . . . . DATA     COMMAND_PROCESSING  
IMU_conf . . . . . . . . . . . . . . . . XDATA    GLOBALS  COMMAND_PROCESSING  IMU_FUNCTIONS  
IMU_connected. . . . . . . . . . . . . . XDATA    GLOBALS  COMMAND_PROCESSING  IMU_FUNCTIONS  ISR_IMU  
imus_data_size . . . . . . . . . . . . . XDATA    GLOBALS  COMMAND_PROCESSING  IMU_FUNCTIONS  
ImusReset. . . . . . . . . . . . . . . . CODE     IMU_FUNCTIONS  
infoSend . . . . . . . . . . . . . . . . CODE     COMMAND_PROCESSING  
InitIMU. . . . . . . . . . . . . . . . . CODE     IMU_FUNCTIONS  
InitIMUgeneral . . . . . . . . . . . . . CODE     IMU_FUNCTIONS  MAIN  
InitIMUMagCal. . . . . . . . . . . . . . CODE     IMU_FUNCTIONS  
interrupt_flag . . . . . . . . . . . . . BIT      GLOBALS  INTERRUPTIONS  MAIN  
interrupt_manager. . . . . . . . . . . . CODE     INTERRUPTIONS  MAIN  
isr_imu_ClearPending . . . . . . . . . . CODE     ISR_IMU  
isr_imu_Disable. . . . . . . . . . . . . CODE     ISR_IMU  IMU_FUNCTIONS  
isr_imu_Enable . . . . . . . . . . . . . CODE     ISR_IMU  IMU_FUNCTIONS  
isr_imu_GetPriority. . . . . . . . . . . CODE     ISR_IMU  
isr_imu_GetState . . . . . . . . . . . . CODE     ISR_IMU  
isr_imu_GetVector. . . . . . . . . . . . CODE     ISR_IMU  
isr_imu_Interrupt. . . . . . . . . . . . CODE     ISR_IMU  
isr_imu_SetPending . . . . . . . . . . . CODE     ISR_IMU  
isr_imu_Start. . . . . . . . . . . . . . CODE     ISR_IMU  IMU_FUNCTIONS  
isr_imu_Stop . . . . . . . . . . . . . . CODE     ISR_IMU  IMU_FUNCTIONS  
ISR_RS485_RX_ClearPending. . . . . . . . CODE     ISR_RS485_RX  
ISR_RS485_RX_Disable . . . . . . . . . . CODE     ISR_RS485_RX  COMMAND_PROCESSING  
ISR_RS485_RX_Enable. . . . . . . . . . . CODE     ISR_RS485_RX  COMMAND_PROCESSING  
ISR_RS485_RX_ExInterrupt . . . . . . . . CODE     INTERRUPTIONS  MAIN  
ISR_RS485_RX_GetPriority . . . . . . . . CODE     ISR_RS485_RX  
ISR_RS485_RX_GetState. . . . . . . . . . CODE     ISR_RS485_RX  
ISR_RS485_RX_GetVector . . . . . . . . . CODE     ISR_RS485_RX  
ISR_RS485_RX_Interrupt . . . . . . . . . CODE     ISR_RS485_RX  
ISR_RS485_RX_SetPending. . . . . . . . . CODE     ISR_RS485_RX  
ISR_RS485_RX_Start . . . . . . . . . . . CODE     ISR_RS485_RX  
ISR_RS485_RX_Stop. . . . . . . . . . . . CODE     ISR_RS485_RX  
ISR_WATCHDOG_ClearPending. . . . . . . . CODE     ISR_WATCHDOG  
ISR_WATCHDOG_Disable . . . . . . . . . . CODE     ISR_WATCHDOG  
ISR_WATCHDOG_Enable. . . . . . . . . . . CODE     ISR_WATCHDOG  
ISR_WATCHDOG_GetPriority . . . . . . . . CODE     ISR_WATCHDOG  
ISR_WATCHDOG_GetState. . . . . . . . . . CODE     ISR_WATCHDOG  
ISR_WATCHDOG_GetVector . . . . . . . . . CODE     ISR_WATCHDOG  
ISR_WATCHDOG_Handler . . . . . . . . . . CODE     INTERRUPTIONS  MAIN  
LX51 LINKER/LOCATER V4.64.0.0                                                         06/15/2017  12:28:54  PAGE 101


ISR_WATCHDOG_Interrupt . . . . . . . . . CODE     ISR_WATCHDOG  
ISR_WATCHDOG_SetPending. . . . . . . . . CODE     ISR_WATCHDOG  
ISR_WATCHDOG_Start . . . . . . . . . . . CODE     ISR_WATCHDOG  
ISR_WATCHDOG_Stop. . . . . . . . . . . . CODE     ISR_WATCHDOG  
Mag. . . . . . . . . . . . . . . . . . . XDATA    GLOBALS  IMU_FUNCTIONS  ISR_IMU  
MagCal . . . . . . . . . . . . . . . . . XDATA    GLOBALS  COMMAND_PROCESSING  IMU_FUNCTIONS  
main . . . . . . . . . . . . . . . . . . CODE     MAIN  ?C_INIT  
memInit. . . . . . . . . . . . . . . . . CODE     COMMAND_PROCESSING  
memRecall. . . . . . . . . . . . . . . . CODE     COMMAND_PROCESSING  MAIN  
memRestore . . . . . . . . . . . . . . . CODE     COMMAND_PROCESSING  
MXAX . . . . . . . . . . . . . . . . . . DATA     COMMAND_PROCESSING  
MY_TIMER_ClearFIFO . . . . . . . . . . . CODE     MY_TIMER  
MY_TIMER_Enable. . . . . . . . . . . . . CODE     MY_TIMER  
MY_TIMER_Init. . . . . . . . . . . . . . CODE     MY_TIMER  
MY_TIMER_initVar . . . . . . . . . . . . XDATA    MY_TIMER  
MY_TIMER_ReadCapture . . . . . . . . . . CODE     MY_TIMER  
MY_TIMER_ReadControlRegister . . . . . . CODE     MY_TIMER  
MY_TIMER_ReadCounter . . . . . . . . . . CODE     MY_TIMER  INTERRUPTIONS  
MY_TIMER_ReadPeriod. . . . . . . . . . . CODE     MY_TIMER  
MY_TIMER_ReadStatusRegister. . . . . . . CODE     MY_TIMER  
MY_TIMER_SoftwareCapture . . . . . . . . CODE     MY_TIMER  
MY_TIMER_Start . . . . . . . . . . . . . CODE     MY_TIMER  MAIN  
MY_TIMER_Stop. . . . . . . . . . . . . . CODE     MY_TIMER  
N_IMU_Connected. . . . . . . . . . . . . XDATA    GLOBALS  COMMAND_PROCESSING  IMU_FUNCTIONS  ISR_IMU  
Opto_Pin_Read. . . . . . . . . . . . . . CODE     OPTO_PIN  
Opto_Pin_ReadDataReg . . . . . . . . . . CODE     OPTO_PIN  
OV . . . . . . . . . . . . . . . . . . . DATA     COMMAND_PROCESSING  
P. . . . . . . . . . . . . . . . . . . . DATA     COMMAND_PROCESSING  
P2AX . . . . . . . . . . . . . . . . . . DATA     COMMAND_PROCESSING  
PACER_TIMER_Enable . . . . . . . . . . . CODE     PACER_TIMER  
PACER_TIMER_Init . . . . . . . . . . . . CODE     PACER_TIMER  
PACER_TIMER_initVar. . . . . . . . . . . XDATA    PACER_TIMER  
PACER_TIMER_ReadCapture. . . . . . . . . CODE     PACER_TIMER  
PACER_TIMER_ReadControlRegister. . . . . CODE     PACER_TIMER  
PACER_TIMER_ReadCounter. . . . . . . . . CODE     PACER_TIMER  
PACER_TIMER_ReadPeriod . . . . . . . . . CODE     PACER_TIMER  
PACER_TIMER_ReadStatusRegister . . . . . CODE     PACER_TIMER  
PACER_TIMER_SoftwareCapture. . . . . . . CODE     PACER_TIMER  
PACER_TIMER_Start. . . . . . . . . . . . CODE     PACER_TIMER  MAIN  
PACER_TIMER_Stop . . . . . . . . . . . . CODE     PACER_TIMER  
PSW. . . . . . . . . . . . . . . . . . . DATA     COMMAND_PROCESSING  
pwm_sign . . . . . . . . . . . . . . . . XDATA    GLOBALS  
rateAcc. . . . . . . . . . . . . . . . . XDATA    GLOBALS  
rateGyro . . . . . . . . . . . . . . . . XDATA    GLOBALS  
readAllIMUs. . . . . . . . . . . . . . . CODE     IMU_FUNCTIONS  INTERRUPTIONS  
RESET_FF_Read. . . . . . . . . . . . . . CODE     RESET_FF  
reset_last_value_flag. . . . . . . . . . BIT      GLOBALS  MAIN  
RS0. . . . . . . . . . . . . . . . . . . DATA     COMMAND_PROCESSING  
RS1. . . . . . . . . . . . . . . . . . . DATA     COMMAND_PROCESSING  
RS485_CTS_Read . . . . . . . . . . . . . CODE     RS485_CTS  
setZeros . . . . . . . . . . . . . . . . CODE     COMMAND_PROCESSING  
SFRPRT0DR. . . . . . . . . . . . . . . . DATA     COMMAND_PROCESSING  
SFRPRT0PS. . . . . . . . . . . . . . . . DATA     COMMAND_PROCESSING  
SFRPRT0SEL . . . . . . . . . . . . . . . DATA     COMMAND_PROCESSING  
SFRPRT12DR . . . . . . . . . . . . . . . DATA     COMMAND_PROCESSING  
SFRPRT12PS . . . . . . . . . . . . . . . DATA     COMMAND_PROCESSING  
SFRPRT12SEL. . . . . . . . . . . . . . . DATA     COMMAND_PROCESSING  
SFRPRT15DR . . . . . . . . . . . . . . . DATA     COMMAND_PROCESSING  
SFRPRT15PS . . . . . . . . . . . . . . . DATA     COMMAND_PROCESSING  
SFRPRT15SEL. . . . . . . . . . . . . . . DATA     COMMAND_PROCESSING  
SFRPRT1DR. . . . . . . . . . . . . . . . DATA     COMMAND_PROCESSING  
SFRPRT1PS. . . . . . . . . . . . . . . . DATA     COMMAND_PROCESSING  
SFRPRT1SEL . . . . . . . . . . . . . . . DATA     COMMAND_PROCESSING  
SFRPRT2DR. . . . . . . . . . . . . . . . DATA     COMMAND_PROCESSING  
SFRPRT2PS. . . . . . . . . . . . . . . . DATA     COMMAND_PROCESSING  
LX51 LINKER/LOCATER V4.64.0.0                                                         06/15/2017  12:28:54  PAGE 102


SFRPRT2SEL . . . . . . . . . . . . . . . DATA     COMMAND_PROCESSING  
SFRPRT3DR. . . . . . . . . . . . . . . . DATA     COMMAND_PROCESSING  
SFRPRT3PS. . . . . . . . . . . . . . . . DATA     COMMAND_PROCESSING  
SFRPRT3SEL . . . . . . . . . . . . . . . DATA     COMMAND_PROCESSING  
SFRPRT4DR. . . . . . . . . . . . . . . . DATA     COMMAND_PROCESSING  
SFRPRT4PS. . . . . . . . . . . . . . . . DATA     COMMAND_PROCESSING  
SFRPRT4SEL . . . . . . . . . . . . . . . DATA     COMMAND_PROCESSING  
SFRPRT5DR. . . . . . . . . . . . . . . . DATA     COMMAND_PROCESSING  
SFRPRT5PS. . . . . . . . . . . . . . . . DATA     COMMAND_PROCESSING  
SFRPRT5SEL . . . . . . . . . . . . . . . DATA     COMMAND_PROCESSING  
SFRPRT6DR. . . . . . . . . . . . . . . . DATA     COMMAND_PROCESSING  
SFRPRT6PS. . . . . . . . . . . . . . . . DATA     COMMAND_PROCESSING  
SFRPRT6SEL . . . . . . . . . . . . . . . DATA     COMMAND_PROCESSING  
single_imu_size. . . . . . . . . . . . . XDATA    GLOBALS  COMMAND_PROCESSING  IMU_FUNCTIONS  
SP . . . . . . . . . . . . . . . . . . . DATA     COMMAND_PROCESSING  
SpcLockState . . . . . . . . . . . . . . XDATA    CYSPC  
SPI_IMU_ClearFIFO. . . . . . . . . . . . CODE     SPI_IMU  IMU_FUNCTIONS  MAIN  
SPI_IMU_ClearRxBuffer. . . . . . . . . . CODE     SPI_IMU  IMU_FUNCTIONS  MAIN  
SPI_IMU_ClearTxBuffer. . . . . . . . . . CODE     SPI_IMU  IMU_FUNCTIONS  MAIN  
SPI_IMU_DisableInt . . . . . . . . . . . CODE     SPI_IMU  
SPI_IMU_DisableRxInt . . . . . . . . . . CODE     SPI_IMU  
SPI_IMU_DisableTxInt . . . . . . . . . . CODE     SPI_IMU  
SPI_IMU_Enable . . . . . . . . . . . . . CODE     SPI_IMU  MAIN  
SPI_IMU_EnableInt. . . . . . . . . . . . CODE     SPI_IMU  
SPI_IMU_EnableRxInt. . . . . . . . . . . CODE     SPI_IMU  
SPI_IMU_EnableTxInt. . . . . . . . . . . CODE     SPI_IMU  
SPI_IMU_GetRxBufferSize. . . . . . . . . CODE     SPI_IMU  
SPI_IMU_GetTxBufferSize. . . . . . . . . CODE     SPI_IMU  
SPI_IMU_Init . . . . . . . . . . . . . . CODE     SPI_IMU  MAIN  
SPI_IMU_initVar. . . . . . . . . . . . . XDATA    SPI_IMU  
SPI_IMU_IntClock_GetDividerRegister. . . CODE     SPI_IMU_INTCLOCK  
SPI_IMU_IntClock_GetModeRegister . . . . CODE     SPI_IMU_INTCLOCK  
SPI_IMU_IntClock_GetSourceRegister . . . CODE     SPI_IMU_INTCLOCK  
SPI_IMU_IntClock_Start . . . . . . . . . CODE     SPI_IMU_INTCLOCK  SPI_IMU  
SPI_IMU_IntClock_Stop. . . . . . . . . . CODE     SPI_IMU_INTCLOCK  SPI_IMU  
SPI_IMU_IntClock_StopBlock . . . . . . . CODE     SPI_IMU_INTCLOCK  
SPI_IMU_ReadRxData . . . . . . . . . . . CODE     SPI_IMU  IMU_FUNCTIONS  
SPI_IMU_ReadRxStatus . . . . . . . . . . CODE     SPI_IMU  
SPI_IMU_ReadStatus . . . . . . . . . . . CODE     SPI_IMU  IMU_FUNCTIONS  
SPI_IMU_ReadTxStatus . . . . . . . . . . CODE     SPI_IMU  
SPI_IMU_Start. . . . . . . . . . . . . . CODE     SPI_IMU  MAIN  
SPI_IMU_Stop . . . . . . . . . . . . . . CODE     SPI_IMU  
SPI_IMU_swStatusRx . . . . . . . . . . . XDATA    SPI_IMU  
SPI_IMU_swStatusTx . . . . . . . . . . . XDATA    SPI_IMU  
STARTUP1 . . . . . . . . . . . . . . . . CODE     ?C_STARTUP  
tau_feedback . . . . . . . . . . . . . . XDATA    GLOBALS  
Temp . . . . . . . . . . . . . . . . . . XDATA    GLOBALS  IMU_FUNCTIONS  
tension_valid. . . . . . . . . . . . . . BIT      GLOBALS  MAIN  
timer_value. . . . . . . . . . . . . . . XDATA    GLOBALS  COMMAND_PROCESSING  INTERRUPTIONS  
timer_value0 . . . . . . . . . . . . . . XDATA    GLOBALS  COMMAND_PROCESSING  INTERRUPTIONS  
UART_RS485_ClearRxBuffer . . . . . . . . CODE     UART_RS485  MAIN  
UART_RS485_ClearTxBuffer . . . . . . . . CODE     UART_RS485  COMMAND_PROCESSING  MAIN  
UART_RS485_Enable. . . . . . . . . . . . CODE     UART_RS485  
UART_RS485_errorStatus . . . . . . . . . XDATA    UART_RS485  UART_RS485_INT  
UART_RS485_GetByte . . . . . . . . . . . CODE     UART_RS485  
UART_RS485_GetChar . . . . . . . . . . . CODE     UART_RS485  INTERRUPTIONS  
UART_RS485_GetRxBufferSize . . . . . . . CODE     UART_RS485  INTERRUPTIONS  
UART_RS485_GetTxBufferSize . . . . . . . CODE     UART_RS485  
UART_RS485_Init. . . . . . . . . . . . . CODE     UART_RS485  MAIN  
UART_RS485_initVar . . . . . . . . . . . XDATA    UART_RS485  
UART_RS485_ReadControlRegister . . . . . CODE     UART_RS485  
UART_RS485_ReadRxData. . . . . . . . . . CODE     UART_RS485  
UART_RS485_ReadRxStatus. . . . . . . . . CODE     UART_RS485  MAIN  
UART_RS485_ReadTxStatus. . . . . . . . . CODE     UART_RS485  COMMAND_PROCESSING  
UART_RS485_rxBuffer. . . . . . . . . . . XDATA    UART_RS485  UART_RS485_INT  
LX51 LINKER/LOCATER V4.64.0.0                                                         06/15/2017  12:28:54  PAGE 103


UART_RS485_rxBufferLoopDetect. . . . . . XDATA    UART_RS485  UART_RS485_INT  
UART_RS485_rxBufferOverflow. . . . . . . XDATA    UART_RS485  UART_RS485_INT  
UART_RS485_rxBufferRead. . . . . . . . . XDATA    UART_RS485  UART_RS485_INT  
UART_RS485_rxBufferWrite . . . . . . . . XDATA    UART_RS485  UART_RS485_INT  
UART_RS485_RXISR . . . . . . . . . . . . CODE     UART_RS485_INT  UART_RS485  
UART_RS485_Start . . . . . . . . . . . . CODE     UART_RS485  MAIN  
UART_RS485_Stop. . . . . . . . . . . . . CODE     UART_RS485  MAIN  
WATCHDOG_COUNTER_Enable. . . . . . . . . CODE     WATCHDOG_COUNTER  
WATCHDOG_COUNTER_Init. . . . . . . . . . CODE     WATCHDOG_COUNTER  
WATCHDOG_COUNTER_initVar . . . . . . . . XDATA    WATCHDOG_COUNTER  
WATCHDOG_COUNTER_ReadCapture . . . . . . CODE     WATCHDOG_COUNTER  
WATCHDOG_COUNTER_ReadControlRegister . . CODE     WATCHDOG_COUNTER  
WATCHDOG_COUNTER_ReadCounter . . . . . . CODE     WATCHDOG_COUNTER  
WATCHDOG_COUNTER_ReadPeriod. . . . . . . CODE     WATCHDOG_COUNTER  
WATCHDOG_COUNTER_ReadStatusRegister. . . CODE     WATCHDOG_COUNTER  
WATCHDOG_COUNTER_Start . . . . . . . . . CODE     WATCHDOG_COUNTER  MAIN  
WATCHDOG_COUNTER_Stop. . . . . . . . . . CODE     WATCHDOG_COUNTER  
WATCHDOG_ENABLER_Read. . . . . . . . . . CODE     WATCHDOG_ENABLER  
watchdog_flag. . . . . . . . . . . . . . BIT      GLOBALS  INTERRUPTIONS  MAIN  
WATCHDOG_REFRESH_Read. . . . . . . . . . CODE     WATCHDOG_REFRESH  



*** WARNING L15: MULTIPLE CALL TO FUNCTION
    NAME:    _CHIPSELECTOR/IMU_FUNCTIONS
    CALLER1: ?C_C51STARTUP
    CALLER2: ISR_IMU_INTERRUPT/ISR_IMU

*** WARNING L15: MULTIPLE CALL TO FUNCTION
    NAME:    _READIMU/IMU_FUNCTIONS
    CALLER1: ?C_C51STARTUP
    CALLER2: ISR_IMU_INTERRUPT/ISR_IMU

*** WARNING L15: MULTIPLE CALL TO FUNCTION
    NAME:    _READACC/IMU_FUNCTIONS
    CALLER1: ?C_C51STARTUP
    CALLER2: ISR_IMU_INTERRUPT/ISR_IMU

*** WARNING L15: MULTIPLE CALL TO FUNCTION
    NAME:    _READGYRO/IMU_FUNCTIONS
    CALLER1: ?C_C51STARTUP
    CALLER2: ISR_IMU_INTERRUPT/ISR_IMU

*** WARNING L15: MULTIPLE CALL TO FUNCTION
    NAME:    _READMAG/IMU_FUNCTIONS
    CALLER1: ?C_C51STARTUP
    CALLER2: ISR_IMU_INTERRUPT/ISR_IMU

*** WARNING L15: MULTIPLE CALL TO FUNCTION
    NAME:    _READTEMP/IMU_FUNCTIONS
    CALLER1: ?C_C51STARTUP
    CALLER2: ISR_IMU_INTERRUPT/ISR_IMU

*** WARNING L25: DATA TYPES DIFFERENT
    SYMBOL:  readAllIMUs
    MODULE:  .\DP8051_Keil_951\Release\interruptions.obj (INTERRUPTIONS)
   DEFINED:  .\DP8051_Keil_951\Release\IMU_functions.obj (IMU_FUNCTIONS)

Program Size: data=35.6 xdata=4411 const=735 code=20765
LX51 RUN COMPLETE.  7 WARNING(S),  0 ERROR(S)
