LX51 LINKER/LOCATER V4.64.0.0                                                           11/29/2018  15:53:27  PAGE 1


LX51 LINKER/LOCATER V4.64.0.0, INVOKED BY:
C:\PROGRAM FILES (X86)\CYPRESS\PSOC CREATOR\4.1\PSOC CREATOR\IMPORT\KEIL\PK51\9.51\C51\BIN\LX51.EXE .\DP8051_Keil_951\Re
>> lease\command_processing.obj, .\DP8051_Keil_951\Release\globals.obj, .\DP8051_Keil_951\Release\interruptions.obj, .\D
>> P8051_Keil_951\Release\main.obj, .\DP8051_Keil_951\Release\utils.obj, .\DP8051_Keil_951\Release\IMU_functions.obj, .\
>> DP8051_Keil_951\Release\cyfitter_cfg.obj, .\DP8051_Keil_951\Release\firmware.lib, C:\Program Files (x86)\Cypress\PSoC
>>  Creator\4.1\PSoC Creator\psoc\content\cycomponentlibrary\CyComponentLibrary.cylib\DP8051\DP8051_Keil_951\Release\CyC
>> omponentLibrary.lib TO .\DP8051_Keil_951\Release\firmware.omf CODE RU RC (10) DW (16) WL (2) PR (.\DP8051_Keil_951\Re
>> lease/firmware.map) IX CL (XDATA (X:0X0000-X:0X1FFF)) CL (CODE (C:0X2600-C:0XFFBF)) CL (CONST (C:0X2600-C:0XFFBF))


CPU MODE:     8051 MODE
MEMORY MODEL: LARGE WITH FLOATING POINT ARITHMETIC


INPUT MODULES INCLUDED:
  .\DP8051_Keil_951\Release\command_processing.obj (COMMAND_PROCESSING)
         COMMENT TYPE 0: C51 V9.51
  .\DP8051_Keil_951\Release\globals.obj (GLOBALS)
         COMMENT TYPE 0: C51 V9.51
  .\DP8051_Keil_951\Release\interruptions.obj (INTERRUPTIONS)
         COMMENT TYPE 0: C51 V9.51
  .\DP8051_Keil_951\Release\main.obj (MAIN)
         COMMENT TYPE 0: C51 V9.51
  .\DP8051_Keil_951\Release\utils.obj (UTILS)
         COMMENT TYPE 0: C51 V9.51
  .\DP8051_Keil_951\Release\IMU_functions.obj (IMU_FUNCTIONS)
         COMMENT TYPE 0: C51 V9.51
  .\DP8051_Keil_951\Release\cyfitter_cfg.obj (CYFITTER_CFG)
         COMMENT TYPE 0: C51 V9.51
  .\DP8051_Keil_951\Release\firmware.lib (UART_RS485)
         COMMENT TYPE 0: C51 V9.51
  .\DP8051_Keil_951\Release\firmware.lib (ISR_RS485_RX)
         COMMENT TYPE 0: C51 V9.51
  .\DP8051_Keil_951\Release\firmware.lib (PACER_TIMER)
         COMMENT TYPE 0: C51 V9.51
  .\DP8051_Keil_951\Release\firmware.lib (CLOCK_UART)
         COMMENT TYPE 0: C51 V9.51
  .\DP8051_Keil_951\Release\firmware.lib (EEPROM)
         COMMENT TYPE 0: C51 V9.51
  .\DP8051_Keil_951\Release\firmware.lib (ADC)
         COMMENT TYPE 0: C51 V9.51
  .\DP8051_Keil_951\Release\firmware.lib (RS485_CTS)
         COMMENT TYPE 0: C51 V9.51
  .\DP8051_Keil_951\Release\firmware.lib (BOOTLOADABLE)
         COMMENT TYPE 0: C51 V9.51
  .\DP8051_Keil_951\Release\firmware.lib (FTDI_ENABLE_REG)
         COMMENT TYPE 0: C51 V9.51
  .\DP8051_Keil_951\Release\firmware.lib (RESET_FF)
         COMMENT TYPE 0: C51 V9.51
  .\DP8051_Keil_951\Release\firmware.lib (FF_STATUS)
         COMMENT TYPE 0: C51 V9.51
  .\DP8051_Keil_951\Release\firmware.lib (MY_TIMER)
         COMMENT TYPE 0: C51 V9.51
  .\DP8051_Keil_951\Release\firmware.lib (ADC_STATUS)
         COMMENT TYPE 0: C51 V9.51
  .\DP8051_Keil_951\Release\firmware.lib (DMA_DMA)
         COMMENT TYPE 0: C51 V9.51
  .\DP8051_Keil_951\Release\firmware.lib (ADC_SOC)
         COMMENT TYPE 0: C51 V9.51
  .\DP8051_Keil_951\Release\firmware.lib (CYDMAC)
         COMMENT TYPE 0: C51 V9.51
  .\DP8051_Keil_951\Release\firmware.lib (CYFLASH)
         COMMENT TYPE 0: C51 V9.51
  .\DP8051_Keil_951\Release\firmware.lib (CYLIB)
         COMMENT TYPE 0: C51 V9.51
  .\DP8051_Keil_951\Release\firmware.lib (SPI_IMU)
LX51 LINKER/LOCATER V4.64.0.0                                                         11/29/2018  15:53:27  PAGE 2


         COMMENT TYPE 0: C51 V9.51
  .\DP8051_Keil_951\Release\firmware.lib (OPTO_PIN)
         COMMENT TYPE 0: C51 V9.51
  .\DP8051_Keil_951\Release\firmware.lib (CHIP_SELECT_A)
         COMMENT TYPE 0: C51 V9.51
  .\DP8051_Keil_951\Release\firmware.lib (CHIP_SELECT_B)
         COMMENT TYPE 0: C51 V9.51
  .\DP8051_Keil_951\Release\firmware.lib (CYBOOTASMKEIL)
         COMMENT TYPE 0: AX51 V3.07d
  .\DP8051_Keil_951\Release\firmware.lib (CYMEM)
         COMMENT TYPE 0: AX51 V3.07d
  .\DP8051_Keil_951\Release\firmware.lib (?C_STARTUP)
         COMMENT TYPE 0: AX51 V3.07d
  .\DP8051_Keil_951\Release\firmware.lib (UART_RS485_INT)
         COMMENT TYPE 0: C51 V9.51
  .\DP8051_Keil_951\Release\firmware.lib (ADC_INT)
         COMMENT TYPE 0: C51 V9.51
  .\DP8051_Keil_951\Release\firmware.lib (ADC_AMUX)
         COMMENT TYPE 0: C51 V9.51
  .\DP8051_Keil_951\Release\firmware.lib (ADC_EXT_CP_CLK)
         COMMENT TYPE 0: C51 V9.51
  .\DP8051_Keil_951\Release\firmware.lib (ADC_THEACLK)
         COMMENT TYPE 0: C51 V9.51
  .\DP8051_Keil_951\Release\firmware.lib (CYPM)
         COMMENT TYPE 0: C51 V9.51
  .\DP8051_Keil_951\Release\firmware.lib (CYSPC)
         COMMENT TYPE 0: C51 V9.51
  .\DP8051_Keil_951\Release\firmware.lib (SPI_IMU_INTCLOCK)
         COMMENT TYPE 0: C51 V9.51
  C:\PROGRAM FILES (X86)\CYPRESS\PSOC CREATOR\4.1\PSOC CREATOR\IMPORT\KEIL\PK51\9.51\C51\LIB\C51FPL.LIB (?C?FPADD)
         COMMENT TYPE 1: A51 / ASM51 Assembler
  C:\PROGRAM FILES (X86)\CYPRESS\PSOC CREATOR\4.1\PSOC CREATOR\IMPORT\KEIL\PK51\9.51\C51\LIB\C51FPL.LIB (?C?FPMUL)
         COMMENT TYPE 1: A51 / ASM51 Assembler
  C:\PROGRAM FILES (X86)\CYPRESS\PSOC CREATOR\4.1\PSOC CREATOR\IMPORT\KEIL\PK51\9.51\C51\LIB\C51FPL.LIB (?C?FPDIV)
         COMMENT TYPE 1: A51 / ASM51 Assembler
  C:\PROGRAM FILES (X86)\CYPRESS\PSOC CREATOR\4.1\PSOC CREATOR\IMPORT\KEIL\PK51\9.51\C51\LIB\C51FPL.LIB (?C?FPCMP)
         COMMENT TYPE 1: A51 / ASM51 Assembler
  C:\PROGRAM FILES (X86)\CYPRESS\PSOC CREATOR\4.1\PSOC CREATOR\IMPORT\KEIL\PK51\9.51\C51\LIB\C51FPL.LIB (?C?FPNEG)
         COMMENT TYPE 1: A51 / ASM51 Assembler
  C:\PROGRAM FILES (X86)\CYPRESS\PSOC CREATOR\4.1\PSOC CREATOR\IMPORT\KEIL\PK51\9.51\C51\LIB\C51FPL.LIB (?C?FCAST)
         COMMENT TYPE 1: A51 / ASM51 Assembler
  C:\PROGRAM FILES (X86)\CYPRESS\PSOC CREATOR\4.1\PSOC CREATOR\IMPORT\KEIL\PK51\9.51\C51\LIB\C51FPL.LIB (?C?CASTF)
         COMMENT TYPE 1: A51 / ASM51 Assembler
  C:\PROGRAM FILES (X86)\CYPRESS\PSOC CREATOR\4.1\PSOC CREATOR\IMPORT\KEIL\PK51\9.51\C51\LIB\C51FPL.LIB (PRINTF)
         COMMENT TYPE 1: A51 / ASM51 Assembler
  C:\PROGRAM FILES (X86)\CYPRESS\PSOC CREATOR\4.1\PSOC CREATOR\IMPORT\KEIL\PK51\9.51\C51\LIB\C51FPL.LIB (FABS)
         COMMENT TYPE 1: A51 / ASM51 Assembler
  C:\PROGRAM FILES (X86)\CYPRESS\PSOC CREATOR\4.1\PSOC CREATOR\IMPORT\KEIL\PK51\9.51\C51\LIB\C51FPL.LIB (?C?FPGETOPN)
         COMMENT TYPE 1: A51 / ASM51 Assembler
  C:\PROGRAM FILES (X86)\CYPRESS\PSOC CREATOR\4.1\PSOC CREATOR\IMPORT\KEIL\PK51\9.51\C51\LIB\C51FPL.LIB (?C?FPROUND)
         COMMENT TYPE 1: A51 / ASM51 Assembler
  C:\PROGRAM FILES (X86)\CYPRESS\PSOC CREATOR\4.1\PSOC CREATOR\IMPORT\KEIL\PK51\9.51\C51\LIB\C51FPL.LIB (?C?FPCONVERT)
         COMMENT TYPE 1: A51 / ASM51 Assembler
  C:\PROGRAM FILES (X86)\CYPRESS\PSOC CREATOR\4.1\PSOC CREATOR\IMPORT\KEIL\PK51\9.51\C51\LIB\C51FPL.LIB (?C?FTNPWR)
         COMMENT TYPE 1: A51 / ASM51 Assembler
  C:\PROGRAM FILES (X86)\CYPRESS\PSOC CREATOR\4.1\PSOC CREATOR\IMPORT\KEIL\PK51\9.51\C51\LIB\C51L.LIB (?C_INIT)
         COMMENT TYPE 1: A51 / ASM51 Assembler
  C:\PROGRAM FILES (X86)\CYPRESS\PSOC CREATOR\4.1\PSOC CREATOR\IMPORT\KEIL\PK51\9.51\C51\LIB\C51L.LIB (?C?CLDPTR)
         COMMENT TYPE 1: A51 / ASM51 Assembler
  C:\PROGRAM FILES (X86)\CYPRESS\PSOC CREATOR\4.1\PSOC CREATOR\IMPORT\KEIL\PK51\9.51\C51\LIB\C51L.LIB (?C?CLDOPTR)
         COMMENT TYPE 1: A51 / ASM51 Assembler
  C:\PROGRAM FILES (X86)\CYPRESS\PSOC CREATOR\4.1\PSOC CREATOR\IMPORT\KEIL\PK51\9.51\C51\LIB\C51L.LIB (?C?CSTPTR)
         COMMENT TYPE 1: A51 / ASM51 Assembler
  C:\PROGRAM FILES (X86)\CYPRESS\PSOC CREATOR\4.1\PSOC CREATOR\IMPORT\KEIL\PK51\9.51\C51\LIB\C51L.LIB (?C?IMUL)
         COMMENT TYPE 1: A51 / ASM51 Assembler
LX51 LINKER/LOCATER V4.64.0.0                                                         11/29/2018  15:53:27  PAGE 3


  C:\PROGRAM FILES (X86)\CYPRESS\PSOC CREATOR\4.1\PSOC CREATOR\IMPORT\KEIL\PK51\9.51\C51\LIB\C51L.LIB (?C?ISTPTR)
         COMMENT TYPE 1: A51 / ASM51 Assembler
  C:\PROGRAM FILES (X86)\CYPRESS\PSOC CREATOR\4.1\PSOC CREATOR\IMPORT\KEIL\PK51\9.51\C51\LIB\C51L.LIB (?C?LMUL)
         COMMENT TYPE 1: A51 / ASM51 Assembler
  C:\PROGRAM FILES (X86)\CYPRESS\PSOC CREATOR\4.1\PSOC CREATOR\IMPORT\KEIL\PK51\9.51\C51\LIB\C51L.LIB (?C?ULDIV)
         COMMENT TYPE 1: A51 / ASM51 Assembler
  C:\PROGRAM FILES (X86)\CYPRESS\PSOC CREATOR\4.1\PSOC CREATOR\IMPORT\KEIL\PK51\9.51\C51\LIB\C51L.LIB (?C?SLDIV)
         COMMENT TYPE 1: A51 / ASM51 Assembler
  C:\PROGRAM FILES (X86)\CYPRESS\PSOC CREATOR\4.1\PSOC CREATOR\IMPORT\KEIL\PK51\9.51\C51\LIB\C51L.LIB (?C?LNOT)
         COMMENT TYPE 1: A51 / ASM51 Assembler
  C:\PROGRAM FILES (X86)\CYPRESS\PSOC CREATOR\4.1\PSOC CREATOR\IMPORT\KEIL\PK51\9.51\C51\LIB\C51L.LIB (?C?LNEG)
         COMMENT TYPE 1: A51 / ASM51 Assembler
  C:\PROGRAM FILES (X86)\CYPRESS\PSOC CREATOR\4.1\PSOC CREATOR\IMPORT\KEIL\PK51\9.51\C51\LIB\C51L.LIB (?C?ULCMP)
         COMMENT TYPE 1: A51 / ASM51 Assembler
  C:\PROGRAM FILES (X86)\CYPRESS\PSOC CREATOR\4.1\PSOC CREATOR\IMPORT\KEIL\PK51\9.51\C51\LIB\C51L.LIB (?C?ULSHR)
         COMMENT TYPE 1: A51 / ASM51 Assembler
  C:\PROGRAM FILES (X86)\CYPRESS\PSOC CREATOR\4.1\PSOC CREATOR\IMPORT\KEIL\PK51\9.51\C51\LIB\C51L.LIB (?C?SLSHR)
         COMMENT TYPE 1: A51 / ASM51 Assembler
  C:\PROGRAM FILES (X86)\CYPRESS\PSOC CREATOR\4.1\PSOC CREATOR\IMPORT\KEIL\PK51\9.51\C51\LIB\C51L.LIB (?C?LSHL)
         COMMENT TYPE 1: A51 / ASM51 Assembler
  C:\PROGRAM FILES (X86)\CYPRESS\PSOC CREATOR\4.1\PSOC CREATOR\IMPORT\KEIL\PK51\9.51\C51\LIB\C51L.LIB (?C?LLDPTR)
         COMMENT TYPE 1: A51 / ASM51 Assembler
  C:\PROGRAM FILES (X86)\CYPRESS\PSOC CREATOR\4.1\PSOC CREATOR\IMPORT\KEIL\PK51\9.51\C51\LIB\C51L.LIB (?C?LSTPTR)
         COMMENT TYPE 1: A51 / ASM51 Assembler
  C:\PROGRAM FILES (X86)\CYPRESS\PSOC CREATOR\4.1\PSOC CREATOR\IMPORT\KEIL\PK51\9.51\C51\LIB\C51L.LIB (?C?LSTXDATA)
         COMMENT TYPE 1: A51 / ASM51 Assembler
  C:\PROGRAM FILES (X86)\CYPRESS\PSOC CREATOR\4.1\PSOC CREATOR\IMPORT\KEIL\PK51\9.51\C51\LIB\C51L.LIB (?C?OFFX256)
         COMMENT TYPE 1: A51 / ASM51 Assembler
  C:\PROGRAM FILES (X86)\CYPRESS\PSOC CREATOR\4.1\PSOC CREATOR\IMPORT\KEIL\PK51\9.51\C51\LIB\C51L.LIB (?C?OFFXADD)
         COMMENT TYPE 1: A51 / ASM51 Assembler
  C:\PROGRAM FILES (X86)\CYPRESS\PSOC CREATOR\4.1\PSOC CREATOR\IMPORT\KEIL\PK51\9.51\C51\LIB\C51L.LIB (?C?PLDIXDATA)
         COMMENT TYPE 1: A51 / ASM51 Assembler
  C:\PROGRAM FILES (X86)\CYPRESS\PSOC CREATOR\4.1\PSOC CREATOR\IMPORT\KEIL\PK51\9.51\C51\LIB\C51L.LIB (?C?PSTXDATA)
         COMMENT TYPE 1: A51 / ASM51 Assembler
  C:\PROGRAM FILES (X86)\CYPRESS\PSOC CREATOR\4.1\PSOC CREATOR\IMPORT\KEIL\PK51\9.51\C51\LIB\C51L.LIB (?C?CCASE)
         COMMENT TYPE 1: A51 / ASM51 Assembler
  C:\PROGRAM FILES (X86)\CYPRESS\PSOC CREATOR\4.1\PSOC CREATOR\IMPORT\KEIL\PK51\9.51\C51\LIB\C51L.LIB (?C_XBP)
         COMMENT TYPE 1: A51 / ASM51 Assembler
  C:\PROGRAM FILES (X86)\CYPRESS\PSOC CREATOR\4.1\PSOC CREATOR\IMPORT\KEIL\PK51\9.51\C51\LIB\C51L.LIB (?C?ADDXBP)
         COMMENT TYPE 1: A51 / ASM51 Assembler
  C:\PROGRAM FILES (X86)\CYPRESS\PSOC CREATOR\4.1\PSOC CREATOR\IMPORT\KEIL\PK51\9.51\C51\LIB\C51L.LIB (?C?LIMUL)
         COMMENT TYPE 1: A51 / ASM51 Assembler
  C:\PROGRAM FILES (X86)\CYPRESS\PSOC CREATOR\4.1\PSOC CREATOR\IMPORT\KEIL\PK51\9.51\C51\LIB\C51L.LIB (PUTCHAR)
         COMMENT TYPE 1: A51 / ASM51 Assembler
  C:\PROGRAM FILES (X86)\CYPRESS\PSOC CREATOR\4.1\PSOC CREATOR\IMPORT\KEIL\PK51\9.51\C51\LIB\C51L.LIB (STRCAT)
         COMMENT TYPE 1: C51 Compiler
  C:\PROGRAM FILES (X86)\CYPRESS\PSOC CREATOR\4.1\PSOC CREATOR\IMPORT\KEIL\PK51\9.51\C51\LIB\C51L.LIB (STRLEN)
         COMMENT TYPE 1: A51 / ASM51 Assembler
  C:\PROGRAM FILES (X86)\CYPRESS\PSOC CREATOR\4.1\PSOC CREATOR\IMPORT\KEIL\PK51\9.51\C51\LIB\C51L.LIB (?C?MEMSET)
         COMMENT TYPE 1: A51 / ASM51 Assembler
  C:\PROGRAM FILES (X86)\CYPRESS\PSOC CREATOR\4.1\PSOC CREATOR\IMPORT\KEIL\PK51\9.51\C51\LIB\C51L.LIB (?C?COPYAMD)
         COMMENT TYPE 1: A51 / ASM51 Assembler
  C:\PROGRAM FILES (X86)\CYPRESS\PSOC CREATOR\4.1\PSOC CREATOR\IMPORT\KEIL\PK51\9.51\C51\LIB\C51L.LIB (?C?STRCPYAMD)
         COMMENT TYPE 1: A51 / ASM51 Assembler
  C:\PROGRAM FILES (X86)\CYPRESS\PSOC CREATOR\4.1\PSOC CREATOR\IMPORT\KEIL\PK51\9.51\C51\LIB\C51L.LIB (?C?IILDX)
         COMMENT TYPE 1: A51 / ASM51 Assembler
  C:\PROGRAM FILES (X86)\CYPRESS\PSOC CREATOR\4.1\PSOC CREATOR\IMPORT\KEIL\PK51\9.51\C51\LIB\C51L.LIB (?C?ILDIX)
         COMMENT TYPE 1: A51 / ASM51 Assembler
  C:\PROGRAM FILES (X86)\CYPRESS\PSOC CREATOR\4.1\PSOC CREATOR\IMPORT\KEIL\PK51\9.51\C51\LIB\C51L.LIB (?C?LLDIDATA)
         COMMENT TYPE 1: A51 / ASM51 Assembler
  C:\PROGRAM FILES (X86)\CYPRESS\PSOC CREATOR\4.1\PSOC CREATOR\IMPORT\KEIL\PK51\9.51\C51\LIB\C51L.LIB (?C?LLDXDATA)
         COMMENT TYPE 1: A51 / ASM51 Assembler
  C:\PROGRAM FILES (X86)\CYPRESS\PSOC CREATOR\4.1\PSOC CREATOR\IMPORT\KEIL\PK51\9.51\C51\LIB\C51L.LIB (?C?LLDPDATA)
         COMMENT TYPE 1: A51 / ASM51 Assembler
  C:\PROGRAM FILES (X86)\CYPRESS\PSOC CREATOR\4.1\PSOC CREATOR\IMPORT\KEIL\PK51\9.51\C51\LIB\C51L.LIB (?C?LLDCODE)
LX51 LINKER/LOCATER V4.64.0.0                                                         11/29/2018  15:53:27  PAGE 4


         COMMENT TYPE 1: A51 / ASM51 Assembler
  C:\PROGRAM FILES (X86)\CYPRESS\PSOC CREATOR\4.1\PSOC CREATOR\IMPORT\KEIL\PK51\9.51\C51\LIB\C51L.LIB (?C?LSTIDATA)
         COMMENT TYPE 1: A51 / ASM51 Assembler
  C:\PROGRAM FILES (X86)\CYPRESS\PSOC CREATOR\4.1\PSOC CREATOR\IMPORT\KEIL\PK51\9.51\C51\LIB\C51L.LIB (?C?LSTPDATA)
         COMMENT TYPE 1: A51 / ASM51 Assembler


ACTIVE MEMORY CLASSES OF MODULE:  .\DP8051_Keil_951\Release\firmware.omf (COMMAND_PROCESSING)

BASE        START       END         USED      MEMORY CLASS
==========================================================
X:000000H   X:000000H   X:001FFFH   001651H   XDATA
C:000000H   C:002600H   C:00FFBFH   0079D0H   CODE
C:000000H   C:002600H   C:00FFBFH   00068DH   CONST
I:000000H   I:000000H   I:00007FH   000027H   DATA
I:000020H.0 I:000020H.0 I:00002FH.7 000001H.3 BIT
I:000000H   I:000000H   I:0000FFH   000001H   IDATA


MEMORY MAP OF MODULE:  .\DP8051_Keil_951\Release\firmware.omf (COMMAND_PROCESSING)


START     STOP      LENGTH    ALIGN  RELOC    MEMORY CLASS   SEGMENT NAME
=========================================================================

* * * * * * * * * * *   D A T A   M E M O R Y   * * * * * * * * * * * * *
000000H   000007H   000008H   ---    AT..     DATA           "REG BANK 0"
000008H   00001EH   000017H   BYTE   UNIT     DATA           _DATA_GROUP_
00001FH.0 00001FH.7 000001H.0 ---    ---      **GAP**
000020H.0 000021H.1 000001H.2 BIT    UNIT     BIT            _BIT_GROUP_
000021H.2 000021H.2 000000H.1 BIT    UNIT     BIT            ?BI?GLOBALS
000021H.3 000021H   000000H.5 ---    ---      **GAP**
000022H   000027H   000006H   BYTE   UNIT     DATA           ?DT?INTERRUPTIONS
000028H   000029H   000002H   BYTE   UNIT     DATA           ?C?LIB_DATA
00002AH   00002AH   000001H   BYTE   UNIT     IDATA          ?STACK

* * * * * * * * * * *   C O D E   M E M O R Y   * * * * * * * * * * * * *
002600H   002619H   00001AH   ---    OFFS..   CODE           ?CO?KEILSTART?3
00261AH   0034DCH   000EC3H   BYTE   UNIT     CODE           ?PR?_GET_PARAM_LIST?COMMAND_PROCESSING
0034DDH   004259H   000D7DH   BYTE   UNIT     CODE           ?PR?_READQUAT?IMU_FUNCTIONS
00425AH   004D80H   000B27H   BYTE   UNIT     CODE           ?CO?COMMAND_PROCESSING
004D81H   00587AH   000AFAH   BYTE   UNIT     CODE           ?C?LIB_CODE
00587BH   005E0FH   000595H   BYTE   UNIT     CODE           ?PR?_INFOPREPARE?COMMAND_PROCESSING
005E10H   006292H   000483H   BYTE   UNIT     CODE           ?PR?PRINTF?PRINTF
006293H   00670DH   00047BH   BYTE   UNIT     CODE           ?PR?_INFOREADING?COMMAND_PROCESSING
00670EH   006B02H   0003F5H   BYTE   UNIT     CODE           ?PR?CMD_GET_IMU_READINGS?COMMAND_PROCESSING
006B03H   006E3DH   00033BH   BYTE   UNIT     CODE           ?PR?READALLIMUS?IMU_FUNCTIONS
006E3EH   00711BH   0002DEH   BYTE   UNIT     CODE           ?PR?INITIMUGENERAL?IMU_FUNCTIONS
00711CH   0072BCH   0001A1H   BYTE   UNIT     CODE           ?PR?_ADC_GAINCOMPENSATION?ADC
0072BDH   007446H   00018AH   BYTE   UNIT     CODE           ?PR?_V4_NORMALIZE?UTILS
007447H   00759FH   000159H   BYTE   UNIT     CODE           ?PR?CLOCKSETUP?CYFITTER_CFG
0075A0H   0076D0H   000131H   BYTE   UNIT     CODE           ?PR?_ADC_EXT_CP_CLK_SETDIVIDERREGISTER?ADC_EXT_CP_CLK
0076D1H   007800H   000130H   BYTE   UNIT     CODE           ?PR?_CLOCK_UART_SETDIVIDERREGISTER?CLOCK_UART
007801H   00792FH   00012FH   BYTE   UNIT     CODE           ?PR?_ADC_THEACLK_SETDIVIDERREGISTER?ADC_THEACLK
007930H   007A5AH   00012BH   BYTE   UNIT     CODE           ?PR?CYFITTER_CFG?CYFITTER_CFG
007A5BH   007B81H   000127H   BYTE   UNIT     CODE           ?PR?INTERRUPT_MANAGER?INTERRUPTIONS
007B82H   007CA3H   000122H   BYTE   UNIT     CODE           ?PR?_V3_NORMALIZE?UTILS
007CA4H   007DC0H   00011DH   BYTE   UNIT     CODE           ?C_C51STARTUP
007DC1H   007EDCH   00011CH   BYTE   UNIT     CODE           ?PR?_READACC?IMU_FUNCTIONS
007EDDH   007FF8H   00011CH   BYTE   UNIT     CODE           ?PR?_READGYRO?IMU_FUNCTIONS
007FF9H   00810FH   000117H   BYTE   UNIT     CODE           ?PR?_READMAG?IMU_FUNCTIONS
008110H   00820DH   0000FEH   BYTE   UNIT     CODE           ?PR?MAIN?MAIN
00820EH   0082FEH   0000F1H   BYTE   UNIT     CODE           ?PR?INITIMU?IMU_FUNCTIONS
0082FFH   0083EFH   0000F1H   BYTE   UNIT     CODE           ?PR?INITIMUMAGCAL?IMU_FUNCTIONS
0083F0H   0084DEH   0000EFH   BYTE   UNIT     CODE           ?PR?_INVSQRT?UTILS
LX51 LINKER/LOCATER V4.64.0.0                                                         11/29/2018  15:53:27  PAGE 5


0084DFH   0085C7H   0000E9H   BYTE   UNIT     CODE           ?PR?COMMPROCESS?COMMAND_PROCESSING
0085C8H   0086B0H   0000E9H   BYTE   UNIT     CODE           ?PR?CFG_DMA_INIT?CYFITTER_CFG
0086B1H   00878FH   0000DFH   BYTE   UNIT     CODE           ?PR?_EEPROM_WRITE?EEPROM
008790H   008840H   0000B1H   BYTE   UNIT     CODE           ?PR?ADC_INIT?ADC
008841H   0088F1H   0000B1H   BYTE   UNIT     CODE           ?PR?UART_RS485_RXISR?UART_RS485_INT
0088F2H   00899FH   0000AEH   BYTE   UNIT     CODE           ?PR?_MEMSTORE?COMMAND_PROCESSING
0089A0H   008A4DH   0000AEH   BYTE   UNIT     CODE           ?PR?_ADC_INITCONFIG?ADC
008A4EH   008AF6H   0000A9H   BYTE   UNIT     CODE           ?PR?_READIMU?IMU_FUNCTIONS
008AF7H   008B88H   000092H   BYTE   UNIT     CODE           ?C_INITSEG
008B89H   008C15H   00008DH   BYTE   UNIT     CODE           ?PR?_COMMWRITE?COMMAND_PROCESSING
008C16H   008C9DH   000088H   BYTE   UNIT     CODE           ?PR?ADC_ENABLE?ADC
008C9EH   008D25H   000088H   BYTE   UNIT     CODE           ?PR?_?CYDELAY?CYLIB
008D26H   008DACH   000087H   BYTE   UNIT     CODE           ?PR?_CYDMATDSETCONFIGURATION?CYDMAC
008DADH   008E30H   000084H   BYTE   UNIT     CODE           ?PR?_READMAGCAL?IMU_FUNCTIONS
008E31H   008EB1H   000081H   BYTE   UNIT     CODE           ?PR?MEMINIT?COMMAND_PROCESSING
008EB2H   008F2AH   000079H   BYTE   UNIT     CODE           ?PR?_CYDMACHSETCONFIGURATION?CYDMAC
008F2BH   008FA2H   000078H   BYTE   UNIT     CODE           ?PR?_CYDMACHSETEXTENDEDADDRESS?CYDMAC
008FA3H   00901AH   000078H   BYTE   UNIT     CODE           ?PR?_CYDMATDSETADDRESS?CYDMAC
00901BH   00908DH   000073H   BYTE   UNIT     CODE           ?PR?_CYSPCLOADROW?CYSPC
00908EH   0090F8H   00006BH   BYTE   UNIT     CODE           ?PR?_STRCAT?STRCAT
0090F9H   009158H   000060H   BYTE   UNIT     CODE           ?PR?_CYSPCREADDATA?CYSPC
009159H   0091B6H   00005EH   BYTE   UNIT     CODE           ?PR?_READTEMP?IMU_FUNCTIONS
0091B7H   009211H   00005BH   BYTE   UNIT     CODE           ?PR?UART_RS485_GETCHAR?UART_RS485
009212H   009267H   000056H   BYTE   UNIT     CODE           ?PR?CYSETTEMPINT?CYFLASH
009268H   0092BBH   000054H   BYTE   UNIT     CODE           ?PR?FUNCTION_SCHEDULER?INTERRUPTIONS
0092BCH   00930FH   000054H   BYTE   UNIT     CODE           ?PR?_CYINTSETVECTOR?CYLIB
009310H   009363H   000054H   BYTE   UNIT     CODE           ?PR?_CYSPCWRITEROW?CYSPC
009364H   0093B3H   000050H   BYTE   UNIT     CODE           ?PR?CYFLASHGETSPCALGORITHM?CYFLASH
0093B4H   009402H   00004FH   BYTE   UNIT     CODE           ?PR?UART_RS485_GETRXBUFFERSIZE?UART_RS485
009403H   00944FH   00004DH   BYTE   UNIT     CODE           ?PR?MEMRECALL?COMMAND_PROCESSING
009450H   00949AH   00004BH   BYTE   UNIT     CODE           ?PR?_CYDMACHENABLE?CYDMAC
00949BH   0094E4H   00004AH   BYTE   UNIT     CODE           ?PR?_DMA_DMAINITIALIZE?DMA_DMA
0094E5H   00952DH   000049H   BYTE   UNIT     CODE           ?PR?_CHIPSELECTOR?IMU_FUNCTIONS
00952EH   009575H   000048H   BYTE   UNIT     CODE           ?PR?MEMRESTORE?COMMAND_PROCESSING
009576H   0095B9H   000044H   BYTE   UNIT     CODE           ?C?LDIV
0095BAH   0095FAH   000041H   BYTE   UNIT     CODE           ?PR?CMD_GET_SENSORS?COMMAND_PROCESSING
0095FBH   00963AH   000040H   BYTE   UNIT     CODE           ?PR?_CYDMACHPRIORITY?CYDMAC
00963BH   009678H   00003EH   BYTE   UNIT     CODE           ?PR?CYDMATDALLOCATE?CYDMAC
009679H   0096B5H   00003DH   BYTE   UNIT     CODE           ?PR?_ADC_SETDSMREF0REG?ADC
0096B6H   0096F1H   00003CH   BYTE   UNIT     CODE           ?PR?PACER_TIMER_INIT?PACER_TIMER
0096F2H   0096FFH   00000EH   BYTE   UNIT     CODE           ?PR?_ISR_RS485_RX_SETVECTOR?ISR_RS485_RX
009700H   00973AH   00003BH   PAGE   UNIT     CODE           ?PR?CYDELAYCYCLES?CYBOOTASMKEIL
00973BH   009771H   000037H   BYTE   UNIT     CODE           ?PR?ANALOG_READ_END?INTERRUPTIONS
009772H   0097A7H   000036H   BYTE   UNIT     CODE           ?PR?CYDMACCONFIGURE?CYDMAC
0097A8H   0097DBH   000034H   BYTE   UNIT     CODE           ?PR?_UART_RS485_PUTSTRING?UART_RS485
0097DCH   00980FH   000034H   BYTE   UNIT     CODE           ?PR?_CYCONFIGCPY?CYMEM
009810H   009842H   000033H   BYTE   UNIT     CODE           ?PR?ANALOGSETDEFAULT?CYFITTER_CFG
009843H   009875H   000033H   BYTE   UNIT     CODE           ?PR?UART_RS485_INIT?UART_RS485
009876H   0098A7H   000032H   BYTE   UNIT     CODE           ?PR?_LCRCHECKSUM?COMMAND_PROCESSING
0098A8H   0098D8H   000031H   BYTE   UNIT     CODE           ?PR?_ADC_AMUX_UNSET?CYFITTER_CFG
0098D9H   009909H   000031H   BYTE   UNIT     CODE           ?PR?CYEEPROM_START?CYFLASH
00990AH   009939H   000030H   BYTE   UNIT     CODE           ?PR?_INFOGET?COMMAND_PROCESSING
00993AH   009969H   000030H   BYTE   UNIT     CODE           ?PR?_WRITECONTROLREGISTER?IMU_FUNCTIONS
00996AH   009999H   000030H   BYTE   UNIT     CODE           ?PR?_ADC_AMUX_SET?CYFITTER_CFG
00999AH   0099C8H   00002FH   BYTE   UNIT     CODE           ?PR?UART_RS485_CLEARRXBUFFER?UART_RS485
0099C9H   0099F6H   00002EH   BYTE   UNIT     CODE           ?PR?_CYSPCGETTEMP?CYSPC
0099F7H   0099F7H   000001H   BYTE   UNIT     CODE           ?PR?ISR_RS485_RX_INTERRUPT?ISR_RS485_RX
0099F8H   009A24H   00002DH   DWORD  UNIT     CODE           ?PR?CYDELAYUS?CYBOOTASMKEIL
009A25H   009A50H   00002CH   BYTE   UNIT     CODE           ?PR?MY_TIMER_INIT?MY_TIMER
009A51H   009A77H   000027H   BYTE   UNIT     CODE           ?PR?PUTCHAR?PUTCHAR
009A78H   009A9DH   000026H   BYTE   UNIT     CODE           ?PR?CYCONFIGCPYCODE?CYMEM
009A9EH   009AC2H   000025H   BYTE   UNIT     CODE           ?PR?SPI_IMU_ENABLE?SPI_IMU
009AC3H   009AE4H   000022H   BYTE   UNIT     CODE           ?PR?UART_RS485_ENABLE?UART_RS485
009AE5H   009B06H   000022H   BYTE   UNIT     CODE           ?PR?UART_RS485_STOP?UART_RS485
009B07H   009B27H   000021H   BYTE   UNIT     CODE           ?PR?ADC_AMUX_START?ADC_AMUX
LX51 LINKER/LOCATER V4.64.0.0                                                         11/29/2018  15:53:27  PAGE 6


009B28H   009B47H   000020H   BYTE   UNIT     CODE           ?PR?CMD_SET_BAUDRATE?COMMAND_PROCESSING
009B48H   009B67H   000020H   BYTE   UNIT     CODE           ?PR?SPI_IMU_CLEARFIFO?SPI_IMU
009B68H   009B86H   00001FH   BYTE   UNIT     CODE           ?PR?_ISR_RS485_RX_STARTEX?ISR_RS485_RX
009B87H   009BA5H   00001FH   BYTE   UNIT     CODE           ?PR?CYSPCLOCK?CYSPC
009BA6H   009BC3H   00001EH   BYTE   UNIT     CODE           ?PR?_CYDMACHSETINITIALTD?CYDMAC
009BC4H   009BDEH   00001BH   BYTE   UNIT     CODE           ?PR?SPI_DELAY?IMU_FUNCTIONS
009BDFH   009BF9H   00001BH   BYTE   UNIT     CODE           ?PR?CYSPCGETALGORITHM?CYSPC
009BFAH   009C12H   000019H   BYTE   UNIT     CODE           ?PR?ADC_START?ADC
009C13H   009C2BH   000019H   BYTE   UNIT     CODE           ?PR?_CYINTSETPRIORITY?CYLIB
009C2CH   009C44H   000019H   BYTE   UNIT     CODE           ?PR?SPI_IMU_INIT?SPI_IMU
009C45H   009C5DH   000019H   BYTE   UNIT     CODE           ?PR?_ADC_AMUX_SELECT?ADC_AMUX
009C5EH   009C75H   000018H   BYTE   UNIT     CODE           ?PR?CYSETTEMP?CYFLASH
009C76H   009C8DH   000018H   BYTE   UNIT     CODE           ?PR?CYEXITCRITICALSECTION?CYBOOTASMKEIL
009C8EH   009CA4H   000017H   BYTE   UNIT     CODE           ?PR?_READCONTROLREGISTER?IMU_FUNCTIONS
009CA5H   009CBAH   000016H   BYTE   UNIT     CODE           ?PR?PACER_TIMER_ENABLE?PACER_TIMER
009CBBH   009CCFH   000015H   BYTE   UNIT     CODE           ?PR?_SENDACKNOWLEDGMENT?COMMAND_PROCESSING
009CD0H   009CE4H   000015H   BYTE   UNIT     CODE           ?PR?CMD_STORE_PARAMS?COMMAND_PROCESSING
009CE5H   009CF9H   000015H   BYTE   UNIT     CODE           ?PR?CYENTERCRITICALSECTION?CYBOOTASMKEIL
009CFAH   009D0EH   000015H   BYTE   UNIT     CODE           ?PR?CYSPCSTART?CYSPC
009D0FH   009D23H   000015H   BYTE   UNIT     CODE           ?PR?_STRLEN?STRLEN
009D24H   009D37H   000014H   BYTE   UNIT     CODE           ?PR?CMD_PING?COMMAND_PROCESSING
009D38H   009D4BH   000014H   BYTE   UNIT     CODE           ?PR?UART_RS485_READRXSTATUS?UART_RS485
009D4CH   009D5EH   000013H   BYTE   UNIT     CODE           ?PR?UART_RS485_START?UART_RS485
009D5FH   009D71H   000013H   BYTE   UNIT     CODE           ?PR?PACER_TIMER_START?PACER_TIMER
009D72H   009D84H   000013H   BYTE   UNIT     CODE           ?PR?MY_TIMER_START?MY_TIMER
009D85H   009D97H   000013H   BYTE   UNIT     CODE           ?PR?SPI_IMU_START?SPI_IMU
009D98H   009DAAH   000013H   BYTE   UNIT     CODE           ?PR?CYREAD24?CYMEM
009DABH   009DBCH   000012H   BYTE   UNIT     CODE           ?PR?UART_RS485_CLEARTXBUFFER?UART_RS485
009DBDH   009DCEH   000012H   BYTE   UNIT     CODE           ?PR?SPI_IMU_CLEARTXBUFFER?SPI_IMU
009DCFH   009DE0H   000012H   BYTE   UNIT     CODE           ?PR?CYWRITE24?CYMEM
009DE1H   009DF0H   000010H   BYTE   UNIT     CODE           ?PR?_OPTO_PIN_WRITE?OPTO_PIN
009DF1H   009DFFH   00000FH   BYTE   UNIT     CODE           ?PR?MY_TIMER_READCOUNTER?MY_TIMER
009E00H   009E0EH   00000FH   BYTE   UNIT     CODE           ?PR?SPI_IMU_CLEARRXBUFFER?SPI_IMU
009E0FH   009E1DH   00000FH   BYTE   UNIT     CODE           ?PR?SPI_IMU_READSTATUS?SPI_IMU
009E1EH   009E2CH   00000FH   BYTE   UNIT     CODE           ?PR?CYREAD16?CYMEM
009E2DH   009E3BH   00000FH   BYTE   UNIT     CODE           ?PR?CYWRITE16?CYMEM
009E3CH   009E4AH   00000FH   BYTE   UNIT     CODE           ?PR?SPI_IMU_INTCLOCK_START?SPI_IMU_INTCLOCK
009E4BH   009E58H   00000EH   BYTE   UNIT     CODE           ?PR?_PACER_TIMER_WRITEPERIOD?PACER_TIMER
009E59H   009E66H   00000EH   BYTE   UNIT     CODE           ?PR?_PACER_TIMER_WRITECOUNTER?PACER_TIMER
009E67H   009E73H   00000DH   BYTE   UNIT     CODE           ?PR?_UART_RS485_PUTCHAR?UART_RS485
009E74H   009E80H   00000DH   BYTE   UNIT     CODE           ?PR?MY_TIMER_CLEARFIFO?MY_TIMER
009E81H   009E8DH   00000DH   BYTE   UNIT     CODE           ?PR?_SPI_IMU_WRITETXDATA?SPI_IMU
009E8EH   009E9AH   00000DH   BYTE   UNIT     CODE           ?PR?_ADC_EXT_CP_CLK_SETMODEREGISTER?ADC_EXT_CP_CLK
009E9BH   009EA7H   00000DH   BYTE   UNIT     CODE           ?PR?_ADC_THEACLK_SETMODEREGISTER?ADC_THEACLK
009EA8H   009EB4H   00000DH   BYTE   UNIT     CODE           ?PR?_FABS?FABS
009EB5H   009EC0H   00000CH   BYTE   UNIT     CODE           ?PR?CYREAD8?CYMEM
009EC1H   009ECCH   00000CH   BYTE   UNIT     CODE           ?PR?CYWRITE8?CYMEM
009ECDH   009ED8H   00000CH   BYTE   UNIT     CODE           ?PR?CYSPCUNLOCK?CYSPC
009ED9H   009EE2H   00000AH   BYTE   UNIT     CODE           ?PR?_ISR_RS485_RX_SETPRIORITY?ISR_RS485_RX
009EE3H   009EECH   00000AH   BYTE   UNIT     CODE           ?PR?CLOCK_UART_GETDIVIDERREGISTER?CLOCK_UART
009EEDH   009EF6H   00000AH   BYTE   UNIT     CODE           ?PR?BOOTLOADABLE_LOAD?BOOTLOADABLE
009EF7H   009F00H   00000AH   BYTE   UNIT     CODE           ?PR?_MY_TIMER_WRITEPERIOD?MY_TIMER
009F01H   009F0AH   00000AH   BYTE   UNIT     CODE           ?PR?MY_TIMER_READCAPTURE?MY_TIMER
009F0BH   009F14H   00000AH   BYTE   UNIT     CODE           ?PR?_MY_TIMER_WRITECOUNTER?MY_TIMER
009F15H   009F1EH   00000AH   BYTE   UNIT     CODE           ?PR?ADC_EXT_CP_CLK_GETDIVIDERREGISTER?ADC_EXT_CP_CLK
009F1FH   009F28H   00000AH   BYTE   UNIT     CODE           ?PR?ADC_THEACLK_GETDIVIDERREGISTER?ADC_THEACLK
009F29H   009F30H   000008H   BYTE   UNIT     CODE           ?PR?CLOCK_UART_GETSOURCEREGISTER?CLOCK_UART
009F31H   009F38H   000008H   BYTE   UNIT     CODE           ?PR?MY_TIMER_ENABLE?MY_TIMER
009F39H   009F40H   000008H   BYTE   UNIT     CODE           ?PR?CYSOFTWARERESET?CYLIB
009F41H   009F48H   000008H   BYTE   UNIT     CODE           ?PR?ADC_EXT_CP_CLK_GETSOURCEREGISTER?ADC_EXT_CP_CLK
009F49H   009F50H   000008H   BYTE   UNIT     CODE           ?PR?ADC_THEACLK_GETSOURCEREGISTER?ADC_THEACLK
009F51H   009F57H   000007H   BYTE   UNIT     CODE           ?PR?ISR_RS485_RX_ENABLE?ISR_RS485_RX
009F58H   009F5EH   000007H   BYTE   UNIT     CODE           ?PR?ISR_RS485_RX_DISABLE?ISR_RS485_RX
009F5FH   009F65H   000007H   BYTE   UNIT     CODE           ?PR?EEPROM_ENABLE?EEPROM
009F66H   009F6BH   000006H   BYTE   UNIT     CODE           ?PR?UART_RS485_READTXSTATUS?UART_RS485
LX51 LINKER/LOCATER V4.64.0.0                                                         11/29/2018  15:53:27  PAGE 7


009F6CH   009F71H   000006H   BYTE   UNIT     CODE           ?PR?_PACER_TIMER_SETINTERRUPTMODE?PACER_TIMER
009F72H   009F77H   000006H   BYTE   UNIT     CODE           ?PR?_RS485_CTS_WRITE?RS485_CTS
009F78H   009F7DH   000006H   BYTE   UNIT     CODE           ?PR?_FTDI_ENABLE_REG_WRITE?FTDI_ENABLE_REG
009F7EH   009F83H   000006H   BYTE   UNIT     CODE           ?PR?_RESET_FF_WRITE?RESET_FF
009F84H   009F89H   000006H   BYTE   UNIT     CODE           ?PR?FF_STATUS_READ?FF_STATUS
009F8AH   009F8FH   000006H   BYTE   UNIT     CODE           ?PR?_MY_TIMER_SETINTERRUPTMODE?MY_TIMER
009F90H   009F95H   000006H   BYTE   UNIT     CODE           ?PR?MY_TIMER_READSTATUSREGISTER?MY_TIMER
009F96H   009F9BH   000006H   BYTE   UNIT     CODE           ?PR?ADC_STATUS_READ?ADC_STATUS
009F9CH   009FA1H   000006H   BYTE   UNIT     CODE           ?PR?_ADC_SOC_WRITE?ADC_SOC
009FA2H   009FA7H   000006H   BYTE   UNIT     CODE           ?PR?SPI_IMU_READTXSTATUS?SPI_IMU
009FA8H   009FADH   000006H   BYTE   UNIT     CODE           ?PR?SPI_IMU_READRXSTATUS?SPI_IMU
009FAEH   009FB3H   000006H   BYTE   UNIT     CODE           ?PR?SPI_IMU_READRXDATA?SPI_IMU
009FB4H   009FB9H   000006H   BYTE   UNIT     CODE           ?PR?_CHIP_SELECT_A_WRITE?CHIP_SELECT_A
009FBAH   009FBFH   000006H   BYTE   UNIT     CODE           ?PR?_CHIP_SELECT_B_WRITE?CHIP_SELECT_B
009FC0H   009FC3H   000004H   BYTE   UNIT     CODE           ?PR?EEPROM_START?EEPROM
009FC4H   009FC6H   000003H   BYTE   UNIT     CODE           ?PR?ISR_RS485_RX_EXINTERRUPT?INTERRUPTIONS
009FC7H   009FC9H   000003H   BYTE   UNIT     CODE           ?PR?_CYCLOCKSTARTUPERROR?CYFITTER_CFG
009FCAH   009FCAH   000001H   BYTE   UNIT     CODE           ?PR?SPI_IMU_ENABLETXINT?SPI_IMU
009FCBH   009FCBH   000001H   BYTE   UNIT     CODE           ?PR?SPI_IMU_ENABLERXINT?SPI_IMU
009FCCH   009FCCH   000001H   BYTE   UNIT     CODE           ?PR?ADC_ISR1?ADC_INT
009FCDH   009FCDH   000001H   BYTE   UNIT     CODE           ?PR?ADC_ISR2?ADC_INT
009FCEH   009FCEH   000001H   BYTE   UNIT     CODE           ?PR?ADC_ISR3?ADC_INT
009FCFH   009FCFH   000001H   BYTE   UNIT     CODE           ?PR?ADC_ISR4?ADC_INT
009FD0H   00A65CH   00068DH   BYTE   UNIT     CONST          ?CO?CYFITTER_CFG

* * * * * * * * * * *  X D A T A   M E M O R Y  * * * * * * * * * * * * *
000000H   0008DFH   0008E0H   BYTE   UNIT     XDATA          _XDATA_GROUP_
0008E0H   0010E1H   000802H   BYTE   UNIT     XDATA          ?XD?GLOBALS
0010E2H   00152FH   00044EH   BYTE   UNIT     XDATA          ?XD?COMMAND_PROCESSING
001530H   0015AFH   000080H   BYTE   UNIT     XDATA          ?XD?INTERRUPTIONS
0015B0H   0015F2H   000043H   BYTE   UNIT     XDATA          ?XD?CYPM
0015F3H   001619H   000027H   BYTE   UNIT     XDATA          ?XD?UART_RS485
00161AH   001629H   000010H   BYTE   UNIT     XDATA          ?XD?ADC
00162AH   001638H   00000FH   BYTE   UNIT     XDATA          ?XD?CYLIB
001639H   00163EH   000006H   BYTE   UNIT     XDATA          ?XD?CYDMAC
00163FH   001643H   000005H   BYTE   UNIT     XDATA          ?XD?CYFLASH
001644H   001647H   000004H   BYTE   UNIT     XDATA          ?XD?CYFITTER_CFG
001648H   00164AH   000003H   BYTE   UNIT     XDATA          ?XD?SPI_IMU
00164BH   00164BH   000001H   BYTE   UNIT     XDATA          ?XD?IMU_FUNCTIONS
00164CH   00164CH   000001H   BYTE   UNIT     XDATA          ?XD?PACER_TIMER
00164DH   00164DH   000001H   BYTE   UNIT     XDATA          ?XD?MY_TIMER
00164EH   00164EH   000001H   BYTE   UNIT     XDATA          ?XD?DMA_DMA
00164FH   00164FH   000001H   BYTE   UNIT     XDATA          ?XD?ADC_AMUX
001650H   001650H   000001H   BYTE   UNIT     XDATA          ?XD?CYSPC

* * * * * * * * *   R E M O V E D     S E G M E N T S   * * * * * * * *
   *DEL*:           000013H   BYTE   UNIT     CODE           ?PR?INFOSEND?COMMAND_PROCESSING
   *DEL*:           00044CH   BYTE   UNIT     XDATA          ?XD?INFOSEND?COMMAND_PROCESSING
   *DEL*:           000029H   BYTE   UNIT     CODE           ?PR?IMUSRESET?IMU_FUNCTIONS
   *DEL*:           00001AH   BYTE   UNIT     CODE           ?PR?_SETANALOGROUTINGPUMPS?CYFITTER_CFG
   *DEL*:           000003H   BYTE   UNIT     CODE           ?PR?UART_RS485_READCONTROLREGISTER?UART_RS485
   *DEL*:           000006H   BYTE   UNIT     CODE           ?PR?_UART_RS485_WRITECONTROLREGISTER?UART_RS485
   *DEL*:           000001H   BYTE   UNIT     XDATA          ?XD?_UART_RS485_WRITECONTROLREGISTER?UART_RS485
   *DEL*:           000006H   BYTE   UNIT     CODE           ?PR?_UART_RS485_SETRXINTERRUPTMODE?UART_RS485
   *DEL*:           00004AH   BYTE   UNIT     CODE           ?PR?UART_RS485_READRXDATA?UART_RS485
   *DEL*:           00001FH   BYTE   UNIT     CODE           ?PR?UART_RS485_GETBYTE?UART_RS485
   *DEL*:           000006H   BYTE   UNIT     CODE           ?PR?_UART_RS485_SETRXADDRESSMODE?UART_RS485
   *DEL*:           000001H   BYTE   UNIT     XDATA          ?XD?_UART_RS485_SETRXADDRESSMODE?UART_RS485
   *DEL*:           000006H   BYTE   UNIT     CODE           ?PR?_UART_RS485_SETRXADDRESS1?UART_RS485
   *DEL*:           000006H   BYTE   UNIT     CODE           ?PR?_UART_RS485_SETRXADDRESS2?UART_RS485
   *DEL*:           000006H   BYTE   UNIT     CODE           ?PR?_UART_RS485_SETTXINTERRUPTMODE?UART_RS485
   *DEL*:           00000CH   BYTE   UNIT     CODE           ?PR?_UART_RS485_WRITETXDATA?UART_RS485
   *DEL*:           000032H   BYTE   UNIT     CODE           ?PR?_UART_RS485_PUTARRAY?UART_RS485
   *DEL*:           000003H   BYTE   UNIT     XDATA          ?XD?_UART_RS485_PUTARRAY?UART_RS485
   *DEL*:           000014H   BYTE   UNIT     CODE           ?PR?_UART_RS485_PUTCRLF?UART_RS485
LX51 LINKER/LOCATER V4.64.0.0                                                         11/29/2018  15:53:27  PAGE 8


   *DEL*:           000017H   BYTE   UNIT     CODE           ?PR?UART_RS485_GETTXBUFFERSIZE?UART_RS485
   *DEL*:           000059H   BYTE   UNIT     CODE           ?PR?_UART_RS485_SENDBREAK?UART_RS485
   *DEL*:           000001H   BYTE   UNIT     XDATA          ?XD?_UART_RS485_SENDBREAK?UART_RS485
   *DEL*:           000006H   BYTE   UNIT     CODE           ?PR?_UART_RS485_SETTXADDRESSMODE?UART_RS485
   *DEL*:           000001H   BYTE   UNIT     XDATA          ?XD?_UART_RS485_SETTXADDRESSMODE?UART_RS485
   *DEL*:           000013H   BYTE   UNIT     CODE           ?PR?ISR_RS485_RX_START?ISR_RS485_RX
   *DEL*:           000004H   BYTE   UNIT     CODE           ?PR?ISR_RS485_RX_STOP?ISR_RS485_RX
   *DEL*:           00000AH   BYTE   UNIT     CODE           ?PR?ISR_RS485_RX_GETVECTOR?ISR_RS485_RX
   *DEL*:           00000BH   BYTE   UNIT     CODE           ?PR?ISR_RS485_RX_GETPRIORITY?ISR_RS485_RX
   *DEL*:           00000EH   BYTE   UNIT     CODE           ?PR?ISR_RS485_RX_GETSTATE?ISR_RS485_RX
   *DEL*:           000007H   BYTE   UNIT     CODE           ?PR?ISR_RS485_RX_SETPENDING?ISR_RS485_RX
   *DEL*:           000007H   BYTE   UNIT     CODE           ?PR?ISR_RS485_RX_CLEARPENDING?ISR_RS485_RX
   *DEL*:           000016H   BYTE   UNIT     CODE           ?PR?PACER_TIMER_STOP?PACER_TIMER
   *DEL*:           00000AH   BYTE   UNIT     CODE           ?PR?PACER_TIMER_SOFTWARECAPTURE?PACER_TIMER
   *DEL*:           000006H   BYTE   UNIT     CODE           ?PR?PACER_TIMER_READSTATUSREGISTER?PACER_TIMER
   *DEL*:           000006H   BYTE   UNIT     CODE           ?PR?PACER_TIMER_READCONTROLREGISTER?PACER_TIMER
   *DEL*:           000006H   BYTE   UNIT     CODE           ?PR?_PACER_TIMER_WRITECONTROLREGISTER?PACER_TIMER
   *DEL*:           00000AH   BYTE   UNIT     CODE           ?PR?PACER_TIMER_READPERIOD?PACER_TIMER
   *DEL*:           00000AH   BYTE   UNIT     CODE           ?PR?PACER_TIMER_READCAPTURE?PACER_TIMER
   *DEL*:           000013H   BYTE   UNIT     CODE           ?PR?PACER_TIMER_READCOUNTER?PACER_TIMER
   *DEL*:           00000FH   BYTE   UNIT     CODE           ?PR?CLOCK_UART_START?CLOCK_UART
   *DEL*:           00000FH   BYTE   UNIT     CODE           ?PR?CLOCK_UART_STOP?CLOCK_UART
   *DEL*:           00006DH   BYTE   UNIT     CODE           ?PR?CLOCK_UART_STOPBLOCK?CLOCK_UART
   *DEL*:           000002H   BYTE   UNIT     XDATA          ?XD?CLOCK_UART_STOPBLOCK?CLOCK_UART
   *DEL*:           000013H   BYTE   UNIT     CODE           ?PR?_CLOCK_UART_STANDBYPOWER?CLOCK_UART
   *DEL*:           00000DH   BYTE   UNIT     CODE           ?PR?_CLOCK_UART_SETMODEREGISTER?CLOCK_UART
   *DEL*:           00000EH   BYTE   UNIT     CODE           ?PR?_CLOCK_UART_CLEARMODEREGISTER?CLOCK_UART
   *DEL*:           000008H   BYTE   UNIT     CODE           ?PR?CLOCK_UART_GETMODEREGISTER?CLOCK_UART
   *DEL*:           000062H   BYTE   UNIT     CODE           ?PR?_CLOCK_UART_SETSOURCEREGISTER?CLOCK_UART
   *DEL*:           000003H   BYTE   UNIT     XDATA          ?XD?_CLOCK_UART_SETSOURCEREGISTER?CLOCK_UART
   *DEL*:           000004H   BYTE   UNIT     CODE           ?PR?EEPROM_STOP?EEPROM
   *DEL*:           000124H   BYTE   UNIT     CODE           ?PR?_EEPROM_WRITEBYTE?EEPROM
   *DEL*:           000008H   BYTE   UNIT     XDATA          ?XD?_EEPROM_WRITEBYTE?EEPROM
   *DEL*:           00003AH   BYTE   UNIT     CODE           ?PR?_EEPROM_READBYTE?EEPROM
   *DEL*:           000004H   BYTE   UNIT     XDATA          ?XD?_EEPROM_READBYTE?EEPROM
   *DEL*:           000004H   BYTE   UNIT     CODE           ?PR?EEPROM_UPDATETEMPERATURE?EEPROM
   *DEL*:           00006FH   BYTE   UNIT     CODE           ?PR?_EEPROM_ERASESECTOR?EEPROM
   *DEL*:           000002H   BYTE   UNIT     XDATA          ?XD?_EEPROM_ERASESECTOR?EEPROM
   *DEL*:           0000B9H   BYTE   UNIT     CODE           ?PR?_EEPROM_STARTWRITE?EEPROM
   *DEL*:           000005H   BYTE   UNIT     XDATA          ?XD?_EEPROM_STARTWRITE?EEPROM
   *DEL*:           000046H   BYTE   UNIT     CODE           ?PR?_EEPROM_STARTERASE?EEPROM
   *DEL*:           000002H   BYTE   UNIT     XDATA          ?XD?_EEPROM_STARTERASE?EEPROM
   *DEL*:           00003BH   BYTE   UNIT     CODE           ?PR?EEPROM_QUERY?EEPROM
   *DEL*:           000001H   BYTE   UNIT     XDATA          ?XD?EEPROM_QUERY?EEPROM
   *DEL*:           0000E5H   BYTE   UNIT     CODE           ?PR?_EEPROM_BYTEWRITEPOS?EEPROM
   *DEL*:           000004H   BYTE   UNIT     XDATA          ?XD?_EEPROM_BYTEWRITEPOS?EEPROM
   *DEL*:           000088H   BYTE   UNIT     CODE           ?PR?ADC_STOP?ADC
   *DEL*:           000001H   BYTE   UNIT     XDATA          ?XD?ADC_STOP?ADC
   *DEL*:           000012H   BYTE   UNIT     CODE           ?PR?_ADC_SETBUFFERGAIN?ADC
   *DEL*:           00000EH   BYTE   UNIT     CODE           ?PR?_ADC_SETCOHERENCY?ADC
   *DEL*:           0000F2H   BYTE   UNIT     CODE           ?PR?_ADC_SETGCOR?ADC
   *DEL*:           00000BH   BYTE   UNIT     XDATA          ?XD?_ADC_SETGCOR?ADC
   *DEL*:           000039H   BYTE   UNIT     CODE           ?PR?ADC_READGCOR?ADC
   *DEL*:           000001H   BYTE   UNIT     XDATA          ?XD?ADC_READGCOR?ADC
   *DEL*:           000008H   BYTE   UNIT     CODE           ?PR?ADC_STARTCONVERT?ADC
   *DEL*:           000008H   BYTE   UNIT     CODE           ?PR?ADC_STOPCONVERT?ADC
   *DEL*:           00001FH   BYTE   UNIT     CODE           ?PR?_ADC_ISENDCONVERSION?ADC
   *DEL*:           00002CH   BYTE   UNIT     CODE           ?PR?ADC_GETRESULT8?ADC
   *DEL*:           000060H   BYTE   UNIT     CODE           ?PR?ADC_GETRESULT16?ADC
   *DEL*:           000003H   BYTE   UNIT     XDATA          ?XD?ADC_GETRESULT16?ADC
   *DEL*:           0001B4H   BYTE   UNIT     CODE           ?PR?ADC_GETRESULT32?ADC
   *DEL*:           000007H   BYTE   UNIT     XDATA          ?XD?ADC_GETRESULT32?ADC
   *DEL*:           000007H   BYTE   UNIT     CODE           ?PR?_ADC_SETOFFSET?ADC
   *DEL*:           000007H   BYTE   UNIT     CODE           ?PR?_ADC_SETGAIN?ADC
   *DEL*:           00005FH   BYTE   UNIT     CODE           ?PR?_ADC_COUNTSTO_MVOLTS?ADC
LX51 LINKER/LOCATER V4.64.0.0                                                         11/29/2018  15:53:27  PAGE 9


   *DEL*:           000004H   BYTE   UNIT     XDATA          ?XD?_ADC_COUNTSTO_MVOLTS?ADC
   *DEL*:           00006DH   BYTE   UNIT     CODE           ?PR?_ADC_COUNTSTO_VOLTS?ADC
   *DEL*:           000004H   BYTE   UNIT     XDATA          ?XD?_ADC_COUNTSTO_VOLTS?ADC
   *DEL*:           000137H   BYTE   UNIT     CODE           ?PR?_ADC_COUNTSTO_UVOLTS?ADC
   *DEL*:           00000DH   BYTE   UNIT     XDATA          ?XD?_ADC_COUNTSTO_UVOLTS?ADC
   *DEL*:           000072H   BYTE   UNIT     CODE           ?PR?_ADC_SELECTCONFIGURATION?ADC
   *DEL*:           000002H   BYTE   UNIT     XDATA          ?XD?_ADC_SELECTCONFIGURATION?ADC
   *DEL*:           000016H   BYTE   UNIT     CODE           ?PR?ADC_READ8?ADC
   *DEL*:           000016H   BYTE   UNIT     CODE           ?PR?ADC_READ16?ADC
   *DEL*:           000016H   BYTE   UNIT     CODE           ?PR?ADC_READ32?ADC
   *DEL*:           000006H   BYTE   UNIT     CODE           ?PR?RS485_CTS_READ?RS485_CTS
   *DEL*:           0000FBH   BYTE   UNIT     CODE           ?PR?_BOOTLOADABLE_SETFLASHBYTE?BOOTLOADABLE
   *DEL*:           000110H   BYTE   UNIT     XDATA          ?XD?_BOOTLOADABLE_SETFLASHBYTE?BOOTLOADABLE
   *DEL*:           000006H   BYTE   UNIT     CODE           ?PR?FTDI_ENABLE_REG_READ?FTDI_ENABLE_REG
   *DEL*:           000006H   BYTE   UNIT     CODE           ?PR?RESET_FF_READ?RESET_FF
   *DEL*:           00000EH   BYTE   UNIT     CODE           ?PR?FF_STATUS_INTERRUPTENABLE?FF_STATUS
   *DEL*:           00000EH   BYTE   UNIT     CODE           ?PR?FF_STATUS_INTERRUPTDISABLE?FF_STATUS
   *DEL*:           000009H   BYTE   UNIT     CODE           ?PR?_FF_STATUS_WRITEMASK?FF_STATUS
   *DEL*:           000006H   BYTE   UNIT     CODE           ?PR?FF_STATUS_READMASK?FF_STATUS
   *DEL*:           000008H   BYTE   UNIT     CODE           ?PR?MY_TIMER_STOP?MY_TIMER
   *DEL*:           000006H   BYTE   UNIT     CODE           ?PR?MY_TIMER_SOFTWARECAPTURE?MY_TIMER
   *DEL*:           000006H   BYTE   UNIT     CODE           ?PR?MY_TIMER_READCONTROLREGISTER?MY_TIMER
   *DEL*:           000006H   BYTE   UNIT     CODE           ?PR?_MY_TIMER_WRITECONTROLREGISTER?MY_TIMER
   *DEL*:           00000AH   BYTE   UNIT     CODE           ?PR?MY_TIMER_READPERIOD?MY_TIMER
   *DEL*:           00000EH   BYTE   UNIT     CODE           ?PR?ADC_STATUS_INTERRUPTENABLE?ADC_STATUS
   *DEL*:           00000EH   BYTE   UNIT     CODE           ?PR?ADC_STATUS_INTERRUPTDISABLE?ADC_STATUS
   *DEL*:           000009H   BYTE   UNIT     CODE           ?PR?_ADC_STATUS_WRITEMASK?ADC_STATUS
   *DEL*:           000006H   BYTE   UNIT     CODE           ?PR?ADC_STATUS_READMASK?ADC_STATUS
   *DEL*:           000009H   BYTE   UNIT     CODE           ?PR?DMA_DMARELEASE?DMA_DMA
   *DEL*:           000006H   BYTE   UNIT     CODE           ?PR?ADC_SOC_READ?ADC_SOC
   *DEL*:           000012H   BYTE   UNIT     CODE           ?PR?CYDMACERROR?CYDMAC
   *DEL*:           000010H   BYTE   UNIT     CODE           ?PR?_CYDMACCLEARERROR?CYDMAC
   *DEL*:           00000AH   BYTE   UNIT     CODE           ?PR?CYDMACERRORADDRESS?CYDMAC
   *DEL*:           0000BEH   BYTE   UNIT     CODE           ?PR?CYDMACHALLOC?CYDMAC
   *DEL*:           000006H   BYTE   UNIT     XDATA          ?XD?CYDMACHALLOC?CYDMAC
   *DEL*:           000064H   BYTE   UNIT     CODE           ?PR?_CYDMACHFREE?CYDMAC
   *DEL*:           000003H   BYTE   UNIT     XDATA          ?XD?_CYDMACHFREE?CYDMAC
   *DEL*:           000033H   BYTE   UNIT     CODE           ?PR?_CYDMACHDISABLE?CYDMAC
   *DEL*:           000033H   BYTE   UNIT     CODE           ?PR?_CYDMACLEARPENDINGDRQ?CYDMAC
   *DEL*:           000025H   BYTE   UNIT     CODE           ?PR?_CYDMACHSETREQUEST?CYDMAC
   *DEL*:           000024H   BYTE   UNIT     CODE           ?PR?_CYDMACHGETREQUEST?CYDMAC
   *DEL*:           000072H   BYTE   UNIT     CODE           ?PR?_CYDMACHSTATUS?CYDMAC
   *DEL*:           000007H   BYTE   UNIT     XDATA          ?XD?_CYDMACHSTATUS?CYDMAC
   *DEL*:           00003EH   BYTE   UNIT     CODE           ?PR?_CYDMATDFREE?CYDMAC
   *DEL*:           000002H   BYTE   UNIT     XDATA          ?XD?_CYDMATDFREE?CYDMAC
   *DEL*:           000009H   BYTE   UNIT     CODE           ?PR?CYDMATDFREECOUNT?CYDMAC
   *DEL*:           0000C9H   BYTE   UNIT     CODE           ?PR?_CYDMATDGETCONFIGURATION?CYDMAC
   *DEL*:           00000DH   BYTE   UNIT     XDATA          ?XD?_CYDMATDGETCONFIGURATION?CYDMAC
   *DEL*:           0000A6H   BYTE   UNIT     CODE           ?PR?_CYDMATDGETADDRESS?CYDMAC
   *DEL*:           00000AH   BYTE   UNIT     XDATA          ?XD?_CYDMATDGETADDRESS?CYDMAC
   *DEL*:           000038H   BYTE   UNIT     CODE           ?PR?_CYDMACHROUNDROBIN?CYDMAC
   *DEL*:           000031H   BYTE   UNIT     CODE           ?PR?CYFLASH_START?CYFLASH
   *DEL*:           000015H   BYTE   UNIT     CODE           ?PR?CYFLASH_STOP?CYFLASH
   *DEL*:           00007DH   BYTE   UNIT     CODE           ?PR?_CYSETFLASHEEBUFFER?CYFLASH
   *DEL*:           000004H   BYTE   UNIT     XDATA          ?XD?_CYSETFLASHEEBUFFER?CYFLASH
   *DEL*:           000034H   BYTE   UNIT     CODE           ?PR?_CYWRITEROWDATA?CYFLASH
   *DEL*:           000003H   BYTE   UNIT     XDATA          ?XD?_CYWRITEROWDATA?CYFLASH
   *DEL*:           000190H   BYTE   UNIT     CODE           ?PR?_CYWRITEROWFULL?CYFLASH
   *DEL*:           000009H   BYTE   UNIT     XDATA          ?XD?_CYWRITEROWFULL?CYFLASH
   *DEL*:           000044H   BYTE   UNIT     CODE           ?PR?_CYFLASH_SETWAITCYCLES?CYFLASH
   *DEL*:           000001H   BYTE   UNIT     XDATA          ?XD?_CYFLASH_SETWAITCYCLES?CYFLASH
   *DEL*:           000015H   BYTE   UNIT     CODE           ?PR?CYEEPROM_STOP?CYFLASH
   *DEL*:           000010H   BYTE   UNIT     CODE           ?PR?CYEEPROM_READRESERVE?CYFLASH
   *DEL*:           000008H   BYTE   UNIT     CODE           ?PR?CYEEPROM_READRELEASE?CYFLASH
   *DEL*:           00006EH   BYTE   UNIT     CODE           ?PR?_CYPLL_OUT_START?CYLIB
LX51 LINKER/LOCATER V4.64.0.0                                                         11/29/2018  15:53:27  PAGE 10


   *DEL*:           000004H   BYTE   UNIT     XDATA          ?XD?_CYPLL_OUT_START?CYLIB
   *DEL*:           000008H   BYTE   UNIT     CODE           ?PR?CYPLL_OUT_STOP?CYLIB
   *DEL*:           000036H   BYTE   UNIT     CODE           ?PR?_CYPLL_OUT_SETPQ?CYLIB
   *DEL*:           000010H   BYTE   UNIT     CODE           ?PR?_CYPLL_OUT_SETSOURCE?CYLIB
   *DEL*:           000053H   BYTE   UNIT     CODE           ?PR?_CYIMO_START?CYLIB
   *DEL*:           000003H   BYTE   UNIT     XDATA          ?XD?_CYIMO_START?CYLIB
   *DEL*:           00000FH   BYTE   UNIT     CODE           ?PR?CYIMO_STOP?CYLIB
   *DEL*:           000027H   BYTE   UNIT     CODE           ?PR?CYUSB_POWERONCHECK?CYLIB
   *DEL*:           0000B6H   BYTE   UNIT     CODE           ?PR?_CYIMO_SETTRIMVALUE?CYLIB
   *DEL*:           000001H   BYTE   UNIT     XDATA          ?XD?_CYIMO_SETTRIMVALUE?CYLIB
   *DEL*:           000118H   BYTE   UNIT     CODE           ?PR?_CYIMO_SETFREQ?CYLIB
   *DEL*:           000003H   BYTE   UNIT     XDATA          ?XD?_CYIMO_SETFREQ?CYLIB
   *DEL*:           00002FH   BYTE   UNIT     CODE           ?PR?_CYIMO_SETSOURCE?CYLIB
   *DEL*:           000008H   BYTE   UNIT     CODE           ?PR?CYIMO_ENABLEDOUBLER?CYLIB
   *DEL*:           000008H   BYTE   UNIT     CODE           ?PR?CYIMO_DISABLEDOUBLER?CYLIB
   *DEL*:           00000DH   BYTE   UNIT     CODE           ?PR?_CYMASTERCLK_SETSOURCE?CYLIB
   *DEL*:           000006H   BYTE   UNIT     CODE           ?PR?_CYMASTERCLK_SETDIVIDER?CYLIB
   *DEL*:           000023H   BYTE   UNIT     CODE           ?PR?_CYBUSCLK_INTERNAL_SETDIVIDER?CYLIB
   *DEL*:           00007AH   BYTE   UNIT     CODE           ?PR?_CYBUSCLK_SETDIVIDER?CYLIB
   *DEL*:           000002H   BYTE   UNIT     XDATA          ?XD?_CYBUSCLK_SETDIVIDER?CYLIB
   *DEL*:           00000EH   BYTE   UNIT     CODE           ?PR?_CYCPUCLK_SETDIVIDER?CYLIB
   *DEL*:           00000DH   BYTE   UNIT     CODE           ?PR?_CYUSBCLK_SETSOURCE?CYLIB
   *DEL*:           000008H   BYTE   UNIT     CODE           ?PR?CYILO_START1K?CYLIB
   *DEL*:           000008H   BYTE   UNIT     CODE           ?PR?CYILO_STOP1K?CYLIB
   *DEL*:           000008H   BYTE   UNIT     CODE           ?PR?CYILO_START100K?CYLIB
   *DEL*:           000008H   BYTE   UNIT     CODE           ?PR?CYILO_STOP100K?CYLIB
   *DEL*:           000008H   BYTE   UNIT     CODE           ?PR?CYILO_ENABLE33K?CYLIB
   *DEL*:           000008H   BYTE   UNIT     CODE           ?PR?CYILO_DISABLE33K?CYLIB
   *DEL*:           000011H   BYTE   UNIT     CODE           ?PR?_CYILO_SETSOURCE?CYLIB
   *DEL*:           000029H   BYTE   UNIT     CODE           ?PR?_CYILO_SETPOWERMODE?CYLIB
   *DEL*:           00005EH   BYTE   UNIT     CODE           ?PR?CYXTAL_32KHZ_START?CYLIB
   *DEL*:           000002H   BYTE   UNIT     XDATA          ?XD?CYXTAL_32KHZ_START?CYLIB
   *DEL*:           000020H   BYTE   UNIT     CODE           ?PR?CYXTAL_32KHZ_STOP?CYLIB
   *DEL*:           000008H   BYTE   UNIT     CODE           ?PR?CYXTAL_32KHZ_READSTATUS?CYLIB
   *DEL*:           000066H   BYTE   UNIT     CODE           ?PR?_CYXTAL_32KHZ_SETPOWERMODE?CYLIB
   *DEL*:           000001H   BYTE   UNIT     XDATA          ?XD?_CYXTAL_32KHZ_SETPOWERMODE?CYLIB
   *DEL*:           0000A0H   BYTE   UNIT     CODE           ?PR?_CYXTAL_START?CYLIB
   *DEL*:           000006H   BYTE   UNIT     XDATA          ?XD?_CYXTAL_START?CYLIB
   *DEL*:           000008H   BYTE   UNIT     CODE           ?PR?CYXTAL_STOP?CYLIB
   *DEL*:           000008H   BYTE   UNIT     CODE           ?PR?CYXTAL_ENABLEERRSTATUS?CYLIB
   *DEL*:           000008H   BYTE   UNIT     CODE           ?PR?CYXTAL_DISABLEERRSTATUS?CYLIB
   *DEL*:           00000FH   BYTE   UNIT     CODE           ?PR?CYXTAL_READSTATUS?CYLIB
   *DEL*:           000008H   BYTE   UNIT     CODE           ?PR?CYXTAL_ENABLEFAULTRECOVERY?CYLIB
   *DEL*:           000008H   BYTE   UNIT     CODE           ?PR?CYXTAL_DISABLEFAULTRECOVERY?CYLIB
   *DEL*:           00000DH   BYTE   UNIT     CODE           ?PR?_CYXTAL_SETSTARTUP?CYLIB
   *DEL*:           00000DH   BYTE   UNIT     CODE           ?PR?_CYXTAL_SETFBVOLTAGE?CYLIB
   *DEL*:           00000EH   BYTE   UNIT     CODE           ?PR?_CYXTAL_SETWDVOLTAGE?CYLIB
   *DEL*:           000015H   BYTE   UNIT     CODE           ?PR?_?CYHALT?CYLIB
   *DEL*:           0000B8H   BYTE   UNIT     CODE           ?PR?_?CYDELAYFREQ?CYLIB
   *DEL*:           000026H   BYTE   UNIT     CODE           ?PR?_CYWDTSTART?CYLIB
   *DEL*:           000007H   BYTE   UNIT     CODE           ?PR?CYWDTCLEAR?CYLIB
   *DEL*:           000084H   BYTE   UNIT     CODE           ?PR?_CYVDLVDIGITENABLE?CYLIB
   *DEL*:           000007H   BYTE   UNIT     XDATA          ?XD?_CYVDLVDIGITENABLE?CYLIB
   *DEL*:           000083H   BYTE   UNIT     CODE           ?PR?_CYVDLVANALOGENABLE?CYLIB
   *DEL*:           000007H   BYTE   UNIT     XDATA          ?XD?_CYVDLVANALOGENABLE?CYLIB
   *DEL*:           00001DH   BYTE   UNIT     CODE           ?PR?CYVDLVDIGITDISABLE?CYLIB
   *DEL*:           000018H   BYTE   UNIT     CODE           ?PR?CYVDLVANALOGDISABLE?CYLIB
   *DEL*:           000056H   BYTE   UNIT     CODE           ?PR?CYVDHVANALOGENABLE?CYLIB
   *DEL*:           000005H   BYTE   UNIT     XDATA          ?XD?CYVDHVANALOGENABLE?CYLIB
   *DEL*:           000011H   BYTE   UNIT     CODE           ?PR?CYVDHVANALOGDISABLE?CYLIB
   *DEL*:           000039H   BYTE   UNIT     CODE           ?PR?_CYVDSTICKYSTATUS?CYLIB
   *DEL*:           000002H   BYTE   UNIT     XDATA          ?XD?_CYVDSTICKYSTATUS?CYLIB
   *DEL*:           000018H   BYTE   UNIT     CODE           ?PR?CYVDREALTIMESTATUS?CYLIB
   *DEL*:           000001H   BYTE   UNIT     XDATA          ?XD?CYVDREALTIMESTATUS?CYLIB
   *DEL*:           0000D0H   BYTE   UNIT     CODE           ?PR?CYDISABLEINTS?CYLIB
LX51 LINKER/LOCATER V4.64.0.0                                                         11/29/2018  15:53:27  PAGE 11


   *DEL*:           000005H   BYTE   UNIT     XDATA          ?XD?CYDISABLEINTS?CYLIB
   *DEL*:           000067H   BYTE   UNIT     CODE           ?PR?_CYENABLEINTS?CYLIB
   *DEL*:           000004H   BYTE   UNIT     XDATA          ?XD?_CYENABLEINTS?CYLIB
   *DEL*:           000018H   BYTE   UNIT     CODE           ?PR?_CYINTGETVECTOR?CYLIB
   *DEL*:           000014H   BYTE   UNIT     CODE           ?PR?_CYINTGETPRIORITY?CYLIB
   *DEL*:           000036H   BYTE   UNIT     CODE           ?PR?_CYINTGETSTATE?CYLIB
   *DEL*:           000248H   BYTE   UNIT     CODE           ?PR?_CYGETUNIQUEID?CYLIB
   *DEL*:           000003H   BYTE   UNIT     XDATA          ?XD?_CYGETUNIQUEID?CYLIB
   *DEL*:           00001EH   BYTE   UNIT     CODE           ?PR?SPI_IMU_STOP?SPI_IMU
   *DEL*:           000001H   BYTE   UNIT     CODE           ?PR?SPI_IMU_DISABLETXINT?SPI_IMU
   *DEL*:           000001H   BYTE   UNIT     CODE           ?PR?SPI_IMU_DISABLERXINT?SPI_IMU
   *DEL*:           000006H   BYTE   UNIT     CODE           ?PR?_SPI_IMU_SETTXINTERRUPTMODE?SPI_IMU
   *DEL*:           000006H   BYTE   UNIT     CODE           ?PR?_SPI_IMU_SETRXINTERRUPTMODE?SPI_IMU
   *DEL*:           00000EH   BYTE   UNIT     CODE           ?PR?SPI_IMU_GETRXBUFFERSIZE?SPI_IMU
   *DEL*:           000017H   BYTE   UNIT     CODE           ?PR?SPI_IMU_GETTXBUFFERSIZE?SPI_IMU
   *DEL*:           00002EH   BYTE   UNIT     CODE           ?PR?_SPI_IMU_PUTARRAY?SPI_IMU
   *DEL*:           000003H   BYTE   UNIT     XDATA          ?XD?_SPI_IMU_PUTARRAY?SPI_IMU
   *DEL*:           000007H   BYTE   UNIT     CODE           ?PR?SPI_IMU_ENABLEINT?SPI_IMU
   *DEL*:           000007H   BYTE   UNIT     CODE           ?PR?SPI_IMU_DISABLEINT?SPI_IMU
   *DEL*:           00000DH   BYTE   UNIT     CODE           ?PR?_SPI_IMU_SETINTERRUPTMODE?SPI_IMU
   *DEL*:           00000DH   BYTE   UNIT     CODE           ?PR?_OPTO_PIN_SETDRIVEMODE?OPTO_PIN
   *DEL*:           000013H   BYTE   UNIT     CODE           ?PR?OPTO_PIN_READ?OPTO_PIN
   *DEL*:           000013H   BYTE   UNIT     CODE           ?PR?OPTO_PIN_READDATAREG?OPTO_PIN
   *DEL*:           000006H   BYTE   UNIT     CODE           ?PR?CHIP_SELECT_A_READ?CHIP_SELECT_A
   *DEL*:           000006H   BYTE   UNIT     CODE           ?PR?CHIP_SELECT_B_READ?CHIP_SELECT_B
   *DEL*:           000004H   BYTE   UNIT     CODE           ?PR?_CyDelay?CYBOOTASMKEIL
   *DEL*:           000019H   BYTE   UNIT     CODE           ?PR?CYMEMZERO?CYMEM
   *DEL*:           00002DH   BYTE   UNIT     CODE           ?PR?CFG_WRITE_BYTES?CYMEM
   *DEL*:           00002EH   BYTE   UNIT     CODE           ?PR?CY_WRITE_BYTES_CODE?CYMEM
   *DEL*:           000015H   BYTE   UNIT     CODE           ?PR?CYREAD32?CYMEM
   *DEL*:           000015H   BYTE   UNIT     CODE           ?PR?CYWRITE32?CYMEM
   *DEL*:           000021H   BYTE   UNIT     CODE           ?PR?_ADC_AMUX_FASTSELECT?ADC_AMUX
   *DEL*:           000001H   BYTE   UNIT     XDATA          ?XD?_ADC_AMUX_FASTSELECT?ADC_AMUX
   *DEL*:           00000FH   BYTE   UNIT     CODE           ?PR?ADC_EXT_CP_CLK_START?ADC_EXT_CP_CLK
   *DEL*:           00000FH   BYTE   UNIT     CODE           ?PR?ADC_EXT_CP_CLK_STOP?ADC_EXT_CP_CLK
   *DEL*:           00006EH   BYTE   UNIT     CODE           ?PR?ADC_EXT_CP_CLK_STOPBLOCK?ADC_EXT_CP_CLK
   *DEL*:           000002H   BYTE   UNIT     XDATA          ?XD?ADC_EXT_CP_CLK_STOPBLOCK?ADC_EXT_CP_CLK
   *DEL*:           000013H   BYTE   UNIT     CODE           ?PR?_ADC_EXT_CP_CLK_STANDBYPOWER?ADC_EXT_CP_CLK
   *DEL*:           00000EH   BYTE   UNIT     CODE           ?PR?_ADC_EXT_CP_CLK_CLEARMODEREGISTER?ADC_EXT_CP_CLK
   *DEL*:           000008H   BYTE   UNIT     CODE           ?PR?ADC_EXT_CP_CLK_GETMODEREGISTER?ADC_EXT_CP_CLK
   *DEL*:           000062H   BYTE   UNIT     CODE           ?PR?_ADC_EXT_CP_CLK_SETSOURCEREGISTER?ADC_EXT_CP_CLK
   *DEL*:           000003H   BYTE   UNIT     XDATA          ?XD?_ADC_EXT_CP_CLK_SETSOURCEREGISTER?ADC_EXT_CP_CLK
   *DEL*:           00000FH   BYTE   UNIT     CODE           ?PR?ADC_THEACLK_START?ADC_THEACLK
   *DEL*:           00000FH   BYTE   UNIT     CODE           ?PR?ADC_THEACLK_STOP?ADC_THEACLK
   *DEL*:           00006CH   BYTE   UNIT     CODE           ?PR?ADC_THEACLK_STOPBLOCK?ADC_THEACLK
   *DEL*:           000002H   BYTE   UNIT     XDATA          ?XD?ADC_THEACLK_STOPBLOCK?ADC_THEACLK
   *DEL*:           000013H   BYTE   UNIT     CODE           ?PR?_ADC_THEACLK_STANDBYPOWER?ADC_THEACLK
   *DEL*:           00000EH   BYTE   UNIT     CODE           ?PR?_ADC_THEACLK_CLEARMODEREGISTER?ADC_THEACLK
   *DEL*:           000008H   BYTE   UNIT     CODE           ?PR?ADC_THEACLK_GETMODEREGISTER?ADC_THEACLK
   *DEL*:           000062H   BYTE   UNIT     CODE           ?PR?_ADC_THEACLK_SETSOURCEREGISTER?ADC_THEACLK
   *DEL*:           000003H   BYTE   UNIT     XDATA          ?XD?_ADC_THEACLK_SETSOURCEREGISTER?ADC_THEACLK
   *DEL*:           000008H   BYTE   UNIT     CODE           ?PR?_ADC_THEACLK_SETPHASEREGISTER?ADC_THEACLK
   *DEL*:           000008H   BYTE   UNIT     CODE           ?PR?ADC_THEACLK_GETPHASEREGISTER?ADC_THEACLK
   *DEL*:           0001A9H   BYTE   UNIT     CODE           ?PR?CYPMSAVECLOCKS?CYPM
   *DEL*:           00024CH   BYTE   UNIT     CODE           ?PR?CYPMRESTORECLOCKS?CYPM
   *DEL*:           000003H   BYTE   UNIT     XDATA          ?XD?CYPMRESTORECLOCKS?CYPM
   *DEL*:           0000E0H   BYTE   UNIT     CODE           ?PR?_CYPMALTACT?CYPM
   *DEL*:           000004H   BYTE   UNIT     XDATA          ?XD?_CYPMALTACT?CYPM
   *DEL*:           000160H   BYTE   UNIT     CODE           ?PR?_CYPMSLEEP?CYPM
   *DEL*:           000004H   BYTE   UNIT     XDATA          ?XD?_CYPMSLEEP?CYPM
   *DEL*:           000008H   BYTE   UNIT     CODE           ?PR?CYPMHIBERNATE?CYPM
   *DEL*:           0000D6H   BYTE   UNIT     CODE           ?PR?_CYPMHIBERNATEEX?CYPM
   *DEL*:           000003H   BYTE   UNIT     XDATA          ?XD?_CYPMHIBERNATEEX?CYPM
   *DEL*:           000039H   BYTE   UNIT     CODE           ?PR?_CYPMREADSTATUS?CYPM
   *DEL*:           000002H   BYTE   UNIT     XDATA          ?XD?_CYPMREADSTATUS?CYPM
LX51 LINKER/LOCATER V4.64.0.0                                                         11/29/2018  15:53:27  PAGE 12


   *DEL*:           000076H   BYTE   UNIT     CODE           ?PR?CYPMHIBSAVESET?CYPM
   *DEL*:           000040H   BYTE   UNIT     CODE           ?PR?CYPMHIBRESTORE?CYPM
   *DEL*:           000049H   BYTE   UNIT     CODE           ?PR?_CYPMCTWSETINTERVAL?CYPM
   *DEL*:           000001H   BYTE   UNIT     XDATA          ?XD?_CYPMCTWSETINTERVAL?CYPM
   *DEL*:           000017H   BYTE   UNIT     CODE           ?PR?CYPMOPPSSET?CYPM
   *DEL*:           00004DH   BYTE   UNIT     CODE           ?PR?_CYPMFTWSETINTERVAL?CYPM
   *DEL*:           000001H   BYTE   UNIT     XDATA          ?XD?_CYPMFTWSETINTERVAL?CYPM
   *DEL*:           00018CH   BYTE   UNIT     CODE           ?PR?CYPMHIBSLPSAVESET?CYPM
   *DEL*:           00010DH   BYTE   UNIT     CODE           ?PR?CYPMHIBSLPRESTORE?CYPM
   *DEL*:           000082H   BYTE   UNIT     CODE           ?PR?CYPMHVILVISAVEDISABLE?CYPM
   *DEL*:           000033H   BYTE   UNIT     CODE           ?PR?CYPMHVILVIRESTORE?CYPM
   *DEL*:           00000EH   BYTE   UNIT     CONST          ?CO?CYPM
   *DEL*:           000015H   BYTE   UNIT     CODE           ?PR?CYSPCSTOP?CYSPC
   *DEL*:           0000A7H   BYTE   UNIT     CODE           ?PR?_CYSPCLOADMULTIBYTE?CYSPC
   *DEL*:           000007H   BYTE   UNIT     XDATA          ?XD?_CYSPCLOADMULTIBYTE?CYSPC
   *DEL*:           000143H   BYTE   UNIT     CODE           ?PR?_CYSPCLOADROWFULL?CYSPC
   *DEL*:           00000FH   BYTE   UNIT     XDATA          ?XD?_CYSPCLOADROWFULL?CYSPC
   *DEL*:           000030H   BYTE   UNIT     CODE           ?PR?_CYSPCERASESECTOR?CYSPC
   *DEL*:           00000FH   BYTE   UNIT     CODE           ?PR?SPI_IMU_INTCLOCK_STOP?SPI_IMU_INTCLOCK
   *DEL*:           00006EH   BYTE   UNIT     CODE           ?PR?SPI_IMU_INTCLOCK_STOPBLOCK?SPI_IMU_INTCLOCK
   *DEL*:           000002H   BYTE   UNIT     XDATA          ?XD?SPI_IMU_INTCLOCK_STOPBLOCK?SPI_IMU_INTCLOCK
   *DEL*:           000013H   BYTE   UNIT     CODE           ?PR?_SPI_IMU_INTCLOCK_STANDBYPOWER?SPI_IMU_INTCLOCK
   *DEL*:           000131H   BYTE   UNIT     CODE           ?PR?_SPI_IMU_INTCLOCK_SETDIVIDERREGISTER?SPI_IMU_INTCLOCK
   *DEL*:           000007H   BYTE   UNIT     XDATA          ?XD?_SPI_IMU_INTCLOCK_SETDIVIDERREGISTER?SPI_IMU_INTCLOCK
   *DEL*:           00000AH   BYTE   UNIT     CODE           ?PR?SPI_IMU_INTCLOCK_GETDIVIDERREGISTER?SPI_IMU_INTCLOCK
   *DEL*:           00000DH   BYTE   UNIT     CODE           ?PR?_SPI_IMU_INTCLOCK_SETMODEREGISTER?SPI_IMU_INTCLOCK
   *DEL*:           00000EH   BYTE   UNIT     CODE           ?PR?_SPI_IMU_INTCLOCK_CLEARMODEREGISTER?SPI_IMU_INTCLOCK
   *DEL*:           000008H   BYTE   UNIT     CODE           ?PR?SPI_IMU_INTCLOCK_GETMODEREGISTER?SPI_IMU_INTCLOCK
   *DEL*:           000062H   BYTE   UNIT     CODE           ?PR?_SPI_IMU_INTCLOCK_SETSOURCEREGISTER?SPI_IMU_INTCLOCK
   *DEL*:           000003H   BYTE   UNIT     XDATA          ?XD?_SPI_IMU_INTCLOCK_SETSOURCEREGISTER?SPI_IMU_INTCLOCK
   *DEL*:           000008H   BYTE   UNIT     CODE           ?PR?SPI_IMU_INTCLOCK_GETSOURCEREGISTER?SPI_IMU_INTCLOCK



OVERLAY MAP OF MODULE:   .\DP8051_Keil_951\Release\firmware.omf (COMMAND_PROCESSING)


FUNCTION/MODULE                                BIT_GROUP   DATA_GROUP   XDATA_GROUP
--> CALLED FUNCTION/MODULE                    START  STOP  START  STOP  START  STOP
===================================================================================
ISR_RS485_RX_EXINTERRUPT/INTERRUPTIONS        ----- -----  ----- -----  ----- -----

*** NEW ROOT ********************************

ISR_RS485_RX_INTERRUPT/ISR_RS485_RX           ----- -----  ----- -----  ----- -----

*** NEW ROOT ********************************

?C_C51STARTUP                                 ----- -----  ----- -----  ----- -----
  +--> ?CO?KEILSTART?3
  +--> CYFITTER_CFG/CYFITTER_CFG
  +--> CYDMACCONFIGURE/CYDMAC
  +--> MAIN/MAIN
  +--> ?C_INITSEG

?CO?KEILSTART?3                               ----- -----  ----- -----  ----- -----

CYFITTER_CFG/CYFITTER_CFG                     ----- -----  ----- -----  ----- -----
  +--> CYREAD8/CYMEM
  +--> CYWRITE8/CYMEM
  +--> CFG_DMA_INIT/CYFITTER_CFG
  +--> ?CO?CYFITTER_CFG
  +--> CYCONFIGCPYCODE/CYMEM
  +--> _CYCONFIGCPY/CYMEM
  +--> CLOCKSETUP/CYFITTER_CFG
LX51 LINKER/LOCATER V4.64.0.0                                                         11/29/2018  15:53:27  PAGE 13


  +--> ANALOGSETDEFAULT/CYFITTER_CFG

CYREAD8/CYMEM                                 ----- -----  ----- -----  ----- -----

CYWRITE8/CYMEM                                ----- -----  ----- -----  ----- -----

CFG_DMA_INIT/CYFITTER_CFG                     ----- -----  ----- -----  ----- -----
  +--> CYWRITE16/CYMEM
  +--> ?CO?CYFITTER_CFG
  +--> _CYCONFIGCPY/CYMEM

CYWRITE16/CYMEM                               ----- -----  ----- -----  ----- -----

?CO?CYFITTER_CFG                              ----- -----  ----- -----  ----- -----

_CYCONFIGCPY/CYMEM                            ----- -----  ----- -----  0000H 0007H

CYCONFIGCPYCODE/CYMEM                         ----- -----  ----- -----  ----- -----

CLOCKSETUP/CYFITTER_CFG                       ----- -----  ----- -----  0000H 0004H
  +--> CYWRITE16/CYMEM
  +--> ?CO?CYFITTER_CFG
  +--> CYCONFIGCPYCODE/CYMEM
  +--> CYREAD8/CYMEM
  +--> CYDELAYCYCLES/CYBOOTASMKEIL
  +--> _CYCLOCKSTARTUPERROR/CYFITTER_CFG

CYDELAYCYCLES/CYBOOTASMKEIL                   ----- -----  ----- -----  ----- -----

_CYCLOCKSTARTUPERROR/CYFITTER_CFG             ----- -----  ----- -----  ----- -----

ANALOGSETDEFAULT/CYFITTER_CFG                 ----- -----  ----- -----  ----- -----
  +--> CYREAD8/CYMEM

CYDMACCONFIGURE/CYDMAC                        ----- -----  ----- -----  ----- -----

MAIN/MAIN                                     ----- -----  ----- -----  0000H 0001H
  +--> EEPROM_START/EEPROM
  +--> MEMRECALL/COMMAND_PROCESSING
  +--> _?CYDELAY/CYLIB
  +--> _FTDI_ENABLE_REG_WRITE/FTDI_ENABLE_REG
  +--> UART_RS485_STOP/UART_RS485
  +--> UART_RS485_START/UART_RS485
  +--> UART_RS485_INIT/UART_RS485
  +--> UART_RS485_CLEARRXBUFFER/UART_RS485
  +--> UART_RS485_CLEARTXBUFFER/UART_RS485
  +--> _ISR_RS485_RX_STARTEX/ISR_RS485_RX
  +--> _RS485_CTS_WRITE/RS485_CTS
  +--> MY_TIMER_START/MY_TIMER
  +--> PACER_TIMER_START/PACER_TIMER
  +--> SPI_IMU_START/SPI_IMU
  +--> SPI_IMU_INIT/SPI_IMU
  +--> SPI_IMU_ENABLE/SPI_IMU
  +--> SPI_IMU_CLEARRXBUFFER/SPI_IMU
  +--> SPI_IMU_CLEARTXBUFFER/SPI_IMU
  +--> SPI_IMU_CLEARFIFO/SPI_IMU
  +--> ADC_START/ADC
  +--> _ADC_SOC_WRITE/ADC_SOC
  +--> _DMA_DMAINITIALIZE/DMA_DMA
  +--> CYDMATDALLOCATE/CYDMAC
  +--> _CYDMATDSETCONFIGURATION/CYDMAC
  +--> _CYDMATDSETADDRESS/CYDMAC
  +--> _CYDMACHSETINITIALTD/CYDMAC
  +--> _CYDMACHENABLE/CYDMAC
  +--> _OPTO_PIN_WRITE/OPTO_PIN
LX51 LINKER/LOCATER V4.64.0.0                                                         11/29/2018  15:53:27  PAGE 14


  +--> INITIMUGENERAL/IMU_FUNCTIONS
  +--> _RESET_FF_WRITE/RESET_FF
  +--> FUNCTION_SCHEDULER/INTERRUPTIONS
  +--> FF_STATUS_READ/FF_STATUS
  +--> INTERRUPT_MANAGER/INTERRUPTIONS
  +--> UART_RS485_READRXSTATUS/UART_RS485

EEPROM_START/EEPROM                           ----- -----  ----- -----  ----- -----
  +--> EEPROM_ENABLE/EEPROM

EEPROM_ENABLE/EEPROM                          ----- -----  ----- -----  ----- -----
  +--> CYSETTEMP/CYFLASH
  +--> CYEEPROM_START/CYFLASH

CYSETTEMP/CYFLASH                             ----- -----  ----- -----  0009H 0009H
  +--> CYFLASHGETSPCALGORITHM/CYFLASH
  +--> CYSETTEMPINT/CYFLASH

CYFLASHGETSPCALGORITHM/CYFLASH                ----- -----  ----- -----  000AH 000AH
  +--> CYSPCSTART/CYSPC
  +--> CYSPCLOCK/CYSPC
  +--> CYSPCGETALGORITHM/CYSPC
  +--> CYDELAYUS/CYBOOTASMKEIL
  +--> CYSPCUNLOCK/CYSPC

CYSPCSTART/CYSPC                              ----- -----  ----- -----  ----- -----
  +--> CYENTERCRITICALSECTION/CYBOOTASMKEIL
  +--> CYEXITCRITICALSECTION/CYBOOTASMKEIL

CYENTERCRITICALSECTION/CYBOOTASMKEIL          ----- -----  ----- -----  ----- -----

CYEXITCRITICALSECTION/CYBOOTASMKEIL           ----- -----  ----- -----  ----- -----

CYSPCLOCK/CYSPC                               ----- -----  ----- -----  000EH 000EH
  +--> CYENTERCRITICALSECTION/CYBOOTASMKEIL
  +--> CYEXITCRITICALSECTION/CYBOOTASMKEIL

CYSPCGETALGORITHM/CYSPC                       ----- -----  ----- -----  ----- -----

CYDELAYUS/CYBOOTASMKEIL                       ----- -----  ----- -----  ----- -----
  +--> CYDELAYCYCLES/CYBOOTASMKEIL

CYSPCUNLOCK/CYSPC                             ----- -----  ----- -----  ----- -----
  +--> CYENTERCRITICALSECTION/CYBOOTASMKEIL
  +--> CYEXITCRITICALSECTION/CYBOOTASMKEIL

CYSETTEMPINT/CYFLASH                          ----- -----  ----- -----  000AH 000AH
  +--> CYSPCSTART/CYSPC
  +--> CYSPCLOCK/CYSPC
  +--> _CYSPCGETTEMP/CYSPC
  +--> _CYSPCREADDATA/CYSPC
  +--> CYDELAYUS/CYBOOTASMKEIL
  +--> CYSPCUNLOCK/CYSPC

_CYSPCGETTEMP/CYSPC                           ----- -----  ----- -----  ----- -----

_CYSPCREADDATA/CYSPC                          ----- -----  ----- -----  000BH 000FH
  +--> CYDELAYUS/CYBOOTASMKEIL

CYEEPROM_START/CYFLASH                        ----- -----  ----- -----  ----- -----
  +--> CYENTERCRITICALSECTION/CYBOOTASMKEIL
  +--> CYEXITCRITICALSECTION/CYBOOTASMKEIL

MEMRECALL/COMMAND_PROCESSING                  ----- -----  ----- -----  ----- -----
  +--> MEMRESTORE/COMMAND_PROCESSING
LX51 LINKER/LOCATER V4.64.0.0                                                         11/29/2018  15:53:27  PAGE 15



MEMRESTORE/COMMAND_PROCESSING                 ----- -----  ----- -----  ----- -----
  +--> MEMINIT/COMMAND_PROCESSING
  +--> _MEMSTORE/COMMAND_PROCESSING

MEMINIT/COMMAND_PROCESSING                    ----- -----  ----- -----  ----- -----
  +--> _MEMSTORE/COMMAND_PROCESSING

_MEMSTORE/COMMAND_PROCESSING                  ----- -----  ----- -----  0002H 0008H
  +--> ISR_RS485_RX_DISABLE/ISR_RS485_RX
  +--> CYSETTEMP/CYFLASH
  +--> _EEPROM_WRITE/EEPROM
  +--> ISR_RS485_RX_ENABLE/ISR_RS485_RX

ISR_RS485_RX_DISABLE/ISR_RS485_RX             ----- -----  ----- -----  ----- -----

_EEPROM_WRITE/EEPROM                          ----- -----  ----- -----  0009H 000DH
  +--> CYSPCSTART/CYSPC
  +--> CYSPCLOCK/CYSPC
  +--> _CYSPCLOADROW/CYSPC
  +--> _CYSPCWRITEROW/CYSPC
  +--> CYSPCUNLOCK/CYSPC

_CYSPCLOADROW/CYSPC                           ----- -----  ----- -----  000EH 0014H

_CYSPCWRITEROW/CYSPC                          ----- -----  ----- -----  000EH 0012H

ISR_RS485_RX_ENABLE/ISR_RS485_RX              ----- -----  ----- -----  ----- -----

_?CYDELAY/CYLIB                               ----- -----  ----- -----  ----- -----
  +--> CYDELAYCYCLES/CYBOOTASMKEIL

_FTDI_ENABLE_REG_WRITE/FTDI_ENABLE_REG        ----- -----  ----- -----  ----- -----

UART_RS485_STOP/UART_RS485                    ----- -----  ----- -----  ----- -----
  +--> CYENTERCRITICALSECTION/CYBOOTASMKEIL
  +--> CYEXITCRITICALSECTION/CYBOOTASMKEIL

UART_RS485_START/UART_RS485                   ----- -----  ----- -----  ----- -----
  +--> UART_RS485_INIT/UART_RS485
  +--> UART_RS485_ENABLE/UART_RS485

UART_RS485_INIT/UART_RS485                    ----- -----  ----- -----  ----- -----
  +--> _CYINTSETVECTOR/CYLIB
  +--> _CYINTSETPRIORITY/CYLIB

_CYINTSETVECTOR/CYLIB                         ----- -----  ----- -----  0002H 0006H
  +--> CYREAD16/CYMEM
  +--> CYWRITE16/CYMEM

CYREAD16/CYMEM                                ----- -----  ----- -----  ----- -----

_CYINTSETPRIORITY/CYLIB                       ----- -----  ----- -----  ----- -----

UART_RS485_ENABLE/UART_RS485                  ----- -----  ----- -----  ----- -----
  +--> CYENTERCRITICALSECTION/CYBOOTASMKEIL
  +--> CYEXITCRITICALSECTION/CYBOOTASMKEIL

UART_RS485_CLEARRXBUFFER/UART_RS485           ----- -----  ----- -----  ----- -----
  +--> CYENTERCRITICALSECTION/CYBOOTASMKEIL
  +--> CYEXITCRITICALSECTION/CYBOOTASMKEIL

UART_RS485_CLEARTXBUFFER/UART_RS485           ----- -----  ----- -----  ----- -----
  +--> CYENTERCRITICALSECTION/CYBOOTASMKEIL
  +--> CYEXITCRITICALSECTION/CYBOOTASMKEIL
LX51 LINKER/LOCATER V4.64.0.0                                                         11/29/2018  15:53:27  PAGE 16



_ISR_RS485_RX_STARTEX/ISR_RS485_RX            ----- -----  ----- -----  0002H 0003H
  +--> ISR_RS485_RX_DISABLE/ISR_RS485_RX
  +--> _ISR_RS485_RX_SETVECTOR/ISR_RS485_RX
  +--> _ISR_RS485_RX_SETPRIORITY/ISR_RS485_RX
  +--> ISR_RS485_RX_ENABLE/ISR_RS485_RX

_ISR_RS485_RX_SETVECTOR/ISR_RS485_RX          ----- -----  ----- -----  ----- -----
  +--> CYWRITE16/CYMEM

_ISR_RS485_RX_SETPRIORITY/ISR_RS485_RX        ----- -----  ----- -----  ----- -----

_RS485_CTS_WRITE/RS485_CTS                    ----- -----  ----- -----  ----- -----

MY_TIMER_START/MY_TIMER                       ----- -----  ----- -----  ----- -----
  +--> MY_TIMER_INIT/MY_TIMER
  +--> MY_TIMER_ENABLE/MY_TIMER

MY_TIMER_INIT/MY_TIMER                        ----- -----  ----- -----  ----- -----
  +--> _MY_TIMER_WRITEPERIOD/MY_TIMER
  +--> _MY_TIMER_WRITECOUNTER/MY_TIMER
  +--> CYENTERCRITICALSECTION/CYBOOTASMKEIL
  +--> CYEXITCRITICALSECTION/CYBOOTASMKEIL
  +--> MY_TIMER_CLEARFIFO/MY_TIMER
  +--> _MY_TIMER_SETINTERRUPTMODE/MY_TIMER

_MY_TIMER_WRITEPERIOD/MY_TIMER                ----- -----  ----- -----  ----- -----
  +--> CYWRITE24/CYMEM

CYWRITE24/CYMEM                               ----- -----  ----- -----  ----- -----

_MY_TIMER_WRITECOUNTER/MY_TIMER               ----- -----  ----- -----  ----- -----
  +--> CYWRITE24/CYMEM

MY_TIMER_CLEARFIFO/MY_TIMER                   ----- -----  ----- -----  ----- -----
  +--> MY_TIMER_READSTATUSREGISTER/MY_TIMER
  +--> MY_TIMER_READCAPTURE/MY_TIMER

MY_TIMER_READSTATUSREGISTER/MY_TIMER          ----- -----  ----- -----  ----- -----

MY_TIMER_READCAPTURE/MY_TIMER                 ----- -----  ----- -----  ----- -----
  +--> CYREAD24/CYMEM

CYREAD24/CYMEM                                ----- -----  ----- -----  ----- -----

_MY_TIMER_SETINTERRUPTMODE/MY_TIMER           ----- -----  ----- -----  ----- -----

MY_TIMER_ENABLE/MY_TIMER                      ----- -----  ----- -----  ----- -----

PACER_TIMER_START/PACER_TIMER                 ----- -----  ----- -----  ----- -----
  +--> PACER_TIMER_INIT/PACER_TIMER
  +--> PACER_TIMER_ENABLE/PACER_TIMER

PACER_TIMER_INIT/PACER_TIMER                  ----- -----  ----- -----  ----- -----
  +--> _PACER_TIMER_WRITEPERIOD/PACER_TIMER
  +--> _PACER_TIMER_WRITECOUNTER/PACER_TIMER
  +--> _PACER_TIMER_SETINTERRUPTMODE/PACER_TIMER

_PACER_TIMER_WRITEPERIOD/PACER_TIMER          ----- -----  ----- -----  ----- -----
  +--> CYWRITE16/CYMEM

_PACER_TIMER_WRITECOUNTER/PACER_TIMER         ----- -----  ----- -----  ----- -----
  +--> CYWRITE16/CYMEM

_PACER_TIMER_SETINTERRUPTMODE/PACER_TIME+     ----- -----  ----- -----  ----- -----
LX51 LINKER/LOCATER V4.64.0.0                                                         11/29/2018  15:53:27  PAGE 17


... R

PACER_TIMER_ENABLE/PACER_TIMER                ----- -----  ----- -----  ----- -----

SPI_IMU_START/SPI_IMU                         ----- -----  ----- -----  ----- -----
  +--> SPI_IMU_INIT/SPI_IMU
  +--> SPI_IMU_ENABLE/SPI_IMU

SPI_IMU_INIT/SPI_IMU                          ----- -----  ----- -----  ----- -----
  +--> SPI_IMU_CLEARFIFO/SPI_IMU
  +--> SPI_IMU_READTXSTATUS/SPI_IMU
  +--> SPI_IMU_READRXSTATUS/SPI_IMU

SPI_IMU_CLEARFIFO/SPI_IMU                     ----- -----  ----- -----  ----- -----
  +--> CYENTERCRITICALSECTION/CYBOOTASMKEIL
  +--> CYEXITCRITICALSECTION/CYBOOTASMKEIL

SPI_IMU_READTXSTATUS/SPI_IMU                  ----- -----  ----- -----  ----- -----

SPI_IMU_READRXSTATUS/SPI_IMU                  ----- -----  ----- -----  ----- -----

SPI_IMU_ENABLE/SPI_IMU                        ----- -----  ----- -----  ----- -----
  +--> CYENTERCRITICALSECTION/CYBOOTASMKEIL
  +--> CYEXITCRITICALSECTION/CYBOOTASMKEIL
  +--> SPI_IMU_INTCLOCK_START/SPI_IMU_INTCLOCK
  +--> SPI_IMU_ENABLETXINT/SPI_IMU
  +--> SPI_IMU_ENABLERXINT/SPI_IMU

SPI_IMU_INTCLOCK_START/SPI_IMU_INTCLOCK       ----- -----  ----- -----  ----- -----

SPI_IMU_ENABLETXINT/SPI_IMU                   ----- -----  ----- -----  ----- -----

SPI_IMU_ENABLERXINT/SPI_IMU                   ----- -----  ----- -----  ----- -----

SPI_IMU_CLEARRXBUFFER/SPI_IMU                 ----- -----  ----- -----  ----- -----

SPI_IMU_CLEARTXBUFFER/SPI_IMU                 ----- -----  ----- -----  ----- -----
  +--> CYENTERCRITICALSECTION/CYBOOTASMKEIL
  +--> CYEXITCRITICALSECTION/CYBOOTASMKEIL

ADC_START/ADC                                 ----- -----  ----- -----  ----- -----
  +--> ADC_INIT/ADC
  +--> ADC_ENABLE/ADC

ADC_INIT/ADC                                  ----- -----  ----- -----  ----- -----
  +--> _ADC_EXT_CP_CLK_SETMODEREGISTER/ADC_EXT_CP_CLK
  +--> _ADC_THEACLK_SETMODEREGISTER/ADC_THEACLK
  +--> _CYINTSETPRIORITY/CYLIB
  +--> _ADC_GAINCOMPENSATION/ADC
  +--> CYWRITE16/CYMEM
  +--> _ADC_INITCONFIG/ADC

_ADC_EXT_CP_CLK_SETMODEREGISTER/ADC_EXT_+     ----- -----  ----- -----  ----- -----
... CP_CLK

_ADC_THEACLK_SETMODEREGISTER/ADC_THEACLK      ----- -----  ----- -----  ----- -----

_ADC_GAINCOMPENSATION/ADC                     ----- -----  ----- -----  0002H 0009H
  +--> CYREAD8/CYMEM

_ADC_INITCONFIG/ADC                           ----- -----  ----- -----  ----- -----
  +--> _ADC_SETDSMREF0REG/ADC
  +--> _ADC_AMUX_SELECT/ADC_AMUX
  +--> _ADC_EXT_CP_CLK_SETDIVIDERREGISTER/ADC_EXT_CP_CLK
  +--> _ADC_THEACLK_SETDIVIDERREGISTER/ADC_THEACLK
LX51 LINKER/LOCATER V4.64.0.0                                                         11/29/2018  15:53:27  PAGE 18


  +--> _CYINTSETVECTOR/CYLIB

_ADC_SETDSMREF0REG/ADC                        ----- -----  ----- -----  0002H 0003H
  +--> CYENTERCRITICALSECTION/CYBOOTASMKEIL
  +--> CYDELAYUS/CYBOOTASMKEIL
  +--> CYEXITCRITICALSECTION/CYBOOTASMKEIL

_ADC_AMUX_SELECT/ADC_AMUX                     ----- -----  ----- -----  0002H 0002H
  +--> ADC_AMUX_START/ADC_AMUX
  +--> _ADC_AMUX_SET/CYFITTER_CFG

ADC_AMUX_START/ADC_AMUX                       ----- -----  ----- -----  0003H 0003H
  +--> _ADC_AMUX_UNSET/CYFITTER_CFG

_ADC_AMUX_UNSET/CYFITTER_CFG                  ----- -----  ----- -----  ----- -----
  +--> ?CO?CYFITTER_CFG

_ADC_AMUX_SET/CYFITTER_CFG                    ----- -----  ----- -----  ----- -----
  +--> ?CO?CYFITTER_CFG

_ADC_EXT_CP_CLK_SETDIVIDERREGISTER/ADC_E+     ----- -----  ----- -----  0002H 0008H
... XT_CP_CLK
  +--> ADC_EXT_CP_CLK_GETSOURCEREGISTER/ADC_EXT_CP_CLK
  +--> ADC_EXT_CP_CLK_GETDIVIDERREGISTER/ADC_EXT_CP_CLK
  +--> CYWRITE16/CYMEM

ADC_EXT_CP_CLK_GETSOURCEREGISTER/ADC_EXT+     ----- -----  ----- -----  ----- -----
... _CP_CLK

ADC_EXT_CP_CLK_GETDIVIDERREGISTER/ADC_EX+     ----- -----  ----- -----  ----- -----
... T_CP_CLK
  +--> CYREAD16/CYMEM

_ADC_THEACLK_SETDIVIDERREGISTER/ADC_THEA+     ----- -----  ----- -----  0002H 0008H
... CLK
  +--> ADC_THEACLK_GETSOURCEREGISTER/ADC_THEACLK
  +--> ADC_THEACLK_GETDIVIDERREGISTER/ADC_THEACLK
  +--> CYWRITE16/CYMEM

ADC_THEACLK_GETSOURCEREGISTER/ADC_THEACL+     ----- -----  ----- -----  ----- -----
... K

ADC_THEACLK_GETDIVIDERREGISTER/ADC_THEAC+     ----- -----  ----- -----  ----- -----
... LK
  +--> CYREAD16/CYMEM

ADC_ENABLE/ADC                                ----- -----  ----- -----  0002H 0003H
  +--> CYENTERCRITICALSECTION/CYBOOTASMKEIL
  +--> CYDELAYUS/CYBOOTASMKEIL
  +--> CYEXITCRITICALSECTION/CYBOOTASMKEIL

_ADC_SOC_WRITE/ADC_SOC                        ----- -----  ----- -----  ----- -----

_DMA_DMAINITIALIZE/DMA_DMA                    ----- -----  ----- -----  0002H 0007H
  +--> _CYDMACHSETCONFIGURATION/CYDMAC
  +--> _CYDMACHSETEXTENDEDADDRESS/CYDMAC
  +--> _CYDMACHPRIORITY/CYDMAC

_CYDMACHSETCONFIGURATION/CYDMAC               ----- -----  ----- -----  0008H 000DH

_CYDMACHSETEXTENDEDADDRESS/CYDMAC             ----- -----  ----- -----  0008H 000FH
  +--> CYWRITE16/CYMEM

_CYDMACHPRIORITY/CYDMAC                       ----- -----  ----- -----  ----- -----

LX51 LINKER/LOCATER V4.64.0.0                                                         11/29/2018  15:53:27  PAGE 19


CYDMATDALLOCATE/CYDMAC                        ----- -----  ----- -----  0002H 0002H
  +--> CYENTERCRITICALSECTION/CYBOOTASMKEIL
  +--> CYEXITCRITICALSECTION/CYBOOTASMKEIL

_CYDMATDSETCONFIGURATION/CYDMAC               ----- -----  ----- -----  0002H 0009H
  +--> CYWRITE16/CYMEM

_CYDMATDSETADDRESS/CYDMAC                     ----- -----  ----- -----  0002H 0009H
  +--> CYWRITE16/CYMEM

_CYDMACHSETINITIALTD/CYDMAC                   ----- -----  ----- -----  ----- -----

_CYDMACHENABLE/CYDMAC                         ----- -----  ----- -----  ----- -----

_OPTO_PIN_WRITE/OPTO_PIN                      ----- -----  ----- -----  ----- -----

INITIMUGENERAL/IMU_FUNCTIONS                  ----- -----  ----- -----  0002H 0027H
  +--> _CHIPSELECTOR/IMU_FUNCTIONS
  +--> _?CYDELAY/CYLIB
  +--> INITIMUMAGCAL/IMU_FUNCTIONS
  +--> _READMAGCAL/IMU_FUNCTIONS
  +--> _READCONTROLREGISTER/IMU_FUNCTIONS
  +--> _OPTO_PIN_WRITE/OPTO_PIN
  +--> INITIMU/IMU_FUNCTIONS

_CHIPSELECTOR/IMU_FUNCTIONS                   ----- -----  ----- -----  0028H 0029H
  +--> _CHIP_SELECT_A_WRITE/CHIP_SELECT_A
  +--> _CHIP_SELECT_B_WRITE/CHIP_SELECT_B

_CHIP_SELECT_A_WRITE/CHIP_SELECT_A            ----- -----  ----- -----  ----- -----

_CHIP_SELECT_B_WRITE/CHIP_SELECT_B            ----- -----  ----- -----  ----- -----

INITIMUMAGCAL/IMU_FUNCTIONS                   ----- -----  ----- -----  ----- -----
  +--> _WRITECONTROLREGISTER/IMU_FUNCTIONS
  +--> _?CYDELAY/CYLIB

_WRITECONTROLREGISTER/IMU_FUNCTIONS           ----- -----  ----- -----  0028H 0029H
  +--> SPI_IMU_CLEARRXBUFFER/SPI_IMU
  +--> SPI_IMU_CLEARTXBUFFER/SPI_IMU
  +--> SPI_IMU_CLEARFIFO/SPI_IMU
  +--> _SPI_IMU_WRITETXDATA/SPI_IMU
  +--> SPI_IMU_READSTATUS/SPI_IMU

_SPI_IMU_WRITETXDATA/SPI_IMU                  ----- -----  ----- -----  ----- -----

SPI_IMU_READSTATUS/SPI_IMU                    ----- -----  ----- -----  ----- -----

_READMAGCAL/IMU_FUNCTIONS                     ----- -----  ----- -----  0028H 002AH
  +--> _READCONTROLREGISTER/IMU_FUNCTIONS

_READCONTROLREGISTER/IMU_FUNCTIONS            ----- -----  ----- -----  ----- -----
  +--> _SPI_IMU_WRITETXDATA/SPI_IMU
  +--> SPI_IMU_READSTATUS/SPI_IMU
  +--> SPI_IMU_READRXDATA/SPI_IMU

SPI_IMU_READRXDATA/SPI_IMU                    ----- -----  ----- -----  ----- -----

INITIMU/IMU_FUNCTIONS                         ----- -----  ----- -----  ----- -----
  +--> _WRITECONTROLREGISTER/IMU_FUNCTIONS
  +--> _?CYDELAY/CYLIB

_RESET_FF_WRITE/RESET_FF                      ----- -----  ----- -----  ----- -----

FUNCTION_SCHEDULER/INTERRUPTIONS              ----- -----  ----- -----  ----- -----
LX51 LINKER/LOCATER V4.64.0.0                                                         11/29/2018  15:53:27  PAGE 20


  +--> MY_TIMER_READCOUNTER/MY_TIMER
  +--> _ADC_SOC_WRITE/ADC_SOC
  +--> INTERRUPT_MANAGER/INTERRUPTIONS
  +--> READALLIMUS/IMU_FUNCTIONS
  +--> ANALOG_READ_END/INTERRUPTIONS
  +--> _MY_TIMER_WRITECOUNTER/MY_TIMER

MY_TIMER_READCOUNTER/MY_TIMER                 ----- -----  ----- -----  ----- -----
  +--> CYREAD24/CYMEM

INTERRUPT_MANAGER/INTERRUPTIONS               20H.0 20H.0  0008H 0009H  ----- -----
  +--> UART_RS485_GETRXBUFFERSIZE/UART_RS485
  +--> UART_RS485_GETCHAR/UART_RS485
  +--> _INFOGET/COMMAND_PROCESSING
  +--> COMMPROCESS/COMMAND_PROCESSING
  +--> _RS485_CTS_WRITE/RS485_CTS

UART_RS485_GETRXBUFFERSIZE/UART_RS485         ----- -----  ----- -----  ----- -----

UART_RS485_GETCHAR/UART_RS485                 ----- -----  ----- -----  ----- -----

_INFOGET/COMMAND_PROCESSING                   ----- -----  ----- -----  ----- -----
  +--> _INFOPREPARE/COMMAND_PROCESSING
  +--> _UART_RS485_PUTSTRING/UART_RS485
  +--> _INFOREADING/COMMAND_PROCESSING

_INFOPREPARE/COMMAND_PROCESSING               ----- -----  ----- -----  0002H 006AH
  +--> ?CO?COMMAND_PROCESSING
  +--> _STRCAT/STRCAT
  +--> PRINTF/PRINTF

?CO?COMMAND_PROCESSING                        ----- -----  ----- -----  ----- -----

_STRCAT/STRCAT                                ----- -----  ----- -----  08B0H 08B8H

PRINTF/PRINTF                                 20H.1 21H.1  001AH 001EH  08B0H 08DFH
  +--> PUTCHAR/PUTCHAR

PUTCHAR/PUTCHAR                               ----- -----  ----- -----  ----- -----

_UART_RS485_PUTSTRING/UART_RS485              ----- -----  ----- -----  0002H 0004H
  +--> _UART_RS485_PUTCHAR/UART_RS485

_UART_RS485_PUTCHAR/UART_RS485                ----- -----  ----- -----  ----- -----

_INFOREADING/COMMAND_PROCESSING               ----- -----  ----- -----  0002H 006AH
  +--> ?CO?COMMAND_PROCESSING
  +--> _STRCAT/STRCAT
  +--> PRINTF/PRINTF

COMMPROCESS/COMMAND_PROCESSING                ----- -----  000AH 000AH  ----- -----
  +--> _LCRCHECKSUM/COMMAND_PROCESSING
  +--> CMD_SET_BAUDRATE/COMMAND_PROCESSING
  +--> _INFOGET/COMMAND_PROCESSING
  +--> _GET_PARAM_LIST/COMMAND_PROCESSING
  +--> CMD_PING/COMMAND_PROCESSING
  +--> CMD_STORE_PARAMS/COMMAND_PROCESSING
  +--> _MEMSTORE/COMMAND_PROCESSING
  +--> _SENDACKNOWLEDGMENT/COMMAND_PROCESSING
  +--> MEMRESTORE/COMMAND_PROCESSING
  +--> MEMINIT/COMMAND_PROCESSING
  +--> _?CYDELAY/CYLIB
  +--> _FTDI_ENABLE_REG_WRITE/FTDI_ENABLE_REG
  +--> BOOTLOADABLE_LOAD/BOOTLOADABLE
  +--> CMD_GET_IMU_READINGS/COMMAND_PROCESSING
LX51 LINKER/LOCATER V4.64.0.0                                                         11/29/2018  15:53:27  PAGE 21


  +--> CMD_GET_SENSORS/COMMAND_PROCESSING

_LCRCHECKSUM/COMMAND_PROCESSING               ----- -----  001AH 001BH  08B0H 08B2H

CMD_SET_BAUDRATE/COMMAND_PROCESSING           ----- -----  ----- -----  ----- -----
  +--> _CLOCK_UART_SETDIVIDERREGISTER/CLOCK_UART

_CLOCK_UART_SETDIVIDERREGISTER/CLOCK_UAR+     ----- -----  ----- -----  0002H 0008H
... T
  +--> CLOCK_UART_GETSOURCEREGISTER/CLOCK_UART
  +--> CLOCK_UART_GETDIVIDERREGISTER/CLOCK_UART
  +--> CYWRITE16/CYMEM

CLOCK_UART_GETSOURCEREGISTER/CLOCK_UART       ----- -----  ----- -----  ----- -----

CLOCK_UART_GETDIVIDERREGISTER/CLOCK_UART      ----- -----  ----- -----  ----- -----
  +--> CYREAD16/CYMEM

_GET_PARAM_LIST/COMMAND_PROCESSING            ----- -----  000BH 0019H  0002H 08AFH
  +--> ?CO?COMMAND_PROCESSING
  +--> _STRLEN/STRLEN
  +--> PRINTF/PRINTF
  +--> _STRCAT/STRCAT
  +--> _LCRCHECKSUM/COMMAND_PROCESSING
  +--> _COMMWRITE/COMMAND_PROCESSING
  +--> UART_RS485_CLEARTXBUFFER/UART_RS485

_STRLEN/STRLEN                                ----- -----  ----- -----  ----- -----

_COMMWRITE/COMMAND_PROCESSING                 ----- -----  001AH 001BH  08B0H 08B4H
  +--> _UART_RS485_PUTCHAR/UART_RS485
  +--> UART_RS485_READTXSTATUS/UART_RS485
  +--> _RS485_CTS_WRITE/RS485_CTS

UART_RS485_READTXSTATUS/UART_RS485            ----- -----  ----- -----  ----- -----

CMD_PING/COMMAND_PROCESSING                   ----- -----  ----- -----  0002H 0003H
  +--> _COMMWRITE/COMMAND_PROCESSING

CMD_STORE_PARAMS/COMMAND_PROCESSING           ----- -----  ----- -----  ----- -----
  +--> _MEMSTORE/COMMAND_PROCESSING
  +--> _SENDACKNOWLEDGMENT/COMMAND_PROCESSING

_SENDACKNOWLEDGMENT/COMMAND_PROCESSING        ----- -----  ----- -----  0002H 0003H
  +--> _COMMWRITE/COMMAND_PROCESSING

BOOTLOADABLE_LOAD/BOOTLOADABLE                ----- -----  ----- -----  ----- -----
  +--> CYSOFTWARERESET/CYLIB

CYSOFTWARERESET/CYLIB                         ----- -----  ----- -----  ----- -----

CMD_GET_IMU_READINGS/COMMAND_PROCESSING       ----- -----  ----- -----  0002H 0179H
  +--> _LCRCHECKSUM/COMMAND_PROCESSING
  +--> _COMMWRITE/COMMAND_PROCESSING

CMD_GET_SENSORS/COMMAND_PROCESSING            ----- -----  ----- -----  0002H 0007H
  +--> _LCRCHECKSUM/COMMAND_PROCESSING
  +--> _COMMWRITE/COMMAND_PROCESSING

READALLIMUS/IMU_FUNCTIONS                     ----- -----  ----- -----  0002H 0009H
  +--> _CHIPSELECTOR/IMU_FUNCTIONS
  +--> _READIMU/IMU_FUNCTIONS

_READIMU/IMU_FUNCTIONS                        ----- -----  ----- -----  000AH 000BH
  +--> _READACC/IMU_FUNCTIONS
LX51 LINKER/LOCATER V4.64.0.0                                                         11/29/2018  15:53:27  PAGE 22


  +--> _READGYRO/IMU_FUNCTIONS
  +--> _READMAG/IMU_FUNCTIONS
  +--> _READQUAT/IMU_FUNCTIONS
  +--> _READTEMP/IMU_FUNCTIONS

_READACC/IMU_FUNCTIONS                        ----- -----  ----- -----  0061H 0064H
  +--> _READCONTROLREGISTER/IMU_FUNCTIONS
  +--> SPI_DELAY/IMU_FUNCTIONS

SPI_DELAY/IMU_FUNCTIONS                       ----- -----  ----- -----  ----- -----
  +--> CYDELAYUS/CYBOOTASMKEIL

_READGYRO/IMU_FUNCTIONS                       ----- -----  ----- -----  0061H 0064H
  +--> _READCONTROLREGISTER/IMU_FUNCTIONS
  +--> SPI_DELAY/IMU_FUNCTIONS

_READMAG/IMU_FUNCTIONS                        ----- -----  ----- -----  000CH 000FH
  +--> _READCONTROLREGISTER/IMU_FUNCTIONS
  +--> SPI_DELAY/IMU_FUNCTIONS

_READQUAT/IMU_FUNCTIONS                       ----- -----  ----- -----  000CH 0060H
  +--> _READACC/IMU_FUNCTIONS
  +--> _READGYRO/IMU_FUNCTIONS
  +--> _FABS/FABS
  +--> _V3_NORMALIZE/UTILS
  +--> _V4_NORMALIZE/UTILS

_FABS/FABS                                    ----- -----  ----- -----  ----- -----

_V3_NORMALIZE/UTILS                           ----- -----  ----- -----  0061H 0067H
  +--> _INVSQRT/UTILS

_INVSQRT/UTILS                                ----- -----  ----- -----  0068H 0077H

_V4_NORMALIZE/UTILS                           ----- -----  ----- -----  0061H 0067H
  +--> _INVSQRT/UTILS

_READTEMP/IMU_FUNCTIONS                       ----- -----  ----- -----  000CH 000FH
  +--> _READCONTROLREGISTER/IMU_FUNCTIONS
  +--> SPI_DELAY/IMU_FUNCTIONS

ANALOG_READ_END/INTERRUPTIONS                 ----- -----  ----- -----  ----- -----
  +--> ADC_STATUS_READ/ADC_STATUS
  +--> INTERRUPT_MANAGER/INTERRUPTIONS

ADC_STATUS_READ/ADC_STATUS                    ----- -----  ----- -----  ----- -----

FF_STATUS_READ/FF_STATUS                      ----- -----  ----- -----  ----- -----

UART_RS485_READRXSTATUS/UART_RS485            ----- -----  ----- -----  ----- -----

?C_INITSEG                                    ----- -----  ----- -----  ----- -----

*** NEW ROOT ********************************

UART_RS485_RXISR/UART_RS485_INT               ----- -----  ----- -----  ----- -----

*** NEW ROOT ********************************

ADC_ISR1/ADC_INT                              ----- -----  ----- -----  ----- -----

*** NEW ROOT ********************************

ADC_ISR2/ADC_INT                              ----- -----  ----- -----  ----- -----

LX51 LINKER/LOCATER V4.64.0.0                                                         11/29/2018  15:53:27  PAGE 23


*** NEW ROOT ********************************

ADC_ISR3/ADC_INT                              ----- -----  ----- -----  ----- -----

*** NEW ROOT ********************************

ADC_ISR4/ADC_INT                              ----- -----  ----- -----  ----- -----



PUBLIC SYMBOLS OF MODULE:  .\DP8051_Keil_951\Release\firmware.omf (COMMAND_PROCESSING)


      VALUE       CLASS    TYPE      PUBLIC SYMBOL NAME
      =================================================
*DEL*:00000000H   XDATA    BYTE      ?_Bootloadable_SetFlashByte?BYTE
      02000000H   XDATA    BYTE      ?_cyconfigcpy?BYTE
      02000008H   XDATA    BYTE      ?_CyDmaChSetConfiguration?BYTE
*DEL*:00000000H   XDATA    BYTE      ?_CyDmaChStatus?BYTE
*DEL*:00000000H   XDATA    BYTE      ?_CyDmaTdGetAddress?BYTE
*DEL*:00000000H   XDATA    BYTE      ?_CyDmaTdGetConfiguration?BYTE
      02000002H   XDATA    BYTE      ?_CyDmaTdSetConfiguration?BYTE
*DEL*:00000000H   XDATA    BYTE      ?_CySpcLoadMultiByte?BYTE
      0200000EH   XDATA    BYTE      ?_CySpcLoadRow?BYTE
*DEL*:00000000H   XDATA    BYTE      ?_CySpcLoadRowFull?BYTE
      0200000EH   XDATA    BYTE      ?_CySpcWriteRow?BYTE
*DEL*:00000000H   XDATA    BYTE      ?_CyWriteRowFull?BYTE
      02000002H   XDATA    BYTE      ?_DMA_DmaInitialize?BYTE
      020008B0H   XDATA    ---       ?_PRINTF?BYTE
      020008B0H   XDATA    ---       ?_SPRINTF?BYTE
      020008B0H   XDATA    ---       ?_strcat?BYTE
      010055CFH   CODE     ---       ?C?ADDXBP
      010050E7H   CODE     ---       ?C?CASTF
      010055A9H   CODE     ---       ?C?CCASE
      01005333H   CODE     ---       ?C?CLDOPTR
      0100531AH   CODE     ---       ?C?CLDPTR
      00000000H   NUMBER   ---       ?C?CODESEG
      01005708H   CODE     ---       ?C?COPYAMD
      01005360H   CODE     ---       ?C?CSTPTR
      010050B3H   CODE     ---       ?C?FCASTC
      010050AEH   CODE     ---       ?C?FCASTI
      010050A9H   CODE     ---       ?C?FCASTL
      01004D88H   CODE     ---       ?C?FPADD
      01005021H   CODE     ---       ?C?FPCMP
      0100501FH   CODE     ---       ?C?FPCMP3
      010051A5H   CODE     ---       ?C?FPCONVERT
      01004F82H   CODE     ---       ?C?FPDIV
      0100511EH   CODE     ---       ?C?FPGETOPN2
      01004E79H   CODE     ---       ?C?FPMUL
      01005153H   CODE     ---       ?C?FPNANRESULT
      01005098H   CODE     ---       ?C?FPNEG
      0100515DH   CODE     ---       ?C?FPOVERFLOW
      01005135H   CODE     ---       ?C?FPRESULT
      01005149H   CODE     ---       ?C?FPRESULT2
      01005168H   CODE     ---       ?C?FPROUND
      01004D84H   CODE     ---       ?C?FPSUB
      0100515AH   CODE     ---       ?C?FPUNDERFLOW
      010052DAH   CODE     ---       ?C?FTNPWR
      01005803H   CODE     ---       ?C?IILDX
      01005819H   CODE     ---       ?C?ILDIX
      01005372H   CODE     ---       ?C?IMUL
      01005384H   CODE     ---       ?C?ISTPTR
      010055F3H   CODE     ---       ?C?LIMUL
      01005853H   CODE     ---       ?C?LLDCODE
      0100582FH   CODE     ---       ?C?LLDIDATA
LX51 LINKER/LOCATER V4.64.0.0                                                         11/29/2018  15:53:27  PAGE 24


      01005847H   CODE     ---       ?C?LLDPDATA
      01005526H   CODE     ---       ?C?LLDPTR
      0100583BH   CODE     ---       ?C?LLDXDATA
      010053A3H   CODE     ---       ?C?LMUL
      010054CDH   CODE     ---       ?C?LNEG
      010054C0H   CODE     ---       ?C?LNOT
      01005513H   CODE     ---       ?C?LSHL
      01005863H   CODE     ---       ?C?LSTIDATA
      0100586FH   CODE     ---       ?C?LSTPDATA
      01005546H   CODE     ---       ?C?LSTPTR
      01005560H   CODE     ---       ?C?LSTXDATA
      01005620H   CODE     ---       ?C?MEMSET
      0100556CH   CODE     ---       ?C?OFFX256
      0100557DH   CODE     ---       ?C?OFFXADD
      01005589H   CODE     ---       ?C?PLDIXDATA
      010055A0H   CODE     ---       ?C?PSTXDATA
      01009576H   CODE     ---       ?C?SLDIV
      010054FFH   CODE     ---       ?C?SLSHR
      010057E6H   CODE     ---       ?C?STRCPYAMD
      010054DBH   CODE     ---       ?C?ULCMP
      0100542EH   CODE     ---       ?C?ULDIV
      010054ECH   CODE     ---       ?C?ULSHR
      00000000H   NUMBER   ---       ?C?XDATASEG
      00000000H   NUMBER   ---       ?C?XPAGE1RST
      00000093H   DATA     BYTE      ?C?XPAGE1SFR
      01007D7CH   CODE     ---       ?C_START
      01002600H   CODE     NEAR LAB  ?C_STARTUP
      00000028H   DATA     ---       ?C_XBP
      01008C9EH   CODE     ---       _?CyDelay
*DEL*:00000000H   CODE     ---       _?CyDelayFreq
*DEL*:00000000H   CODE     ---       _?CyHalt
*DEL*:00000000H   CODE     ---       _ADC_AMux_FastSelect
      01009C45H   CODE     ---       _ADC_AMux_Select
      0100996AH   CODE     ---       _ADC_AMux_Set
      010098A8H   CODE     ---       _ADC_AMux_Unset
*DEL*:00000000H   CODE     ---       _ADC_CountsTo_mVolts
*DEL*:00000000H   CODE     ---       _ADC_CountsTo_uVolts
*DEL*:00000000H   CODE     ---       _ADC_CountsTo_Volts
*DEL*:00000000H   CODE     ---       _ADC_Ext_CP_Clk_ClearModeRegister
      010075A0H   CODE     ---       _ADC_Ext_CP_Clk_SetDividerRegister
      01009E8EH   CODE     ---       _ADC_Ext_CP_Clk_SetModeRegister
*DEL*:00000000H   CODE     ---       _ADC_Ext_CP_Clk_SetSourceRegister
*DEL*:00000000H   CODE     ---       _ADC_Ext_CP_Clk_StandbyPower
*DEL*:00000000H   CODE     ---       _ADC_IsEndConversion
*DEL*:00000000H   CODE     ---       _ADC_SelectConfiguration
*DEL*:00000000H   CODE     ---       _ADC_SetBufferGain
*DEL*:00000000H   CODE     ---       _ADC_SetCoherency
*DEL*:00000000H   CODE     ---       _ADC_SetGain
*DEL*:00000000H   CODE     ---       _ADC_SetGCOR
*DEL*:00000000H   CODE     ---       _ADC_SetOffset
      01009F9CH   CODE     ---       _ADC_SOC_Write
*DEL*:00000000H   CODE     ---       _ADC_STATUS_WriteMask
*DEL*:00000000H   CODE     ---       _ADC_theACLK_ClearModeRegister
      01007801H   CODE     ---       _ADC_theACLK_SetDividerRegister
      01009E9BH   CODE     ---       _ADC_theACLK_SetModeRegister
*DEL*:00000000H   CODE     ---       _ADC_theACLK_SetPhaseRegister
*DEL*:00000000H   CODE     ---       _ADC_theACLK_SetSourceRegister
*DEL*:00000000H   CODE     ---       _ADC_theACLK_StandbyPower
*DEL*:00000000H   CODE     ---       _Bootloadable_SetFlashByte
*DEL*:00000000H   CODE     NEAR LAB  _cfg_write_bytes
*DEL*:00000000H   CODE     NEAR LAB  _cfg_write_bytes_code
      01009FB4H   CODE     ---       _Chip_Select_A_Write
      01009FBAH   CODE     ---       _Chip_Select_B_Write
      010094E5H   CODE     ---       _ChipSelector
*DEL*:00000000H   CODE     ---       _CLOCK_UART_ClearModeRegister
LX51 LINKER/LOCATER V4.64.0.0                                                         11/29/2018  15:53:27  PAGE 25


      010076D1H   CODE     ---       _CLOCK_UART_SetDividerRegister
*DEL*:00000000H   CODE     ---       _CLOCK_UART_SetModeRegister
*DEL*:00000000H   CODE     ---       _CLOCK_UART_SetSourceRegister
*DEL*:00000000H   CODE     ---       _CLOCK_UART_StandbyPower
      01008B89H   CODE     ---       _commWrite
*DEL*:00000000H   CODE     ---       _CyBusClk_SetDivider
      010097DCH   CODE     NEAR LAB  _cyconfigcpy
      01009A78H   CODE     NEAR LAB  _cyconfigcpycode
*DEL*:00000000H   CODE     ---       _CyCpuClk_SetDivider
*DEL*:00000000H   CODE     NEAR LAB  _CyDelay
      01009700H   CODE     NEAR LAB  _CyDelayCycles
      010099F8H   CODE     NEAR LAB  _CyDelayUs
*DEL*:00000000H   CODE     ---       _CyDmacClearError
*DEL*:00000000H   CODE     ---       _CyDmaChDisable
      01009450H   CODE     ---       _CyDmaChEnable
*DEL*:00000000H   CODE     ---       _CyDmaChFree
*DEL*:00000000H   CODE     ---       _CyDmaChGetRequest
      010095FBH   CODE     ---       _CyDmaChPriority
*DEL*:00000000H   CODE     ---       _CyDmaChRoundRobin
      01008EB2H   CODE     ---       _CyDmaChSetConfiguration
      01008F2BH   CODE     ---       _CyDmaChSetExtendedAddress
      01009BA6H   CODE     ---       _CyDmaChSetInitialTd
*DEL*:00000000H   CODE     ---       _CyDmaChSetRequest
*DEL*:00000000H   CODE     ---       _CyDmaChStatus
*DEL*:00000000H   CODE     ---       _CyDmaClearPendingDrq
*DEL*:00000000H   CODE     ---       _CyDmaTdFree
*DEL*:00000000H   CODE     ---       _CyDmaTdGetAddress
*DEL*:00000000H   CODE     ---       _CyDmaTdGetConfiguration
      01008FA3H   CODE     ---       _CyDmaTdSetAddress
      01008D26H   CODE     ---       _CyDmaTdSetConfiguration
*DEL*:00000000H   CODE     ---       _CyEnableInts
      01009C76H   CODE     NEAR LAB  _CyExitCriticalSection
*DEL*:00000000H   CODE     ---       _CyFlash_SetWaitCycles
*DEL*:00000000H   CODE     ---       _CyGetUniqueId
*DEL*:00000000H   CODE     ---       _CyILO_SetPowerMode
*DEL*:00000000H   CODE     ---       _CyILO_SetSource
*DEL*:00000000H   CODE     ---       _CyIMO_SetFreq
*DEL*:00000000H   CODE     ---       _CyIMO_SetSource
*DEL*:00000000H   CODE     ---       _CyIMO_Start
*DEL*:00000000H   CODE     ---       _CyIntGetPriority
*DEL*:00000000H   CODE     ---       _CyIntGetState
*DEL*:00000000H   CODE     ---       _CyIntGetVector
      01009C13H   CODE     ---       _CyIntSetPriority
      010092BCH   CODE     ---       _CyIntSetVector
*DEL*:00000000H   CODE     ---       _CyMasterClk_SetDivider
*DEL*:00000000H   CODE     ---       _CyMasterClk_SetSource
*DEL*:00000000H   CODE     NEAR LAB  _cymemzero
*DEL*:00000000H   CODE     ---       _CyPLL_OUT_SetPQ
*DEL*:00000000H   CODE     ---       _CyPLL_OUT_SetSource
*DEL*:00000000H   CODE     ---       _CyPLL_OUT_Start
*DEL*:00000000H   CODE     ---       _CyPmAltAct
*DEL*:00000000H   CODE     ---       _CyPmCtwSetInterval
*DEL*:00000000H   CODE     ---       _CyPmFtwSetInterval
*DEL*:00000000H   CODE     ---       _CyPmHibernateEx
*DEL*:00000000H   CODE     ---       _CyPmReadStatus
*DEL*:00000000H   CODE     ---       _CyPmSleep
      01009E1EH   CODE     NEAR LAB  _cyread16
      01009E20H   CODE     NEAR LAB  _cyread16_nodpx
      01009D98H   CODE     NEAR LAB  _cyread24
      01009D9AH   CODE     NEAR LAB  _cyread24_nodpx
*DEL*:00000000H   CODE     NEAR LAB  _cyread32
*DEL*:00000002H   CODE     NEAR LAB  _cyread32_nodpx
      01009EB5H   CODE     NEAR LAB  _cyread8
      01009EB7H   CODE     NEAR LAB  _cyread8_nodpx
*DEL*:00000000H   CODE     ---       _CySetFlashEEBuffer
LX51 LINKER/LOCATER V4.64.0.0                                                         11/29/2018  15:53:27  PAGE 26


*DEL*:00000000H   CODE     ---       _CySpcEraseSector
      010099C9H   CODE     ---       _CySpcGetTemp
*DEL*:00000000H   CODE     ---       _CySpcLoadMultiByte
      0100901BH   CODE     ---       _CySpcLoadRow
*DEL*:00000000H   CODE     ---       _CySpcLoadRowFull
      010090F9H   CODE     ---       _CySpcReadData
      01009310H   CODE     ---       _CySpcWriteRow
*DEL*:00000000H   CODE     ---       _CyUsbClk_SetSource
*DEL*:00000000H   CODE     ---       _CyVdLvAnalogEnable
*DEL*:00000000H   CODE     ---       _CyVdLvDigitEnable
*DEL*:00000000H   CODE     ---       _CyVdStickyStatus
*DEL*:00000000H   CODE     ---       _CyWdtStart
      01009E2DH   CODE     NEAR LAB  _cywrite16
      01009E2FH   CODE     NEAR LAB  _cywrite16_nodpx
      01009DCFH   CODE     NEAR LAB  _cywrite24
      01009DD1H   CODE     NEAR LAB  _cywrite24_nodpx
*DEL*:00000000H   CODE     NEAR LAB  _cywrite32
*DEL*:00000002H   CODE     NEAR LAB  _cywrite32_nodpx
      01009EC1H   CODE     NEAR LAB  _cywrite8
      01009EC3H   CODE     NEAR LAB  _cywrite8_nodpx
*DEL*:00000000H   CODE     ---       _CyWriteRowData
*DEL*:00000000H   CODE     ---       _CyWriteRowFull
*DEL*:00000000H   CODE     ---       _CyXTAL_32KHZ_SetPowerMode
*DEL*:00000000H   CODE     ---       _CyXTAL_SetFbVoltage
*DEL*:00000000H   CODE     ---       _CyXTAL_SetStartup
*DEL*:00000000H   CODE     ---       _CyXTAL_SetWdVoltage
*DEL*:00000000H   CODE     ---       _CyXTAL_Start
      0100949BH   CODE     ---       _DMA_DmaInitialize
      01002604H   CODE     NEAR LAB  _dma_wait
*DEL*:00000000H   CODE     ---       _EEPROM_ByteWritePos
*DEL*:00000000H   CODE     ---       _EEPROM_EraseSector
*DEL*:00000000H   CODE     ---       _EEPROM_ReadByte
*DEL*:00000000H   CODE     ---       _EEPROM_StartErase
*DEL*:00000000H   CODE     ---       _EEPROM_StartWrite
      010086B1H   CODE     ---       _EEPROM_Write
*DEL*:00000000H   CODE     ---       _EEPROM_WriteByte
      01009EA8H   CODE     ---       _FABS
*DEL*:00000000H   CODE     ---       _FF_STATUS_WriteMask
      01009F78H   CODE     ---       _FTDI_ENABLE_REG_Write
      0100261AH   CODE     ---       _get_param_list
      0100990AH   CODE     ---       _infoGet
      0100587BH   CODE     ---       _infoPrepare
      01006293H   CODE     ---       _infoReading
      010083F0H   CODE     ---       _invSqrt
      01009ED9H   CODE     ---       _ISR_RS485_RX_SetPriority
      010096F2H   CODE     ---       _ISR_RS485_RX_SetVector
      01009B68H   CODE     ---       _ISR_RS485_RX_StartEx
      01009876H   CODE     ---       _LCRChecksum
      010088F2H   CODE     ---       _memStore
      01009F8AH   CODE     ---       _MY_TIMER_SetInterruptMode
*DEL*:00000000H   CODE     ---       _MY_TIMER_WriteControlRegister
      01009F0BH   CODE     ---       _MY_TIMER_WriteCounter
      01009EF7H   CODE     ---       _MY_TIMER_WritePeriod
*DEL*:00000000H   CODE     ---       _Opto_Pin_SetDriveMode
      01009DE1H   CODE     ---       _Opto_Pin_Write
      01009F6CH   CODE     ---       _PACER_TIMER_SetInterruptMode
*DEL*:00000000H   CODE     ---       _PACER_TIMER_WriteControlRegister
      01009E59H   CODE     ---       _PACER_TIMER_WriteCounter
      01009E4BH   CODE     ---       _PACER_TIMER_WritePeriod
      01005E7BH   CODE     ---       _PRINTF
      01009A51H   CODE     ---       _PUTCHAR
      01007DC1H   CODE     ---       _ReadAcc
      01009C8EH   CODE     ---       _ReadControlRegister
      01007EDDH   CODE     ---       _ReadGyro
      01008A4EH   CODE     ---       _ReadIMU
LX51 LINKER/LOCATER V4.64.0.0                                                         11/29/2018  15:53:27  PAGE 27


      01007FF9H   CODE     ---       _ReadMag
      01008DADH   CODE     ---       _ReadMagCal
      010034DDH   CODE     ---       _ReadQuat
      01009159H   CODE     ---       _ReadTemp
      01009F7EH   CODE     ---       _RESET_FF_Write
      01009F72H   CODE     ---       _RS485_CTS_Write
      01009CBBH   CODE     ---       _sendAcknowledgment
*DEL*:00000000H   CODE     ---       _SetAnalogRoutingPumps
*DEL*:00000000H   CODE     ---       _SPI_IMU_IntClock_ClearModeRegister
*DEL*:00000000H   CODE     ---       _SPI_IMU_IntClock_SetDividerRegister
*DEL*:00000000H   CODE     ---       _SPI_IMU_IntClock_SetModeRegister
*DEL*:00000000H   CODE     ---       _SPI_IMU_IntClock_SetSourceRegister
*DEL*:00000000H   CODE     ---       _SPI_IMU_IntClock_StandbyPower
*DEL*:00000000H   CODE     ---       _SPI_IMU_PutArray
*DEL*:00000000H   CODE     ---       _SPI_IMU_SetInterruptMode
*DEL*:00000000H   CODE     ---       _SPI_IMU_SetRxInterruptMode
*DEL*:00000000H   CODE     ---       _SPI_IMU_SetTxInterruptMode
      01009E81H   CODE     ---       _SPI_IMU_WriteTxData
      01005E75H   CODE     ---       _SPRINTF
      0100908EH   CODE     ---       _strcat
      01009D0FH   CODE     ---       _STRLEN
*DEL*:00000000H   CODE     ---       _UART_RS485_PutArray
      01009E67H   CODE     ---       _UART_RS485_PutChar
*DEL*:00000000H   CODE     ---       _UART_RS485_PutCRLF
      010097A8H   CODE     ---       _UART_RS485_PutString
*DEL*:00000000H   CODE     ---       _UART_RS485_SendBreak
*DEL*:00000000H   CODE     ---       _UART_RS485_SetRxAddress1
*DEL*:00000000H   CODE     ---       _UART_RS485_SetRxAddress2
*DEL*:00000000H   CODE     ---       _UART_RS485_SetRxAddressMode
*DEL*:00000000H   CODE     ---       _UART_RS485_SetRxInterruptMode
*DEL*:00000000H   CODE     ---       _UART_RS485_SetTxAddressMode
*DEL*:00000000H   CODE     ---       _UART_RS485_SetTxInterruptMode
*DEL*:00000000H   CODE     ---       _UART_RS485_WriteControlRegister
*DEL*:00000000H   CODE     ---       _UART_RS485_WriteTxData
      01007B82H   CODE     ---       _v3_normalize
      010072BDH   CODE     ---       _v4_normalize
      0100993AH   CODE     ---       _WriteControlRegister
*SFR* 000000D0H.6 DATA     BIT       AC
*SFR* 000000E0H   DATA     BYTE      ACC
      02001072H   XDATA    ---       Accel
      0100A641H   CONST    ---       ADC_AMux__addrTable
      0100A645H   CONST    ---       ADC_AMux__maskTable
      01009B07H   CODE     ---       ADC_AMux_Start
      020010DAH   XDATA    ---       ADC_buf
      0200161AH   XDATA    BYTE      ADC_Config
      02001625H   XDATA    BYTE      ADC_convDone
      02001626H   XDATA    LONG      ADC_CountsPerVolt
      01008C16H   CODE     ---       ADC_Enable
      01009F15H   CODE     ---       ADC_Ext_CP_Clk_GetDividerRegister
*DEL*:00000000H   CODE     ---       ADC_Ext_CP_Clk_GetModeRegister
      01009F41H   CODE     ---       ADC_Ext_CP_Clk_GetSourceRegister
*DEL*:00000000H   CODE     ---       ADC_Ext_CP_Clk_Start
*DEL*:00000000H   CODE     ---       ADC_Ext_CP_Clk_Stop
*DEL*:00000000H   CODE     ---       ADC_Ext_CP_Clk_StopBlock
*DEL*:00000000H   CODE     ---       ADC_GetResult16
*DEL*:00000000H   CODE     ---       ADC_GetResult32
*DEL*:00000000H   CODE     ---       ADC_GetResult8
      01008790H   CODE     ---       ADC_Init
      0200161BH   XDATA    BYTE      ADC_initVar
      01009FCCH   CODE     ---       ADC_ISR1
      01009FCDH   CODE     ---       ADC_ISR2
      01009FCEH   CODE     ---       ADC_ISR3
      01009FCFH   CODE     ---       ADC_ISR4
      0200161CH   XDATA    LONG      ADC_Offset
*DEL*:00000000H   CODE     ---       ADC_Read16
LX51 LINKER/LOCATER V4.64.0.0                                                         11/29/2018  15:53:27  PAGE 28


*DEL*:00000000H   CODE     ---       ADC_Read32
*DEL*:00000000H   CODE     ---       ADC_Read8
*DEL*:00000000H   CODE     ---       ADC_ReadGCOR
*DEL*:00000000H   CODE     ---       ADC_SOC_Read
      01009BFAH   CODE     ---       ADC_Start
*DEL*:00000000H   CODE     ---       ADC_StartConvert
      02001621H   XDATA    BYTE      ADC_started
*DEL*:00000000H   CODE     ---       ADC_STATUS_InterruptDisable
*DEL*:00000000H   CODE     ---       ADC_STATUS_InterruptEnable
      01009F96H   CODE     ---       ADC_STATUS_Read
*DEL*:00000000H   CODE     ---       ADC_STATUS_ReadMask
*DEL*:00000000H   CODE     ---       ADC_Stop
      02001620H   XDATA    BYTE      ADC_stopConversion
*DEL*:00000000H   CODE     ---       ADC_StopConvert
      01009F1FH   CODE     ---       ADC_theACLK_GetDividerRegister
*DEL*:00000000H   CODE     ---       ADC_theACLK_GetModeRegister
*DEL*:00000000H   CODE     ---       ADC_theACLK_GetPhaseRegister
      01009F49H   CODE     ---       ADC_theACLK_GetSourceRegister
*DEL*:00000000H   CODE     ---       ADC_theACLK_Start
*DEL*:00000000H   CODE     ---       ADC_theACLK_Stop
*DEL*:00000000H   CODE     ---       ADC_theACLK_StopBlock
      0100973BH   CODE     ---       analog_read_end
*SFR* 000000F0H   DATA     BYTE      B
      01009EEDH   CODE     ---       Bootloadable_Load
      020008E0H   XDATA    ---       c_mem
*DEL*:00000000H   CODE     ---       Chip_Select_A_Read
*DEL*:00000000H   CODE     ---       Chip_Select_B_Read
      01009EE3H   CODE     ---       CLOCK_UART_GetDividerRegister
*DEL*:00000000H   CODE     ---       CLOCK_UART_GetModeRegister
      01009F29H   CODE     ---       CLOCK_UART_GetSourceRegister
*DEL*:00000000H   CODE     ---       CLOCK_UART_Start
*DEL*:00000000H   CODE     ---       CLOCK_UART_Stop
*DEL*:00000000H   CODE     ---       CLOCK_UART_StopBlock
      0100670EH   CODE     ---       cmd_get_imu_readings
      010095BAH   CODE     ---       cmd_get_sensors
      01009D24H   CODE     ---       cmd_ping
      01009B28H   CODE     ---       cmd_set_baudrate
      01009CD0H   CODE     ---       cmd_store_params
      010084DFH   CODE     ---       commProcess
*SFR* 000000D0H.7 DATA     BIT       CY
      02001635H   XDATA    DWORD     cydelay_32k_ms
      02001630H   XDATA    DWORD     cydelay_freq_hz
      0200162BH   XDATA    DWORD     cydelay_freq_khz
      0200162FH   XDATA    BYTE      cydelay_freq_mhz
*DEL*:00000000H   CODE     ---       CyDisableInts
      01009772H   CODE     ---       CyDmacConfigure
*DEL*:00000000H   CODE     ---       CyDmacError
*DEL*:00000000H   CODE     ---       CyDmacErrorAddress
*DEL*:00000000H   CODE     ---       CyDmaChAlloc
      0100963BH   CODE     ---       CyDmaTdAllocate
*DEL*:00000000H   CODE     ---       CyDmaTdFreeCount
*DEL*:00000000H   CODE     ---       CyEEPROM_ReadRelease
*DEL*:00000000H   CODE     ---       CyEEPROM_ReadReserve
      010098D9H   CODE     ---       CyEEPROM_Start
*DEL*:00000000H   CODE     ---       CyEEPROM_Stop
      01009CE5H   CODE     NEAR LAB  CyEnterCriticalSection
      01007930H   CODE     ---       cyfitter_cfg
*DEL*:00000000H   CODE     ---       CyFlash_Start
*DEL*:00000000H   CODE     ---       CyFlash_Stop
*DEL*:00000000H   CODE     ---       CyILO_Disable33K
*DEL*:00000000H   CODE     ---       CyILO_Enable33K
*DEL*:00000000H   CODE     ---       CyILO_Start100K
*DEL*:00000000H   CODE     ---       CyILO_Start1K
*DEL*:00000000H   CODE     ---       CyILO_Stop100K
*DEL*:00000000H   CODE     ---       CyILO_Stop1K
LX51 LINKER/LOCATER V4.64.0.0                                                         11/29/2018  15:53:27  PAGE 29


*DEL*:00000000H   CODE     ---       CyIMO_DisableDoubler
*DEL*:00000000H   CODE     ---       CyIMO_EnableDoubler
*DEL*:00000000H   CODE     ---       CyIMO_Stop
*DEL*:00000000H   CODE     ---       CyPLL_OUT_Stop
*DEL*:00000000H   CODE     ---       CyPmHibernate
*DEL*:00000000H   CODE     ---       CyPmOppsSet
*DEL*:00000000H   CODE     ---       CyPmRestoreClocks
*DEL*:00000000H   CODE     ---       CyPmSaveClocks
      02001634H   XDATA    BYTE      CyResetStatus
      01009C5EH   CODE     ---       CySetTemp
      01009F39H   CODE     ---       CySoftwareReset
      01009BDFH   CODE     ---       CySpcGetAlgorithm
      01009B87H   CODE     ---       CySpcLock
      01009CFAH   CODE     ---       CySpcStart
*DEL*:00000000H   CODE     ---       CySpcStop
      01009ECDH   CODE     ---       CySpcUnlock
*DEL*:00000000H   CODE     ---       CyVdHvAnalogDisable
*DEL*:00000000H   CODE     ---       CyVdHvAnalogEnable
*DEL*:00000000H   CODE     ---       CyVdLvAnalogDisable
*DEL*:00000000H   CODE     ---       CyVdLvDigitDisable
*DEL*:00000000H   CODE     ---       CyVdRealTimeStatus
*DEL*:00000000H   CODE     ---       CyWdtClear
*DEL*:00000000H   CODE     ---       CyXTAL_32KHZ_ReadStatus
*DEL*:00000000H   CODE     ---       CyXTAL_32KHZ_Start
*DEL*:00000000H   CODE     ---       CyXTAL_32KHZ_Stop
*DEL*:00000000H   CODE     ---       CyXTAL_DisableErrStatus
*DEL*:00000000H   CODE     ---       CyXTAL_DisableFaultRecovery
*DEL*:00000000H   CODE     ---       CyXTAL_EnableErrStatus
*DEL*:00000000H   CODE     ---       CyXTAL_EnableFaultRecovery
*DEL*:00000000H   CODE     ---       CyXTAL_ReadStatus
*DEL*:00000000H   CODE     ---       CyXTAL_Stop
      02001642H   XDATA    ---       dieTemperature
      0200164EH   XDATA    BYTE      DMA_DmaHandle
*DEL*:00000000H   CODE     ---       DMA_DmaRelease
*SFR* 00000083H   DATA     BYTE      DPH
*SFR* 00000085H   DATA     BYTE      DPH1
*SFR* 00000082H   DATA     BYTE      DPL
*SFR* 00000084H   DATA     BYTE      DPL1
*SFR* 00000086H   DATA     BYTE      DPS
*SFR* 00000093H   DATA     BYTE      DPX
*SFR* 00000095H   DATA     BYTE      DPX1
*SFR* 000000A8H.7 DATA     BIT       EA
      0200152EH   XDATA    ---       EEPROM_ADDR
      01009F5FH   CODE     ---       EEPROM_Enable
*DEL*:00000000H   CODE     ---       EEPROM_Query
      01009FC0H   CODE     ---       EEPROM_Start
*DEL*:00000000H   CODE     ---       EEPROM_Stop
*DEL*:00000000H   CODE     ---       EEPROM_UpdateTemperature
*SFR* 000000D0H.5 DATA     BIT       F0
*SFR* 000000D0H.1 DATA     BIT       F1
*DEL*:00000000H   CODE     ---       FF_STATUS_InterruptDisable
*DEL*:00000000H   CODE     ---       FF_STATUS_InterruptEnable
      01009F84H   CODE     ---       FF_STATUS_Read
*DEL*:00000000H   CODE     ---       FF_STATUS_ReadMask
*DEL*:00000000H   CODE     ---       FTDI_ENABLE_REG_Read
      01009268H   CODE     ---       function_scheduler
      020009A3H   XDATA    ---       g_imu
      02000DD7H   XDATA    ---       g_imuNew
      0200094AH   XDATA    ---       g_mem
      02000D52H   XDATA    ---       g_rx
      02000CB1H   XDATA    ---       Gyro
*SFR* 000000A8H   DATA     BYTE      IE
      02000939H   XDATA    ---       IMU_connected
      020010D8H   XDATA    INT       imus_data_size
*DEL*:00000000H   CODE     ---       ImusReset
LX51 LINKER/LOCATER V4.64.0.0                                                         11/29/2018  15:53:27  PAGE 30


*DEL*:00000000H   CODE     ---       infoSend
      0100820EH   CODE     ---       InitIMU
      01006E3EH   CODE     ---       InitIMUgeneral
      010082FFH   CODE     ---       InitIMUMagCal
      00000021H.2 BIT      BIT       interrupt_flag
      01007A5BH   CODE     ---       interrupt_manager
*DEL*:00000000H   CODE     ---       ISR_RS485_RX_ClearPending
      01009F58H   CODE     ---       ISR_RS485_RX_Disable
      01009F51H   CODE     ---       ISR_RS485_RX_Enable
      01009FC4H   CODE     ---       ISR_RS485_RX_ExInterrupt
*DEL*:00000000H   CODE     ---       ISR_RS485_RX_GetPriority
*DEL*:00000000H   CODE     ---       ISR_RS485_RX_GetState
*DEL*:00000000H   CODE     ---       ISR_RS485_RX_GetVector
      010099F7H   CODE     ---       ISR_RS485_RX_Interrupt
*DEL*:00000000H   CODE     ---       ISR_RS485_RX_SetPending
*DEL*:00000000H   CODE     ---       ISR_RS485_RX_Start
*DEL*:00000000H   CODE     ---       ISR_RS485_RX_Stop
      02000C19H   XDATA    ---       Mag
      02000D1BH   XDATA    ---       MagCal
      01008110H   CODE     ---       main
      01008E31H   CODE     ---       memInit
      01009403H   CODE     ---       memRecall
      0100952EH   CODE     ---       memRestore
*SFR* 000000EAH   DATA     BYTE      MXAX
      01009E74H   CODE     ---       MY_TIMER_ClearFIFO
      01009F31H   CODE     ---       MY_TIMER_Enable
      01009A25H   CODE     ---       MY_TIMER_Init
      0200164DH   XDATA    BYTE      MY_TIMER_initVar
      01009F01H   CODE     ---       MY_TIMER_ReadCapture
*DEL*:00000000H   CODE     ---       MY_TIMER_ReadControlRegister
      01009DF1H   CODE     ---       MY_TIMER_ReadCounter
*DEL*:00000000H   CODE     ---       MY_TIMER_ReadPeriod
      01009F90H   CODE     ---       MY_TIMER_ReadStatusRegister
*DEL*:00000000H   CODE     ---       MY_TIMER_SoftwareCapture
      01009D72H   CODE     ---       MY_TIMER_Start
*DEL*:00000000H   CODE     ---       MY_TIMER_Stop
      02000C18H   XDATA    BYTE      N_IMU_Connected
*DEL*:00000000H   CODE     ---       Opto_Pin_Read
*DEL*:00000000H   CODE     ---       Opto_Pin_ReadDataReg
*SFR* 000000D0H.2 DATA     BIT       OV
*SFR* 000000D0H   DATA     BIT       P
*SFR* 000000A0H   DATA     BYTE      P2AX
      01009CA5H   CODE     ---       PACER_TIMER_Enable
      010096B6H   CODE     ---       PACER_TIMER_Init
      0200164CH   XDATA    BYTE      PACER_TIMER_initVar
*DEL*:00000000H   CODE     ---       PACER_TIMER_ReadCapture
*DEL*:00000000H   CODE     ---       PACER_TIMER_ReadControlRegister
*DEL*:00000000H   CODE     ---       PACER_TIMER_ReadCounter
*DEL*:00000000H   CODE     ---       PACER_TIMER_ReadPeriod
*DEL*:00000000H   CODE     ---       PACER_TIMER_ReadStatusRegister
*DEL*:00000000H   CODE     ---       PACER_TIMER_SoftwareCapture
      01009D5FH   CODE     ---       PACER_TIMER_Start
*DEL*:00000000H   CODE     ---       PACER_TIMER_Stop
*SFR* 000000D0H   DATA     BYTE      PSW
      02000CA1H   XDATA    ---       Quat
      01006B03H   CODE     ---       ReadAllIMUs
*DEL*:00000000H   CODE     ---       RESET_FF_Read
*SFR* 000000D0H.3 DATA     BIT       RS0
*SFR* 000000D0H.4 DATA     BIT       RS1
*DEL*:00000000H   CODE     ---       RS485_CTS_Read
      02000D4EH   XDATA    WORD      sensor_value_1
      02000D50H   XDATA    WORD      sensor_value_2
*SFR* 00000080H   DATA     BYTE      SFRPRT0DR
*SFR* 00000089H   DATA     BYTE      SFRPRT0PS
*SFR* 0000008AH   DATA     BYTE      SFRPRT0SEL
LX51 LINKER/LOCATER V4.64.0.0                                                         11/29/2018  15:53:27  PAGE 31


*SFR* 000000E8H   DATA     BYTE      SFRPRT12DR
*SFR* 000000E9H   DATA     BYTE      SFRPRT12PS
*SFR* 000000F2H   DATA     BYTE      SFRPRT12SEL
*SFR* 000000F8H   DATA     BYTE      SFRPRT15DR
*SFR* 000000F9H   DATA     BYTE      SFRPRT15PS
*SFR* 000000FAH   DATA     BYTE      SFRPRT15SEL
*SFR* 00000090H   DATA     BYTE      SFRPRT1DR
*SFR* 00000091H   DATA     BYTE      SFRPRT1PS
*SFR* 000000A2H   DATA     BYTE      SFRPRT1SEL
*SFR* 00000098H   DATA     BYTE      SFRPRT2DR
*SFR* 00000099H   DATA     BYTE      SFRPRT2PS
*SFR* 0000009AH   DATA     BYTE      SFRPRT2SEL
*SFR* 000000B0H   DATA     BYTE      SFRPRT3DR
*SFR* 000000B1H   DATA     BYTE      SFRPRT3PS
*SFR* 000000B2H   DATA     BYTE      SFRPRT3SEL
*SFR* 000000C0H   DATA     BYTE      SFRPRT4DR
*SFR* 000000C1H   DATA     BYTE      SFRPRT4PS
*SFR* 000000C2H   DATA     BYTE      SFRPRT4SEL
*SFR* 000000C8H   DATA     BYTE      SFRPRT5DR
*SFR* 000000C9H   DATA     BYTE      SFRPRT5PS
*SFR* 000000CAH   DATA     BYTE      SFRPRT5SEL
*SFR* 000000D8H   DATA     BYTE      SFRPRT6DR
*SFR* 000000D9H   DATA     BYTE      SFRPRT6PS
*SFR* 000000DAH   DATA     BYTE      SFRPRT6SEL
      0200104CH   XDATA    ---       single_imu_size
*SFR* 00000081H   DATA     BYTE      SP
      02001650H   XDATA    BYTE      SpcLockState
      01009BC4H   CODE     ---       SPI_delay
      01009B48H   CODE     ---       SPI_IMU_ClearFIFO
      01009E00H   CODE     ---       SPI_IMU_ClearRxBuffer
      01009DBDH   CODE     ---       SPI_IMU_ClearTxBuffer
*DEL*:00000000H   CODE     ---       SPI_IMU_DisableInt
*DEL*:00000000H   CODE     ---       SPI_IMU_DisableRxInt
*DEL*:00000000H   CODE     ---       SPI_IMU_DisableTxInt
      01009A9EH   CODE     ---       SPI_IMU_Enable
*DEL*:00000000H   CODE     ---       SPI_IMU_EnableInt
      01009FCBH   CODE     ---       SPI_IMU_EnableRxInt
      01009FCAH   CODE     ---       SPI_IMU_EnableTxInt
*DEL*:00000000H   CODE     ---       SPI_IMU_GetRxBufferSize
*DEL*:00000000H   CODE     ---       SPI_IMU_GetTxBufferSize
      01009C2CH   CODE     ---       SPI_IMU_Init
      0200164AH   XDATA    BYTE      SPI_IMU_initVar
*DEL*:00000000H   CODE     ---       SPI_IMU_IntClock_GetDividerRegister
*DEL*:00000000H   CODE     ---       SPI_IMU_IntClock_GetModeRegister
*DEL*:00000000H   CODE     ---       SPI_IMU_IntClock_GetSourceRegister
      01009E3CH   CODE     ---       SPI_IMU_IntClock_Start
*DEL*:00000000H   CODE     ---       SPI_IMU_IntClock_Stop
*DEL*:00000000H   CODE     ---       SPI_IMU_IntClock_StopBlock
      01009FAEH   CODE     ---       SPI_IMU_ReadRxData
      01009FA8H   CODE     ---       SPI_IMU_ReadRxStatus
      01009E0FH   CODE     ---       SPI_IMU_ReadStatus
      01009FA2H   CODE     ---       SPI_IMU_ReadTxStatus
      01009D85H   CODE     ---       SPI_IMU_Start
*DEL*:00000000H   CODE     ---       SPI_IMU_Stop
      02001648H   XDATA    BYTE      SPI_IMU_swStatusRx
      02001649H   XDATA    BYTE      SPI_IMU_swStatusTx
      01007CA4H   CODE     NEAR LAB  STARTUP1
      02000C7FH   XDATA    ---       Temp
      02000D17H   XDATA    DWORD     timer_value
      0200106EH   XDATA    DWORD     timer_value0
      0100999AH   CODE     ---       UART_RS485_ClearRxBuffer
      01009DABH   CODE     ---       UART_RS485_ClearTxBuffer
      01009AC3H   CODE     ---       UART_RS485_Enable
      02001619H   XDATA    BYTE      UART_RS485_errorStatus
*DEL*:00000000H   CODE     ---       UART_RS485_GetByte
LX51 LINKER/LOCATER V4.64.0.0                                                         11/29/2018  15:53:27  PAGE 32


      010091B7H   CODE     ---       UART_RS485_GetChar
      010093B4H   CODE     ---       UART_RS485_GetRxBufferSize
*DEL*:00000000H   CODE     ---       UART_RS485_GetTxBufferSize
      01009843H   CODE     ---       UART_RS485_Init
      02001617H   XDATA    BYTE      UART_RS485_initVar
*DEL*:00000000H   CODE     ---       UART_RS485_ReadControlRegister
*DEL*:00000000H   CODE     ---       UART_RS485_ReadRxData
      01009D38H   CODE     ---       UART_RS485_ReadRxStatus
      01009F66H   CODE     ---       UART_RS485_ReadTxStatus
      020015F6H   XDATA    ---       UART_RS485_rxBuffer
      020015F4H   XDATA    BYTE      UART_RS485_rxBufferLoopDetect
      02001618H   XDATA    BYTE      UART_RS485_rxBufferOverflow
      020015F5H   XDATA    BYTE      UART_RS485_rxBufferRead
      02001616H   XDATA    BYTE      UART_RS485_rxBufferWrite
      01008841H   CODE     ---       UART_RS485_RXISR
      01009D4CH   CODE     ---       UART_RS485_Start
      01009AE5H   CODE     ---       UART_RS485_Stop



SYMBOL TABLE OF MODULE:  .\DP8051_Keil_951\Release\firmware.omf (COMMAND_PROCESSING)

      VALUE       REP       CLASS    TYPE      SYMBOL NAME
      ====================================================
      ---         MODULE    ---      ---       COMMAND_PROCESSING
      0200152EH   PUBLIC    XDATA    ---       EEPROM_ADDR
      010095BAH   PUBLIC    CODE     ---       cmd_get_sensors
      0100670EH   PUBLIC    CODE     ---       cmd_get_imu_readings
      01009CD0H   PUBLIC    CODE     ---       cmd_store_params
      01009D24H   PUBLIC    CODE     ---       cmd_ping
      01009B28H   PUBLIC    CODE     ---       cmd_set_baudrate
      01008E31H   PUBLIC    CODE     ---       memInit
      0100952EH   PUBLIC    CODE     ---       memRestore
      01009403H   PUBLIC    CODE     ---       memRecall
      010088F2H   PUBLIC    CODE     ---       _memStore
      01009CBBH   PUBLIC    CODE     ---       _sendAcknowledgment
      01009876H   PUBLIC    CODE     ---       _LCRChecksum
      01008B89H   PUBLIC    CODE     ---       _commWrite
      01006293H   PUBLIC    CODE     ---       _infoReading
      0100587BH   PUBLIC    CODE     ---       _infoPrepare
      0100261AH   PUBLIC    CODE     ---       _get_param_list
      0100990AH   PUBLIC    CODE     ---       _infoGet
      010084DFH   PUBLIC    CODE     ---       commProcess
      000000CAH   SFRSYM    DATA     BYTE      SFRPRT5SEL
      000000DAH   SFRSYM    DATA     BYTE      SFRPRT6SEL
      000000D0H.6 SFRSYM    DATA     BIT       AC
      000000A8H.7 SFRSYM    DATA     BIT       EA
      000000A8H   SFRSYM    DATA     BYTE      IE
      00000085H   SFRSYM    DATA     BYTE      DPH1
      00000084H   SFRSYM    DATA     BYTE      DPL1
      000000D0H.7 SFRSYM    DATA     BIT       CY
      000000A0H   SFRSYM    DATA     BYTE      P2AX
      00000095H   SFRSYM    DATA     BYTE      DPX1
      00000081H   SFRSYM    DATA     BYTE      SP
      000000D0H.2 SFRSYM    DATA     BIT       OV
      00000080H   SFRSYM    DATA     BYTE      SFRPRT0DR
      00000090H   SFRSYM    DATA     BYTE      SFRPRT1DR
      000000F2H   SFRSYM    DATA     BYTE      SFRPRT12SEL
      00000098H   SFRSYM    DATA     BYTE      SFRPRT2DR
      000000B0H   SFRSYM    DATA     BYTE      SFRPRT3DR
      000000C0H   SFRSYM    DATA     BYTE      SFRPRT4DR
      000000FAH   SFRSYM    DATA     BYTE      SFRPRT15SEL
      000000C8H   SFRSYM    DATA     BYTE      SFRPRT5DR
      000000D8H   SFRSYM    DATA     BYTE      SFRPRT6DR
      00000089H   SFRSYM    DATA     BYTE      SFRPRT0PS
LX51 LINKER/LOCATER V4.64.0.0                                                         11/29/2018  15:53:27  PAGE 33


      00000091H   SFRSYM    DATA     BYTE      SFRPRT1PS
      00000099H   SFRSYM    DATA     BYTE      SFRPRT2PS
      000000B1H   SFRSYM    DATA     BYTE      SFRPRT3PS
      000000C1H   SFRSYM    DATA     BYTE      SFRPRT4PS
      000000C9H   SFRSYM    DATA     BYTE      SFRPRT5PS
      000000D9H   SFRSYM    DATA     BYTE      SFRPRT6PS
      000000EAH   SFRSYM    DATA     BYTE      MXAX
      000000F0H   SFRSYM    DATA     BYTE      B
      000000E0H   SFRSYM    DATA     BYTE      ACC
      000000D0H   SFRSYM    DATA     BIT       P
      000000D0H.3 SFRSYM    DATA     BIT       RS0
      000000D0H.4 SFRSYM    DATA     BIT       RS1
      00000083H   SFRSYM    DATA     BYTE      DPH
      000000E8H   SFRSYM    DATA     BYTE      SFRPRT12DR
      00000082H   SFRSYM    DATA     BYTE      DPL
      000000F8H   SFRSYM    DATA     BYTE      SFRPRT15DR
      00000086H   SFRSYM    DATA     BYTE      DPS
      000000E9H   SFRSYM    DATA     BYTE      SFRPRT12PS
      00000093H   SFRSYM    DATA     BYTE      DPX
      000000F9H   SFRSYM    DATA     BYTE      SFRPRT15PS
      000000D0H.5 SFRSYM    DATA     BIT       F0
      000000D0H.1 SFRSYM    DATA     BIT       F1
      0000008AH   SFRSYM    DATA     BYTE      SFRPRT0SEL
      000000D0H   SFRSYM    DATA     BYTE      PSW
      000000A2H   SFRSYM    DATA     BYTE      SFRPRT1SEL
      0000009AH   SFRSYM    DATA     BYTE      SFRPRT2SEL
      000000B2H   SFRSYM    DATA     BYTE      SFRPRT3SEL
      000000C2H   SFRSYM    DATA     BYTE      SFRPRT4SEL
      010044DFH   SYMBOL    CODE     ---       _?ix1000
      01004C7EH   SYMBOL    CODE     ---       _?ix1001
      01004C98H   SYMBOL    CODE     ---       _?ix1002
      01004CA3H   SYMBOL    CODE     ---       _?ix1003
      01004CB7H   SYMBOL    CODE     ---       _?ix1004
      01004CC7H   SYMBOL    CODE     ---       _?ix1005
      01004CF1H   SYMBOL    CODE     ---       _?ix1006
      01004D0BH   SYMBOL    CODE     ---       _?ix1007

      010084DFH   BLOCK     CODE     ---       LVL=0
      010084DFH   BLOCK     CODE     NEAR LAB  LVL=1
      0000000AH   SYMBOL    DATA     BYTE      rx_cmd
      ---         BLOCKEND  ---      ---       LVL=1
      010084DFH   LINE      CODE     ---       #67
      010084DFH   LINE      CODE     ---       #71
      010084E5H   LINE      CODE     ---       #75
      01008510H   LINE      CODE     ---       #77
      01008516H   LINE      CODE     ---       #79
      01008516H   LINE      CODE     ---       #82
      01008540H   LINE      CODE     ---       #86
      01008540H   LINE      CODE     ---       #87
      01008543H   LINE      CODE     ---       #88
      01008544H   LINE      CODE     ---       #92
      01008544H   LINE      CODE     ---       #93
      0100854FH   LINE      CODE     ---       #94
      01008550H   LINE      CODE     ---       #98
      01008550H   LINE      CODE     ---       #99
      0100855BH   LINE      CODE     ---       #100
      0100855CH   LINE      CODE     ---       #104
      0100855CH   LINE      CODE     ---       #105
      0100855FH   LINE      CODE     ---       #106
      01008560H   LINE      CODE     ---       #110
      01008560H   LINE      CODE     ---       #111
      01008563H   LINE      CODE     ---       #112
      01008564H   LINE      CODE     ---       #116
      01008564H   LINE      CODE     ---       #117
      0100856EH   LINE      CODE     ---       #118
LX51 LINKER/LOCATER V4.64.0.0                                                         11/29/2018  15:53:27  PAGE 34


      01008574H   LINE      CODE     ---       #120
      01008579H   LINE      CODE     ---       #121
      0100857AH   LINE      CODE     ---       #125
      0100857AH   LINE      CODE     ---       #126
      01008580H   LINE      CODE     ---       #127
      01008586H   LINE      CODE     ---       #129
      0100858BH   LINE      CODE     ---       #130
      0100858CH   LINE      CODE     ---       #134
      0100858CH   LINE      CODE     ---       #135
      01008592H   LINE      CODE     ---       #136
      01008598H   LINE      CODE     ---       #138
      0100859DH   LINE      CODE     ---       #139
      0100859EH   LINE      CODE     ---       #143
      0100859EH   LINE      CODE     ---       #145
      010085A3H   LINE      CODE     ---       #146
      010085ADH   LINE      CODE     ---       #147
      010085B2H   LINE      CODE     ---       #148
      010085BCH   LINE      CODE     ---       #149
      010085BFH   LINE      CODE     ---       #150
      010085C0H   LINE      CODE     ---       #154
      010085C0H   LINE      CODE     ---       #155
      010085C3H   LINE      CODE     ---       #156
      010085C4H   LINE      CODE     ---       #160
      010085C4H   LINE      CODE     ---       #161
      010085C7H   LINE      CODE     ---       #162
      010085C7H   LINE      CODE     ---       #165
      010085C7H   LINE      CODE     ---       #166
      010085C7H   LINE      CODE     ---       #168
      010085C7H   LINE      CODE     ---       #169
      ---         BLOCKEND  ---      ---       LVL=0

      0100990AH   BLOCK     CODE     ---       LVL=0
      00000006H   SYMBOL    DATA     WORD      info_type
      0100990AH   BLOCK     CODE     NEAR LAB  LVL=1
      020010E2H   SYMBOL    XDATA    ---       packet_string
      ---         BLOCKEND  ---      ---       LVL=1
      0100990AH   LINE      CODE     ---       #187
      0100990AH   LINE      CODE     ---       #192
      01009914H   LINE      CODE     ---       #193
      01009914H   LINE      CODE     ---       #194
      0100991DH   LINE      CODE     ---       #195
      01009926H   LINE      CODE     ---       #196
      01009927H   LINE      CODE     ---       #197
      01009927H   LINE      CODE     ---       #198
      01009930H   LINE      CODE     ---       #199
      01009939H   LINE      CODE     ---       #200
      01009939H   LINE      CODE     ---       #201
      01009939H   LINE      CODE     ---       #202
      01009939H   LINE      CODE     ---       #203
      01009939H   LINE      CODE     ---       #204
      ---         BLOCKEND  ---      ---       LVL=0

      0100261AH   BLOCK     CODE     ---       LVL=0
      02000002H   SYMBOL    XDATA    WORD      index
      01002622H   BLOCK     CODE     NEAR LAB  LVL=1
      02000004H   SYMBOL    XDATA    ---       packet_data
      020007A3H   SYMBOL    XDATA    WORD      num_imus_id_params
      020007A5H   SYMBOL    XDATA    WORD      num_mag_cal_params
      020007A7H   SYMBOL    XDATA    WORD      first_imu_parameter
      020007A9H   SYMBOL    XDATA    WORD      packet_length
      0000000BH   SYMBOL    DATA     WORD      i
      0000000DH   SYMBOL    DATA     WORD      j
      0000000FH   SYMBOL    DATA     WORD      k
      00000011H   SYMBOL    DATA     WORD      h
      020007ABH   SYMBOL    XDATA    WORD      start_byte
LX51 LINKER/LOCATER V4.64.0.0                                                         11/29/2018  15:53:27  PAGE 35


      020007ADH   SYMBOL    XDATA    ---       n_imu_str
      020007C7H   SYMBOL    XDATA    ---       ids_str
      020007D2H   SYMBOL    XDATA    ---       mag_param_str
      020007E6H   SYMBOL    XDATA    ---       id_str
      020007F6H   SYMBOL    XDATA    ---       imu_table_str
      02000820H   SYMBOL    XDATA    ---       spi_read_delay_str
      00000013H   SYMBOL    DATA     BYTE      id_str_len
      00000014H   SYMBOL    DATA     BYTE      n_imu_str_len
      00000015H   SYMBOL    DATA     BYTE      ids_str_len
      00000016H   SYMBOL    DATA     BYTE      mag_param_str_len
      00000017H   SYMBOL    DATA     BYTE      imu_table_str_len
      00000018H   SYMBOL    DATA     BYTE      spi_read_delay_str_len
      0200083AH   SYMBOL    XDATA    ---       spi_delay_menu
      00000019H   SYMBOL    DATA     BYTE      spi_delay_menu_len
      ---         BLOCKEND  ---      ---       LVL=1
      0100261AH   LINE      CODE     ---       #210
      01002622H   LINE      CODE     ---       #211
      01002622H   LINE      CODE     ---       #219
      01002635H   LINE      CODE     ---       #220
      0100263EH   LINE      CODE     ---       #221
      01002643H   LINE      CODE     ---       #222
      01002649H   LINE      CODE     ---       #223
      01002680H   LINE      CODE     ---       #232
      01002685H   LINE      CODE     ---       #235
      01002697H   LINE      CODE     ---       #236
      010026AAH   LINE      CODE     ---       #237
      010026BDH   LINE      CODE     ---       #238
      010026D0H   LINE      CODE     ---       #239
      010026E3H   LINE      CODE     ---       #240
      010026F6H   LINE      CODE     ---       #243
      01002701H   LINE      CODE     ---       #244
      0100270CH   LINE      CODE     ---       #245
      01002717H   LINE      CODE     ---       #246
      01002722H   LINE      CODE     ---       #247
      0100272DH   LINE      CODE     ---       #248
      01002738H   LINE      CODE     ---       #250
      0100274BH   LINE      CODE     ---       #253
      01002770H   LINE      CODE     ---       #254
      0100277BH   LINE      CODE     ---       #258
      0100278BH   LINE      CODE     ---       #259
      010027B3H   LINE      CODE     ---       #265
      010027F3H   LINE      CODE     ---       #268
      01002815H   LINE      CODE     ---       #269
      0100281BH   LINE      CODE     ---       #270
      01002824H   LINE      CODE     ---       #272
      01002837H   LINE      CODE     ---       #273
      01002837H   LINE      CODE     ---       #275
      0100283EH   LINE      CODE     ---       #276
      01002844H   LINE      CODE     ---       #277
      01002847H   LINE      CODE     ---       #278
      0100284FH   LINE      CODE     ---       #279
      0100285BH   LINE      CODE     ---       #280
      01002887H   LINE      CODE     ---       #283
      01002895H   LINE      CODE     ---       #284
      0100289AH   LINE      CODE     ---       #285
      010028B0H   LINE      CODE     ---       #286
      010028CFH   LINE      CODE     ---       #287
      010028D5H   LINE      CODE     ---       #288
      010028E0H   LINE      CODE     ---       #289
      0100290CH   LINE      CODE     ---       #290
      01002930H   LINE      CODE     ---       #292
      0100295CH   LINE      CODE     ---       #293
      01002971H   LINE      CODE     ---       #294
      010029A2H   LINE      CODE     ---       #295
      010029AAH   LINE      CODE     ---       #296
LX51 LINKER/LOCATER V4.64.0.0                                                         11/29/2018  15:53:27  PAGE 36


      010029ACH   LINE      CODE     ---       #297
      010029ACH   LINE      CODE     ---       #298
      010029DEH   LINE      CODE     ---       #299
      010029DEH   LINE      CODE     ---       #300
      010029E6H   LINE      CODE     ---       #301
      010029F1H   LINE      CODE     ---       #304
      010029FDH   LINE      CODE     ---       #305
      01002A52H   LINE      CODE     ---       #306
      01002A5DH   LINE      CODE     ---       #309
      01002A78H   LINE      CODE     ---       #310
      01002A8FH   LINE      CODE     ---       #311
      01002ABBH   LINE      CODE     ---       #313
      01002ADFH   LINE      CODE     ---       #314
      01002B2DH   LINE      CODE     ---       #315
      01002B73H   LINE      CODE     ---       #316
      01002BB9H   LINE      CODE     ---       #319
      01002BD3H   LINE      CODE     ---       #321
      01002BE2H   LINE      CODE     ---       #322
      01002C37H   LINE      CODE     ---       #323
      01002C37H   LINE      CODE     ---       #324
      01002C37H   LINE      CODE     ---       #326
      01002C63H   LINE      CODE     ---       #327
      01002CB1H   LINE      CODE     ---       #328
      01002CF7H   LINE      CODE     ---       #329
      01002D3DH   LINE      CODE     ---       #331
      01002D49H   LINE      CODE     ---       #332
      01002D9EH   LINE      CODE     ---       #333
      01002D9EH   LINE      CODE     ---       #334
      01002DA9H   LINE      CODE     ---       #338
      01002DC4H   LINE      CODE     ---       #339
      01002DEFH   LINE      CODE     ---       #340
      01002DFAH   LINE      CODE     ---       #341
      01002E0EH   LINE      CODE     ---       #342
      01002E1BH   LINE      CODE     ---       #343
      01002E32H   LINE      CODE     ---       #344
      01002E3EH   LINE      CODE     ---       #345
      01002E84H   LINE      CODE     ---       #349
      01002E92H   LINE      CODE     ---       #350
      01002EA9H   LINE      CODE     ---       #351
      01002EEAH   LINE      CODE     ---       #352
      01002EF5H   LINE      CODE     ---       #354
      01002F21H   LINE      CODE     ---       #355
      01002F45H   LINE      CODE     ---       #357
      01002F8CH   LINE      CODE     ---       #358
      01002FCBH   LINE      CODE     ---       #359
      0100300AH   LINE      CODE     ---       #360
      01003049H   LINE      CODE     ---       #361
      01003088H   LINE      CODE     ---       #363
      01003094H   LINE      CODE     ---       #364
      010030E9H   LINE      CODE     ---       #365
      010030F4H   LINE      CODE     ---       #370
      0100310BH   LINE      CODE     ---       #371
      0100313BH   LINE      CODE     ---       #372
      0100314EH   LINE      CODE     ---       #373
      0100315BH   LINE      CODE     ---       #374
      01003172H   LINE      CODE     ---       #375
      0100317DH   LINE      CODE     ---       #376
      0100317DH   LINE      CODE     ---       #377
      01003194H   LINE      CODE     ---       #378
      01003197H   LINE      CODE     ---       #379
      01003199H   LINE      CODE     ---       #380
      01003199H   LINE      CODE     ---       #381
      010031B0H   LINE      CODE     ---       #382
      010031B3H   LINE      CODE     ---       #383
      010031B5H   LINE      CODE     ---       #384
LX51 LINKER/LOCATER V4.64.0.0                                                         11/29/2018  15:53:27  PAGE 37


      010031B5H   LINE      CODE     ---       #385
      010031CCH   LINE      CODE     ---       #386
      010031CFH   LINE      CODE     ---       #387
      010031CFH   LINE      CODE     ---       #388
      010031CFH   LINE      CODE     ---       #389
      010031CFH   LINE      CODE     ---       #390
      010031CFH   LINE      CODE     ---       #391
      010031DBH   LINE      CODE     ---       #392
      01003221H   LINE      CODE     ---       #394
      0100323DH   LINE      CODE     ---       #398
      0100324BH   LINE      CODE     ---       #399
      01003257H   LINE      CODE     ---       #400
      0100329DH   LINE      CODE     ---       #402
      010032C1H   LINE      CODE     ---       #403
      010032CAH   LINE      CODE     ---       #404
      010032CDH   LINE      CODE     ---       #405
      010032CEH   LINE      CODE     ---       #408
      010032CEH   LINE      CODE     ---       #410
      010032EDH   LINE      CODE     ---       #411
      010032EDH   LINE      CODE     ---       #413
      01003309H   LINE      CODE     ---       #414
      01003311H   LINE      CODE     ---       #415
      01003312H   LINE      CODE     ---       #416
      01003312H   LINE      CODE     ---       #418
      01003329H   LINE      CODE     ---       #419
      01003331H   LINE      CODE     ---       #420
      01003332H   LINE      CODE     ---       #421
      01003332H   LINE      CODE     ---       #424
      01003360H   LINE      CODE     ---       #425
      0100337FH   LINE      CODE     ---       #426
      0100339EH   LINE      CODE     ---       #427
      010033BDH   LINE      CODE     ---       #428
      010033DCH   LINE      CODE     ---       #431
      010033E4H   LINE      CODE     ---       #432
      010033FBH   LINE      CODE     ---       #433
      010033FBH   LINE      CODE     ---       #434
      0100349AH   LINE      CODE     ---       #435
      010034C3H   LINE      CODE     ---       #436
      010034CEH   LINE      CODE     ---       #437
      010034DCH   LINE      CODE     ---       #439
      010034DCH   LINE      CODE     ---       #441
      010034DCH   LINE      CODE     ---       #442
      010034DCH   LINE      CODE     ---       #443
      ---         BLOCKEND  ---      ---       LVL=0

      0100587BH   BLOCK     CODE     ---       LVL=0
      02000002H   SYMBOL    XDATA    ---       info_string
      01005886H   BLOCK     CODE     NEAR LAB  LVL=1
      02000005H   SYMBOL    XDATA    INT       i
      02000007H   SYMBOL    XDATA    ---       str
      ---         BLOCKEND  ---      ---       LVL=1
      0100587BH   LINE      CODE     ---       #450
      01005886H   LINE      CODE     ---       #451
      01005886H   LINE      CODE     ---       #454
      01005891H   LINE      CODE     ---       #455
      010058A9H   LINE      CODE     ---       #456
      010058C5H   LINE      CODE     ---       #457
      010058E1H   LINE      CODE     ---       #461
      010058FDH   LINE      CODE     ---       #463
      01005919H   LINE      CODE     ---       #465
      01005935H   LINE      CODE     ---       #466
      01005959H   LINE      CODE     ---       #467
      01005975H   LINE      CODE     ---       #472
      01005991H   LINE      CODE     ---       #475
      010059B5H   LINE      CODE     ---       #476
LX51 LINKER/LOCATER V4.64.0.0                                                         11/29/2018  15:53:27  PAGE 38


      010059D1H   LINE      CODE     ---       #478
      010059EDH   LINE      CODE     ---       #480
      01005A09H   LINE      CODE     ---       #481
      01005A2AH   LINE      CODE     ---       #482
      01005A64H   LINE      CODE     ---       #483
      01005A80H   LINE      CODE     ---       #485
      01005A97H   LINE      CODE     ---       #486
      01005AB8H   LINE      CODE     ---       #487
      01005AD1H   LINE      CODE     ---       #489
      01005AE8H   LINE      CODE     ---       #490
      01005AFFH   LINE      CODE     ---       #491
      01005B20H   LINE      CODE     ---       #492
      01005B39H   LINE      CODE     ---       #494
      01005B50H   LINE      CODE     ---       #495
      01005B67H   LINE      CODE     ---       #496
      01005B88H   LINE      CODE     ---       #497
      01005BA1H   LINE      CODE     ---       #499
      01005BB8H   LINE      CODE     ---       #500
      01005BCFH   LINE      CODE     ---       #501
      01005BF0H   LINE      CODE     ---       #502
      01005C09H   LINE      CODE     ---       #504
      01005C20H   LINE      CODE     ---       #505
      01005C37H   LINE      CODE     ---       #506
      01005C58H   LINE      CODE     ---       #507
      01005C71H   LINE      CODE     ---       #509
      01005C88H   LINE      CODE     ---       #511
      01005CA4H   LINE      CODE     ---       #512
      01005CB5H   LINE      CODE     ---       #514
      01005CD1H   LINE      CODE     ---       #516
      01005D23H   LINE      CODE     ---       #517
      01005D3FH   LINE      CODE     ---       #518
      01005D5BH   LINE      CODE     ---       #519
      01005D77H   LINE      CODE     ---       #521
      01005DBBH   LINE      CODE     ---       #522
      01005DD7H   LINE      CODE     ---       #523
      01005DF3H   LINE      CODE     ---       #524
      01005E0FH   LINE      CODE     ---       #525
      01005E0FH   LINE      CODE     ---       #526
      ---         BLOCKEND  ---      ---       LVL=0

      01006293H   BLOCK     CODE     ---       LVL=0
      02000002H   SYMBOL    XDATA    ---       info_string
      0100629EH   BLOCK     CODE     NEAR LAB  LVL=1
      02000005H   SYMBOL    XDATA    INT       i
      02000007H   SYMBOL    XDATA    ---       str
      ---         BLOCKEND  ---      ---       LVL=1
      01006293H   LINE      CODE     ---       #529
      0100629EH   LINE      CODE     ---       #530
      0100629EH   LINE      CODE     ---       #534
      010062B6H   LINE      CODE     ---       #535
      010062D2H   LINE      CODE     ---       #536
      010062EEH   LINE      CODE     ---       #537
      0100630FH   LINE      CODE     ---       #538
      01006349H   LINE      CODE     ---       #539
      01006365H   LINE      CODE     ---       #541
      0100638AH   LINE      CODE     ---       #542
      01006403H   LINE      CODE     ---       #543
      0100641FH   LINE      CODE     ---       #544
      0100641FH   LINE      CODE     ---       #546
      01006444H   LINE      CODE     ---       #547
      010064BDH   LINE      CODE     ---       #548
      010064D9H   LINE      CODE     ---       #549
      010064D9H   LINE      CODE     ---       #551
      010064FEH   LINE      CODE     ---       #552
      01006577H   LINE      CODE     ---       #553
LX51 LINKER/LOCATER V4.64.0.0                                                         11/29/2018  15:53:27  PAGE 39


      01006593H   LINE      CODE     ---       #554
      01006593H   LINE      CODE     ---       #556
      010065B7H   LINE      CODE     ---       #557
      0100666CH   LINE      CODE     ---       #558
      01006688H   LINE      CODE     ---       #559
      01006688H   LINE      CODE     ---       #561
      010066AAH   LINE      CODE     ---       #562
      010066E0H   LINE      CODE     ---       #563
      010066FCH   LINE      CODE     ---       #564
      010066FCH   LINE      CODE     ---       #565
      0100670DH   LINE      CODE     ---       #566
      ---         BLOCKEND  ---      ---       LVL=0

      01008B89H   BLOCK     CODE     ---       LVL=0
      020008B0H   SYMBOL    XDATA    ---       packet_data
      020008B3H   SYMBOL    XDATA    WORD      packet_lenght
      01008B9AH   BLOCK     CODE     NEAR LAB  LVL=1
      0000001AH   SYMBOL    DATA     WORD      index
      ---         BLOCKEND  ---      ---       LVL=1
      01008B89H   LINE      CODE     ---       #571
      01008B9AH   LINE      CODE     ---       #572
      01008B9AH   LINE      CODE     ---       #576
      01008B9FH   LINE      CODE     ---       #577
      01008BA4H   LINE      CODE     ---       #580
      01008BACH   LINE      CODE     ---       #583
      01008BB6H   LINE      CODE     ---       #586
      01008BCAH   LINE      CODE     ---       #587
      01008BECH   LINE      CODE     ---       #589
      01008BF1H   LINE      CODE     ---       #591
      01008C0BH   LINE      CODE     ---       #593
      01008C10H   LINE      CODE     ---       #594
      01008C15H   LINE      CODE     ---       #595
      ---         BLOCKEND  ---      ---       LVL=0

      01009876H   BLOCK     CODE     ---       LVL=0
      020008B0H   SYMBOL    XDATA    ---       data_array
      00000005H   SYMBOL    DATA     BYTE      data_length
      01009881H   BLOCK     CODE     NEAR LAB  LVL=1
      0000001AH   SYMBOL    DATA     BYTE      i
      0000001BH   SYMBOL    DATA     BYTE      checksum
      ---         BLOCKEND  ---      ---       LVL=1
      01009876H   LINE      CODE     ---       #604
      01009881H   LINE      CODE     ---       #607
      01009884H   LINE      CODE     ---       #609
      0100988CH   LINE      CODE     ---       #610
      010098A5H   LINE      CODE     ---       #612
      010098A7H   LINE      CODE     ---       #613
      ---         BLOCKEND  ---      ---       LVL=0

      01009CBBH   BLOCK     CODE     ---       LVL=0
      00000007H   SYMBOL    DATA     BYTE      value
      01009CBBH   BLOCK     CODE     NEAR LAB  LVL=1
      00000004H   SYMBOL    DATA     INT       packet_lenght
      02000002H   SYMBOL    XDATA    ---       packet_data
      ---         BLOCKEND  ---      ---       LVL=1
      01009CBBH   LINE      CODE     ---       #619
      01009CBBH   LINE      CODE     ---       #620
      01009CBFH   LINE      CODE     ---       #623
      01009CC4H   LINE      CODE     ---       #624
      01009CC6H   LINE      CODE     ---       #626
      01009CCFH   LINE      CODE     ---       #627
      ---         BLOCKEND  ---      ---       LVL=0

      010088F2H   BLOCK     CODE     ---       LVL=0
      02000002H   SYMBOL    XDATA    INT       displacement
LX51 LINKER/LOCATER V4.64.0.0                                                         11/29/2018  15:53:27  PAGE 40


      010088FAH   BLOCK     CODE     NEAR LAB  LVL=1
      02000004H   SYMBOL    XDATA    INT       i
      00000007H   SYMBOL    DATA     BYTE      writeStatus
      02000006H   SYMBOL    XDATA    INT       pages
      02000008H   SYMBOL    XDATA    BYTE      ret_val
      ---         BLOCKEND  ---      ---       LVL=1
      010088F2H   LINE      CODE     ---       #638
      010088FAH   LINE      CODE     ---       #639
      010088FAH   LINE      CODE     ---       #643
      01008900H   LINE      CODE     ---       #646
      01008903H   LINE      CODE     ---       #650
      01008906H   LINE      CODE     ---       #652
      01008919H   LINE      CODE     ---       #654
      01008922H   LINE      CODE     ---       #656
      01008945H   LINE      CODE     ---       #657
      0100896AH   LINE      CODE     ---       #658
      0100896DH   LINE      CODE     ---       #659
      01008972H   LINE      CODE     ---       #660
      01008974H   LINE      CODE     ---       #661
      01008974H   LINE      CODE     ---       #662
      01008984H   LINE      CODE     ---       #664
      01008997H   LINE      CODE     ---       #667
      0100899AH   LINE      CODE     ---       #669
      0100899FH   LINE      CODE     ---       #670
      ---         BLOCKEND  ---      ---       LVL=0

      01009403H   BLOCK     CODE     ---       LVL=0
      01009403H   BLOCK     CODE     NEAR LAB  LVL=1
      00000006H   SYMBOL    DATA     WORD      i
      ---         BLOCKEND  ---      ---       LVL=1
      01009403H   LINE      CODE     ---       #681
      01009403H   LINE      CODE     ---       #682
      01009403H   LINE      CODE     ---       #685
      0100940FH   LINE      CODE     ---       #686
      0100942BH   LINE      CODE     ---       #687
      01009432H   LINE      CODE     ---       #690
      01009438H   LINE      CODE     ---       #691
      0100943BH   LINE      CODE     ---       #692
      0100943CH   LINE      CODE     ---       #693
      0100944FH   LINE      CODE     ---       #694
      0100944FH   LINE      CODE     ---       #695
      ---         BLOCKEND  ---      ---       LVL=0

      0100952EH   BLOCK     CODE     ---       LVL=0
      0100952EH   BLOCK     CODE     NEAR LAB  LVL=1
      00000006H   SYMBOL    DATA     WORD      i
      ---         BLOCKEND  ---      ---       LVL=1
      0100952EH   LINE      CODE     ---       #706
      0100952EH   LINE      CODE     ---       #709
      0100953AH   LINE      CODE     ---       #710
      0100955EH   LINE      CODE     ---       #711
      01009565H   LINE      CODE     ---       #714
      0100956BH   LINE      CODE     ---       #715
      0100956FH   LINE      CODE     ---       #716
      0100956FH   LINE      CODE     ---       #717
      01009575H   LINE      CODE     ---       #718
      01009575H   LINE      CODE     ---       #719
      ---         BLOCKEND  ---      ---       LVL=0

      01008E31H   BLOCK     CODE     ---       LVL=0
      01008E31H   BLOCK     CODE     NEAR LAB  LVL=1
      00000007H   SYMBOL    DATA     BYTE      i
      ---         BLOCKEND  ---      ---       LVL=1
      01008E31H   LINE      CODE     ---       #729
      01008E31H   LINE      CODE     ---       #730
LX51 LINKER/LOCATER V4.64.0.0                                                         11/29/2018  15:53:27  PAGE 41


      01008E31H   LINE      CODE     ---       #735
      01008E37H   LINE      CODE     ---       #739
      01008E3BH   LINE      CODE     ---       #742
      01008E43H   LINE      CODE     ---       #743
      01008E54H   LINE      CODE     ---       #744
      01008E65H   LINE      CODE     ---       #745
      01008E75H   LINE      CODE     ---       #746
      01008E85H   LINE      CODE     ---       #747
      01008E95H   LINE      CODE     ---       #751
      01008E98H   LINE      CODE     ---       #754
      01008EB1H   LINE      CODE     ---       #755
      ---         BLOCKEND  ---      ---       LVL=0

      01009B28H   BLOCK     CODE     ---       LVL=0
      01009B28H   LINE      CODE     ---       #764
      01009B28H   LINE      CODE     ---       #767
      01009B30H   LINE      CODE     ---       #769
      01009B34H   LINE      CODE     ---       #770
      01009B34H   LINE      CODE     ---       #771
      01009B3DH   LINE      CODE     ---       #772
      01009B3EH   LINE      CODE     ---       #773
      01009B3EH   LINE      CODE     ---       #774
      01009B47H   LINE      CODE     ---       #775
      01009B47H   LINE      CODE     ---       #776
      ---         BLOCKEND  ---      ---       LVL=0

      01009D24H   BLOCK     CODE     ---       LVL=0
      01009D24H   BLOCK     CODE     NEAR LAB  LVL=1
      02000002H   SYMBOL    XDATA    ---       packet_data
      ---         BLOCKEND  ---      ---       LVL=1
      01009D24H   LINE      CODE     ---       #778
      01009D24H   LINE      CODE     ---       #783
      01009D29H   LINE      CODE     ---       #786
      01009D2BH   LINE      CODE     ---       #789
      01009D37H   LINE      CODE     ---       #790
      ---         BLOCKEND  ---      ---       LVL=0

      01009CD0H   BLOCK     CODE     ---       LVL=0
      01009CD0H   LINE      CODE     ---       #792
      01009CD0H   LINE      CODE     ---       #794
      01009CD9H   LINE      CODE     ---       #795
      01009CDFH   LINE      CODE     ---       #797
      01009CE4H   LINE      CODE     ---       #798
      ---         BLOCKEND  ---      ---       LVL=0

      0100670EH   BLOCK     CODE     ---       LVL=0
      0100670EH   BLOCK     CODE     NEAR LAB  LVL=1
      02000002H   SYMBOL    XDATA    BYTE      k_imu
      02000003H   SYMBOL    XDATA    BYTE      c
      02000004H   SYMBOL    XDATA    BYTE      k
      02000005H   SYMBOL    XDATA    BYTE      gl_c
      02000006H   SYMBOL    XDATA    ---       packet_data
      02000164H   SYMBOL    XDATA    ---       single_packet
      ---         BLOCKEND  ---      ---       LVL=1
      0100670EH   LINE      CODE     ---       #800
      0100670EH   LINE      CODE     ---       #804
      01006714H   LINE      CODE     ---       #805
      01006717H   LINE      CODE     ---       #806
      0100671AH   LINE      CODE     ---       #813
      0100671EH   LINE      CODE     ---       #815
      01006734H   LINE      CODE     ---       #816
      01006734H   LINE      CODE     ---       #818
      0100673AH   LINE      CODE     ---       #819
      01006755H   LINE      CODE     ---       #820
      01006780H   LINE      CODE     ---       #821
LX51 LINKER/LOCATER V4.64.0.0                                                         11/29/2018  15:53:27  PAGE 42


      010067A3H   LINE      CODE     ---       #822
      010067C9H   LINE      CODE     ---       #823
      010067D0H   LINE      CODE     ---       #824
      010067D0H   LINE      CODE     ---       #825
      010067EFH   LINE      CODE     ---       #826
      0100681AH   LINE      CODE     ---       #827
      0100683DH   LINE      CODE     ---       #828
      01006860H   LINE      CODE     ---       #829
      01006867H   LINE      CODE     ---       #830
      01006867H   LINE      CODE     ---       #831
      01006886H   LINE      CODE     ---       #832
      010068B1H   LINE      CODE     ---       #833
      010068D4H   LINE      CODE     ---       #834
      010068F7H   LINE      CODE     ---       #835
      010068FEH   LINE      CODE     ---       #836
      010068FEH   LINE      CODE     ---       #837
      0100691FH   LINE      CODE     ---       #838
      0100694EH   LINE      CODE     ---       #839
      01006975H   LINE      CODE     ---       #840
      010069A0H   LINE      CODE     ---       #841
      010069C7H   LINE      CODE     ---       #842
      010069CEH   LINE      CODE     ---       #843
      010069CEH   LINE      CODE     ---       #844
      010069EDH   LINE      CODE     ---       #845
      01006A13H   LINE      CODE     ---       #846
      01006A1AH   LINE      CODE     ---       #847
      01006A1AH   LINE      CODE     ---       #848
      01006A43H   LINE      CODE     ---       #849
      01006A49H   LINE      CODE     ---       #851
      01006A7CH   LINE      CODE     ---       #852
      01006A9FH   LINE      CODE     ---       #853
      01006AA7H   LINE      CODE     ---       #854
      01006ABDH   LINE      CODE     ---       #856
      01006ACCH   LINE      CODE     ---       #858
      01006AD5H   LINE      CODE     ---       #861
      01006AF9H   LINE      CODE     ---       #862
      01006B02H   LINE      CODE     ---       #863
      ---         BLOCKEND  ---      ---       LVL=0

      010095BAH   BLOCK     CODE     ---       LVL=0
      010095BAH   BLOCK     CODE     NEAR LAB  LVL=1
      02000002H   SYMBOL    XDATA    ---       packet_data
      ---         BLOCKEND  ---      ---       LVL=1
      010095BAH   LINE      CODE     ---       #865
      010095BAH   LINE      CODE     ---       #870
      010095C0H   LINE      CODE     ---       #872
      010095CFH   LINE      CODE     ---       #873
      010095DEH   LINE      CODE     ---       #875
      010095EEH   LINE      CODE     ---       #877
      010095FAH   LINE      CODE     ---       #879
      ---         BLOCKEND  ---      ---       LVL=0

      ---         MODULE    ---      ---       GLOBALS
      00000021H.2 PUBLIC    BIT      BIT       interrupt_flag
      020010DAH   PUBLIC    XDATA    ---       ADC_buf
      020010D8H   PUBLIC    XDATA    INT       imus_data_size
      02001072H   PUBLIC    XDATA    ---       Accel
      0200106EH   PUBLIC    XDATA    DWORD     timer_value0
      0200104CH   PUBLIC    XDATA    ---       single_imu_size
      02000DD7H   PUBLIC    XDATA    ---       g_imuNew
      02000D52H   PUBLIC    XDATA    ---       g_rx
      02000D50H   PUBLIC    XDATA    WORD      sensor_value_2
      02000D4EH   PUBLIC    XDATA    WORD      sensor_value_1
      02000D1BH   PUBLIC    XDATA    ---       MagCal
      02000D17H   PUBLIC    XDATA    DWORD     timer_value
LX51 LINKER/LOCATER V4.64.0.0                                                         11/29/2018  15:53:27  PAGE 43


      02000CB1H   PUBLIC    XDATA    ---       Gyro
      02000CA1H   PUBLIC    XDATA    ---       Quat
      02000C7FH   PUBLIC    XDATA    ---       Temp
      02000C19H   PUBLIC    XDATA    ---       Mag
      02000C18H   PUBLIC    XDATA    BYTE      N_IMU_Connected
      020009A3H   PUBLIC    XDATA    ---       g_imu
      0200094AH   PUBLIC    XDATA    ---       g_mem
      02000939H   PUBLIC    XDATA    ---       IMU_connected
      020008E0H   PUBLIC    XDATA    ---       c_mem
      000000CAH   SFRSYM    DATA     BYTE      SFRPRT5SEL
      000000DAH   SFRSYM    DATA     BYTE      SFRPRT6SEL
      000000D0H.6 SFRSYM    DATA     BIT       AC
      000000A8H.7 SFRSYM    DATA     BIT       EA
      000000A8H   SFRSYM    DATA     BYTE      IE
      00000085H   SFRSYM    DATA     BYTE      DPH1
      00000084H   SFRSYM    DATA     BYTE      DPL1
      000000D0H.7 SFRSYM    DATA     BIT       CY
      000000A0H   SFRSYM    DATA     BYTE      P2AX
      00000095H   SFRSYM    DATA     BYTE      DPX1
      00000081H   SFRSYM    DATA     BYTE      SP
      000000D0H.2 SFRSYM    DATA     BIT       OV
      00000080H   SFRSYM    DATA     BYTE      SFRPRT0DR
      00000090H   SFRSYM    DATA     BYTE      SFRPRT1DR
      000000F2H   SFRSYM    DATA     BYTE      SFRPRT12SEL
      00000098H   SFRSYM    DATA     BYTE      SFRPRT2DR
      000000B0H   SFRSYM    DATA     BYTE      SFRPRT3DR
      000000C0H   SFRSYM    DATA     BYTE      SFRPRT4DR
      000000FAH   SFRSYM    DATA     BYTE      SFRPRT15SEL
      000000C8H   SFRSYM    DATA     BYTE      SFRPRT5DR
      000000D8H   SFRSYM    DATA     BYTE      SFRPRT6DR
      00000089H   SFRSYM    DATA     BYTE      SFRPRT0PS
      00000091H   SFRSYM    DATA     BYTE      SFRPRT1PS
      00000099H   SFRSYM    DATA     BYTE      SFRPRT2PS
      000000B1H   SFRSYM    DATA     BYTE      SFRPRT3PS
      000000C1H   SFRSYM    DATA     BYTE      SFRPRT4PS
      000000C9H   SFRSYM    DATA     BYTE      SFRPRT5PS
      000000D9H   SFRSYM    DATA     BYTE      SFRPRT6PS
      000000EAH   SFRSYM    DATA     BYTE      MXAX
      000000F0H   SFRSYM    DATA     BYTE      B
      000000E0H   SFRSYM    DATA     BYTE      ACC
      000000D0H   SFRSYM    DATA     BIT       P
      000000D0H.3 SFRSYM    DATA     BIT       RS0
      000000D0H.4 SFRSYM    DATA     BIT       RS1
      00000083H   SFRSYM    DATA     BYTE      DPH
      000000E8H   SFRSYM    DATA     BYTE      SFRPRT12DR
      00000082H   SFRSYM    DATA     BYTE      DPL
      000000F8H   SFRSYM    DATA     BYTE      SFRPRT15DR
      00000086H   SFRSYM    DATA     BYTE      DPS
      000000E9H   SFRSYM    DATA     BYTE      SFRPRT12PS
      00000093H   SFRSYM    DATA     BYTE      DPX
      000000F9H   SFRSYM    DATA     BYTE      SFRPRT15PS
      000000D0H.5 SFRSYM    DATA     BIT       F0
      000000D0H.1 SFRSYM    DATA     BIT       F1
      0000008AH   SFRSYM    DATA     BYTE      SFRPRT0SEL
      000000D0H   SFRSYM    DATA     BYTE      PSW
      000000A2H   SFRSYM    DATA     BYTE      SFRPRT1SEL
      0000009AH   SFRSYM    DATA     BYTE      SFRPRT2SEL
      000000B2H   SFRSYM    DATA     BYTE      SFRPRT3SEL
      000000C2H   SFRSYM    DATA     BYTE      SFRPRT4SEL

      ---         MODULE    ---      ---       INTERRUPTIONS
      0100973BH   PUBLIC    CODE     ---       analog_read_end
      01009268H   PUBLIC    CODE     ---       function_scheduler
      01007A5BH   PUBLIC    CODE     ---       interrupt_manager
      01009FC4H   PUBLIC    CODE     ---       ISR_RS485_RX_ExInterrupt
LX51 LINKER/LOCATER V4.64.0.0                                                         11/29/2018  15:53:27  PAGE 44


      000000CAH   SFRSYM    DATA     BYTE      SFRPRT5SEL
      000000DAH   SFRSYM    DATA     BYTE      SFRPRT6SEL
      000000D0H.6 SFRSYM    DATA     BIT       AC
      000000A8H.7 SFRSYM    DATA     BIT       EA
      000000A8H   SFRSYM    DATA     BYTE      IE
      00000085H   SFRSYM    DATA     BYTE      DPH1
      00000084H   SFRSYM    DATA     BYTE      DPL1
      000000D0H.7 SFRSYM    DATA     BIT       CY
      000000A0H   SFRSYM    DATA     BYTE      P2AX
      00000095H   SFRSYM    DATA     BYTE      DPX1
      00000081H   SFRSYM    DATA     BYTE      SP
      000000D0H.2 SFRSYM    DATA     BIT       OV
      00000080H   SFRSYM    DATA     BYTE      SFRPRT0DR
      00000090H   SFRSYM    DATA     BYTE      SFRPRT1DR
      000000F2H   SFRSYM    DATA     BYTE      SFRPRT12SEL
      00000098H   SFRSYM    DATA     BYTE      SFRPRT2DR
      000000B0H   SFRSYM    DATA     BYTE      SFRPRT3DR
      000000C0H   SFRSYM    DATA     BYTE      SFRPRT4DR
      000000FAH   SFRSYM    DATA     BYTE      SFRPRT15SEL
      000000C8H   SFRSYM    DATA     BYTE      SFRPRT5DR
      000000D8H   SFRSYM    DATA     BYTE      SFRPRT6DR
      00000089H   SFRSYM    DATA     BYTE      SFRPRT0PS
      00000091H   SFRSYM    DATA     BYTE      SFRPRT1PS
      00000099H   SFRSYM    DATA     BYTE      SFRPRT2PS
      000000B1H   SFRSYM    DATA     BYTE      SFRPRT3PS
      000000C1H   SFRSYM    DATA     BYTE      SFRPRT4PS
      000000C9H   SFRSYM    DATA     BYTE      SFRPRT5PS
      000000D9H   SFRSYM    DATA     BYTE      SFRPRT6PS
      000000EAH   SFRSYM    DATA     BYTE      MXAX
      000000F0H   SFRSYM    DATA     BYTE      B
      000000E0H   SFRSYM    DATA     BYTE      ACC
      000000D0H   SFRSYM    DATA     BIT       P
      000000D0H.3 SFRSYM    DATA     BIT       RS0
      000000D0H.4 SFRSYM    DATA     BIT       RS1
      00000083H   SFRSYM    DATA     BYTE      DPH
      000000E8H   SFRSYM    DATA     BYTE      SFRPRT12DR
      00000082H   SFRSYM    DATA     BYTE      DPL
      000000F8H   SFRSYM    DATA     BYTE      SFRPRT15DR
      00000086H   SFRSYM    DATA     BYTE      DPS
      000000E9H   SFRSYM    DATA     BYTE      SFRPRT12PS
      00000093H   SFRSYM    DATA     BYTE      DPX
      000000F9H   SFRSYM    DATA     BYTE      SFRPRT15PS
      000000D0H.5 SFRSYM    DATA     BIT       F0
      000000D0H.1 SFRSYM    DATA     BIT       F1
      0000008AH   SFRSYM    DATA     BYTE      SFRPRT0SEL
      000000D0H   SFRSYM    DATA     BYTE      PSW
      000000A2H   SFRSYM    DATA     BYTE      SFRPRT1SEL
      0000009AH   SFRSYM    DATA     BYTE      SFRPRT2SEL
      000000B2H   SFRSYM    DATA     BYTE      SFRPRT3SEL
      000000C2H   SFRSYM    DATA     BYTE      SFRPRT4SEL

      01009FC4H   BLOCK     CODE     ---       LVL=0
      01009FC4H   LINE      CODE     ---       #70
      01009FC4H   LINE      CODE     ---       #74
      01009FC6H   LINE      CODE     ---       #76
      ---         BLOCKEND  ---      ---       LVL=0

      01007A5BH   BLOCK     CODE     ---       LVL=0
      01007A5BH   BLOCK     CODE     NEAR LAB  LVL=1
      00000022H   SYMBOL    DATA     BYTE      state
      00000023H   SYMBOL    DATA     BYTE      data_packet_index
      00000024H   SYMBOL    DATA     BYTE      data_packet_length
      02001530H   SYMBOL    XDATA    ---       data_packet_buffer
      00000025H   SYMBOL    DATA     ---       rx_queue
      00000008H   SYMBOL    DATA     BYTE      rx_data
LX51 LINKER/LOCATER V4.64.0.0                                                         11/29/2018  15:53:27  PAGE 45


      00000020H.0 SYMBOL    BIT      BIT       rx_data_type
      00000009H   SYMBOL    DATA     BYTE      package_count
      ---         BLOCKEND  ---      ---       LVL=1
      01007A5BH   LINE      CODE     ---       #93
      01007A5BH   LINE      CODE     ---       #109
      01007A5EH   LINE      CODE     ---       #115
      01007A71H   LINE      CODE     ---       #119
      01007A76H   LINE      CODE     ---       #121
      01007A8EH   LINE      CODE     ---       #123
      01007A8EH   LINE      CODE     ---       #125
      01007A91H   LINE      CODE     ---       #126
      01007A94H   LINE      CODE     ---       #127
      01007A97H   LINE      CODE     ---       #130
      01007AA1H   LINE      CODE     ---       #131
      01007AA4H   LINE      CODE     ---       #132
      01007AA6H   LINE      CODE     ---       #133
      01007AA8H   LINE      CODE     ---       #134
      01007AABH   LINE      CODE     ---       #135
      01007AADH   LINE      CODE     ---       #136
      01007ABDH   LINE      CODE     ---       #139
      01007AC2H   LINE      CODE     ---       #140
      01007AC4H   LINE      CODE     ---       #143
      01007AC4H   LINE      CODE     ---       #146
      01007AD0H   LINE      CODE     ---       #147
      01007AD4H   LINE      CODE     ---       #149
      01007AD6H   LINE      CODE     ---       #151
      01007AD9H   LINE      CODE     ---       #152
      01007ADCH   LINE      CODE     ---       #153
      01007ADEH   LINE      CODE     ---       #156
      01007ADEH   LINE      CODE     ---       #159
      01007AE1H   LINE      CODE     ---       #161
      01007AE8H   LINE      CODE     ---       #162
      01007AEBH   LINE      CODE     ---       #163
      01007AEDH   LINE      CODE     ---       #164
      01007AF7H   LINE      CODE     ---       #165
      01007AFAH   LINE      CODE     ---       #166
      01007AFCH   LINE      CODE     ---       #167
      01007AFFH   LINE      CODE     ---       #168
      01007B02H   LINE      CODE     ---       #170
      01007B05H   LINE      CODE     ---       #171
      01007B0BH   LINE      CODE     ---       #173
      01007B0EH   LINE      CODE     ---       #174
      01007B0EH   LINE      CODE     ---       #175
      01007B11H   LINE      CODE     ---       #178
      01007B11H   LINE      CODE     ---       #180
      01007B1FH   LINE      CODE     ---       #181
      01007B21H   LINE      CODE     ---       #184
      01007B2BH   LINE      CODE     ---       #186
      01007B2EH   LINE      CODE     ---       #188
      01007B41H   LINE      CODE     ---       #189
      01007B4AH   LINE      CODE     ---       #190
      01007B50H   LINE      CODE     ---       #191
      01007B53H   LINE      CODE     ---       #192
      01007B53H   LINE      CODE     ---       #194
      01007B56H   LINE      CODE     ---       #195
      01007B58H   LINE      CODE     ---       #196
      01007B5AH   LINE      CODE     ---       #197
      01007B5CH   LINE      CODE     ---       #199
      01007B5CH   LINE      CODE     ---       #200
      01007B5FH   LINE      CODE     ---       #203
      01007B5FH   LINE      CODE     ---       #204
      01007B68H   LINE      CODE     ---       #205
      01007B6AH   LINE      CODE     ---       #206
      01007B6CH   LINE      CODE     ---       #207
      01007B71H   LINE      CODE     ---       #208
LX51 LINKER/LOCATER V4.64.0.0                                                         11/29/2018  15:53:27  PAGE 46


      01007B76H   LINE      CODE     ---       #209
      01007B79H   LINE      CODE     ---       #210
      01007B7BH   LINE      CODE     ---       #211
      01007B7BH   LINE      CODE     ---       #212
      01007B7EH   LINE      CODE     ---       #213
      01007B7EH   LINE      CODE     ---       #214
      01007B81H   LINE      CODE     ---       #215
      ---         BLOCKEND  ---      ---       LVL=0

      01009268H   BLOCK     CODE     ---       LVL=0
      01009268H   LINE      CODE     ---       #224
      01009268H   LINE      CODE     ---       #226
      01009271H   LINE      CODE     ---       #229
      01009276H   LINE      CODE     ---       #233
      01009279H   LINE      CODE     ---       #234
      0100927BH   LINE      CODE     ---       #235
      0100927EH   LINE      CODE     ---       #236
      0100927EH   LINE      CODE     ---       #238
      01009281H   LINE      CODE     ---       #240
      01009284H   LINE      CODE     ---       #242
      01009287H   LINE      CODE     ---       #243
      01009289H   LINE      CODE     ---       #244
      0100928CH   LINE      CODE     ---       #245
      0100928CH   LINE      CODE     ---       #248
      0100929FH   LINE      CODE     ---       #250
      010092A2H   LINE      CODE     ---       #251
      010092A4H   LINE      CODE     ---       #252
      010092A7H   LINE      CODE     ---       #253
      010092A7H   LINE      CODE     ---       #255
      010092B0H   LINE      CODE     ---       #256
      010092BBH   LINE      CODE     ---       #258
      ---         BLOCKEND  ---      ---       LVL=0

      0100973BH   BLOCK     CODE     ---       LVL=0
      0100973BH   LINE      CODE     ---       #264
      0100973BH   LINE      CODE     ---       #266
      01009741H   LINE      CODE     ---       #267
      01009744H   LINE      CODE     ---       #268
      01009746H   LINE      CODE     ---       #269
      01009749H   LINE      CODE     ---       #270
      01009749H   LINE      CODE     ---       #271
      0100974BH   LINE      CODE     ---       #273
      0100975AH   LINE      CODE     ---       #274
      01009769H   LINE      CODE     ---       #276
      0100976CH   LINE      CODE     ---       #277
      0100976EH   LINE      CODE     ---       #278
      01009771H   LINE      CODE     ---       #279
      01009771H   LINE      CODE     ---       #281
      ---         BLOCKEND  ---      ---       LVL=0

      ---         MODULE    ---      ---       MAIN
      01008110H   PUBLIC    CODE     ---       main
      000000CAH   SFRSYM    DATA     BYTE      SFRPRT5SEL
      000000DAH   SFRSYM    DATA     BYTE      SFRPRT6SEL
      000000D0H.6 SFRSYM    DATA     BIT       AC
      000000A8H.7 SFRSYM    DATA     BIT       EA
      000000A8H   SFRSYM    DATA     BYTE      IE
      00000085H   SFRSYM    DATA     BYTE      DPH1
      00000084H   SFRSYM    DATA     BYTE      DPL1
      000000D0H.7 SFRSYM    DATA     BIT       CY
      000000A0H   SFRSYM    DATA     BYTE      P2AX
      00000095H   SFRSYM    DATA     BYTE      DPX1
      00000081H   SFRSYM    DATA     BYTE      SP
      000000D0H.2 SFRSYM    DATA     BIT       OV
      00000080H   SFRSYM    DATA     BYTE      SFRPRT0DR
LX51 LINKER/LOCATER V4.64.0.0                                                         11/29/2018  15:53:27  PAGE 47


      00000090H   SFRSYM    DATA     BYTE      SFRPRT1DR
      000000F2H   SFRSYM    DATA     BYTE      SFRPRT12SEL
      00000098H   SFRSYM    DATA     BYTE      SFRPRT2DR
      000000B0H   SFRSYM    DATA     BYTE      SFRPRT3DR
      000000C0H   SFRSYM    DATA     BYTE      SFRPRT4DR
      000000FAH   SFRSYM    DATA     BYTE      SFRPRT15SEL
      000000C8H   SFRSYM    DATA     BYTE      SFRPRT5DR
      000000D8H   SFRSYM    DATA     BYTE      SFRPRT6DR
      00000089H   SFRSYM    DATA     BYTE      SFRPRT0PS
      00000091H   SFRSYM    DATA     BYTE      SFRPRT1PS
      00000099H   SFRSYM    DATA     BYTE      SFRPRT2PS
      000000B1H   SFRSYM    DATA     BYTE      SFRPRT3PS
      000000C1H   SFRSYM    DATA     BYTE      SFRPRT4PS
      000000C9H   SFRSYM    DATA     BYTE      SFRPRT5PS
      000000D9H   SFRSYM    DATA     BYTE      SFRPRT6PS
      000000EAH   SFRSYM    DATA     BYTE      MXAX
      000000F0H   SFRSYM    DATA     BYTE      B
      000000E0H   SFRSYM    DATA     BYTE      ACC
      000000D0H   SFRSYM    DATA     BIT       P
      000000D0H.3 SFRSYM    DATA     BIT       RS0
      000000D0H.4 SFRSYM    DATA     BIT       RS1
      00000083H   SFRSYM    DATA     BYTE      DPH
      000000E8H   SFRSYM    DATA     BYTE      SFRPRT12DR
      00000082H   SFRSYM    DATA     BYTE      DPL
      000000F8H   SFRSYM    DATA     BYTE      SFRPRT15DR
      00000086H   SFRSYM    DATA     BYTE      DPS
      000000E9H   SFRSYM    DATA     BYTE      SFRPRT12PS
      00000093H   SFRSYM    DATA     BYTE      DPX
      000000F9H   SFRSYM    DATA     BYTE      SFRPRT15PS
      000000D0H.5 SFRSYM    DATA     BIT       F0
      000000D0H.1 SFRSYM    DATA     BIT       F1
      0000008AH   SFRSYM    DATA     BYTE      SFRPRT0SEL
      000000D0H   SFRSYM    DATA     BYTE      PSW
      000000A2H   SFRSYM    DATA     BYTE      SFRPRT1SEL
      0000009AH   SFRSYM    DATA     BYTE      SFRPRT2SEL
      000000B2H   SFRSYM    DATA     BYTE      SFRPRT3SEL
      000000C2H   SFRSYM    DATA     BYTE      SFRPRT4SEL

      01008110H   BLOCK     CODE     ---       LVL=0
      01008110H   BLOCK     CODE     NEAR LAB  LVL=1
      02000000H   SYMBOL    XDATA    BYTE      DMA_Chan
      02000001H   SYMBOL    XDATA    ---       DMA_TD
      ---         BLOCKEND  ---      ---       LVL=1
      01008110H   LINE      CODE     ---       #71
      01008110H   LINE      CODE     ---       #72
      01008110H   LINE      CODE     ---       #81
      01008113H   LINE      CODE     ---       #82
      01008116H   LINE      CODE     ---       #86
      0100811FH   LINE      CODE     ---       #87
      01008124H   LINE      CODE     ---       #91
      01008127H   LINE      CODE     ---       #92
      0100812AH   LINE      CODE     ---       #93
      0100812DH   LINE      CODE     ---       #95
      01008130H   LINE      CODE     ---       #96
      01008133H   LINE      CODE     ---       #98
      0100813AH   LINE      CODE     ---       #100
      0100813FH   LINE      CODE     ---       #104
      01008142H   LINE      CODE     ---       #105
      01008145H   LINE      CODE     ---       #107
      0100814DH   LINE      CODE     ---       #110
      01008150H   LINE      CODE     ---       #111
      01008153H   LINE      CODE     ---       #112
      01008156H   LINE      CODE     ---       #113
      01008159H   LINE      CODE     ---       #114
      0100815CH   LINE      CODE     ---       #115
LX51 LINKER/LOCATER V4.64.0.0                                                         11/29/2018  15:53:27  PAGE 48


      0100815FH   LINE      CODE     ---       #116
      01008168H   LINE      CODE     ---       #119
      0100816BH   LINE      CODE     ---       #120
      01008170H   LINE      CODE     ---       #123
      01008185H   LINE      CODE     ---       #124
      0100818DH   LINE      CODE     ---       #125
      0100819DH   LINE      CODE     ---       #126
      010081B4H   LINE      CODE     ---       #127
      010081BFH   LINE      CODE     ---       #128
      010081C9H   LINE      CODE     ---       #130
      010081CEH   LINE      CODE     ---       #133
      010081D1H   LINE      CODE     ---       #139
      010081D8H   LINE      CODE     ---       #140
      010081DCH   LINE      CODE     ---       #144
      010081DCH   LINE      CODE     ---       #145
      010081DCH   LINE      CODE     ---       #147
      010081E1H   LINE      CODE     ---       #150
      010081E4H   LINE      CODE     ---       #153
      010081EAH   LINE      CODE     ---       #155
      010081EDH   LINE      CODE     ---       #157
      010081EFH   LINE      CODE     ---       #160
      010081F2H   LINE      CODE     ---       #161
      010081F2H   LINE      CODE     ---       #162
      010081F4H   LINE      CODE     ---       #165
      010081F9H   LINE      CODE     ---       #168
      01008201H   LINE      CODE     ---       #170
      01008208H   LINE      CODE     ---       #171
      0100820BH   LINE      CODE     ---       #172
      0100820DH   LINE      CODE     ---       #173
      0100820DH   LINE      CODE     ---       #174
      ---         BLOCKEND  ---      ---       LVL=0

      ---         MODULE    ---      ---       UTILS
      010072BDH   PUBLIC    CODE     ---       _v4_normalize
      01007B82H   PUBLIC    CODE     ---       _v3_normalize
      010083F0H   PUBLIC    CODE     ---       _invSqrt
      000000CAH   SFRSYM    DATA     BYTE      SFRPRT5SEL
      000000DAH   SFRSYM    DATA     BYTE      SFRPRT6SEL
      000000D0H.6 SFRSYM    DATA     BIT       AC
      000000A8H.7 SFRSYM    DATA     BIT       EA
      000000A8H   SFRSYM    DATA     BYTE      IE
      00000085H   SFRSYM    DATA     BYTE      DPH1
      00000084H   SFRSYM    DATA     BYTE      DPL1
      000000D0H.7 SFRSYM    DATA     BIT       CY
      000000A0H   SFRSYM    DATA     BYTE      P2AX
      00000095H   SFRSYM    DATA     BYTE      DPX1
      00000081H   SFRSYM    DATA     BYTE      SP
      000000D0H.2 SFRSYM    DATA     BIT       OV
      00000080H   SFRSYM    DATA     BYTE      SFRPRT0DR
      00000090H   SFRSYM    DATA     BYTE      SFRPRT1DR
      000000F2H   SFRSYM    DATA     BYTE      SFRPRT12SEL
      00000098H   SFRSYM    DATA     BYTE      SFRPRT2DR
      000000B0H   SFRSYM    DATA     BYTE      SFRPRT3DR
      000000C0H   SFRSYM    DATA     BYTE      SFRPRT4DR
      000000FAH   SFRSYM    DATA     BYTE      SFRPRT15SEL
      000000C8H   SFRSYM    DATA     BYTE      SFRPRT5DR
      000000D8H   SFRSYM    DATA     BYTE      SFRPRT6DR
      00000089H   SFRSYM    DATA     BYTE      SFRPRT0PS
      00000091H   SFRSYM    DATA     BYTE      SFRPRT1PS
      00000099H   SFRSYM    DATA     BYTE      SFRPRT2PS
      000000B1H   SFRSYM    DATA     BYTE      SFRPRT3PS
      000000C1H   SFRSYM    DATA     BYTE      SFRPRT4PS
      000000C9H   SFRSYM    DATA     BYTE      SFRPRT5PS
      000000D9H   SFRSYM    DATA     BYTE      SFRPRT6PS
      000000EAH   SFRSYM    DATA     BYTE      MXAX
LX51 LINKER/LOCATER V4.64.0.0                                                         11/29/2018  15:53:27  PAGE 49


      000000F0H   SFRSYM    DATA     BYTE      B
      000000E0H   SFRSYM    DATA     BYTE      ACC
      000000D0H   SFRSYM    DATA     BIT       P
      000000D0H.3 SFRSYM    DATA     BIT       RS0
      000000D0H.4 SFRSYM    DATA     BIT       RS1
      00000083H   SFRSYM    DATA     BYTE      DPH
      000000E8H   SFRSYM    DATA     BYTE      SFRPRT12DR
      00000082H   SFRSYM    DATA     BYTE      DPL
      000000F8H   SFRSYM    DATA     BYTE      SFRPRT15DR
      00000086H   SFRSYM    DATA     BYTE      DPS
      000000E9H   SFRSYM    DATA     BYTE      SFRPRT12PS
      00000093H   SFRSYM    DATA     BYTE      DPX
      000000F9H   SFRSYM    DATA     BYTE      SFRPRT15PS
      000000D0H.5 SFRSYM    DATA     BIT       F0
      000000D0H.1 SFRSYM    DATA     BIT       F1
      0000008AH   SFRSYM    DATA     BYTE      SFRPRT0SEL
      000000D0H   SFRSYM    DATA     BYTE      PSW
      000000A2H   SFRSYM    DATA     BYTE      SFRPRT1SEL
      0000009AH   SFRSYM    DATA     BYTE      SFRPRT2SEL
      000000B2H   SFRSYM    DATA     BYTE      SFRPRT3SEL
      000000C2H   SFRSYM    DATA     BYTE      SFRPRT4SEL

      010083F0H   BLOCK     CODE     ---       LVL=0
      02000068H   SYMBOL    XDATA    FLOAT     x
      010083F6H   BLOCK     CODE     NEAR LAB  LVL=1
      0200006CH   SYMBOL    XDATA    FLOAT     halfx
      02000070H   SYMBOL    XDATA    FLOAT     y
      02000074H   SYMBOL    XDATA    LONG      i
      ---         BLOCKEND  ---      ---       LVL=1
      010083F0H   LINE      CODE     ---       #53
      010083F6H   LINE      CODE     ---       #54
      01008413H   LINE      CODE     ---       #55
      01008427H   LINE      CODE     ---       #56
      01008439H   LINE      CODE     ---       #57
      01008463H   LINE      CODE     ---       #58
      01008477H   LINE      CODE     ---       #59
      010084D0H   LINE      CODE     ---       #60
      010084DEH   LINE      CODE     ---       #61
      ---         BLOCKEND  ---      ---       LVL=0

      01007B82H   BLOCK     CODE     ---       LVL=0
      02000061H   SYMBOL    XDATA    ---       v3_in
      01007B8DH   BLOCK     CODE     NEAR LAB  LVL=1
      02000064H   SYMBOL    XDATA    FLOAT     norm
      ---         BLOCKEND  ---      ---       LVL=1
      01007B82H   LINE      CODE     ---       #66
      01007B8DH   LINE      CODE     ---       #68
      01007C07H   LINE      CODE     ---       #70
      01007C35H   LINE      CODE     ---       #71
      01007C6CH   LINE      CODE     ---       #72
      01007CA3H   LINE      CODE     ---       #73
      ---         BLOCKEND  ---      ---       LVL=0

      010072BDH   BLOCK     CODE     ---       LVL=0
      02000061H   SYMBOL    XDATA    ---       v4_in
      010072C8H   BLOCK     CODE     NEAR LAB  LVL=1
      02000064H   SYMBOL    XDATA    FLOAT     norm
      ---         BLOCKEND  ---      ---       LVL=1
      010072BDH   LINE      CODE     ---       #78
      010072C8H   LINE      CODE     ---       #80
      01007373H   LINE      CODE     ---       #82
      010073A1H   LINE      CODE     ---       #83
      010073D8H   LINE      CODE     ---       #84
      0100740FH   LINE      CODE     ---       #85
      01007446H   LINE      CODE     ---       #86
LX51 LINKER/LOCATER V4.64.0.0                                                         11/29/2018  15:53:27  PAGE 50


      ---         BLOCKEND  ---      ---       LVL=0

      ---         MODULE    ---      ---       IMU_FUNCTIONS
      01009BC4H   PUBLIC    CODE     ---       SPI_delay
      01009C8EH   PUBLIC    CODE     ---       _ReadControlRegister
      0100993AH   PUBLIC    CODE     ---       _WriteControlRegister
      01009159H   PUBLIC    CODE     ---       _ReadTemp
      01006B03H   PUBLIC    CODE     ---       ReadAllIMUs
      010034DDH   PUBLIC    CODE     ---       _ReadQuat
      01008DADH   PUBLIC    CODE     ---       _ReadMagCal
      01007FF9H   PUBLIC    CODE     ---       _ReadMag
      01007EDDH   PUBLIC    CODE     ---       _ReadGyro
      01007DC1H   PUBLIC    CODE     ---       _ReadAcc
      01008A4EH   PUBLIC    CODE     ---       _ReadIMU
      01006E3EH   PUBLIC    CODE     ---       InitIMUgeneral
      010094E5H   PUBLIC    CODE     ---       _ChipSelector
      010082FFH   PUBLIC    CODE     ---       InitIMUMagCal
      0100820EH   PUBLIC    CODE     ---       InitIMU
      000000CAH   SFRSYM    DATA     BYTE      SFRPRT5SEL
      000000DAH   SFRSYM    DATA     BYTE      SFRPRT6SEL
      000000D0H.6 SFRSYM    DATA     BIT       AC
      000000A8H.7 SFRSYM    DATA     BIT       EA
      000000A8H   SFRSYM    DATA     BYTE      IE
      00000085H   SFRSYM    DATA     BYTE      DPH1
      00000084H   SFRSYM    DATA     BYTE      DPL1
      000000D0H.7 SFRSYM    DATA     BIT       CY
      000000A0H   SFRSYM    DATA     BYTE      P2AX
      00000095H   SFRSYM    DATA     BYTE      DPX1
      00000081H   SFRSYM    DATA     BYTE      SP
      000000D0H.2 SFRSYM    DATA     BIT       OV
      00000080H   SFRSYM    DATA     BYTE      SFRPRT0DR
      00000090H   SFRSYM    DATA     BYTE      SFRPRT1DR
      000000F2H   SFRSYM    DATA     BYTE      SFRPRT12SEL
      00000098H   SFRSYM    DATA     BYTE      SFRPRT2DR
      000000B0H   SFRSYM    DATA     BYTE      SFRPRT3DR
      000000C0H   SFRSYM    DATA     BYTE      SFRPRT4DR
      000000FAH   SFRSYM    DATA     BYTE      SFRPRT15SEL
      000000C8H   SFRSYM    DATA     BYTE      SFRPRT5DR
      000000D8H   SFRSYM    DATA     BYTE      SFRPRT6DR
      00000089H   SFRSYM    DATA     BYTE      SFRPRT0PS
      00000091H   SFRSYM    DATA     BYTE      SFRPRT1PS
      00000099H   SFRSYM    DATA     BYTE      SFRPRT2PS
      000000B1H   SFRSYM    DATA     BYTE      SFRPRT3PS
      000000C1H   SFRSYM    DATA     BYTE      SFRPRT4PS
      000000C9H   SFRSYM    DATA     BYTE      SFRPRT5PS
      000000D9H   SFRSYM    DATA     BYTE      SFRPRT6PS
      000000EAH   SFRSYM    DATA     BYTE      MXAX
      000000F0H   SFRSYM    DATA     BYTE      B
      000000E0H   SFRSYM    DATA     BYTE      ACC
      000000D0H   SFRSYM    DATA     BIT       P
      000000D0H.3 SFRSYM    DATA     BIT       RS0
      000000D0H.4 SFRSYM    DATA     BIT       RS1
      00000083H   SFRSYM    DATA     BYTE      DPH
      000000E8H   SFRSYM    DATA     BYTE      SFRPRT12DR
      00000082H   SFRSYM    DATA     BYTE      DPL
      000000F8H   SFRSYM    DATA     BYTE      SFRPRT15DR
      00000086H   SFRSYM    DATA     BYTE      DPS
      000000E9H   SFRSYM    DATA     BYTE      SFRPRT12PS
      00000093H   SFRSYM    DATA     BYTE      DPX
      000000F9H   SFRSYM    DATA     BYTE      SFRPRT15PS
      000000D0H.5 SFRSYM    DATA     BIT       F0
      000000D0H.1 SFRSYM    DATA     BIT       F1
      0000008AH   SFRSYM    DATA     BYTE      SFRPRT0SEL
      000000D0H   SFRSYM    DATA     BYTE      PSW
      000000A2H   SFRSYM    DATA     BYTE      SFRPRT1SEL
LX51 LINKER/LOCATER V4.64.0.0                                                         11/29/2018  15:53:27  PAGE 51


      0000009AH   SFRSYM    DATA     BYTE      SFRPRT2SEL
      000000B2H   SFRSYM    DATA     BYTE      SFRPRT3SEL
      000000C2H   SFRSYM    DATA     BYTE      SFRPRT4SEL

      0100820EH   BLOCK     CODE     ---       LVL=0
      0100820EH   LINE      CODE     ---       #70
      0100820EH   LINE      CODE     ---       #72
      01008215H   LINE      CODE     ---       #73
      0100821EH   LINE      CODE     ---       #74
      01008225H   LINE      CODE     ---       #75
      0100822EH   LINE      CODE     ---       #76
      01008235H   LINE      CODE     ---       #77
      0100823EH   LINE      CODE     ---       #78
      01008245H   LINE      CODE     ---       #79
      0100824EH   LINE      CODE     ---       #80
      01008255H   LINE      CODE     ---       #81
      0100825EH   LINE      CODE     ---       #85
      01008265H   LINE      CODE     ---       #87
      0100826EH   LINE      CODE     ---       #89
      01008275H   LINE      CODE     ---       #90
      0100827EH   LINE      CODE     ---       #92
      01008285H   LINE      CODE     ---       #93
      0100828EH   LINE      CODE     ---       #94
      01008295H   LINE      CODE     ---       #95
      0100829EH   LINE      CODE     ---       #97
      010082A5H   LINE      CODE     ---       #98
      010082AEH   LINE      CODE     ---       #99
      010082B5H   LINE      CODE     ---       #100
      010082BEH   LINE      CODE     ---       #102
      010082C5H   LINE      CODE     ---       #103
      010082CEH   LINE      CODE     ---       #105
      010082D5H   LINE      CODE     ---       #106
      010082DEH   LINE      CODE     ---       #108
      010082E5H   LINE      CODE     ---       #109
      010082EEH   LINE      CODE     ---       #110
      010082F5H   LINE      CODE     ---       #111
      010082FEH   LINE      CODE     ---       #112
      ---         BLOCKEND  ---      ---       LVL=0

      010082FFH   BLOCK     CODE     ---       LVL=0
      010082FFH   LINE      CODE     ---       #117
      010082FFH   LINE      CODE     ---       #119
      01008306H   LINE      CODE     ---       #120
      0100830FH   LINE      CODE     ---       #121
      01008316H   LINE      CODE     ---       #122
      0100831FH   LINE      CODE     ---       #123
      01008326H   LINE      CODE     ---       #124
      0100832FH   LINE      CODE     ---       #125
      01008336H   LINE      CODE     ---       #126
      0100833FH   LINE      CODE     ---       #127
      01008346H   LINE      CODE     ---       #128
      0100834FH   LINE      CODE     ---       #129
      01008356H   LINE      CODE     ---       #130
      0100835FH   LINE      CODE     ---       #132
      01008366H   LINE      CODE     ---       #133
      0100836FH   LINE      CODE     ---       #135
      01008376H   LINE      CODE     ---       #136
      0100837FH   LINE      CODE     ---       #137
      01008386H   LINE      CODE     ---       #138
      0100838FH   LINE      CODE     ---       #139
      01008396H   LINE      CODE     ---       #140
      0100839FH   LINE      CODE     ---       #141
      010083A6H   LINE      CODE     ---       #142
      010083AFH   LINE      CODE     ---       #144
      010083B6H   LINE      CODE     ---       #145
LX51 LINKER/LOCATER V4.64.0.0                                                         11/29/2018  15:53:27  PAGE 52


      010083BFH   LINE      CODE     ---       #146
      010083C6H   LINE      CODE     ---       #147
      010083CFH   LINE      CODE     ---       #148
      010083D6H   LINE      CODE     ---       #149
      010083DFH   LINE      CODE     ---       #150
      010083E6H   LINE      CODE     ---       #151
      010083EFH   LINE      CODE     ---       #152
      ---         BLOCKEND  ---      ---       LVL=0

      010094E5H   BLOCK     CODE     ---       LVL=0
      02000028H   SYMBOL    XDATA    INT       n
      010094E5H   LINE      CODE     ---       #157
      010094EDH   LINE      CODE     ---       #158
      010094EDH   LINE      CODE     ---       #159
      010094F2H   LINE      CODE     ---       #160
      010094F7H   LINE      CODE     ---       #162
      01009509H   LINE      CODE     ---       #163
      0100950CH   LINE      CODE     ---       #164
      01009518H   LINE      CODE     ---       #165
      0100951CH   LINE      CODE     ---       #166
      01009528H   LINE      CODE     ---       #167
      0100952DH   LINE      CODE     ---       #168
      ---         BLOCKEND  ---      ---       LVL=0

      01006E3EH   BLOCK     CODE     ---       LVL=0
      01006E3EH   BLOCK     CODE     NEAR LAB  LVL=1
      02000002H   SYMBOL    XDATA    BYTE      k_imu
      02000003H   SYMBOL    XDATA    BYTE      count
      02000004H   SYMBOL    XDATA    INT       IMU_ack
      02000006H   SYMBOL    XDATA    ---       tmp
      ---         BLOCKEND  ---      ---       LVL=1
      01006E3EH   LINE      CODE     ---       #173
      01006E3EH   LINE      CODE     ---       #174
      01006E3EH   LINE      CODE     ---       #176
      01006E43H   LINE      CODE     ---       #181
      01006E50H   LINE      CODE     ---       #182
      01006E5FH   LINE      CODE     ---       #185
      01006E6EH   LINE      CODE     ---       #186
      01006E6EH   LINE      CODE     ---       #187
      01006E73H   LINE      CODE     ---       #188
      01006E7CH   LINE      CODE     ---       #189
      01006E7FH   LINE      CODE     ---       #190
      01006E88H   LINE      CODE     ---       #191
      01006E90H   LINE      CODE     ---       #194
      01006E99H   LINE      CODE     ---       #195
      01006EA8H   LINE      CODE     ---       #196
      01006EADH   LINE      CODE     ---       #197
      01006EB7H   LINE      CODE     ---       #198
      01006EBFH   LINE      CODE     ---       #201
      01006ECEH   LINE      CODE     ---       #202
      01006ECEH   LINE      CODE     ---       #203
      01006ED3H   LINE      CODE     ---       #204
      01006EDCH   LINE      CODE     ---       #205
      01006EE1H   LINE      CODE     ---       #206
      01006EE9H   LINE      CODE     ---       #209
      01006EEFH   LINE      CODE     ---       #210
      01006EF8H   LINE      CODE     ---       #211
      01006F05H   LINE      CODE     ---       #212
      01006F0CH   LINE      CODE     ---       #213
      01006F10H   LINE      CODE     ---       #214
      01006F1EH   LINE      CODE     ---       #215
      01006F1EH   LINE      CODE     ---       #216
      01006F23H   LINE      CODE     ---       #217
      01006F2CH   LINE      CODE     ---       #218
      01006F3BH   LINE      CODE     ---       #219
LX51 LINKER/LOCATER V4.64.0.0                                                         11/29/2018  15:53:27  PAGE 53


      01006F3FH   LINE      CODE     ---       #220
      01006F3FH   LINE      CODE     ---       #221
      01006F45H   LINE      CODE     ---       #222
      01006F4CH   LINE      CODE     ---       #223
      01006F60H   LINE      CODE     ---       #224
      01006F62H   LINE      CODE     ---       #226
      01006F75H   LINE      CODE     ---       #227
      01006F7DH   LINE      CODE     ---       #229
      01006F8CH   LINE      CODE     ---       #230
      01006F8CH   LINE      CODE     ---       #231
      01006FA1H   LINE      CODE     ---       #232
      01006FA1H   LINE      CODE     ---       #233
      01006FB2H   LINE      CODE     ---       #234
      01006FB8H   LINE      CODE     ---       #235
      01006FB8H   LINE      CODE     ---       #236
      01006FC0H   LINE      CODE     ---       #239
      01006FC5H   LINE      CODE     ---       #240
      01006FCEH   LINE      CODE     ---       #241
      01006FD3H   LINE      CODE     ---       #242
      01006FDCH   LINE      CODE     ---       #243
      01006FEBH   LINE      CODE     ---       #244
      01006FEBH   LINE      CODE     ---       #245
      01006FF0H   LINE      CODE     ---       #246
      01006FF9H   LINE      CODE     ---       #247
      01006FFCH   LINE      CODE     ---       #248
      01007005H   LINE      CODE     ---       #249
      0100700DH   LINE      CODE     ---       #250
      01007016H   LINE      CODE     ---       #253
      01007025H   LINE      CODE     ---       #254
      0100702DH   LINE      CODE     ---       #255
      01007043H   LINE      CODE     ---       #256
      01007043H   LINE      CODE     ---       #257
      010070DDH   LINE      CODE     ---       #258
      01007104H   LINE      CODE     ---       #259
      0100710DH   LINE      CODE     ---       #260
      0100711BH   LINE      CODE     ---       #261
      ---         BLOCKEND  ---      ---       LVL=0

      01008A4EH   BLOCK     CODE     ---       LVL=0
      0200000AH   SYMBOL    XDATA    INT       n
      01008A4EH   LINE      CODE     ---       #266
      01008A56H   LINE      CODE     ---       #267
      01008A56H   LINE      CODE     ---       #268
      01008A76H   LINE      CODE     ---       #269
      01008A96H   LINE      CODE     ---       #270
      01008AB6H   LINE      CODE     ---       #271
      01008AD6H   LINE      CODE     ---       #272
      01008AF6H   LINE      CODE     ---       #273
      ---         BLOCKEND  ---      ---       LVL=0

      01007DC1H   BLOCK     CODE     ---       LVL=0
      00000006H   SYMBOL    DATA     INT       n
      01007DC1H   BLOCK     CODE     NEAR LAB  LVL=1
      02000061H   SYMBOL    XDATA    BYTE      low
      02000062H   SYMBOL    XDATA    BYTE      high
      02000063H   SYMBOL    XDATA    INT       row
      ---         BLOCKEND  ---      ---       LVL=1
      01007DC1H   LINE      CODE     ---       #278
      01007DC1H   LINE      CODE     ---       #279
      01007DC1H   LINE      CODE     ---       #280
      01007DC8H   LINE      CODE     ---       #282
      01007DCEH   LINE      CODE     ---       #285
      01007DD8H   LINE      CODE     ---       #286
      01007DDBH   LINE      CODE     ---       #287
      01007DE5H   LINE      CODE     ---       #288
LX51 LINKER/LOCATER V4.64.0.0                                                         11/29/2018  15:53:27  PAGE 54


      01007DE8H   LINE      CODE     ---       #290
      01007E07H   LINE      CODE     ---       #291
      01007E21H   LINE      CODE     ---       #292
      01007E28H   LINE      CODE     ---       #295
      01007E32H   LINE      CODE     ---       #296
      01007E35H   LINE      CODE     ---       #297
      01007E3FH   LINE      CODE     ---       #298
      01007E42H   LINE      CODE     ---       #300
      01007E61H   LINE      CODE     ---       #301
      01007E7BH   LINE      CODE     ---       #302
      01007E82H   LINE      CODE     ---       #305
      01007E8CH   LINE      CODE     ---       #306
      01007E8FH   LINE      CODE     ---       #307
      01007E99H   LINE      CODE     ---       #308
      01007E9CH   LINE      CODE     ---       #310
      01007EBBH   LINE      CODE     ---       #311
      01007ED5H   LINE      CODE     ---       #312
      01007EDCH   LINE      CODE     ---       #313
      ---         BLOCKEND  ---      ---       LVL=0

      01007EDDH   BLOCK     CODE     ---       LVL=0
      00000006H   SYMBOL    DATA     INT       n
      01007EDDH   BLOCK     CODE     NEAR LAB  LVL=1
      02000061H   SYMBOL    XDATA    BYTE      low
      02000062H   SYMBOL    XDATA    BYTE      high
      02000063H   SYMBOL    XDATA    INT       row
      ---         BLOCKEND  ---      ---       LVL=1
      01007EDDH   LINE      CODE     ---       #318
      01007EDDH   LINE      CODE     ---       #319
      01007EE4H   LINE      CODE     ---       #321
      01007EEAH   LINE      CODE     ---       #324
      01007EF4H   LINE      CODE     ---       #325
      01007EF7H   LINE      CODE     ---       #326
      01007F01H   LINE      CODE     ---       #327
      01007F04H   LINE      CODE     ---       #329
      01007F23H   LINE      CODE     ---       #330
      01007F3DH   LINE      CODE     ---       #331
      01007F44H   LINE      CODE     ---       #334
      01007F4EH   LINE      CODE     ---       #335
      01007F51H   LINE      CODE     ---       #336
      01007F5BH   LINE      CODE     ---       #337
      01007F5EH   LINE      CODE     ---       #339
      01007F7DH   LINE      CODE     ---       #340
      01007F97H   LINE      CODE     ---       #341
      01007F9EH   LINE      CODE     ---       #344
      01007FA8H   LINE      CODE     ---       #345
      01007FABH   LINE      CODE     ---       #346
      01007FB5H   LINE      CODE     ---       #347
      01007FB8H   LINE      CODE     ---       #349
      01007FD7H   LINE      CODE     ---       #350
      01007FF1H   LINE      CODE     ---       #352
      01007FF8H   LINE      CODE     ---       #353
      ---         BLOCKEND  ---      ---       LVL=0

      01007FF9H   BLOCK     CODE     ---       LVL=0
      00000006H   SYMBOL    DATA     INT       n
      01007FF9H   BLOCK     CODE     NEAR LAB  LVL=1
      0200000CH   SYMBOL    XDATA    BYTE      low
      0200000DH   SYMBOL    XDATA    BYTE      high
      0200000EH   SYMBOL    XDATA    INT       row
      ---         BLOCKEND  ---      ---       LVL=1
      01007FF9H   LINE      CODE     ---       #358
      01007FF9H   LINE      CODE     ---       #361
      01008001H   LINE      CODE     ---       #363
      0100800BH   LINE      CODE     ---       #364
LX51 LINKER/LOCATER V4.64.0.0                                                         11/29/2018  15:53:27  PAGE 55


      0100800EH   LINE      CODE     ---       #365
      01008018H   LINE      CODE     ---       #366
      0100801BH   LINE      CODE     ---       #368
      0100803AH   LINE      CODE     ---       #369
      01008054H   LINE      CODE     ---       #370
      0100805BH   LINE      CODE     ---       #373
      01008065H   LINE      CODE     ---       #374
      01008068H   LINE      CODE     ---       #375
      01008072H   LINE      CODE     ---       #376
      01008075H   LINE      CODE     ---       #378
      01008094H   LINE      CODE     ---       #379
      010080AEH   LINE      CODE     ---       #380
      010080B5H   LINE      CODE     ---       #383
      010080BFH   LINE      CODE     ---       #384
      010080C2H   LINE      CODE     ---       #385
      010080CCH   LINE      CODE     ---       #386
      010080CFH   LINE      CODE     ---       #388
      010080EEH   LINE      CODE     ---       #389
      01008108H   LINE      CODE     ---       #390
      0100810FH   LINE      CODE     ---       #391
      ---         BLOCKEND  ---      ---       LVL=0

      01008DADH   BLOCK     CODE     ---       LVL=0
      00000006H   SYMBOL    DATA     INT       n
      01008DADH   BLOCK     CODE     NEAR LAB  LVL=1
      02000028H   SYMBOL    XDATA    BYTE      read
      02000029H   SYMBOL    XDATA    INT       row
      ---         BLOCKEND  ---      ---       LVL=1
      01008DADH   LINE      CODE     ---       #396
      01008DADH   LINE      CODE     ---       #398
      01008DB2H   LINE      CODE     ---       #399
      01008DB8H   LINE      CODE     ---       #401
      01008DC2H   LINE      CODE     ---       #402
      01008DDBH   LINE      CODE     ---       #403
      01008DE0H   LINE      CODE     ---       #406
      01008DEAH   LINE      CODE     ---       #407
      01008E03H   LINE      CODE     ---       #408
      01008E08H   LINE      CODE     ---       #411
      01008E12H   LINE      CODE     ---       #412
      01008E2BH   LINE      CODE     ---       #413
      01008E30H   LINE      CODE     ---       #415
      ---         BLOCKEND  ---      ---       LVL=0

      010034DDH   BLOCK     CODE     ---       LVL=0
      0200000CH   SYMBOL    XDATA    INT       n
      010034E5H   BLOCK     CODE     NEAR LAB  LVL=1
      0200000EH   SYMBOL    XDATA    BYTE      i
      0200000FH   SYMBOL    XDATA    INT       var_h
      02000011H   SYMBOL    XDATA    FLOAT     qd0
      02000015H   SYMBOL    XDATA    FLOAT     qd1
      02000019H   SYMBOL    XDATA    FLOAT     qd2
      0200001DH   SYMBOL    XDATA    FLOAT     qd3
      02000021H   SYMBOL    XDATA    ---       aP
      0200002DH   SYMBOL    XDATA    ---       Napla
      0200003DH   SYMBOL    XDATA    ---       g
      0200004DH   SYMBOL    XDATA    ---       qL
      0200005DH   SYMBOL    XDATA    FLOAT     time
      ---         BLOCKEND  ---      ---       LVL=1
      010034DDH   LINE      CODE     ---       #420
      010034E5H   LINE      CODE     ---       #421
      010034E5H   LINE      CODE     ---       #422
      010034E8H   LINE      CODE     ---       #427
      010034F2H   LINE      CODE     ---       #429
      010034FDH   LINE      CODE     ---       #432
      0100351DH   LINE      CODE     ---       #433
LX51 LINKER/LOCATER V4.64.0.0                                                         11/29/2018  15:53:27  PAGE 56


      0100353DH   LINE      CODE     ---       #437
      01003579H   LINE      CODE     ---       #442
      0100359DH   LINE      CODE     ---       #443
      010035C2H   LINE      CODE     ---       #444
      010035E6H   LINE      CODE     ---       #445
      0100360BH   LINE      CODE     ---       #446
      0100362FH   LINE      CODE     ---       #447
      01003654H   LINE      CODE     ---       #449
      0100365FH   LINE      CODE     ---       #450
      01003683H   LINE      CODE     ---       #451
      010036B3H   LINE      CODE     ---       #452
      010036DEH   LINE      CODE     ---       #453
      01003702H   LINE      CODE     ---       #454
      01003732H   LINE      CODE     ---       #455
      0100375DH   LINE      CODE     ---       #456
      01003781H   LINE      CODE     ---       #457
      010037B1H   LINE      CODE     ---       #458
      010037DCH   LINE      CODE     ---       #461
      010037E5H   LINE      CODE     ---       #464
      010037F9H   LINE      CODE     ---       #465
      0100380DH   LINE      CODE     ---       #466
      01003821H   LINE      CODE     ---       #467
      01003835H   LINE      CODE     ---       #470
      01003964H   LINE      CODE     ---       #471
      01003B49H   LINE      CODE     ---       #472
      01003D41H   LINE      CODE     ---       #473
      01003E5DH   LINE      CODE     ---       #475
      01003F03H   LINE      CODE     ---       #476
      01003FA6H   LINE      CODE     ---       #477
      01004049H   LINE      CODE     ---       #478
      010040EAH   LINE      CODE     ---       #480
      01004130H   LINE      CODE     ---       #481
      01004176H   LINE      CODE     ---       #482
      010041BCH   LINE      CODE     ---       #483
      01004200H   LINE      CODE     ---       #484
      01004209H   LINE      CODE     ---       #487
      0100421DH   LINE      CODE     ---       #488
      01004231H   LINE      CODE     ---       #489
      01004245H   LINE      CODE     ---       #490
      01004259H   LINE      CODE     ---       #491
      01004259H   LINE      CODE     ---       #492
      01004259H   LINE      CODE     ---       #494
      01004259H   LINE      CODE     ---       #495
      ---         BLOCKEND  ---      ---       LVL=0

      01006B03H   BLOCK     CODE     ---       LVL=0
      01006B03H   BLOCK     CODE     NEAR LAB  LVL=1
      0200164BH   SYMBOL    XDATA    BYTE      k_imu
      02000002H   SYMBOL    XDATA    WORD      tmp
      02000004H   SYMBOL    XDATA    WORD      i
      02000006H   SYMBOL    XDATA    WORD      j
      02000008H   SYMBOL    XDATA    INT       value
      ---         BLOCKEND  ---      ---       LVL=1
      01006B03H   LINE      CODE     ---       #500
      01006B03H   LINE      CODE     ---       #502
      01006B12H   LINE      CODE     ---       #503
      01006B16H   LINE      CODE     ---       #505
      01006B2BH   LINE      CODE     ---       #507
      01006B3CH   LINE      CODE     ---       #508
      01006B50H   LINE      CODE     ---       #510
      01006B6AH   LINE      CODE     ---       #511
      01006BA2H   LINE      CODE     ---       #512
      01006BEDH   LINE      CODE     ---       #513
      01006BFEH   LINE      CODE     ---       #515
      01006C18H   LINE      CODE     ---       #516
LX51 LINKER/LOCATER V4.64.0.0                                                         11/29/2018  15:53:27  PAGE 57


      01006C50H   LINE      CODE     ---       #517
      01006C9BH   LINE      CODE     ---       #518
      01006CACH   LINE      CODE     ---       #520
      01006CC6H   LINE      CODE     ---       #521
      01006CFEH   LINE      CODE     ---       #522
      01006D49H   LINE      CODE     ---       #523
      01006D5AH   LINE      CODE     ---       #526
      01006D77H   LINE      CODE     ---       #527
      01006DD5H   LINE      CODE     ---       #528
      01006DE6H   LINE      CODE     ---       #530
      01006E0BH   LINE      CODE     ---       #531
      01006E34H   LINE      CODE     ---       #532
      01006E3DH   LINE      CODE     ---       #533
      ---         BLOCKEND  ---      ---       LVL=0

      01009159H   BLOCK     CODE     ---       LVL=0
      00000006H   SYMBOL    DATA     INT       n
      01009159H   BLOCK     CODE     NEAR LAB  LVL=1
      0200000CH   SYMBOL    XDATA    BYTE      low
      0200000DH   SYMBOL    XDATA    BYTE      high
      0200000EH   SYMBOL    XDATA    INT       row
      ---         BLOCKEND  ---      ---       LVL=1
      01009159H   LINE      CODE     ---       #538
      01009159H   LINE      CODE     ---       #539
      01009159H   LINE      CODE     ---       #540
      01009160H   LINE      CODE     ---       #541
      01009166H   LINE      CODE     ---       #544
      01009170H   LINE      CODE     ---       #545
      01009173H   LINE      CODE     ---       #546
      0100917DH   LINE      CODE     ---       #547
      01009180H   LINE      CODE     ---       #549
      0100919EH   LINE      CODE     ---       #550
      010091AFH   LINE      CODE     ---       #551
      010091B6H   LINE      CODE     ---       #552
      ---         BLOCKEND  ---      ---       LVL=0

      0100993AH   BLOCK     CODE     ---       LVL=0
      02000028H   SYMBOL    XDATA    BYTE      address
      02000029H   SYMBOL    XDATA    BYTE      dta
      0100993AH   LINE      CODE     ---       #557
      01009942H   LINE      CODE     ---       #559
      01009945H   LINE      CODE     ---       #560
      01009948H   LINE      CODE     ---       #561
      0100994BH   LINE      CODE     ---       #562
      01009953H   LINE      CODE     ---       #563
      0100995AH   LINE      CODE     ---       #564
      01009962H   LINE      CODE     ---       #565
      01009969H   LINE      CODE     ---       #566
      ---         BLOCKEND  ---      ---       LVL=0

      01009C8EH   BLOCK     CODE     ---       LVL=0
      00000007H   SYMBOL    DATA     BYTE      address
      01009C8EH   BLOCK     CODE     NEAR LAB  LVL=1
      00000007H   SYMBOL    DATA     BYTE      controlreg
      ---         BLOCKEND  ---      ---       LVL=1
      01009C8EH   LINE      CODE     ---       #571
      01009C8EH   LINE      CODE     ---       #574
      01009C95H   LINE      CODE     ---       #575
      01009C9AH   LINE      CODE     ---       #576
      01009CA1H   LINE      CODE     ---       #577
      01009CA4H   LINE      CODE     ---       #578
      01009CA4H   LINE      CODE     ---       #579
      ---         BLOCKEND  ---      ---       LVL=0

      01009BC4H   BLOCK     CODE     ---       LVL=0
LX51 LINKER/LOCATER V4.64.0.0                                                         11/29/2018  15:53:27  PAGE 58


      01009BC4H   LINE      CODE     ---       #584
      01009BC4H   LINE      CODE     ---       #585
      01009BCFH   LINE      CODE     ---       #586
      01009BCFH   LINE      CODE     ---       #587
      01009BD6H   LINE      CODE     ---       #588
      01009BD7H   LINE      CODE     ---       #589
      01009BD7H   LINE      CODE     ---       #590
      01009BDEH   LINE      CODE     ---       #591
      01009BDEH   LINE      CODE     ---       #592
      01009BDEH   LINE      CODE     ---       #593
      01009BDEH   LINE      CODE     ---       #594
      01009BDEH   LINE      CODE     ---       #595
      ---         BLOCKEND  ---      ---       LVL=0

      ---         MODULE    ---      ---       CYFITTER_CFG
      0100A645H   PUBLIC    CONST    ---       ADC_AMux__maskTable
      0100A641H   PUBLIC    CONST    ---       ADC_AMux__addrTable
      01007930H   PUBLIC    CODE     ---       cyfitter_cfg
      010098A8H   PUBLIC    CODE     ---       _ADC_AMux_Unset
      0100996AH   PUBLIC    CODE     ---       _ADC_AMux_Set
      000000CAH   SFRSYM    DATA     BYTE      SFRPRT5SEL
      000000DAH   SFRSYM    DATA     BYTE      SFRPRT6SEL
      000000D0H.6 SFRSYM    DATA     BIT       AC
      000000A8H.7 SFRSYM    DATA     BIT       EA
      000000A8H   SFRSYM    DATA     BYTE      IE
      00000085H   SFRSYM    DATA     BYTE      DPH1
      00000084H   SFRSYM    DATA     BYTE      DPL1
      000000D0H.7 SFRSYM    DATA     BIT       CY
      000000A0H   SFRSYM    DATA     BYTE      P2AX
      00000095H   SFRSYM    DATA     BYTE      DPX1
      00000081H   SFRSYM    DATA     BYTE      SP
      000000D0H.2 SFRSYM    DATA     BIT       OV
      00000080H   SFRSYM    DATA     BYTE      SFRPRT0DR
      00000090H   SFRSYM    DATA     BYTE      SFRPRT1DR
      000000F2H   SFRSYM    DATA     BYTE      SFRPRT12SEL
      00000098H   SFRSYM    DATA     BYTE      SFRPRT2DR
      000000B0H   SFRSYM    DATA     BYTE      SFRPRT3DR
      000000C0H   SFRSYM    DATA     BYTE      SFRPRT4DR
      000000FAH   SFRSYM    DATA     BYTE      SFRPRT15SEL
      000000C8H   SFRSYM    DATA     BYTE      SFRPRT5DR
      000000D8H   SFRSYM    DATA     BYTE      SFRPRT6DR
      00000089H   SFRSYM    DATA     BYTE      SFRPRT0PS
      00000091H   SFRSYM    DATA     BYTE      SFRPRT1PS
      00000099H   SFRSYM    DATA     BYTE      SFRPRT2PS
      000000B1H   SFRSYM    DATA     BYTE      SFRPRT3PS
      000000C1H   SFRSYM    DATA     BYTE      SFRPRT4PS
      000000C9H   SFRSYM    DATA     BYTE      SFRPRT5PS
      000000D9H   SFRSYM    DATA     BYTE      SFRPRT6PS
      000000EAH   SFRSYM    DATA     BYTE      MXAX
      000000F0H   SFRSYM    DATA     BYTE      B
      000000E0H   SFRSYM    DATA     BYTE      ACC
      000000D0H   SFRSYM    DATA     BIT       P
      000000D0H.3 SFRSYM    DATA     BIT       RS0
      000000D0H.4 SFRSYM    DATA     BIT       RS1
      00000083H   SFRSYM    DATA     BYTE      DPH
      000000E8H   SFRSYM    DATA     BYTE      SFRPRT12DR
      00000082H   SFRSYM    DATA     BYTE      DPL
      000000F8H   SFRSYM    DATA     BYTE      SFRPRT15DR
      00000086H   SFRSYM    DATA     BYTE      DPS
      000000E9H   SFRSYM    DATA     BYTE      SFRPRT12PS
      00000093H   SFRSYM    DATA     BYTE      DPX
      000000F9H   SFRSYM    DATA     BYTE      SFRPRT15PS
      000000D0H.5 SFRSYM    DATA     BIT       F0
      000000D0H.1 SFRSYM    DATA     BIT       F1
      0000008AH   SFRSYM    DATA     BYTE      SFRPRT0SEL
LX51 LINKER/LOCATER V4.64.0.0                                                         11/29/2018  15:53:27  PAGE 59


      000000D0H   SFRSYM    DATA     BYTE      PSW
      000000A2H   SFRSYM    DATA     BYTE      SFRPRT1SEL
      0000009AH   SFRSYM    DATA     BYTE      SFRPRT2SEL
      000000B2H   SFRSYM    DATA     BYTE      SFRPRT3SEL
      000000C2H   SFRSYM    DATA     BYTE      SFRPRT4SEL
      01007447H   SYMBOL    CODE     ---       ClockSetup
      01009FC7H   SYMBOL    CODE     ---       _CyClockStartupError
      01009810H   SYMBOL    CODE     ---       AnalogSetDefault
      010085C8H   SYMBOL    CODE     ---       cfg_dma_init

      01009FC7H   BLOCK     CODE     ---       LVL=0
      02000000H   SYMBOL    XDATA    BYTE      errorCode
      01009FC7H   LINE      CODE     ---       #76
      01009FC7H   LINE      CODE     ---       #77
      01009FC7H   LINE      CODE     ---       #80
      01009FC7H   LINE      CODE     ---       #101
      ---         BLOCKEND  ---      ---       LVL=0

      010085C8H   BLOCK     CODE     ---       LVL=0
      010085C8H   BLOCK     CODE     NEAR LAB  LVL=1
      01009FD0H   SYMBOL    CONST    ---       BS_DSI3_2_HV_ROUTING_VAL
      0100A050H   SYMBOL    CONST    ---       BS_DSISWITCH_1_3_VAL
      0100A0D0H   SYMBOL    CONST    ---       BS_DSI3_3_HV_ROUTING_VAL
      0100A150H   SYMBOL    CONST    ---       BS_DSISWITCH_1_4_VAL
      0100A1D0H   SYMBOL    CONST    ---       BS_DSI3_4_HV_ROUTING_VAL
      0100A250H   SYMBOL    CONST    ---       BS_DSISWITCH_1_5_VAL
      0100A2D0H   SYMBOL    CONST    ---       BS_DSI3_5_HV_ROUTING_VAL
      0100A350H   SYMBOL    CONST    ---       CH1_ADDR_DATA0
      0100A358H   SYMBOL    CONST    ---       CH2_ADDR_DATA0
      0100A360H   SYMBOL    CONST    ---       CH4_ADDR_DATA0
      0100A368H   SYMBOL    CONST    ---       CH5_ADDR_DATA0
      0100A370H   SYMBOL    CONST    ---       CH6_ADDR_DATA0
      0100A378H   SYMBOL    CONST    ---       DMA_TD_START_CMD
      02001644H   SYMBOL    XDATA    DWORD     DMA_ZERO_VAL
      0100A37DH   SYMBOL    CONST    ---       CFG_TD_LIST0
      ---         BLOCKEND  ---      ---       LVL=1
      010085C8H   LINE      CODE     ---       #327
      010085C8H   LINE      CODE     ---       #328
      010085C8H   LINE      CODE     ---       #529
      010085D3H   LINE      CODE     ---       #530
      010085D9H   LINE      CODE     ---       #531
      010085DFH   LINE      CODE     ---       #532
      010085E4H   LINE      CODE     ---       #533
      010085F0H   LINE      CODE     ---       #534
      010085F6H   LINE      CODE     ---       #535
      010085FAH   LINE      CODE     ---       #536
      0100861CH   LINE      CODE     ---       #537
      01008629H   LINE      CODE     ---       #538
      01008636H   LINE      CODE     ---       #539
      01008642H   LINE      CODE     ---       #540
      01008648H   LINE      CODE     ---       #541
      0100864DH   LINE      CODE     ---       #542
      01008653H   LINE      CODE     ---       #543
      01008659H   LINE      CODE     ---       #544
      0100865FH   LINE      CODE     ---       #546
      0100865FH   LINE      CODE     ---       #547
      01008665H   LINE      CODE     ---       #548
      01008665H   LINE      CODE     ---       #551
      0100866DH   LINE      CODE     ---       #552
      01008675H   LINE      CODE     ---       #553
      0100867DH   LINE      CODE     ---       #554
      01008685H   LINE      CODE     ---       #555
      0100868DH   LINE      CODE     ---       #556
      01008695H   LINE      CODE     ---       #559
      010086B0H   LINE      CODE     ---       #561
LX51 LINKER/LOCATER V4.64.0.0                                                         11/29/2018  15:53:27  PAGE 60


      ---         BLOCKEND  ---      ---       LVL=0

      01007447H   BLOCK     CODE     ---       LVL=0
      01007447H   BLOCK     CODE     NEAR LAB  LVL=1
      0100A63DH   SYMBOL    CONST    ---       BS_CYDEV_CLKDIST_ACFG0_CFG0_VAL
      02000000H   SYMBOL    XDATA    DWORD     timeout
      02000004H   SYMBOL    XDATA    BYTE      pllLock
      ---         BLOCKEND  ---      ---       LVL=1
      01007447H   LINE      CODE     ---       #579
      01007447H   LINE      CODE     ---       #580
      01007447H   LINE      CODE     ---       #590
      01007454H   LINE      CODE     ---       #591
      0100745AH   LINE      CODE     ---       #592
      01007466H   LINE      CODE     ---       #593
      0100746CH   LINE      CODE     ---       #594
      01007479H   LINE      CODE     ---       #595
      0100747FH   LINE      CODE     ---       #596
      0100748CH   LINE      CODE     ---       #597
      01007492H   LINE      CODE     ---       #600
      010074A3H   LINE      CODE     ---       #603
      010074A9H   LINE      CODE     ---       #606
      010074AFH   LINE      CODE     ---       #607
      010074BDH   LINE      CODE     ---       #610
      010074CAH   LINE      CODE     ---       #611
      010074D7H   LINE      CODE     ---       #613
      010074DCH   LINE      CODE     ---       #614
      01007501H   LINE      CODE     ---       #615
      01007501H   LINE      CODE     ---       #616
      01007512H   LINE      CODE     ---       #617
      0100751CH   LINE      CODE     ---       #618
      01007544H   LINE      CODE     ---       #620
      01007552H   LINE      CODE     ---       #621
      01007552H   LINE      CODE     ---       #622
      01007557H   LINE      CODE     ---       #623
      01007557H   LINE      CODE     ---       #626
      01007564H   LINE      CODE     ---       #627
      0100756AH   LINE      CODE     ---       #628
      0100756FH   LINE      CODE     ---       #629
      01007575H   LINE      CODE     ---       #630
      0100757AH   LINE      CODE     ---       #633
      0100757EH   LINE      CODE     ---       #634
      01007584H   LINE      CODE     ---       #635
      0100758AH   LINE      CODE     ---       #637
      01007591H   LINE      CODE     ---       #638
      01007598H   LINE      CODE     ---       #639
      0100759FH   LINE      CODE     ---       #640
      ---         BLOCKEND  ---      ---       LVL=0

      01009810H   BLOCK     CODE     ---       LVL=0
      01009810H   BLOCK     CODE     NEAR LAB  LVL=1
      00000007H   SYMBOL    DATA     BYTE      bg_xover_inl_trim
      ---         BLOCKEND  ---      ---       LVL=1
      01009810H   LINE      CODE     ---       #662
      01009810H   LINE      CODE     ---       #663
      01009810H   LINE      CODE     ---       #664
      01009819H   LINE      CODE     ---       #665
      01009820H   LINE      CODE     ---       #666
      01009826H   LINE      CODE     ---       #667
      0100982CH   LINE      CODE     ---       #668
      01009832H   LINE      CODE     ---       #669
      01009838H   LINE      CODE     ---       #670
      0100983CH   LINE      CODE     ---       #671
      01009842H   LINE      CODE     ---       #672
      ---         BLOCKEND  ---      ---       LVL=0
      00000007H   SYMBOL    DATA     BYTE      enabled
LX51 LINKER/LOCATER V4.64.0.0                                                         11/29/2018  15:53:27  PAGE 61


      00000006H   SYMBOL    DATA     BYTE      regValue

      0100996AH   BLOCK     CODE     ---       LVL=0
      00000007H   SYMBOL    DATA     BYTE      channel
      0100996AH   LINE      CODE     ---       #735
      0100996AH   LINE      CODE     ---       #736
      0100996AH   LINE      CODE     ---       #737
      01009970H   LINE      CODE     ---       #738
      01009970H   LINE      CODE     ---       #739
      01009999H   LINE      CODE     ---       #740
      01009999H   LINE      CODE     ---       #741
      ---         BLOCKEND  ---      ---       LVL=0

      010098A8H   BLOCK     CODE     ---       LVL=0
      00000007H   SYMBOL    DATA     BYTE      channel
      010098A8H   LINE      CODE     ---       #757
      010098A8H   LINE      CODE     ---       #758
      010098A8H   LINE      CODE     ---       #759
      010098AEH   LINE      CODE     ---       #760
      010098AEH   LINE      CODE     ---       #761
      010098D8H   LINE      CODE     ---       #762
      010098D8H   LINE      CODE     ---       #763
      ---         BLOCKEND  ---      ---       LVL=0

      01007930H   BLOCK     CODE     ---       LVL=0
      01007930H   BLOCK     CODE     NEAR LAB  LVL=1
      0100A647H   SYMBOL    CONST    ---       BS_IOPINS0_1_VAL
      0100A651H   SYMBOL    CONST    ---       BS_IOPINS0_2_VAL
      0100A659H   SYMBOL    CONST    ---       BS_PHUB_CFGMEM10_VAL
      ---         BLOCKEND  ---      ---       LVL=1
      01007930H   LINE      CODE     ---       #784
      01007930H   LINE      CODE     ---       #785
      01007930H   LINE      CODE     ---       #799
      01007946H   LINE      CODE     ---       #801
      01007946H   LINE      CODE     ---       #802
      01007949H   LINE      CODE     ---       #805
      0100794FH   LINE      CODE     ---       #806
      01007960H   LINE      CODE     ---       #809
      01007976H   LINE      CODE     ---       #810
      0100798CH   LINE      CODE     ---       #813
      01007993H   LINE      CODE     ---       #814
      0100799AH   LINE      CODE     ---       #815
      0100799AH   LINE      CODE     ---       #819
      010079B4H   LINE      CODE     ---       #820
      010079CEH   LINE      CODE     ---       #821
      010079E8H   LINE      CODE     ---       #822
      010079F9H   LINE      CODE     ---       #823
      01007A0AH   LINE      CODE     ---       #824
      01007A10H   LINE      CODE     ---       #826
      01007A17H   LINE      CODE     ---       #827
      01007A20H   LINE      CODE     ---       #828
      01007A20H   LINE      CODE     ---       #829
      01007A26H   LINE      CODE     ---       #830
      01007A26H   LINE      CODE     ---       #834
      01007A2CH   LINE      CODE     ---       #836
      01007A2FH   LINE      CODE     ---       #839
      01007A32H   LINE      CODE     ---       #842
      01007A53H   LINE      CODE     ---       #843
      01007A5AH   LINE      CODE     ---       #844
      ---         BLOCKEND  ---      ---       LVL=0

      ---         MODULE    ---      ---       UART_RS485
      02001619H   PUBLIC    XDATA    BYTE      UART_RS485_errorStatus
      02001618H   PUBLIC    XDATA    BYTE      UART_RS485_rxBufferOverflow
      02001617H   PUBLIC    XDATA    BYTE      UART_RS485_initVar
LX51 LINKER/LOCATER V4.64.0.0                                                         11/29/2018  15:53:27  PAGE 62


      02001616H   PUBLIC    XDATA    BYTE      UART_RS485_rxBufferWrite
      020015F6H   PUBLIC    XDATA    ---       UART_RS485_rxBuffer
      020015F5H   PUBLIC    XDATA    BYTE      UART_RS485_rxBufferRead
      020015F4H   PUBLIC    XDATA    BYTE      UART_RS485_rxBufferLoopDetect
      01009DABH   PUBLIC    CODE     ---       UART_RS485_ClearTxBuffer
      010097A8H   PUBLIC    CODE     ---       _UART_RS485_PutString
      01009E67H   PUBLIC    CODE     ---       _UART_RS485_PutChar
      01009F66H   PUBLIC    CODE     ---       UART_RS485_ReadTxStatus
      0100999AH   PUBLIC    CODE     ---       UART_RS485_ClearRxBuffer
      010093B4H   PUBLIC    CODE     ---       UART_RS485_GetRxBufferSize
      010091B7H   PUBLIC    CODE     ---       UART_RS485_GetChar
      01009D38H   PUBLIC    CODE     ---       UART_RS485_ReadRxStatus
      01009AE5H   PUBLIC    CODE     ---       UART_RS485_Stop
      01009AC3H   PUBLIC    CODE     ---       UART_RS485_Enable
      01009843H   PUBLIC    CODE     ---       UART_RS485_Init
      01009D4CH   PUBLIC    CODE     ---       UART_RS485_Start
      000000CAH   SFRSYM    DATA     BYTE      SFRPRT5SEL
      000000DAH   SFRSYM    DATA     BYTE      SFRPRT6SEL
      000000D0H.6 SFRSYM    DATA     BIT       AC
      000000A8H.7 SFRSYM    DATA     BIT       EA
      000000A8H   SFRSYM    DATA     BYTE      IE
      00000085H   SFRSYM    DATA     BYTE      DPH1
      00000084H   SFRSYM    DATA     BYTE      DPL1
      000000D0H.7 SFRSYM    DATA     BIT       CY
      000000A0H   SFRSYM    DATA     BYTE      P2AX
      00000095H   SFRSYM    DATA     BYTE      DPX1
      00000081H   SFRSYM    DATA     BYTE      SP
      000000D0H.2 SFRSYM    DATA     BIT       OV
      00000080H   SFRSYM    DATA     BYTE      SFRPRT0DR
      00000090H   SFRSYM    DATA     BYTE      SFRPRT1DR
      000000F2H   SFRSYM    DATA     BYTE      SFRPRT12SEL
      00000098H   SFRSYM    DATA     BYTE      SFRPRT2DR
      000000B0H   SFRSYM    DATA     BYTE      SFRPRT3DR
      000000C0H   SFRSYM    DATA     BYTE      SFRPRT4DR
      000000FAH   SFRSYM    DATA     BYTE      SFRPRT15SEL
      000000C8H   SFRSYM    DATA     BYTE      SFRPRT5DR
      000000D8H   SFRSYM    DATA     BYTE      SFRPRT6DR
      00000089H   SFRSYM    DATA     BYTE      SFRPRT0PS
      00000091H   SFRSYM    DATA     BYTE      SFRPRT1PS
      00000099H   SFRSYM    DATA     BYTE      SFRPRT2PS
      000000B1H   SFRSYM    DATA     BYTE      SFRPRT3PS
      000000C1H   SFRSYM    DATA     BYTE      SFRPRT4PS
      000000C9H   SFRSYM    DATA     BYTE      SFRPRT5PS
      000000D9H   SFRSYM    DATA     BYTE      SFRPRT6PS
      000000EAH   SFRSYM    DATA     BYTE      MXAX
      000000F0H   SFRSYM    DATA     BYTE      B
      000000E0H   SFRSYM    DATA     BYTE      ACC
      000000D0H   SFRSYM    DATA     BIT       P
      000000D0H.3 SFRSYM    DATA     BIT       RS0
      000000D0H.4 SFRSYM    DATA     BIT       RS1
      00000083H   SFRSYM    DATA     BYTE      DPH
      000000E8H   SFRSYM    DATA     BYTE      SFRPRT12DR
      00000082H   SFRSYM    DATA     BYTE      DPL
      000000F8H   SFRSYM    DATA     BYTE      SFRPRT15DR
      00000086H   SFRSYM    DATA     BYTE      DPS
      000000E9H   SFRSYM    DATA     BYTE      SFRPRT12PS
      00000093H   SFRSYM    DATA     BYTE      DPX
      000000F9H   SFRSYM    DATA     BYTE      SFRPRT15PS
      000000D0H.5 SFRSYM    DATA     BIT       F0
      000000D0H.1 SFRSYM    DATA     BIT       F1
      0000008AH   SFRSYM    DATA     BYTE      SFRPRT0SEL
      000000D0H   SFRSYM    DATA     BYTE      PSW
      000000A2H   SFRSYM    DATA     BYTE      SFRPRT1SEL
      0000009AH   SFRSYM    DATA     BYTE      SFRPRT2SEL
      000000B2H   SFRSYM    DATA     BYTE      SFRPRT3SEL
LX51 LINKER/LOCATER V4.64.0.0                                                         11/29/2018  15:53:27  PAGE 63


      000000C2H   SFRSYM    DATA     BYTE      SFRPRT4SEL

      01009D4CH   BLOCK     CODE     ---       LVL=0
      01009D4CH   LINE      CODE     ---       #76
      01009D4CH   LINE      CODE     ---       #77
      01009D4CH   LINE      CODE     ---       #79
      01009D52H   LINE      CODE     ---       #80
      01009D52H   LINE      CODE     ---       #81
      01009D55H   LINE      CODE     ---       #82
      01009D5BH   LINE      CODE     ---       #83
      01009D5BH   LINE      CODE     ---       #85
      01009D5EH   LINE      CODE     ---       #86
      ---         BLOCKEND  ---      ---       LVL=0

      01009843H   BLOCK     CODE     ---       LVL=0
      01009843H   LINE      CODE     ---       #106
      01009843H   LINE      CODE     ---       #107
      01009843H   LINE      CODE     ---       #112
      0100984CH   LINE      CODE     ---       #113
      01009853H   LINE      CODE     ---       #114
      01009858H   LINE      CODE     ---       #124
      0100985EH   LINE      CODE     ---       #126
      01009864H   LINE      CODE     ---       #138
      0100986AH   LINE      CODE     ---       #139
      01009870H   LINE      CODE     ---       #150
      01009875H   LINE      CODE     ---       #160
      ---         BLOCKEND  ---      ---       LVL=0

      01009AC3H   BLOCK     CODE     ---       LVL=0
      01009AC3H   BLOCK     CODE     NEAR LAB  LVL=1
      00000007H   SYMBOL    DATA     BYTE      enableInterrupts
      ---         BLOCKEND  ---      ---       LVL=1
      01009AC3H   LINE      CODE     ---       #183
      01009AC3H   LINE      CODE     ---       #184
      01009AC3H   LINE      CODE     ---       #186
      01009AC6H   LINE      CODE     ---       #190
      01009ACDH   LINE      CODE     ---       #193
      01009AD4H   LINE      CODE     ---       #196
      01009ADAH   LINE      CODE     ---       #211
      01009AE1H   LINE      CODE     ---       #222
      01009AE4H   LINE      CODE     ---       #223
      ---         BLOCKEND  ---      ---       LVL=0

      01009AE5H   BLOCK     CODE     ---       LVL=0
      01009AE5H   BLOCK     CODE     NEAR LAB  LVL=1
      00000007H   SYMBOL    DATA     BYTE      enableInterrupts
      ---         BLOCKEND  ---      ---       LVL=1
      01009AE5H   LINE      CODE     ---       #240
      01009AE5H   LINE      CODE     ---       #241
      01009AE5H   LINE      CODE     ---       #243
      01009AE8H   LINE      CODE     ---       #247
      01009AEFH   LINE      CODE     ---       #262
      01009AF6H   LINE      CODE     ---       #265
      01009AFCH   LINE      CODE     ---       #270
      01009B03H   LINE      CODE     ---       #277
      01009B06H   LINE      CODE     ---       #278
      ---         BLOCKEND  ---      ---       LVL=0
      00000007H   SYMBOL    DATA     BYTE      intSrc
      00000007H   SYMBOL    DATA     BYTE      rxData
      00000006H   SYMBOL    DATA     BYTE      locRxBufferRead
      00000005H   SYMBOL    DATA     BYTE      locRxBufferWrite

      01009D38H   BLOCK     CODE     ---       LVL=0
      01009D38H   BLOCK     CODE     NEAR LAB  LVL=1
      00000007H   SYMBOL    DATA     BYTE      status
LX51 LINKER/LOCATER V4.64.0.0                                                         11/29/2018  15:53:27  PAGE 64


      ---         BLOCKEND  ---      ---       LVL=1
      01009D38H   LINE      CODE     ---       #485
      01009D38H   LINE      CODE     ---       #486
      01009D38H   LINE      CODE     ---       #489
      01009D3FH   LINE      CODE     ---       #492
      01009D45H   LINE      CODE     ---       #493
      01009D45H   LINE      CODE     ---       #494
      01009D49H   LINE      CODE     ---       #495
      01009D4BH   LINE      CODE     ---       #496
      01009D4BH   LINE      CODE     ---       #499
      01009D4BH   LINE      CODE     ---       #500
      ---         BLOCKEND  ---      ---       LVL=0

      010091B7H   BLOCK     CODE     ---       LVL=0
      010091B7H   BLOCK     CODE     NEAR LAB  LVL=1
      00000007H   SYMBOL    DATA     BYTE      rxData
      00000006H   SYMBOL    DATA     BYTE      rxStatus
      00000006H   SYMBOL    DATA     BYTE      locRxBufferRead
      00000005H   SYMBOL    DATA     BYTE      locRxBufferWrite
      ---         BLOCKEND  ---      ---       LVL=1
      010091B7H   LINE      CODE     ---       #532
      010091B7H   LINE      CODE     ---       #533
      010091B7H   LINE      CODE     ---       #534
      010091B9H   LINE      CODE     ---       #542
      010091BFH   LINE      CODE     ---       #544
      010091C4H   LINE      CODE     ---       #545
      010091C9H   LINE      CODE     ---       #547
      010091D3H   LINE      CODE     ---       #548
      010091D3H   LINE      CODE     ---       #549
      010091DFH   LINE      CODE     ---       #550
      010091E0H   LINE      CODE     ---       #551
      010091E6H   LINE      CODE     ---       #552
      010091E6H   LINE      CODE     ---       #553
      010091E8H   LINE      CODE     ---       #554
      010091E8H   LINE      CODE     ---       #556
      010091EDH   LINE      CODE     ---       #558
      010091F3H   LINE      CODE     ---       #559
      010091F3H   LINE      CODE     ---       #560
      010091F5H   LINE      CODE     ---       #575
      010091F5H   LINE      CODE     ---       #577
      010091F7H   LINE      CODE     ---       #579
      010091FCH   LINE      CODE     ---       #580
      010091FFH   LINE      CODE     ---       #581
      010091FFH   LINE      CODE     ---       #582
      01009204H   LINE      CODE     ---       #585
      01009209H   LINE      CODE     ---       #586
      01009209H   LINE      CODE     ---       #587
      0100920BH   LINE      CODE     ---       #588
      0100920BH   LINE      CODE     ---       #589
      0100920BH   LINE      CODE     ---       #590
      0100920BH   LINE      CODE     ---       #592
      01009211H   LINE      CODE     ---       #611
      01009211H   LINE      CODE     ---       #612
      ---         BLOCKEND  ---      ---       LVL=0
      00000002H   SYMBOL    DATA     WORD      locErrorStatus

      010093B4H   BLOCK     CODE     ---       LVL=0
      010093B4H   BLOCK     CODE     NEAR LAB  LVL=1
      00000007H   SYMBOL    DATA     BYTE      size
      ---         BLOCKEND  ---      ---       LVL=1
      010093B4H   LINE      CODE     ---       #683
      010093B4H   LINE      CODE     ---       #685
      010093B4H   LINE      CODE     ---       #691
      010093BAH   LINE      CODE     ---       #693
      010093C6H   LINE      CODE     ---       #694
LX51 LINKER/LOCATER V4.64.0.0                                                         11/29/2018  15:53:27  PAGE 65


      010093C6H   LINE      CODE     ---       #695
      010093CCH   LINE      CODE     ---       #696
      010093CCH   LINE      CODE     ---       #697
      010093CEH   LINE      CODE     ---       #698
      010093D0H   LINE      CODE     ---       #700
      010093D0H   LINE      CODE     ---       #701
      010093D2H   LINE      CODE     ---       #702
      010093D2H   LINE      CODE     ---       #703
      010093D4H   LINE      CODE     ---       #704
      010093E1H   LINE      CODE     ---       #705
      010093E1H   LINE      CODE     ---       #706
      010093EAH   LINE      CODE     ---       #707
      010093ECH   LINE      CODE     ---       #709
      010093ECH   LINE      CODE     ---       #710
      010093FCH   LINE      CODE     ---       #711
      010093FCH   LINE      CODE     ---       #713
      01009402H   LINE      CODE     ---       #722
      01009402H   LINE      CODE     ---       #723
      ---         BLOCKEND  ---      ---       LVL=0

      0100999AH   BLOCK     CODE     ---       LVL=0
      0100999AH   BLOCK     CODE     NEAR LAB  LVL=1
      00000007H   SYMBOL    DATA     BYTE      enableInterrupts
      ---         BLOCKEND  ---      ---       LVL=1
      0100999AH   LINE      CODE     ---       #757
      0100999AH   LINE      CODE     ---       #758
      0100999AH   LINE      CODE     ---       #762
      0100999DH   LINE      CODE     ---       #763
      010099A4H   LINE      CODE     ---       #764
      010099A8H   LINE      CODE     ---       #765
      010099ABH   LINE      CODE     ---       #770
      010099B1H   LINE      CODE     ---       #772
      010099B6H   LINE      CODE     ---       #773
      010099BAH   LINE      CODE     ---       #774
      010099BEH   LINE      CODE     ---       #775
      010099C2H   LINE      CODE     ---       #777
      010099C8H   LINE      CODE     ---       #781
      ---         BLOCKEND  ---      ---       LVL=0
      00000007H   SYMBOL    DATA     BYTE      address
      00000007H   SYMBOL    DATA     BYTE      address
      00000007H   SYMBOL    DATA     BYTE      intSrc
      00000007H   SYMBOL    DATA     BYTE      txDataByte

      01009F66H   BLOCK     CODE     ---       LVL=0
      01009F66H   LINE      CODE     ---       #1003
      01009F66H   LINE      CODE     ---       #1004
      01009F66H   LINE      CODE     ---       #1005
      01009F6BH   LINE      CODE     ---       #1006
      ---         BLOCKEND  ---      ---       LVL=0

      01009E67H   BLOCK     CODE     ---       LVL=0
      00000007H   SYMBOL    DATA     BYTE      txDataByte
      01009E67H   LINE      CODE     ---       #1041
      01009E67H   LINE      CODE     ---       #1042
      01009E67H   LINE      CODE     ---       #1107
      01009E6EH   LINE      CODE     ---       #1108
      01009E6EH   LINE      CODE     ---       #1110
      01009E6EH   LINE      CODE     ---       #1113
      01009E73H   LINE      CODE     ---       #1116
      ---         BLOCKEND  ---      ---       LVL=0

      010097A8H   BLOCK     CODE     ---       LVL=0
      02000002H   SYMBOL    XDATA    ---       string
      010097B3H   BLOCK     CODE     NEAR LAB  LVL=1
      00000004H   SYMBOL    DATA     WORD      bufIndex
LX51 LINKER/LOCATER V4.64.0.0                                                         11/29/2018  15:53:27  PAGE 66


      ---         BLOCKEND  ---      ---       LVL=1
      010097A8H   LINE      CODE     ---       #1145
      010097B3H   LINE      CODE     ---       #1146
      010097B3H   LINE      CODE     ---       #1147
      010097B6H   LINE      CODE     ---       #1150
      010097BCH   LINE      CODE     ---       #1151
      010097BCH   LINE      CODE     ---       #1153
      010097D1H   LINE      CODE     ---       #1154
      010097D1H   LINE      CODE     ---       #1155
      010097D4H   LINE      CODE     ---       #1156
      010097D9H   LINE      CODE     ---       #1157
      010097DBH   LINE      CODE     ---       #1158
      010097DBH   LINE      CODE     ---       #1159
      ---         BLOCKEND  ---      ---       LVL=0
      00000005H   SYMBOL    DATA     BYTE      byteCount
      00000006H   SYMBOL    DATA     BYTE      bufIndex
      00000007H   SYMBOL    DATA     BYTE      txDataByte
      00000007H   SYMBOL    DATA     BYTE      size

      01009DABH   BLOCK     CODE     ---       LVL=0
      01009DABH   BLOCK     CODE     NEAR LAB  LVL=1
      00000007H   SYMBOL    DATA     BYTE      enableInterrupts
      ---         BLOCKEND  ---      ---       LVL=1
      01009DABH   LINE      CODE     ---       #1354
      01009DABH   LINE      CODE     ---       #1355
      01009DABH   LINE      CODE     ---       #1358
      01009DAEH   LINE      CODE     ---       #1360
      01009DB5H   LINE      CODE     ---       #1361
      01009DB9H   LINE      CODE     ---       #1362
      01009DBCH   LINE      CODE     ---       #1376
      ---         BLOCKEND  ---      ---       LVL=0
      00000007H   SYMBOL    DATA     BYTE      retMode
      020015F3H   SYMBOL    XDATA    BYTE      txPeriod

      ---         MODULE    ---      ---       ISR_RS485_RX
      01009F58H   PUBLIC    CODE     ---       ISR_RS485_RX_Disable
      01009F51H   PUBLIC    CODE     ---       ISR_RS485_RX_Enable
      01009ED9H   PUBLIC    CODE     ---       _ISR_RS485_RX_SetPriority
      010096F2H   PUBLIC    CODE     ---       _ISR_RS485_RX_SetVector
      010099F7H   PUBLIC    CODE     ---       ISR_RS485_RX_Interrupt
      01009B68H   PUBLIC    CODE     ---       _ISR_RS485_RX_StartEx
      000000CAH   SFRSYM    DATA     BYTE      SFRPRT5SEL
      000000DAH   SFRSYM    DATA     BYTE      SFRPRT6SEL
      000000D0H.6 SFRSYM    DATA     BIT       AC
      000000A8H.7 SFRSYM    DATA     BIT       EA
      000000A8H   SFRSYM    DATA     BYTE      IE
      00000085H   SFRSYM    DATA     BYTE      DPH1
      00000084H   SFRSYM    DATA     BYTE      DPL1
      000000D0H.7 SFRSYM    DATA     BIT       CY
      000000A0H   SFRSYM    DATA     BYTE      P2AX
      00000095H   SFRSYM    DATA     BYTE      DPX1
      00000081H   SFRSYM    DATA     BYTE      SP
      000000D0H.2 SFRSYM    DATA     BIT       OV
      00000080H   SFRSYM    DATA     BYTE      SFRPRT0DR
      00000090H   SFRSYM    DATA     BYTE      SFRPRT1DR
      000000F2H   SFRSYM    DATA     BYTE      SFRPRT12SEL
      00000098H   SFRSYM    DATA     BYTE      SFRPRT2DR
      000000B0H   SFRSYM    DATA     BYTE      SFRPRT3DR
      000000C0H   SFRSYM    DATA     BYTE      SFRPRT4DR
      000000FAH   SFRSYM    DATA     BYTE      SFRPRT15SEL
      000000C8H   SFRSYM    DATA     BYTE      SFRPRT5DR
      000000D8H   SFRSYM    DATA     BYTE      SFRPRT6DR
      00000089H   SFRSYM    DATA     BYTE      SFRPRT0PS
      00000091H   SFRSYM    DATA     BYTE      SFRPRT1PS
      00000099H   SFRSYM    DATA     BYTE      SFRPRT2PS
LX51 LINKER/LOCATER V4.64.0.0                                                         11/29/2018  15:53:27  PAGE 67


      000000B1H   SFRSYM    DATA     BYTE      SFRPRT3PS
      000000C1H   SFRSYM    DATA     BYTE      SFRPRT4PS
      000000C9H   SFRSYM    DATA     BYTE      SFRPRT5PS
      000000D9H   SFRSYM    DATA     BYTE      SFRPRT6PS
      000000EAH   SFRSYM    DATA     BYTE      MXAX
      000000F0H   SFRSYM    DATA     BYTE      B
      000000E0H   SFRSYM    DATA     BYTE      ACC
      000000D0H   SFRSYM    DATA     BIT       P
      000000D0H.3 SFRSYM    DATA     BIT       RS0
      000000D0H.4 SFRSYM    DATA     BIT       RS1
      00000083H   SFRSYM    DATA     BYTE      DPH
      000000E8H   SFRSYM    DATA     BYTE      SFRPRT12DR
      00000082H   SFRSYM    DATA     BYTE      DPL
      000000F8H   SFRSYM    DATA     BYTE      SFRPRT15DR
      00000086H   SFRSYM    DATA     BYTE      DPS
      000000E9H   SFRSYM    DATA     BYTE      SFRPRT12PS
      00000093H   SFRSYM    DATA     BYTE      DPX
      000000F9H   SFRSYM    DATA     BYTE      SFRPRT15PS
      000000D0H.5 SFRSYM    DATA     BIT       F0
      000000D0H.1 SFRSYM    DATA     BIT       F1
      0000008AH   SFRSYM    DATA     BYTE      SFRPRT0SEL
      000000D0H   SFRSYM    DATA     BYTE      PSW
      000000A2H   SFRSYM    DATA     BYTE      SFRPRT1SEL
      0000009AH   SFRSYM    DATA     BYTE      SFRPRT2SEL
      000000B2H   SFRSYM    DATA     BYTE      SFRPRT3SEL
      000000C2H   SFRSYM    DATA     BYTE      SFRPRT4SEL

      01009B68H   BLOCK     CODE     ---       LVL=0
      02000002H   SYMBOL    XDATA    ---       address
      01009B68H   LINE      CODE     ---       #94
      01009B70H   LINE      CODE     ---       #95
      01009B70H   LINE      CODE     ---       #97
      01009B73H   LINE      CODE     ---       #100
      01009B7EH   LINE      CODE     ---       #103
      01009B83H   LINE      CODE     ---       #106
      01009B86H   LINE      CODE     ---       #107
      ---         BLOCKEND  ---      ---       LVL=0

      010099F7H   BLOCK     CODE     ---       LVL=0
      010099F7H   LINE      CODE     ---       #151
      010099F7H   LINE      CODE     ---       #168
      ---         BLOCKEND  ---      ---       LVL=0

      010096F2H   BLOCK     CODE     ---       LVL=0
      00000006H   SYMBOL    DATA     ---       address
      010096F2H   LINE      CODE     ---       #198
      010096F2H   LINE      CODE     ---       #199
      010096F2H   LINE      CODE     ---       #200
      010096FFH   LINE      CODE     ---       #201
      ---         BLOCKEND  ---      ---       LVL=0

      01009ED9H   BLOCK     CODE     ---       LVL=0
      00000007H   SYMBOL    DATA     BYTE      priority
      01009ED9H   LINE      CODE     ---       #248
      01009ED9H   LINE      CODE     ---       #249
      01009ED9H   LINE      CODE     ---       #250
      01009EE2H   LINE      CODE     ---       #251
      ---         BLOCKEND  ---      ---       LVL=0
      00000007H   SYMBOL    DATA     BYTE      priority

      01009F51H   BLOCK     CODE     ---       LVL=0
      01009F51H   LINE      CODE     ---       #297
      01009F51H   LINE      CODE     ---       #298
      01009F51H   LINE      CODE     ---       #300
      01009F57H   LINE      CODE     ---       #301
LX51 LINKER/LOCATER V4.64.0.0                                                         11/29/2018  15:53:27  PAGE 68


      ---         BLOCKEND  ---      ---       LVL=0

      01009F58H   BLOCK     CODE     ---       LVL=0
      01009F58H   LINE      CODE     ---       #339
      01009F58H   LINE      CODE     ---       #340
      01009F58H   LINE      CODE     ---       #342
      01009F5EH   LINE      CODE     ---       #343
      ---         BLOCKEND  ---      ---       LVL=0

      ---         MODULE    ---      ---       PACER_TIMER
      0200164CH   PUBLIC    XDATA    BYTE      PACER_TIMER_initVar
      01009E59H   PUBLIC    CODE     ---       _PACER_TIMER_WriteCounter
      01009E4BH   PUBLIC    CODE     ---       _PACER_TIMER_WritePeriod
      01009F6CH   PUBLIC    CODE     ---       _PACER_TIMER_SetInterruptMode
      01009D5FH   PUBLIC    CODE     ---       PACER_TIMER_Start
      01009CA5H   PUBLIC    CODE     ---       PACER_TIMER_Enable
      010096B6H   PUBLIC    CODE     ---       PACER_TIMER_Init
      000000CAH   SFRSYM    DATA     BYTE      SFRPRT5SEL
      000000DAH   SFRSYM    DATA     BYTE      SFRPRT6SEL
      000000D0H.6 SFRSYM    DATA     BIT       AC
      000000A8H.7 SFRSYM    DATA     BIT       EA
      000000A8H   SFRSYM    DATA     BYTE      IE
      00000085H   SFRSYM    DATA     BYTE      DPH1
      00000084H   SFRSYM    DATA     BYTE      DPL1
      000000D0H.7 SFRSYM    DATA     BIT       CY
      000000A0H   SFRSYM    DATA     BYTE      P2AX
      00000095H   SFRSYM    DATA     BYTE      DPX1
      00000081H   SFRSYM    DATA     BYTE      SP
      000000D0H.2 SFRSYM    DATA     BIT       OV
      00000080H   SFRSYM    DATA     BYTE      SFRPRT0DR
      00000090H   SFRSYM    DATA     BYTE      SFRPRT1DR
      000000F2H   SFRSYM    DATA     BYTE      SFRPRT12SEL
      00000098H   SFRSYM    DATA     BYTE      SFRPRT2DR
      000000B0H   SFRSYM    DATA     BYTE      SFRPRT3DR
      000000C0H   SFRSYM    DATA     BYTE      SFRPRT4DR
      000000FAH   SFRSYM    DATA     BYTE      SFRPRT15SEL
      000000C8H   SFRSYM    DATA     BYTE      SFRPRT5DR
      000000D8H   SFRSYM    DATA     BYTE      SFRPRT6DR
      00000089H   SFRSYM    DATA     BYTE      SFRPRT0PS
      00000091H   SFRSYM    DATA     BYTE      SFRPRT1PS
      00000099H   SFRSYM    DATA     BYTE      SFRPRT2PS
      000000B1H   SFRSYM    DATA     BYTE      SFRPRT3PS
      000000C1H   SFRSYM    DATA     BYTE      SFRPRT4PS
      000000C9H   SFRSYM    DATA     BYTE      SFRPRT5PS
      000000D9H   SFRSYM    DATA     BYTE      SFRPRT6PS
      000000EAH   SFRSYM    DATA     BYTE      MXAX
      000000F0H   SFRSYM    DATA     BYTE      B
      000000E0H   SFRSYM    DATA     BYTE      ACC
      000000D0H   SFRSYM    DATA     BIT       P
      000000D0H.3 SFRSYM    DATA     BIT       RS0
      000000D0H.4 SFRSYM    DATA     BIT       RS1
      00000083H   SFRSYM    DATA     BYTE      DPH
      000000E8H   SFRSYM    DATA     BYTE      SFRPRT12DR
      00000082H   SFRSYM    DATA     BYTE      DPL
      000000F8H   SFRSYM    DATA     BYTE      SFRPRT15DR
      00000086H   SFRSYM    DATA     BYTE      DPS
      000000E9H   SFRSYM    DATA     BYTE      SFRPRT12PS
      00000093H   SFRSYM    DATA     BYTE      DPX
      000000F9H   SFRSYM    DATA     BYTE      SFRPRT15PS
      000000D0H.5 SFRSYM    DATA     BIT       F0
      000000D0H.1 SFRSYM    DATA     BIT       F1
      0000008AH   SFRSYM    DATA     BYTE      SFRPRT0SEL
      000000D0H   SFRSYM    DATA     BYTE      PSW
      000000A2H   SFRSYM    DATA     BYTE      SFRPRT1SEL
      0000009AH   SFRSYM    DATA     BYTE      SFRPRT2SEL
LX51 LINKER/LOCATER V4.64.0.0                                                         11/29/2018  15:53:27  PAGE 69


      000000B2H   SFRSYM    DATA     BYTE      SFRPRT3SEL
      000000C2H   SFRSYM    DATA     BYTE      SFRPRT4SEL

      010096B6H   BLOCK     CODE     ---       LVL=0
      010096B6H   LINE      CODE     ---       #43
      010096B6H   LINE      CODE     ---       #44
      010096B6H   LINE      CODE     ---       #52
      010096BDH   LINE      CODE     ---       #60
      010096C4H   LINE      CODE     ---       #106
      010096CBH   LINE      CODE     ---       #107
      010096CFH   LINE      CODE     ---       #110
      010096D3H   LINE      CODE     ---       #111
      010096D7H   LINE      CODE     ---       #114
      010096DEH   LINE      CODE     ---       #118
      010096E5H   LINE      CODE     ---       #119
      010096ECH   LINE      CODE     ---       #162
      010096F1H   LINE      CODE     ---       #163
      ---         BLOCKEND  ---      ---       LVL=0

      01009CA5H   BLOCK     CODE     ---       LVL=0
      01009CA5H   LINE      CODE     ---       #180
      01009CA5H   LINE      CODE     ---       #181
      01009CA5H   LINE      CODE     ---       #184
      01009CACH   LINE      CODE     ---       #185
      01009CB3H   LINE      CODE     ---       #190
      01009CBAH   LINE      CODE     ---       #192
      ---         BLOCKEND  ---      ---       LVL=0

      01009D5FH   BLOCK     CODE     ---       LVL=0
      01009D5FH   LINE      CODE     ---       #215
      01009D5FH   LINE      CODE     ---       #216
      01009D5FH   LINE      CODE     ---       #217
      01009D65H   LINE      CODE     ---       #218
      01009D65H   LINE      CODE     ---       #219
      01009D68H   LINE      CODE     ---       #221
      01009D6EH   LINE      CODE     ---       #222
      01009D6EH   LINE      CODE     ---       #225
      01009D71H   LINE      CODE     ---       #226
      ---         BLOCKEND  ---      ---       LVL=0

      01009F6CH   BLOCK     CODE     ---       LVL=0
      00000007H   SYMBOL    DATA     BYTE      interruptMode
      01009F6CH   LINE      CODE     ---       #279
      01009F6CH   LINE      CODE     ---       #280
      01009F6CH   LINE      CODE     ---       #281
      01009F71H   LINE      CODE     ---       #282
      ---         BLOCKEND  ---      ---       LVL=0
      00000007H   SYMBOL    DATA     BYTE      control

      01009E4BH   BLOCK     CODE     ---       LVL=0
      00000006H   SYMBOL    DATA     WORD      period
      01009E4BH   BLOCK     CODE     NEAR LAB  LVL=1
      00000006H   SYMBOL    DATA     WORD      period_temp
      ---         BLOCKEND  ---      ---       LVL=1
      01009E4BH   LINE      CODE     ---       #431
      01009E4BH   LINE      CODE     ---       #432
      01009E4BH   LINE      CODE     ---       #434
      01009E4BH   LINE      CODE     ---       #435
      01009E58H   LINE      CODE     ---       #439
      ---         BLOCKEND  ---      ---       LVL=0

      01009E59H   BLOCK     CODE     ---       LVL=0
      00000006H   SYMBOL    DATA     WORD      counter
      01009E59H   LINE      CODE     ---       #480
      01009E59H   LINE      CODE     ---       #481
LX51 LINKER/LOCATER V4.64.0.0                                                         11/29/2018  15:53:27  PAGE 70


      01009E59H   LINE      CODE     ---       #486
      01009E66H   LINE      CODE     ---       #491
      ---         BLOCKEND  ---      ---       LVL=0

      ---         MODULE    ---      ---       CLOCK_UART
      01009F29H   PUBLIC    CODE     ---       CLOCK_UART_GetSourceRegister
      01009EE3H   PUBLIC    CODE     ---       CLOCK_UART_GetDividerRegister
      010076D1H   PUBLIC    CODE     ---       _CLOCK_UART_SetDividerRegister
      00000007H   SYMBOL    DATA     BYTE      state

      010076D1H   BLOCK     CODE     ---       LVL=0
      02000002H   SYMBOL    XDATA    WORD      clkDivider
      02000004H   SYMBOL    XDATA    BYTE      restart
      010076DCH   BLOCK     CODE     NEAR LAB  LVL=1
      02000005H   SYMBOL    XDATA    BYTE      enabled
      02000006H   SYMBOL    XDATA    BYTE      currSrc
      02000007H   SYMBOL    XDATA    WORD      oldDivider
      ---         BLOCKEND  ---      ---       LVL=1
      010076D1H   LINE      CODE     ---       #193
      010076DCH   LINE      CODE     ---       #195
      010076DCH   LINE      CODE     ---       #198
      010076E4H   LINE      CODE     ---       #199
      010076EFH   LINE      CODE     ---       #201
      01007701H   LINE      CODE     ---       #202
      01007701H   LINE      CODE     ---       #203
      0100770BH   LINE      CODE     ---       #205
      0100771CH   LINE      CODE     ---       #206
      0100771CH   LINE      CODE     ---       #208
      01007720H   LINE      CODE     ---       #209
      01007720H   LINE      CODE     ---       #213
      01007729H   LINE      CODE     ---       #214
      01007730H   LINE      CODE     ---       #215
      01007731H   LINE      CODE     ---       #217
      01007731H   LINE      CODE     ---       #220
      01007738H   LINE      CODE     ---       #221
      01007749H   LINE      CODE     ---       #222
      01007749H   LINE      CODE     ---       #223
      0100774AH   LINE      CODE     ---       #225
      0100774AH   LINE      CODE     ---       #227
      01007750H   LINE      CODE     ---       #228
      01007750H   LINE      CODE     ---       #229
      01007755H   LINE      CODE     ---       #236
      0100775AH   LINE      CODE     ---       #237
      0100775FH   LINE      CODE     ---       #240
      01007766H   LINE      CODE     ---       #243
      01007778H   LINE      CODE     ---       #244
      01007778H   LINE      CODE     ---       #246
      01007789H   LINE      CODE     ---       #247
      0100778FH   LINE      CODE     ---       #250
      01007797H   LINE      CODE     ---       #253
      0100779EH   LINE      CODE     ---       #257
      010077A3H   LINE      CODE     ---       #259
      010077A3H   LINE      CODE     ---       #260
      010077A3H   LINE      CODE     ---       #263
      010077ABH   LINE      CODE     ---       #264
      010077ABH   LINE      CODE     ---       #266
      010077BCH   LINE      CODE     ---       #268
      010077CFH   LINE      CODE     ---       #269
      010077D9H   LINE      CODE     ---       #270
      010077DAH   LINE      CODE     ---       #272
      010077DAH   LINE      CODE     ---       #274
      010077EBH   LINE      CODE     ---       #275
      01007800H   LINE      CODE     ---       #276
      01007800H   LINE      CODE     ---       #277
      01007800H   LINE      CODE     ---       #278
LX51 LINKER/LOCATER V4.64.0.0                                                         11/29/2018  15:53:27  PAGE 71


      01007800H   LINE      CODE     ---       #279
      ---         BLOCKEND  ---      ---       LVL=0

      01009EE3H   BLOCK     CODE     ---       LVL=0
      01009EE3H   LINE      CODE     ---       #297
      01009EE3H   LINE      CODE     ---       #298
      01009EE3H   LINE      CODE     ---       #299
      01009EECH   LINE      CODE     ---       #300
      ---         BLOCKEND  ---      ---       LVL=0
      00000007H   SYMBOL    DATA     BYTE      modeBitMask
      00000007H   SYMBOL    DATA     BYTE      modeBitMask
      00000007H   SYMBOL    DATA     BYTE      oldSrc

      01009F29H   BLOCK     CODE     ---       LVL=0
      01009F29H   LINE      CODE     ---       #464
      01009F29H   LINE      CODE     ---       #465
      01009F29H   LINE      CODE     ---       #466
      01009F30H   LINE      CODE     ---       #467
      ---         BLOCKEND  ---      ---       LVL=0

      ---         MODULE    ---      ---       EEPROM
      010086B1H   PUBLIC    CODE     ---       _EEPROM_Write
      01009FC0H   PUBLIC    CODE     ---       EEPROM_Start
      01009F5FH   PUBLIC    CODE     ---       EEPROM_Enable
      000000CAH   SFRSYM    DATA     BYTE      SFRPRT5SEL
      000000DAH   SFRSYM    DATA     BYTE      SFRPRT6SEL
      000000D0H.6 SFRSYM    DATA     BIT       AC
      000000A8H.7 SFRSYM    DATA     BIT       EA
      000000A8H   SFRSYM    DATA     BYTE      IE
      00000085H   SFRSYM    DATA     BYTE      DPH1
      00000084H   SFRSYM    DATA     BYTE      DPL1
      000000D0H.7 SFRSYM    DATA     BIT       CY
      000000A0H   SFRSYM    DATA     BYTE      P2AX
      00000095H   SFRSYM    DATA     BYTE      DPX1
      00000081H   SFRSYM    DATA     BYTE      SP
      000000D0H.2 SFRSYM    DATA     BIT       OV
      00000080H   SFRSYM    DATA     BYTE      SFRPRT0DR
      00000090H   SFRSYM    DATA     BYTE      SFRPRT1DR
      000000F2H   SFRSYM    DATA     BYTE      SFRPRT12SEL
      00000098H   SFRSYM    DATA     BYTE      SFRPRT2DR
      000000B0H   SFRSYM    DATA     BYTE      SFRPRT3DR
      000000C0H   SFRSYM    DATA     BYTE      SFRPRT4DR
      000000FAH   SFRSYM    DATA     BYTE      SFRPRT15SEL
      000000C8H   SFRSYM    DATA     BYTE      SFRPRT5DR
      000000D8H   SFRSYM    DATA     BYTE      SFRPRT6DR
      00000089H   SFRSYM    DATA     BYTE      SFRPRT0PS
      00000091H   SFRSYM    DATA     BYTE      SFRPRT1PS
      00000099H   SFRSYM    DATA     BYTE      SFRPRT2PS
      000000B1H   SFRSYM    DATA     BYTE      SFRPRT3PS
      000000C1H   SFRSYM    DATA     BYTE      SFRPRT4PS
      000000C9H   SFRSYM    DATA     BYTE      SFRPRT5PS
      000000D9H   SFRSYM    DATA     BYTE      SFRPRT6PS
      000000EAH   SFRSYM    DATA     BYTE      MXAX
      000000F0H   SFRSYM    DATA     BYTE      B
      000000E0H   SFRSYM    DATA     BYTE      ACC
      000000D0H   SFRSYM    DATA     BIT       P
      000000D0H.3 SFRSYM    DATA     BIT       RS0
      000000D0H.4 SFRSYM    DATA     BIT       RS1
      00000083H   SFRSYM    DATA     BYTE      DPH
      000000E8H   SFRSYM    DATA     BYTE      SFRPRT12DR
      00000082H   SFRSYM    DATA     BYTE      DPL
      000000F8H   SFRSYM    DATA     BYTE      SFRPRT15DR
      00000086H   SFRSYM    DATA     BYTE      DPS
      000000E9H   SFRSYM    DATA     BYTE      SFRPRT12PS
      00000093H   SFRSYM    DATA     BYTE      DPX
LX51 LINKER/LOCATER V4.64.0.0                                                         11/29/2018  15:53:27  PAGE 72


      000000F9H   SFRSYM    DATA     BYTE      SFRPRT15PS
      000000D0H.5 SFRSYM    DATA     BIT       F0
      000000D0H.1 SFRSYM    DATA     BIT       F1
      0000008AH   SFRSYM    DATA     BYTE      SFRPRT0SEL
      000000D0H   SFRSYM    DATA     BYTE      PSW
      000000A2H   SFRSYM    DATA     BYTE      SFRPRT1SEL
      0000009AH   SFRSYM    DATA     BYTE      SFRPRT2SEL
      000000B2H   SFRSYM    DATA     BYTE      SFRPRT3SEL
      000000C2H   SFRSYM    DATA     BYTE      SFRPRT4SEL

      01009F5FH   BLOCK     CODE     ---       LVL=0
      01009F5FH   LINE      CODE     ---       #33
      01009F5FH   LINE      CODE     ---       #34
      01009F5FH   LINE      CODE     ---       #36
      01009F62H   LINE      CODE     ---       #39
      01009F65H   LINE      CODE     ---       #40
      ---         BLOCKEND  ---      ---       LVL=0

      01009FC0H   BLOCK     CODE     ---       LVL=0
      01009FC0H   LINE      CODE     ---       #57
      01009FC0H   LINE      CODE     ---       #58
      01009FC0H   LINE      CODE     ---       #59
      01009FC3H   LINE      CODE     ---       #60
      ---         BLOCKEND  ---      ---       LVL=0

      010086B1H   BLOCK     CODE     ---       LVL=0
      02000009H   SYMBOL    XDATA    ---       rowData
      0200000CH   SYMBOL    XDATA    BYTE      rowNumber
      010086BFH   BLOCK     CODE     NEAR LAB  LVL=1
      0200000DH   SYMBOL    XDATA    BYTE      status
      ---         BLOCKEND  ---      ---       LVL=1
      010086B1H   LINE      CODE     ---       #345
      010086BFH   LINE      CODE     ---       #346
      010086BFH   LINE      CODE     ---       #349
      010086C2H   LINE      CODE     ---       #351
      010086CEH   LINE      CODE     ---       #352
      010086CEH   LINE      CODE     ---       #354
      010086D7H   LINE      CODE     ---       #355
      010086D7H   LINE      CODE     ---       #357
      010086DDH   LINE      CODE     ---       #360
      010086FBH   LINE      CODE     ---       #361
      010086FBH   LINE      CODE     ---       #362
      01008703H   LINE      CODE     ---       #363
      01008703H   LINE      CODE     ---       #365
      01008703H   LINE      CODE     ---       #368
      01008719H   LINE      CODE     ---       #369
      01008719H   LINE      CODE     ---       #370
      0100871DH   LINE      CODE     ---       #371
      0100871DH   LINE      CODE     ---       #374
      01008723H   LINE      CODE     ---       #375
      01008723H   LINE      CODE     ---       #376
      0100873FH   LINE      CODE     ---       #378
      0100873FH   LINE      CODE     ---       #380
      01008745H   LINE      CODE     ---       #382
      0100874DH   LINE      CODE     ---       #383
      0100874DH   LINE      CODE     ---       #385
      0100874DH   LINE      CODE     ---       #388
      01008763H   LINE      CODE     ---       #389
      01008763H   LINE      CODE     ---       #390
      01008767H   LINE      CODE     ---       #391
      01008767H   LINE      CODE     ---       #392
      01008769H   LINE      CODE     ---       #394
      01008769H   LINE      CODE     ---       #395
      0100876FH   LINE      CODE     ---       #396
      0100876FH   LINE      CODE     ---       #397
LX51 LINKER/LOCATER V4.64.0.0                                                         11/29/2018  15:53:27  PAGE 73


      01008771H   LINE      CODE     ---       #399
      01008771H   LINE      CODE     ---       #400
      01008777H   LINE      CODE     ---       #401
      01008777H   LINE      CODE     ---       #402
      01008777H   LINE      CODE     ---       #405
      0100877AH   LINE      CODE     ---       #406
      0100877CH   LINE      CODE     ---       #408
      0100877CH   LINE      CODE     ---       #409
      01008782H   LINE      CODE     ---       #410
      01008782H   LINE      CODE     ---       #411
      01008784H   LINE      CODE     ---       #413
      01008784H   LINE      CODE     ---       #414
      0100878AH   LINE      CODE     ---       #415
      0100878AH   LINE      CODE     ---       #417
      0100878FH   LINE      CODE     ---       #418
      ---         BLOCKEND  ---      ---       LVL=0

      ---         MODULE    ---      ---       ADC
      02001626H   PUBLIC    XDATA    LONG      ADC_CountsPerVolt
      02001625H   PUBLIC    XDATA    BYTE      ADC_convDone
      02001621H   PUBLIC    XDATA    BYTE      ADC_started
      02001620H   PUBLIC    XDATA    BYTE      ADC_stopConversion
      0200161CH   PUBLIC    XDATA    LONG      ADC_Offset
      0200161BH   PUBLIC    XDATA    BYTE      ADC_initVar
      0200161AH   PUBLIC    XDATA    BYTE      ADC_Config
      01009BFAH   PUBLIC    CODE     ---       ADC_Start
      01008C16H   PUBLIC    CODE     ---       ADC_Enable
      01008790H   PUBLIC    CODE     ---       ADC_Init
      000000CAH   SFRSYM    DATA     BYTE      SFRPRT5SEL
      000000DAH   SFRSYM    DATA     BYTE      SFRPRT6SEL
      000000D0H.6 SFRSYM    DATA     BIT       AC
      000000A8H.7 SFRSYM    DATA     BIT       EA
      000000A8H   SFRSYM    DATA     BYTE      IE
      00000085H   SFRSYM    DATA     BYTE      DPH1
      00000084H   SFRSYM    DATA     BYTE      DPL1
      000000D0H.7 SFRSYM    DATA     BIT       CY
      000000A0H   SFRSYM    DATA     BYTE      P2AX
      00000095H   SFRSYM    DATA     BYTE      DPX1
      00000081H   SFRSYM    DATA     BYTE      SP
      000000D0H.2 SFRSYM    DATA     BIT       OV
      00000080H   SFRSYM    DATA     BYTE      SFRPRT0DR
      00000090H   SFRSYM    DATA     BYTE      SFRPRT1DR
      000000F2H   SFRSYM    DATA     BYTE      SFRPRT12SEL
      00000098H   SFRSYM    DATA     BYTE      SFRPRT2DR
      000000B0H   SFRSYM    DATA     BYTE      SFRPRT3DR
      000000C0H   SFRSYM    DATA     BYTE      SFRPRT4DR
      000000FAH   SFRSYM    DATA     BYTE      SFRPRT15SEL
      000000C8H   SFRSYM    DATA     BYTE      SFRPRT5DR
      000000D8H   SFRSYM    DATA     BYTE      SFRPRT6DR
      00000089H   SFRSYM    DATA     BYTE      SFRPRT0PS
      00000091H   SFRSYM    DATA     BYTE      SFRPRT1PS
      00000099H   SFRSYM    DATA     BYTE      SFRPRT2PS
      000000B1H   SFRSYM    DATA     BYTE      SFRPRT3PS
      000000C1H   SFRSYM    DATA     BYTE      SFRPRT4PS
      000000C9H   SFRSYM    DATA     BYTE      SFRPRT5PS
      000000D9H   SFRSYM    DATA     BYTE      SFRPRT6PS
      000000EAH   SFRSYM    DATA     BYTE      MXAX
      000000F0H   SFRSYM    DATA     BYTE      B
      000000E0H   SFRSYM    DATA     BYTE      ACC
      000000D0H   SFRSYM    DATA     BIT       P
      000000D0H.3 SFRSYM    DATA     BIT       RS0
      000000D0H.4 SFRSYM    DATA     BIT       RS1
      00000083H   SFRSYM    DATA     BYTE      DPH
      000000E8H   SFRSYM    DATA     BYTE      SFRPRT12DR
      00000082H   SFRSYM    DATA     BYTE      DPL
LX51 LINKER/LOCATER V4.64.0.0                                                         11/29/2018  15:53:27  PAGE 74


      000000F8H   SFRSYM    DATA     BYTE      SFRPRT15DR
      00000086H   SFRSYM    DATA     BYTE      DPS
      000000E9H   SFRSYM    DATA     BYTE      SFRPRT12PS
      00000093H   SFRSYM    DATA     BYTE      DPX
      000000F9H   SFRSYM    DATA     BYTE      SFRPRT15PS
      000000D0H.5 SFRSYM    DATA     BIT       F0
      000000D0H.1 SFRSYM    DATA     BIT       F1
      0000008AH   SFRSYM    DATA     BYTE      SFRPRT0SEL
      000000D0H   SFRSYM    DATA     BYTE      PSW
      000000A2H   SFRSYM    DATA     BYTE      SFRPRT1SEL
      0000009AH   SFRSYM    DATA     BYTE      SFRPRT2SEL
      000000B2H   SFRSYM    DATA     BYTE      SFRPRT3SEL
      000000C2H   SFRSYM    DATA     BYTE      SFRPRT4SEL
      010089A0H   SYMBOL    CODE     ---       _ADC_InitConfig
      0100711CH   SYMBOL    CODE     ---       _ADC_GainCompensation
      01009679H   SYMBOL    CODE     ---       _ADC_SetDSMRef0Reg
      02001622H   SYMBOL    XDATA    ---       ADC_gcor

      01008790H   BLOCK     CODE     ---       LVL=0
      01008790H   LINE      CODE     ---       #91
      01008790H   LINE      CODE     ---       #92
      01008790H   LINE      CODE     ---       #94
      01008796H   LINE      CODE     ---       #95
      0100879BH   LINE      CODE     ---       #97
      010087A0H   LINE      CODE     ---       #101
      010087A5H   LINE      CODE     ---       #106
      010087ACH   LINE      CODE     ---       #110
      010087B2H   LINE      CODE     ---       #111
      010087B5H   LINE      CODE     ---       #112
      010087B9H   LINE      CODE     ---       #113
      010087C0H   LINE      CODE     ---       #114
      010087C5H   LINE      CODE     ---       #116
      010087C9H   LINE      CODE     ---       #117
      010087CBH   LINE      CODE     ---       #119
      010087D1H   LINE      CODE     ---       #120
      010087D4H   LINE      CODE     ---       #124
      010087D8H   LINE      CODE     ---       #126
      010087DEH   LINE      CODE     ---       #127
      010087E1H   LINE      CODE     ---       #128
      010087E6H   LINE      CODE     ---       #130
      010087ECH   LINE      CODE     ---       #133
      01008803H   LINE      CODE     ---       #161
      01008819H   LINE      CODE     ---       #162
      01008838H   LINE      CODE     ---       #165
      01008840H   LINE      CODE     ---       #166
      ---         BLOCKEND  ---      ---       LVL=0

      01008C16H   BLOCK     CODE     ---       LVL=0
      01008C16H   BLOCK     CODE     NEAR LAB  LVL=1
      02000002H   SYMBOL    XDATA    BYTE      config
      02000003H   SYMBOL    XDATA    BYTE      enableInterrupts
      ---         BLOCKEND  ---      ---       LVL=1
      01008C16H   LINE      CODE     ---       #184
      01008C16H   LINE      CODE     ---       #185
      01008C16H   LINE      CODE     ---       #188
      01008C1EH   LINE      CODE     ---       #191
      01008C26H   LINE      CODE     ---       #194
      01008C2DH   LINE      CODE     ---       #195
      01008C31H   LINE      CODE     ---       #198
      01008C38H   LINE      CODE     ---       #199
      01008C3CH   LINE      CODE     ---       #202
      01008C43H   LINE      CODE     ---       #203
      01008C48H   LINE      CODE     ---       #205
      01008C4FH   LINE      CODE     ---       #265
      01008C4FH   LINE      CODE     ---       #266
LX51 LINKER/LOCATER V4.64.0.0                                                         11/29/2018  15:53:27  PAGE 75


      01008C4FH   LINE      CODE     ---       #268
      01008C4FH   LINE      CODE     ---       #271
      01008C56H   LINE      CODE     ---       #274
      01008C5DH   LINE      CODE     ---       #275
      01008C62H   LINE      CODE     ---       #278
      01008C69H   LINE      CODE     ---       #281
      01008C6FH   LINE      CODE     ---       #285
      01008C76H   LINE      CODE     ---       #286
      01008C7DH   LINE      CODE     ---       #290
      01008C84H   LINE      CODE     ---       #291
      01008C8BH   LINE      CODE     ---       #295
      01008C91H   LINE      CODE     ---       #297
      01008C95H   LINE      CODE     ---       #300
      01008C9DH   LINE      CODE     ---       #302
      ---         BLOCKEND  ---      ---       LVL=0

      01009BFAH   BLOCK     CODE     ---       LVL=0
      01009BFAH   LINE      CODE     ---       #329
      01009BFAH   LINE      CODE     ---       #330
      01009BFAH   LINE      CODE     ---       #331
      01009C00H   LINE      CODE     ---       #332
      01009C00H   LINE      CODE     ---       #333
      01009C06H   LINE      CODE     ---       #334
      01009C06H   LINE      CODE     ---       #335
      01009C09H   LINE      CODE     ---       #336
      01009C09H   LINE      CODE     ---       #337
      01009C0FH   LINE      CODE     ---       #338
      01009C0FH   LINE      CODE     ---       #341
      01009C12H   LINE      CODE     ---       #342
      ---         BLOCKEND  ---      ---       LVL=0
      00000007H   SYMBOL    DATA     BYTE      gain
      00000006H   SYMBOL    DATA     BYTE      tmpReg
      00000007H   SYMBOL    DATA     BYTE      coherency
      00000006H   SYMBOL    DATA     BYTE      tmpReg
      00000004H   SYMBOL    DATA     WORD      gcorValue
      00000007H   SYMBOL    DATA     BYTE      retMode
      00000006H   SYMBOL    DATA     BYTE      status
      00000006H   SYMBOL    DATA     CHAR      result
      00000007H   SYMBOL    DATA     BYTE      coherency
      00000004H   SYMBOL    DATA     LONG      offset
      00000004H   SYMBOL    DATA     LONG      adcGain
      00000006H   SYMBOL    DATA     INT       mVolts
      00000004H   SYMBOL    DATA     FLOAT     Volts
      00000004H   SYMBOL    DATA     LONG      uVolts

      010089A0H   BLOCK     CODE     ---       LVL=0
      00000007H   SYMBOL    DATA     BYTE      config
      010089A0H   LINE      CODE     ---       #1242
      010089A0H   LINE      CODE     ---       #1243
      010089A0H   LINE      CODE     ---       #1244
      010089A5H   LINE      CODE     ---       #1246
      010089ADH   LINE      CODE     ---       #1247
      010089ADH   LINE      CODE     ---       #1249
      010089B3H   LINE      CODE     ---       #1250
      010089B9H   LINE      CODE     ---       #1251
      010089BDH   LINE      CODE     ---       #1252
      010089C0H   LINE      CODE     ---       #1253
      010089C2H   LINE      CODE     ---       #1254
      010089C6H   LINE      CODE     ---       #1255
      010089CBH   LINE      CODE     ---       #1256
      010089CDH   LINE      CODE     ---       #1257
      010089CFH   LINE      CODE     ---       #1258
      010089D4H   LINE      CODE     ---       #1260
      010089DAH   LINE      CODE     ---       #1261
      010089DEH   LINE      CODE     ---       #1262
LX51 LINKER/LOCATER V4.64.0.0                                                         11/29/2018  15:53:27  PAGE 76


      010089E2H   LINE      CODE     ---       #1263
      010089E5H   LINE      CODE     ---       #1264
      010089EBH   LINE      CODE     ---       #1265
      010089EFH   LINE      CODE     ---       #1266
      010089F3H   LINE      CODE     ---       #1267
      010089F8H   LINE      CODE     ---       #1268
      010089FCH   LINE      CODE     ---       #1269
      01008A00H   LINE      CODE     ---       #1270
      01008A04H   LINE      CODE     ---       #1272
      01008A09H   LINE      CODE     ---       #1273
      01008A0FH   LINE      CODE     ---       #1274
      01008A12H   LINE      CODE     ---       #1276
      01008A17H   LINE      CODE     ---       #1277
      01008A19H   LINE      CODE     ---       #1278
      01008A1CH   LINE      CODE     ---       #1279
      01008A20H   LINE      CODE     ---       #1288
      01008A25H   LINE      CODE     ---       #1300
      01008A32H   LINE      CODE     ---       #1302
      01008A3BH   LINE      CODE     ---       #1306
      01008A44H   LINE      CODE     ---       #1311
      01008A4DH   LINE      CODE     ---       #1313
      01008A4DH   LINE      CODE     ---       #1526
      ---         BLOCKEND  ---      ---       LVL=0

      0100711CH   BLOCK     CODE     ---       LVL=0
      00000007H   SYMBOL    DATA     BYTE      inputRange
      02000003H   SYMBOL    XDATA    WORD      idealDecGain
      02000005H   SYMBOL    XDATA    WORD      idealOddDecGain
      02000007H   SYMBOL    XDATA    BYTE      resolution
      02000008H   SYMBOL    XDATA    BYTE      config
      0100712AH   BLOCK     CODE     NEAR LAB  LVL=1
      02000009H   SYMBOL    XDATA    CHAR      flash
      00000004H   SYMBOL    DATA     LONG      normalised
      00000004H   SYMBOL    DATA     WORD      gcorValue
      00000004H   SYMBOL    DATA     DWORD     gcorTmp
      ---         BLOCKEND  ---      ---       LVL=1
      0100711CH   LINE      CODE     ---       #1617
      0100712AH   LINE      CODE     ---       #1619
      0100712AH   LINE      CODE     ---       #1625
      01007140H   LINE      CODE     ---       #1626
      01007140H   LINE      CODE     ---       #1627
      0100715AH   LINE      CODE     ---       #1628
      0100715AH   LINE      CODE     ---       #1629
      0100715AH   LINE      CODE     ---       #1630
      0100715AH   LINE      CODE     ---       #1632
      01007163H   LINE      CODE     ---       #1633
      01007163H   LINE      CODE     ---       #1634
      01007171H   LINE      CODE     ---       #1635
      01007174H   LINE      CODE     ---       #1637
      01007174H   LINE      CODE     ---       #1638
      01007182H   LINE      CODE     ---       #1639
      01007182H   LINE      CODE     ---       #1640
      01007185H   LINE      CODE     ---       #1642
      01007185H   LINE      CODE     ---       #1644
      0100718EH   LINE      CODE     ---       #1645
      0100718EH   LINE      CODE     ---       #1646
      0100719CH   LINE      CODE     ---       #1647
      0100719EH   LINE      CODE     ---       #1649
      0100719EH   LINE      CODE     ---       #1650
      010071ACH   LINE      CODE     ---       #1651
      010071ACH   LINE      CODE     ---       #1652
      010071AEH   LINE      CODE     ---       #1654
      010071AEH   LINE      CODE     ---       #1656
      010071B7H   LINE      CODE     ---       #1657
      010071B7H   LINE      CODE     ---       #1658
LX51 LINKER/LOCATER V4.64.0.0                                                         11/29/2018  15:53:27  PAGE 77


      010071C5H   LINE      CODE     ---       #1659
      010071C7H   LINE      CODE     ---       #1661
      010071C7H   LINE      CODE     ---       #1662
      010071D5H   LINE      CODE     ---       #1663
      010071D5H   LINE      CODE     ---       #1664
      010071D7H   LINE      CODE     ---       #1666
      010071D7H   LINE      CODE     ---       #1668
      010071E0H   LINE      CODE     ---       #1669
      010071E0H   LINE      CODE     ---       #1670
      010071EEH   LINE      CODE     ---       #1671
      010071F0H   LINE      CODE     ---       #1673
      010071F0H   LINE      CODE     ---       #1674
      010071FEH   LINE      CODE     ---       #1675
      010071FEH   LINE      CODE     ---       #1676
      01007200H   LINE      CODE     ---       #1678
      01007200H   LINE      CODE     ---       #1679
      01007205H   LINE      CODE     ---       #1680
      01007205H   LINE      CODE     ---       #1681
      01007205H   LINE      CODE     ---       #1684
      01007238H   LINE      CODE     ---       #1685
      0100724BH   LINE      CODE     ---       #1686
      01007258H   LINE      CODE     ---       #1688
      01007261H   LINE      CODE     ---       #1689
      01007261H   LINE      CODE     ---       #1690
      01007278H   LINE      CODE     ---       #1691
      0100728EH   LINE      CODE     ---       #1692
      01007290H   LINE      CODE     ---       #1694
      01007290H   LINE      CODE     ---       #1696
      010072A4H   LINE      CODE     ---       #1697
      010072A4H   LINE      CODE     ---       #1700
      010072BCH   LINE      CODE     ---       #1701
      010072BCH   LINE      CODE     ---       #1703
      010072BCH   LINE      CODE     ---       #1706
      010072BCH   LINE      CODE     ---       #1707
      ---         BLOCKEND  ---      ---       LVL=0

      01009679H   BLOCK     CODE     ---       LVL=0
      02000002H   SYMBOL    XDATA    BYTE      value
      0100967EH   BLOCK     CODE     NEAR LAB  LVL=1
      02000003H   SYMBOL    XDATA    BYTE      enableInterrupts
      ---         BLOCKEND  ---      ---       LVL=1
      01009679H   LINE      CODE     ---       #1724
      0100967EH   LINE      CODE     ---       #1725
      0100967EH   LINE      CODE     ---       #1727
      01009686H   LINE      CODE     ---       #1730
      0100968DH   LINE      CODE     ---       #1731
      01009692H   LINE      CODE     ---       #1732
      0100969AH   LINE      CODE     ---       #1735
      010096A1H   LINE      CODE     ---       #1737
      010096A8H   LINE      CODE     ---       #1738
      010096ADH   LINE      CODE     ---       #1740
      010096B5H   LINE      CODE     ---       #1741
      ---         BLOCKEND  ---      ---       LVL=0
      00000007H   SYMBOL    DATA     CHAR      result
      00000006H   SYMBOL    DATA     INT       result
      00000004H   SYMBOL    DATA     LONG      result

      ---         MODULE    ---      ---       RS485_CTS
      01009F72H   PUBLIC    CODE     ---       _RS485_CTS_Write

      01009F72H   BLOCK     CODE     ---       LVL=0
      00000007H   SYMBOL    DATA     BYTE      control
      01009F72H   LINE      CODE     ---       #37
      01009F72H   LINE      CODE     ---       #38
      01009F72H   LINE      CODE     ---       #39
LX51 LINKER/LOCATER V4.64.0.0                                                         11/29/2018  15:53:27  PAGE 78


      01009F77H   LINE      CODE     ---       #40
      ---         BLOCKEND  ---      ---       LVL=0

      ---         MODULE    ---      ---       BOOTLOADABLE
      01009EEDH   PUBLIC    CODE     ---       Bootloadable_Load
      000000CAH   SFRSYM    DATA     BYTE      SFRPRT5SEL
      000000DAH   SFRSYM    DATA     BYTE      SFRPRT6SEL
      000000D0H.6 SFRSYM    DATA     BIT       AC
      000000A8H.7 SFRSYM    DATA     BIT       EA
      000000A8H   SFRSYM    DATA     BYTE      IE
      00000085H   SFRSYM    DATA     BYTE      DPH1
      00000084H   SFRSYM    DATA     BYTE      DPL1
      000000D0H.7 SFRSYM    DATA     BIT       CY
      000000A0H   SFRSYM    DATA     BYTE      P2AX
      00000095H   SFRSYM    DATA     BYTE      DPX1
      00000081H   SFRSYM    DATA     BYTE      SP
      000000D0H.2 SFRSYM    DATA     BIT       OV
      00000080H   SFRSYM    DATA     BYTE      SFRPRT0DR
      00000090H   SFRSYM    DATA     BYTE      SFRPRT1DR
      000000F2H   SFRSYM    DATA     BYTE      SFRPRT12SEL
      00000098H   SFRSYM    DATA     BYTE      SFRPRT2DR
      000000B0H   SFRSYM    DATA     BYTE      SFRPRT3DR
      000000C0H   SFRSYM    DATA     BYTE      SFRPRT4DR
      000000FAH   SFRSYM    DATA     BYTE      SFRPRT15SEL
      000000C8H   SFRSYM    DATA     BYTE      SFRPRT5DR
      000000D8H   SFRSYM    DATA     BYTE      SFRPRT6DR
      00000089H   SFRSYM    DATA     BYTE      SFRPRT0PS
      00000091H   SFRSYM    DATA     BYTE      SFRPRT1PS
      00000099H   SFRSYM    DATA     BYTE      SFRPRT2PS
      000000B1H   SFRSYM    DATA     BYTE      SFRPRT3PS
      000000C1H   SFRSYM    DATA     BYTE      SFRPRT4PS
      000000C9H   SFRSYM    DATA     BYTE      SFRPRT5PS
      000000D9H   SFRSYM    DATA     BYTE      SFRPRT6PS
      000000EAH   SFRSYM    DATA     BYTE      MXAX
      000000F0H   SFRSYM    DATA     BYTE      B
      000000E0H   SFRSYM    DATA     BYTE      ACC
      000000D0H   SFRSYM    DATA     BIT       P
      000000D0H.3 SFRSYM    DATA     BIT       RS0
      000000D0H.4 SFRSYM    DATA     BIT       RS1
      00000083H   SFRSYM    DATA     BYTE      DPH
      000000E8H   SFRSYM    DATA     BYTE      SFRPRT12DR
      00000082H   SFRSYM    DATA     BYTE      DPL
      000000F8H   SFRSYM    DATA     BYTE      SFRPRT15DR
      00000086H   SFRSYM    DATA     BYTE      DPS
      000000E9H   SFRSYM    DATA     BYTE      SFRPRT12PS
      00000093H   SFRSYM    DATA     BYTE      DPX
      000000F9H   SFRSYM    DATA     BYTE      SFRPRT15PS
      000000D0H.5 SFRSYM    DATA     BIT       F0
      000000D0H.1 SFRSYM    DATA     BIT       F1
      0000008AH   SFRSYM    DATA     BYTE      SFRPRT0SEL
      000000D0H   SFRSYM    DATA     BYTE      PSW
      000000A2H   SFRSYM    DATA     BYTE      SFRPRT1SEL
      0000009AH   SFRSYM    DATA     BYTE      SFRPRT2SEL
      000000B2H   SFRSYM    DATA     BYTE      SFRPRT3SEL
      000000C2H   SFRSYM    DATA     BYTE      SFRPRT4SEL

      01009EEDH   BLOCK     CODE     ---       LVL=0
      01009EEDH   LINE      CODE     ---       #41
      01009EEDH   LINE      CODE     ---       #42
      01009EEDH   LINE      CODE     ---       #44
      01009EF3H   LINE      CODE     ---       #46
      01009EF6H   LINE      CODE     ---       #47
      ---         BLOCKEND  ---      ---       LVL=0
      00000002H   SYMBOL    DATA     WORD      idx

LX51 LINKER/LOCATER V4.64.0.0                                                         11/29/2018  15:53:27  PAGE 79


      ---         MODULE    ---      ---       FTDI_ENABLE_REG
      01009F78H   PUBLIC    CODE     ---       _FTDI_ENABLE_REG_Write

      01009F78H   BLOCK     CODE     ---       LVL=0
      00000007H   SYMBOL    DATA     BYTE      control
      01009F78H   LINE      CODE     ---       #37
      01009F78H   LINE      CODE     ---       #38
      01009F78H   LINE      CODE     ---       #39
      01009F7DH   LINE      CODE     ---       #40
      ---         BLOCKEND  ---      ---       LVL=0

      ---         MODULE    ---      ---       RESET_FF
      01009F7EH   PUBLIC    CODE     ---       _RESET_FF_Write

      01009F7EH   BLOCK     CODE     ---       LVL=0
      00000007H   SYMBOL    DATA     BYTE      control
      01009F7EH   LINE      CODE     ---       #37
      01009F7EH   LINE      CODE     ---       #38
      01009F7EH   LINE      CODE     ---       #39
      01009F83H   LINE      CODE     ---       #40
      ---         BLOCKEND  ---      ---       LVL=0

      ---         MODULE    ---      ---       FF_STATUS
      01009F84H   PUBLIC    CODE     ---       FF_STATUS_Read
      000000CAH   SFRSYM    DATA     BYTE      SFRPRT5SEL
      000000DAH   SFRSYM    DATA     BYTE      SFRPRT6SEL
      000000D0H.6 SFRSYM    DATA     BIT       AC
      000000A8H.7 SFRSYM    DATA     BIT       EA
      000000A8H   SFRSYM    DATA     BYTE      IE
      00000085H   SFRSYM    DATA     BYTE      DPH1
      00000084H   SFRSYM    DATA     BYTE      DPL1
      000000D0H.7 SFRSYM    DATA     BIT       CY
      000000A0H   SFRSYM    DATA     BYTE      P2AX
      00000095H   SFRSYM    DATA     BYTE      DPX1
      00000081H   SFRSYM    DATA     BYTE      SP
      000000D0H.2 SFRSYM    DATA     BIT       OV
      00000080H   SFRSYM    DATA     BYTE      SFRPRT0DR
      00000090H   SFRSYM    DATA     BYTE      SFRPRT1DR
      000000F2H   SFRSYM    DATA     BYTE      SFRPRT12SEL
      00000098H   SFRSYM    DATA     BYTE      SFRPRT2DR
      000000B0H   SFRSYM    DATA     BYTE      SFRPRT3DR
      000000C0H   SFRSYM    DATA     BYTE      SFRPRT4DR
      000000FAH   SFRSYM    DATA     BYTE      SFRPRT15SEL
      000000C8H   SFRSYM    DATA     BYTE      SFRPRT5DR
      000000D8H   SFRSYM    DATA     BYTE      SFRPRT6DR
      00000089H   SFRSYM    DATA     BYTE      SFRPRT0PS
      00000091H   SFRSYM    DATA     BYTE      SFRPRT1PS
      00000099H   SFRSYM    DATA     BYTE      SFRPRT2PS
      000000B1H   SFRSYM    DATA     BYTE      SFRPRT3PS
      000000C1H   SFRSYM    DATA     BYTE      SFRPRT4PS
      000000C9H   SFRSYM    DATA     BYTE      SFRPRT5PS
      000000D9H   SFRSYM    DATA     BYTE      SFRPRT6PS
      000000EAH   SFRSYM    DATA     BYTE      MXAX
      000000F0H   SFRSYM    DATA     BYTE      B
      000000E0H   SFRSYM    DATA     BYTE      ACC
      000000D0H   SFRSYM    DATA     BIT       P
      000000D0H.3 SFRSYM    DATA     BIT       RS0
      000000D0H.4 SFRSYM    DATA     BIT       RS1
      00000083H   SFRSYM    DATA     BYTE      DPH
      000000E8H   SFRSYM    DATA     BYTE      SFRPRT12DR
      00000082H   SFRSYM    DATA     BYTE      DPL
      000000F8H   SFRSYM    DATA     BYTE      SFRPRT15DR
      00000086H   SFRSYM    DATA     BYTE      DPS
      000000E9H   SFRSYM    DATA     BYTE      SFRPRT12PS
      00000093H   SFRSYM    DATA     BYTE      DPX
LX51 LINKER/LOCATER V4.64.0.0                                                         11/29/2018  15:53:27  PAGE 80


      000000F9H   SFRSYM    DATA     BYTE      SFRPRT15PS
      000000D0H.5 SFRSYM    DATA     BIT       F0
      000000D0H.1 SFRSYM    DATA     BIT       F1
      0000008AH   SFRSYM    DATA     BYTE      SFRPRT0SEL
      000000D0H   SFRSYM    DATA     BYTE      PSW
      000000A2H   SFRSYM    DATA     BYTE      SFRPRT1SEL
      0000009AH   SFRSYM    DATA     BYTE      SFRPRT2SEL
      000000B2H   SFRSYM    DATA     BYTE      SFRPRT3SEL
      000000C2H   SFRSYM    DATA     BYTE      SFRPRT4SEL

      01009F84H   BLOCK     CODE     ---       LVL=0
      01009F84H   LINE      CODE     ---       #37
      01009F84H   LINE      CODE     ---       #38
      01009F84H   LINE      CODE     ---       #39
      01009F89H   LINE      CODE     ---       #40
      ---         BLOCKEND  ---      ---       LVL=0
      00000007H   SYMBOL    DATA     BYTE      interruptState
      00000007H   SYMBOL    DATA     BYTE      interruptState
      00000007H   SYMBOL    DATA     BYTE      mask

      ---         MODULE    ---      ---       MY_TIMER
      0200164DH   PUBLIC    XDATA    BYTE      MY_TIMER_initVar
      01009E74H   PUBLIC    CODE     ---       MY_TIMER_ClearFIFO
      01009DF1H   PUBLIC    CODE     ---       MY_TIMER_ReadCounter
      01009F0BH   PUBLIC    CODE     ---       _MY_TIMER_WriteCounter
      01009F01H   PUBLIC    CODE     ---       MY_TIMER_ReadCapture
      01009EF7H   PUBLIC    CODE     ---       _MY_TIMER_WritePeriod
      01009F90H   PUBLIC    CODE     ---       MY_TIMER_ReadStatusRegister
      01009F8AH   PUBLIC    CODE     ---       _MY_TIMER_SetInterruptMode
      01009D72H   PUBLIC    CODE     ---       MY_TIMER_Start
      01009F31H   PUBLIC    CODE     ---       MY_TIMER_Enable
      01009A25H   PUBLIC    CODE     ---       MY_TIMER_Init
      000000CAH   SFRSYM    DATA     BYTE      SFRPRT5SEL
      000000DAH   SFRSYM    DATA     BYTE      SFRPRT6SEL
      000000D0H.6 SFRSYM    DATA     BIT       AC
      000000A8H.7 SFRSYM    DATA     BIT       EA
      000000A8H   SFRSYM    DATA     BYTE      IE
      00000085H   SFRSYM    DATA     BYTE      DPH1
      00000084H   SFRSYM    DATA     BYTE      DPL1
      000000D0H.7 SFRSYM    DATA     BIT       CY
      000000A0H   SFRSYM    DATA     BYTE      P2AX
      00000095H   SFRSYM    DATA     BYTE      DPX1
      00000081H   SFRSYM    DATA     BYTE      SP
      000000D0H.2 SFRSYM    DATA     BIT       OV
      00000080H   SFRSYM    DATA     BYTE      SFRPRT0DR
      00000090H   SFRSYM    DATA     BYTE      SFRPRT1DR
      000000F2H   SFRSYM    DATA     BYTE      SFRPRT12SEL
      00000098H   SFRSYM    DATA     BYTE      SFRPRT2DR
      000000B0H   SFRSYM    DATA     BYTE      SFRPRT3DR
      000000C0H   SFRSYM    DATA     BYTE      SFRPRT4DR
      000000FAH   SFRSYM    DATA     BYTE      SFRPRT15SEL
      000000C8H   SFRSYM    DATA     BYTE      SFRPRT5DR
      000000D8H   SFRSYM    DATA     BYTE      SFRPRT6DR
      00000089H   SFRSYM    DATA     BYTE      SFRPRT0PS
      00000091H   SFRSYM    DATA     BYTE      SFRPRT1PS
      00000099H   SFRSYM    DATA     BYTE      SFRPRT2PS
      000000B1H   SFRSYM    DATA     BYTE      SFRPRT3PS
      000000C1H   SFRSYM    DATA     BYTE      SFRPRT4PS
      000000C9H   SFRSYM    DATA     BYTE      SFRPRT5PS
      000000D9H   SFRSYM    DATA     BYTE      SFRPRT6PS
      000000EAH   SFRSYM    DATA     BYTE      MXAX
      000000F0H   SFRSYM    DATA     BYTE      B
      000000E0H   SFRSYM    DATA     BYTE      ACC
      000000D0H   SFRSYM    DATA     BIT       P
      000000D0H.3 SFRSYM    DATA     BIT       RS0
LX51 LINKER/LOCATER V4.64.0.0                                                         11/29/2018  15:53:27  PAGE 81


      000000D0H.4 SFRSYM    DATA     BIT       RS1
      00000083H   SFRSYM    DATA     BYTE      DPH
      000000E8H   SFRSYM    DATA     BYTE      SFRPRT12DR
      00000082H   SFRSYM    DATA     BYTE      DPL
      000000F8H   SFRSYM    DATA     BYTE      SFRPRT15DR
      00000086H   SFRSYM    DATA     BYTE      DPS
      000000E9H   SFRSYM    DATA     BYTE      SFRPRT12PS
      00000093H   SFRSYM    DATA     BYTE      DPX
      000000F9H   SFRSYM    DATA     BYTE      SFRPRT15PS
      000000D0H.5 SFRSYM    DATA     BIT       F0
      000000D0H.1 SFRSYM    DATA     BIT       F1
      0000008AH   SFRSYM    DATA     BYTE      SFRPRT0SEL
      000000D0H   SFRSYM    DATA     BYTE      PSW
      000000A2H   SFRSYM    DATA     BYTE      SFRPRT1SEL
      0000009AH   SFRSYM    DATA     BYTE      SFRPRT2SEL
      000000B2H   SFRSYM    DATA     BYTE      SFRPRT3SEL
      000000C2H   SFRSYM    DATA     BYTE      SFRPRT4SEL

      01009A25H   BLOCK     CODE     ---       LVL=0
      01009A25H   BLOCK     CODE     NEAR LAB  LVL=1
      00000007H   SYMBOL    DATA     BYTE      MY_TIMER_interruptState
      ---         BLOCKEND  ---      ---       LVL=1
      01009A25H   LINE      CODE     ---       #43
      01009A25H   LINE      CODE     ---       #44
      01009A25H   LINE      CODE     ---       #118
      01009A30H   LINE      CODE     ---       #119
      01009A3BH   LINE      CODE     ---       #142
      01009A3EH   LINE      CODE     ---       #145
      01009A45H   LINE      CODE     ---       #148
      01009A48H   LINE      CODE     ---       #159
      01009A4BH   LINE      CODE     ---       #162
      01009A50H   LINE      CODE     ---       #163
      ---         BLOCKEND  ---      ---       LVL=0

      01009F31H   BLOCK     CODE     ---       LVL=0
      01009F31H   LINE      CODE     ---       #180
      01009F31H   LINE      CODE     ---       #181
      01009F31H   LINE      CODE     ---       #190
      01009F38H   LINE      CODE     ---       #192
      ---         BLOCKEND  ---      ---       LVL=0

      01009D72H   BLOCK     CODE     ---       LVL=0
      01009D72H   LINE      CODE     ---       #215
      01009D72H   LINE      CODE     ---       #216
      01009D72H   LINE      CODE     ---       #217
      01009D78H   LINE      CODE     ---       #218
      01009D78H   LINE      CODE     ---       #219
      01009D7BH   LINE      CODE     ---       #221
      01009D81H   LINE      CODE     ---       #222
      01009D81H   LINE      CODE     ---       #225
      01009D84H   LINE      CODE     ---       #226
      ---         BLOCKEND  ---      ---       LVL=0

      01009F8AH   BLOCK     CODE     ---       LVL=0
      00000007H   SYMBOL    DATA     BYTE      interruptMode
      01009F8AH   LINE      CODE     ---       #279
      01009F8AH   LINE      CODE     ---       #280
      01009F8AH   LINE      CODE     ---       #281
      01009F8FH   LINE      CODE     ---       #282
      ---         BLOCKEND  ---      ---       LVL=0

      01009F90H   BLOCK     CODE     ---       LVL=0
      01009F90H   LINE      CODE     ---       #333
      01009F90H   LINE      CODE     ---       #334
      01009F90H   LINE      CODE     ---       #335
LX51 LINKER/LOCATER V4.64.0.0                                                         11/29/2018  15:53:27  PAGE 82


      01009F95H   LINE      CODE     ---       #336
      ---         BLOCKEND  ---      ---       LVL=0
      00000007H   SYMBOL    DATA     BYTE      control

      01009EF7H   BLOCK     CODE     ---       LVL=0
      00000004H   SYMBOL    DATA     DWORD     period
      01009EF7H   LINE      CODE     ---       #431
      01009EF7H   LINE      CODE     ---       #432
      01009EF7H   LINE      CODE     ---       #437
      01009F00H   LINE      CODE     ---       #439
      ---         BLOCKEND  ---      ---       LVL=0

      01009F01H   BLOCK     CODE     ---       LVL=0
      01009F01H   LINE      CODE     ---       #456
      01009F01H   LINE      CODE     ---       #457
      01009F01H   LINE      CODE     ---       #461
      01009F0AH   LINE      CODE     ---       #463
      ---         BLOCKEND  ---      ---       LVL=0

      01009F0BH   BLOCK     CODE     ---       LVL=0
      00000004H   SYMBOL    DATA     DWORD     counter
      01009F0BH   LINE      CODE     ---       #480
      01009F0BH   LINE      CODE     ---       #481
      01009F0BH   LINE      CODE     ---       #489
      01009F14H   LINE      CODE     ---       #491
      ---         BLOCKEND  ---      ---       LVL=0

      01009DF1H   BLOCK     CODE     ---       LVL=0
      01009DF1H   LINE      CODE     ---       #508
      01009DF1H   LINE      CODE     ---       #509
      01009DF1H   LINE      CODE     ---       #516
      01009DF6H   LINE      CODE     ---       #523
      01009DFFH   LINE      CODE     ---       #525
      ---         BLOCKEND  ---      ---       LVL=0

      01009E74H   BLOCK     CODE     ---       LVL=0
      01009E74H   LINE      CODE     ---       #763
      01009E74H   LINE      CODE     ---       #764
      01009E74H   LINE      CODE     ---       #765
      01009E7BH   LINE      CODE     ---       #766
      01009E7BH   LINE      CODE     ---       #767
      01009E7EH   LINE      CODE     ---       #768
      01009E80H   LINE      CODE     ---       #769
      ---         BLOCKEND  ---      ---       LVL=0

      ---         MODULE    ---      ---       ADC_STATUS
      01009F96H   PUBLIC    CODE     ---       ADC_STATUS_Read
      000000CAH   SFRSYM    DATA     BYTE      SFRPRT5SEL
      000000DAH   SFRSYM    DATA     BYTE      SFRPRT6SEL
      000000D0H.6 SFRSYM    DATA     BIT       AC
      000000A8H.7 SFRSYM    DATA     BIT       EA
      000000A8H   SFRSYM    DATA     BYTE      IE
      00000085H   SFRSYM    DATA     BYTE      DPH1
      00000084H   SFRSYM    DATA     BYTE      DPL1
      000000D0H.7 SFRSYM    DATA     BIT       CY
      000000A0H   SFRSYM    DATA     BYTE      P2AX
      00000095H   SFRSYM    DATA     BYTE      DPX1
      00000081H   SFRSYM    DATA     BYTE      SP
      000000D0H.2 SFRSYM    DATA     BIT       OV
      00000080H   SFRSYM    DATA     BYTE      SFRPRT0DR
      00000090H   SFRSYM    DATA     BYTE      SFRPRT1DR
      000000F2H   SFRSYM    DATA     BYTE      SFRPRT12SEL
      00000098H   SFRSYM    DATA     BYTE      SFRPRT2DR
      000000B0H   SFRSYM    DATA     BYTE      SFRPRT3DR
      000000C0H   SFRSYM    DATA     BYTE      SFRPRT4DR
LX51 LINKER/LOCATER V4.64.0.0                                                         11/29/2018  15:53:27  PAGE 83


      000000FAH   SFRSYM    DATA     BYTE      SFRPRT15SEL
      000000C8H   SFRSYM    DATA     BYTE      SFRPRT5DR
      000000D8H   SFRSYM    DATA     BYTE      SFRPRT6DR
      00000089H   SFRSYM    DATA     BYTE      SFRPRT0PS
      00000091H   SFRSYM    DATA     BYTE      SFRPRT1PS
      00000099H   SFRSYM    DATA     BYTE      SFRPRT2PS
      000000B1H   SFRSYM    DATA     BYTE      SFRPRT3PS
      000000C1H   SFRSYM    DATA     BYTE      SFRPRT4PS
      000000C9H   SFRSYM    DATA     BYTE      SFRPRT5PS
      000000D9H   SFRSYM    DATA     BYTE      SFRPRT6PS
      000000EAH   SFRSYM    DATA     BYTE      MXAX
      000000F0H   SFRSYM    DATA     BYTE      B
      000000E0H   SFRSYM    DATA     BYTE      ACC
      000000D0H   SFRSYM    DATA     BIT       P
      000000D0H.3 SFRSYM    DATA     BIT       RS0
      000000D0H.4 SFRSYM    DATA     BIT       RS1
      00000083H   SFRSYM    DATA     BYTE      DPH
      000000E8H   SFRSYM    DATA     BYTE      SFRPRT12DR
      00000082H   SFRSYM    DATA     BYTE      DPL
      000000F8H   SFRSYM    DATA     BYTE      SFRPRT15DR
      00000086H   SFRSYM    DATA     BYTE      DPS
      000000E9H   SFRSYM    DATA     BYTE      SFRPRT12PS
      00000093H   SFRSYM    DATA     BYTE      DPX
      000000F9H   SFRSYM    DATA     BYTE      SFRPRT15PS
      000000D0H.5 SFRSYM    DATA     BIT       F0
      000000D0H.1 SFRSYM    DATA     BIT       F1
      0000008AH   SFRSYM    DATA     BYTE      SFRPRT0SEL
      000000D0H   SFRSYM    DATA     BYTE      PSW
      000000A2H   SFRSYM    DATA     BYTE      SFRPRT1SEL
      0000009AH   SFRSYM    DATA     BYTE      SFRPRT2SEL
      000000B2H   SFRSYM    DATA     BYTE      SFRPRT3SEL
      000000C2H   SFRSYM    DATA     BYTE      SFRPRT4SEL

      01009F96H   BLOCK     CODE     ---       LVL=0
      01009F96H   LINE      CODE     ---       #37
      01009F96H   LINE      CODE     ---       #38
      01009F96H   LINE      CODE     ---       #39
      01009F9BH   LINE      CODE     ---       #40
      ---         BLOCKEND  ---      ---       LVL=0
      00000007H   SYMBOL    DATA     BYTE      interruptState
      00000007H   SYMBOL    DATA     BYTE      interruptState
      00000007H   SYMBOL    DATA     BYTE      mask

      ---         MODULE    ---      ---       DMA_DMA
      0200164EH   PUBLIC    XDATA    BYTE      DMA_DmaHandle
      02000002H   PUBLIC    XDATA    BYTE      ?_DMA_DmaInitialize?BYTE
      0100949BH   PUBLIC    CODE     ---       _DMA_DmaInitialize
      000000CAH   SFRSYM    DATA     BYTE      SFRPRT5SEL
      000000DAH   SFRSYM    DATA     BYTE      SFRPRT6SEL
      000000D0H.6 SFRSYM    DATA     BIT       AC
      000000A8H.7 SFRSYM    DATA     BIT       EA
      000000A8H   SFRSYM    DATA     BYTE      IE
      00000085H   SFRSYM    DATA     BYTE      DPH1
      00000084H   SFRSYM    DATA     BYTE      DPL1
      000000D0H.7 SFRSYM    DATA     BIT       CY
      000000A0H   SFRSYM    DATA     BYTE      P2AX
      00000095H   SFRSYM    DATA     BYTE      DPX1
      00000081H   SFRSYM    DATA     BYTE      SP
      000000D0H.2 SFRSYM    DATA     BIT       OV
      00000080H   SFRSYM    DATA     BYTE      SFRPRT0DR
      00000090H   SFRSYM    DATA     BYTE      SFRPRT1DR
      000000F2H   SFRSYM    DATA     BYTE      SFRPRT12SEL
      00000098H   SFRSYM    DATA     BYTE      SFRPRT2DR
      000000B0H   SFRSYM    DATA     BYTE      SFRPRT3DR
      000000C0H   SFRSYM    DATA     BYTE      SFRPRT4DR
LX51 LINKER/LOCATER V4.64.0.0                                                         11/29/2018  15:53:27  PAGE 84


      000000FAH   SFRSYM    DATA     BYTE      SFRPRT15SEL
      000000C8H   SFRSYM    DATA     BYTE      SFRPRT5DR
      000000D8H   SFRSYM    DATA     BYTE      SFRPRT6DR
      00000089H   SFRSYM    DATA     BYTE      SFRPRT0PS
      00000091H   SFRSYM    DATA     BYTE      SFRPRT1PS
      00000099H   SFRSYM    DATA     BYTE      SFRPRT2PS
      000000B1H   SFRSYM    DATA     BYTE      SFRPRT3PS
      000000C1H   SFRSYM    DATA     BYTE      SFRPRT4PS
      000000C9H   SFRSYM    DATA     BYTE      SFRPRT5PS
      000000D9H   SFRSYM    DATA     BYTE      SFRPRT6PS
      000000EAH   SFRSYM    DATA     BYTE      MXAX
      000000F0H   SFRSYM    DATA     BYTE      B
      000000E0H   SFRSYM    DATA     BYTE      ACC
      000000D0H   SFRSYM    DATA     BIT       P
      000000D0H.3 SFRSYM    DATA     BIT       RS0
      000000D0H.4 SFRSYM    DATA     BIT       RS1
      00000083H   SFRSYM    DATA     BYTE      DPH
      000000E8H   SFRSYM    DATA     BYTE      SFRPRT12DR
      00000082H   SFRSYM    DATA     BYTE      DPL
      000000F8H   SFRSYM    DATA     BYTE      SFRPRT15DR
      00000086H   SFRSYM    DATA     BYTE      DPS
      000000E9H   SFRSYM    DATA     BYTE      SFRPRT12PS
      00000093H   SFRSYM    DATA     BYTE      DPX
      000000F9H   SFRSYM    DATA     BYTE      SFRPRT15PS
      000000D0H.5 SFRSYM    DATA     BIT       F0
      000000D0H.1 SFRSYM    DATA     BIT       F1
      0000008AH   SFRSYM    DATA     BYTE      SFRPRT0SEL
      000000D0H   SFRSYM    DATA     BYTE      PSW
      000000A2H   SFRSYM    DATA     BYTE      SFRPRT1SEL
      0000009AH   SFRSYM    DATA     BYTE      SFRPRT2SEL
      000000B2H   SFRSYM    DATA     BYTE      SFRPRT3SEL
      000000C2H   SFRSYM    DATA     BYTE      SFRPRT4SEL

      0100949BH   BLOCK     CODE     ---       LVL=0
      00000007H   SYMBOL    DATA     BYTE      BurstCount
      00000006H   SYMBOL    DATA     BYTE      ReqestPerBurst
      02000004H   SYMBOL    XDATA    WORD      UpperSrcAddress
      02000006H   SYMBOL    XDATA    WORD      UpperDestAddress
      0100949BH   LINE      CODE     ---       #97
      010094A5H   LINE      CODE     ---       #98
      010094A5H   LINE      CODE     ---       #101
      010094ABH   LINE      CODE     ---       #109
      010094BFH   LINE      CODE     ---       #112
      010094D5H   LINE      CODE     ---       #115
      010094DFH   LINE      CODE     ---       #117
      010094E4H   LINE      CODE     ---       #118
      ---         BLOCKEND  ---      ---       LVL=0

      ---         MODULE    ---      ---       ADC_SOC
      01009F9CH   PUBLIC    CODE     ---       _ADC_SOC_Write

      01009F9CH   BLOCK     CODE     ---       LVL=0
      00000007H   SYMBOL    DATA     BYTE      control
      01009F9CH   LINE      CODE     ---       #37
      01009F9CH   LINE      CODE     ---       #38
      01009F9CH   LINE      CODE     ---       #39
      01009FA1H   LINE      CODE     ---       #40
      ---         BLOCKEND  ---      ---       LVL=0

      ---         MODULE    ---      ---       CYDMAC
      01008FA3H   PUBLIC    CODE     ---       _CyDmaTdSetAddress
      02000002H   PUBLIC    XDATA    BYTE      ?_CyDmaTdSetConfiguration?BYTE
      01008D26H   PUBLIC    CODE     ---       _CyDmaTdSetConfiguration
      0100963BH   PUBLIC    CODE     ---       CyDmaTdAllocate
      02000008H   PUBLIC    XDATA    BYTE      ?_CyDmaChSetConfiguration?BYTE
LX51 LINKER/LOCATER V4.64.0.0                                                         11/29/2018  15:53:27  PAGE 85


      01008EB2H   PUBLIC    CODE     ---       _CyDmaChSetConfiguration
      01009BA6H   PUBLIC    CODE     ---       _CyDmaChSetInitialTd
      01008F2BH   PUBLIC    CODE     ---       _CyDmaChSetExtendedAddress
      010095FBH   PUBLIC    CODE     ---       _CyDmaChPriority
      01009450H   PUBLIC    CODE     ---       _CyDmaChEnable
      01009772H   PUBLIC    CODE     ---       CyDmacConfigure
      000000CAH   SFRSYM    DATA     BYTE      SFRPRT5SEL
      000000DAH   SFRSYM    DATA     BYTE      SFRPRT6SEL
      000000D0H.6 SFRSYM    DATA     BIT       AC
      000000A8H.7 SFRSYM    DATA     BIT       EA
      000000A8H   SFRSYM    DATA     BYTE      IE
      00000085H   SFRSYM    DATA     BYTE      DPH1
      00000084H   SFRSYM    DATA     BYTE      DPL1
      000000D0H.7 SFRSYM    DATA     BIT       CY
      000000A0H   SFRSYM    DATA     BYTE      P2AX
      00000095H   SFRSYM    DATA     BYTE      DPX1
      00000081H   SFRSYM    DATA     BYTE      SP
      000000D0H.2 SFRSYM    DATA     BIT       OV
      00000080H   SFRSYM    DATA     BYTE      SFRPRT0DR
      00000090H   SFRSYM    DATA     BYTE      SFRPRT1DR
      000000F2H   SFRSYM    DATA     BYTE      SFRPRT12SEL
      00000098H   SFRSYM    DATA     BYTE      SFRPRT2DR
      000000B0H   SFRSYM    DATA     BYTE      SFRPRT3DR
      000000C0H   SFRSYM    DATA     BYTE      SFRPRT4DR
      000000FAH   SFRSYM    DATA     BYTE      SFRPRT15SEL
      000000C8H   SFRSYM    DATA     BYTE      SFRPRT5DR
      000000D8H   SFRSYM    DATA     BYTE      SFRPRT6DR
      00000089H   SFRSYM    DATA     BYTE      SFRPRT0PS
      00000091H   SFRSYM    DATA     BYTE      SFRPRT1PS
      00000099H   SFRSYM    DATA     BYTE      SFRPRT2PS
      000000B1H   SFRSYM    DATA     BYTE      SFRPRT3PS
      000000C1H   SFRSYM    DATA     BYTE      SFRPRT4PS
      000000C9H   SFRSYM    DATA     BYTE      SFRPRT5PS
      000000D9H   SFRSYM    DATA     BYTE      SFRPRT6PS
      000000EAH   SFRSYM    DATA     BYTE      MXAX
      000000F0H   SFRSYM    DATA     BYTE      B
      000000E0H   SFRSYM    DATA     BYTE      ACC
      000000D0H   SFRSYM    DATA     BIT       P
      000000D0H.3 SFRSYM    DATA     BIT       RS0
      000000D0H.4 SFRSYM    DATA     BIT       RS1
      00000083H   SFRSYM    DATA     BYTE      DPH
      000000E8H   SFRSYM    DATA     BYTE      SFRPRT12DR
      00000082H   SFRSYM    DATA     BYTE      DPL
      000000F8H   SFRSYM    DATA     BYTE      SFRPRT15DR
      00000086H   SFRSYM    DATA     BYTE      DPS
      000000E9H   SFRSYM    DATA     BYTE      SFRPRT12PS
      00000093H   SFRSYM    DATA     BYTE      DPX
      000000F9H   SFRSYM    DATA     BYTE      SFRPRT15PS
      000000D0H.5 SFRSYM    DATA     BIT       F0
      000000D0H.1 SFRSYM    DATA     BIT       F1
      0000008AH   SFRSYM    DATA     BYTE      SFRPRT0SEL
      000000D0H   SFRSYM    DATA     BYTE      PSW
      000000A2H   SFRSYM    DATA     BYTE      SFRPRT1SEL
      0000009AH   SFRSYM    DATA     BYTE      SFRPRT2SEL
      000000B2H   SFRSYM    DATA     BYTE      SFRPRT3SEL
      000000C2H   SFRSYM    DATA     BYTE      SFRPRT4SEL
      02001639H   SYMBOL    XDATA    DWORD     CyDmaChannels
      0200163DH   SYMBOL    XDATA    BYTE      CyDmaTdFreeIndex
      0200163EH   SYMBOL    XDATA    BYTE      CyDmaTdCurrentNumber

      01009772H   BLOCK     CODE     ---       LVL=0
      01009772H   BLOCK     CODE     NEAR LAB  LVL=1
      00000007H   SYMBOL    DATA     BYTE      dmaIndex
      ---         BLOCKEND  ---      ---       LVL=1
      01009772H   LINE      CODE     ---       #61
LX51 LINKER/LOCATER V4.64.0.0                                                         11/29/2018  15:53:27  PAGE 86


      01009772H   LINE      CODE     ---       #62
      01009772H   LINE      CODE     ---       #66
      01009778H   LINE      CODE     ---       #67
      0100977BH   LINE      CODE     ---       #70
      01009780H   LINE      CODE     ---       #71
      01009780H   LINE      CODE     ---       #72
      01009793H   LINE      CODE     ---       #73
      01009796H   LINE      CODE     ---       #76
      010097A7H   LINE      CODE     ---       #77
      ---         BLOCKEND  ---      ---       LVL=0
      00000007H   SYMBOL    DATA     BYTE      error

      01009450H   BLOCK     CODE     ---       LVL=0
      00000007H   SYMBOL    DATA     BYTE      chHandle
      00000005H   SYMBOL    DATA     BYTE      preserveTds
      01009450H   BLOCK     CODE     NEAR LAB  LVL=1
      00000006H   SYMBOL    DATA     BYTE      status
      ---         BLOCKEND  ---      ---       LVL=1
      01009450H   LINE      CODE     ---       #304
      01009450H   LINE      CODE     ---       #305
      01009450H   LINE      CODE     ---       #306
      01009452H   LINE      CODE     ---       #308
      01009458H   LINE      CODE     ---       #309
      01009458H   LINE      CODE     ---       #310
      0100945BH   LINE      CODE     ---       #311
      0100945BH   LINE      CODE     ---       #315
      0100946EH   LINE      CODE     ---       #316
      01009470H   LINE      CODE     ---       #318
      01009470H   LINE      CODE     ---       #320
      01009483H   LINE      CODE     ---       #321
      01009483H   LINE      CODE     ---       #324
      01009496H   LINE      CODE     ---       #326
      01009498H   LINE      CODE     ---       #327
      01009498H   LINE      CODE     ---       #329
      0100949AH   LINE      CODE     ---       #330
      ---         BLOCKEND  ---      ---       LVL=0
      00000007H   SYMBOL    DATA     BYTE      chHandle
      00000006H   SYMBOL    DATA     BYTE      status
      00000007H   SYMBOL    DATA     BYTE      chHandle
      00000006H   SYMBOL    DATA     BYTE      status

      010095FBH   BLOCK     CODE     ---       LVL=0
      00000004H   SYMBOL    DATA     BYTE      chHandle
      00000005H   SYMBOL    DATA     BYTE      priority
      010095FDH   BLOCK     CODE     NEAR LAB  LVL=1
      00000002H   SYMBOL    DATA     BYTE      value
      00000003H   SYMBOL    DATA     BYTE      status
      ---         BLOCKEND  ---      ---       LVL=1
      010095FBH   LINE      CODE     ---       #429
      010095FDH   LINE      CODE     ---       #430
      010095FDH   LINE      CODE     ---       #432
      010095FFH   LINE      CODE     ---       #434
      01009605H   LINE      CODE     ---       #435
      01009605H   LINE      CODE     ---       #436
      01009618H   LINE      CODE     ---       #438
      01009636H   LINE      CODE     ---       #440
      01009638H   LINE      CODE     ---       #441
      01009638H   LINE      CODE     ---       #443
      0100963AH   LINE      CODE     ---       #444
      ---         BLOCKEND  ---      ---       LVL=0

      01008F2BH   BLOCK     CODE     ---       LVL=0
      02000008H   SYMBOL    XDATA    BYTE      chHandle
      02000009H   SYMBOL    XDATA    WORD      source
      0200000BH   SYMBOL    XDATA    WORD      destination
LX51 LINKER/LOCATER V4.64.0.0                                                         11/29/2018  15:53:27  PAGE 87


      01008F3EH   BLOCK     CODE     NEAR LAB  LVL=1
      0200000DH   SYMBOL    XDATA    BYTE      status
      0200000EH   SYMBOL    XDATA    ---       convert
      ---         BLOCKEND  ---      ---       LVL=1
      01008F2BH   LINE      CODE     ---       #470
      01008F3EH   LINE      CODE     ---       #472
      01008F3EH   LINE      CODE     ---       #473
      01008F44H   LINE      CODE     ---       #492
      01008F4AH   LINE      CODE     ---       #493
      01008F4AH   LINE      CODE     ---       #495
      01008F61H   LINE      CODE     ---       #496
      01008F71H   LINE      CODE     ---       #499
      01008F88H   LINE      CODE     ---       #500
      01008F98H   LINE      CODE     ---       #501
      01008F9DH   LINE      CODE     ---       #502
      01008F9DH   LINE      CODE     ---       #504
      01008FA2H   LINE      CODE     ---       #505
      ---         BLOCKEND  ---      ---       LVL=0

      01009BA6H   BLOCK     CODE     ---       LVL=0
      00000007H   SYMBOL    DATA     BYTE      chHandle
      00000005H   SYMBOL    DATA     BYTE      startTd
      01009BA6H   BLOCK     CODE     NEAR LAB  LVL=1
      00000006H   SYMBOL    DATA     BYTE      status
      ---         BLOCKEND  ---      ---       LVL=1
      01009BA6H   LINE      CODE     ---       #529
      01009BA6H   LINE      CODE     ---       #530
      01009BA6H   LINE      CODE     ---       #531
      01009BA8H   LINE      CODE     ---       #533
      01009BAEH   LINE      CODE     ---       #534
      01009BAEH   LINE      CODE     ---       #535
      01009BBFH   LINE      CODE     ---       #536
      01009BC1H   LINE      CODE     ---       #537
      01009BC1H   LINE      CODE     ---       #539
      01009BC3H   LINE      CODE     ---       #540
      ---         BLOCKEND  ---      ---       LVL=0
      00000007H   SYMBOL    DATA     BYTE      chHandle
      00000005H   SYMBOL    DATA     BYTE      request
      00000006H   SYMBOL    DATA     BYTE      status
      00000007H   SYMBOL    DATA     BYTE      chHandle
      00000003H   SYMBOL    DATA     BYTE      status
      00000007H   SYMBOL    DATA     BYTE      chHandle
      00000006H   SYMBOL    DATA     BYTE      status

      01008EB2H   BLOCK     CODE     ---       LVL=0
      00000004H   SYMBOL    DATA     BYTE      chHandle
      00000005H   SYMBOL    DATA     BYTE      burstCount
      00000003H   SYMBOL    DATA     BYTE      requestPerBurst
      0200000BH   SYMBOL    XDATA    BYTE      tdDone0
      0200000CH   SYMBOL    XDATA    BYTE      tdDone1
      0200000DH   SYMBOL    XDATA    BYTE      tdStop
      01008EB4H   BLOCK     CODE     NEAR LAB  LVL=1
      00000002H   SYMBOL    DATA     BYTE      status
      ---         BLOCKEND  ---      ---       LVL=1
      01008EB2H   LINE      CODE     ---       #716
      01008EB4H   LINE      CODE     ---       #718
      01008EB4H   LINE      CODE     ---       #719
      01008EB6H   LINE      CODE     ---       #721
      01008EBCH   LINE      CODE     ---       #722
      01008EBCH   LINE      CODE     ---       #723
      01008EDAH   LINE      CODE     ---       #724
      01008EFEH   LINE      CODE     ---       #725
      01008F16H   LINE      CODE     ---       #726
      01008F27H   LINE      CODE     ---       #728
      01008F28H   LINE      CODE     ---       #729
LX51 LINKER/LOCATER V4.64.0.0                                                         11/29/2018  15:53:27  PAGE 88


      01008F28H   LINE      CODE     ---       #731
      01008F2AH   LINE      CODE     ---       #732
      ---         BLOCKEND  ---      ---       LVL=0

      0100963BH   BLOCK     CODE     ---       LVL=0
      0100963BH   BLOCK     CODE     NEAR LAB  LVL=1
      00000007H   SYMBOL    DATA     BYTE      interruptState
      02000002H   SYMBOL    XDATA    BYTE      element
      ---         BLOCKEND  ---      ---       LVL=1
      0100963BH   LINE      CODE     ---       #752
      0100963BH   LINE      CODE     ---       #753
      0100963BH   LINE      CODE     ---       #755
      01009641H   LINE      CODE     ---       #758
      01009644H   LINE      CODE     ---       #760
      0100964DH   LINE      CODE     ---       #761
      0100964DH   LINE      CODE     ---       #763
      01009656H   LINE      CODE     ---       #766
      0100965CH   LINE      CODE     ---       #769
      01009670H   LINE      CODE     ---       #770
      01009670H   LINE      CODE     ---       #773
      01009673H   LINE      CODE     ---       #775
      01009678H   LINE      CODE     ---       #776
      ---         BLOCKEND  ---      ---       LVL=0

      01008D26H   BLOCK     CODE     ---       LVL=0
      02000002H   SYMBOL    XDATA    BYTE      tdHandle
      02000003H   SYMBOL    XDATA    WORD      transferCount
      02000005H   SYMBOL    XDATA    BYTE      nextTd
      02000006H   SYMBOL    XDATA    BYTE      configuration
      01008D36H   BLOCK     CODE     NEAR LAB  LVL=1
      02000007H   SYMBOL    XDATA    BYTE      status
      01008D4BH   BLOCK     CODE     NEAR LAB  LVL=2
      02000008H   SYMBOL    XDATA    ---       convert
      ---         BLOCKEND  ---      ---       LVL=2
      ---         BLOCKEND  ---      ---       LVL=1
      01008D26H   LINE      CODE     ---       #891
      01008D36H   LINE      CODE     ---       #893
      01008D36H   LINE      CODE     ---       #894
      01008D3CH   LINE      CODE     ---       #896
      01008D4BH   LINE      CODE     ---       #897
      01008D4BH   LINE      CODE     ---       #899
      01008D62H   LINE      CODE     ---       #900
      01008D72H   LINE      CODE     ---       #903
      01008D8CH   LINE      CODE     ---       #906
      01008DA2H   LINE      CODE     ---       #908
      01008DA7H   LINE      CODE     ---       #909
      01008DA7H   LINE      CODE     ---       #911
      01008DACH   LINE      CODE     ---       #912
      ---         BLOCKEND  ---      ---       LVL=0

      01008FA3H   BLOCK     CODE     ---       LVL=0
      02000002H   SYMBOL    XDATA    BYTE      tdHandle
      02000003H   SYMBOL    XDATA    WORD      source
      02000005H   SYMBOL    XDATA    WORD      destination
      01008FB6H   BLOCK     CODE     NEAR LAB  LVL=1
      02000007H   SYMBOL    XDATA    BYTE      status
      02000008H   SYMBOL    XDATA    ---       convert
      ---         BLOCKEND  ---      ---       LVL=1
      01008FA3H   LINE      CODE     ---       #1010
      01008FB6H   LINE      CODE     ---       #1011
      01008FB6H   LINE      CODE     ---       #1012
      01008FBCH   LINE      CODE     ---       #1015
      01008FC2H   LINE      CODE     ---       #1016
      01008FC2H   LINE      CODE     ---       #1018
      01008FD9H   LINE      CODE     ---       #1019
LX51 LINKER/LOCATER V4.64.0.0                                                         11/29/2018  15:53:27  PAGE 89


      01008FE9H   LINE      CODE     ---       #1022
      01009000H   LINE      CODE     ---       #1023
      01009010H   LINE      CODE     ---       #1025
      01009015H   LINE      CODE     ---       #1026
      01009015H   LINE      CODE     ---       #1028
      0100901AH   LINE      CODE     ---       #1029
      ---         BLOCKEND  ---      ---       LVL=0
      00000007H   SYMBOL    DATA     BYTE      chHandle
      00000005H   SYMBOL    DATA     BYTE      enableRR
      00000006H   SYMBOL    DATA     BYTE      status

      ---         MODULE    ---      ---       CYFLASH
      02001642H   PUBLIC    XDATA    ---       dieTemperature
      010098D9H   PUBLIC    CODE     ---       CyEEPROM_Start
      01009C5EH   PUBLIC    CODE     ---       CySetTemp
      000000CAH   SFRSYM    DATA     BYTE      SFRPRT5SEL
      000000DAH   SFRSYM    DATA     BYTE      SFRPRT6SEL
      000000D0H.6 SFRSYM    DATA     BIT       AC
      000000A8H.7 SFRSYM    DATA     BIT       EA
      000000A8H   SFRSYM    DATA     BYTE      IE
      00000085H   SFRSYM    DATA     BYTE      DPH1
      00000084H   SFRSYM    DATA     BYTE      DPL1
      000000D0H.7 SFRSYM    DATA     BIT       CY
      000000A0H   SFRSYM    DATA     BYTE      P2AX
      00000095H   SFRSYM    DATA     BYTE      DPX1
      00000081H   SFRSYM    DATA     BYTE      SP
      000000D0H.2 SFRSYM    DATA     BIT       OV
      00000080H   SFRSYM    DATA     BYTE      SFRPRT0DR
      00000090H   SFRSYM    DATA     BYTE      SFRPRT1DR
      000000F2H   SFRSYM    DATA     BYTE      SFRPRT12SEL
      00000098H   SFRSYM    DATA     BYTE      SFRPRT2DR
      000000B0H   SFRSYM    DATA     BYTE      SFRPRT3DR
      000000C0H   SFRSYM    DATA     BYTE      SFRPRT4DR
      000000FAH   SFRSYM    DATA     BYTE      SFRPRT15SEL
      000000C8H   SFRSYM    DATA     BYTE      SFRPRT5DR
      000000D8H   SFRSYM    DATA     BYTE      SFRPRT6DR
      00000089H   SFRSYM    DATA     BYTE      SFRPRT0PS
      00000091H   SFRSYM    DATA     BYTE      SFRPRT1PS
      00000099H   SFRSYM    DATA     BYTE      SFRPRT2PS
      000000B1H   SFRSYM    DATA     BYTE      SFRPRT3PS
      000000C1H   SFRSYM    DATA     BYTE      SFRPRT4PS
      000000C9H   SFRSYM    DATA     BYTE      SFRPRT5PS
      000000D9H   SFRSYM    DATA     BYTE      SFRPRT6PS
      000000EAH   SFRSYM    DATA     BYTE      MXAX
      000000F0H   SFRSYM    DATA     BYTE      B
      000000E0H   SFRSYM    DATA     BYTE      ACC
      000000D0H   SFRSYM    DATA     BIT       P
      000000D0H.3 SFRSYM    DATA     BIT       RS0
      000000D0H.4 SFRSYM    DATA     BIT       RS1
      00000083H   SFRSYM    DATA     BYTE      DPH
      000000E8H   SFRSYM    DATA     BYTE      SFRPRT12DR
      00000082H   SFRSYM    DATA     BYTE      DPL
      000000F8H   SFRSYM    DATA     BYTE      SFRPRT15DR
      00000086H   SFRSYM    DATA     BYTE      DPS
      000000E9H   SFRSYM    DATA     BYTE      SFRPRT12PS
      00000093H   SFRSYM    DATA     BYTE      DPX
      000000F9H   SFRSYM    DATA     BYTE      SFRPRT15PS
      000000D0H.5 SFRSYM    DATA     BIT       F0
      000000D0H.1 SFRSYM    DATA     BIT       F1
      0000008AH   SFRSYM    DATA     BYTE      SFRPRT0SEL
      000000D0H   SFRSYM    DATA     BYTE      PSW
      000000A2H   SFRSYM    DATA     BYTE      SFRPRT1SEL
      0000009AH   SFRSYM    DATA     BYTE      SFRPRT2SEL
      000000B2H   SFRSYM    DATA     BYTE      SFRPRT3SEL
      000000C2H   SFRSYM    DATA     BYTE      SFRPRT4SEL
LX51 LINKER/LOCATER V4.64.0.0                                                         11/29/2018  15:53:27  PAGE 90


      01009364H   SYMBOL    CODE     ---       CyFlashGetSpcAlgorithm
      01009212H   SYMBOL    CODE     ---       CySetTempInt
      0200163FH   SYMBOL    XDATA    ---       rowBuffer
      00000007H   SYMBOL    DATA     BYTE      interruptState
      00000007H   SYMBOL    DATA     BYTE      interruptState

      01009212H   BLOCK     CODE     ---       LVL=0
      01009212H   BLOCK     CODE     NEAR LAB  LVL=1
      0200000AH   SYMBOL    XDATA    BYTE      status
      ---         BLOCKEND  ---      ---       LVL=1
      01009212H   LINE      CODE     ---       #155
      01009212H   LINE      CODE     ---       #156
      01009212H   LINE      CODE     ---       #160
      01009215H   LINE      CODE     ---       #163
      0100921BH   LINE      CODE     ---       #165
      01009221H   LINE      CODE     ---       #166
      01009221H   LINE      CODE     ---       #168
      0100922BH   LINE      CODE     ---       #169
      0100922BH   LINE      CODE     ---       #171
      0100922BH   LINE      CODE     ---       #172
      0100923AH   LINE      CODE     ---       #173
      0100923AH   LINE      CODE     ---       #174
      0100923FH   LINE      CODE     ---       #176
      01009247H   LINE      CODE     ---       #177
      01009247H   LINE      CODE     ---       #179
      0100924DH   LINE      CODE     ---       #180
      0100924FH   LINE      CODE     ---       #181
      0100924FH   LINE      CODE     ---       #182
      0100924FH   LINE      CODE     ---       #184
      01009257H   LINE      CODE     ---       #185
      01009257H   LINE      CODE     ---       #187
      0100925AH   LINE      CODE     ---       #188
      0100925CH   LINE      CODE     ---       #190
      0100925CH   LINE      CODE     ---       #191
      01009262H   LINE      CODE     ---       #192
      01009262H   LINE      CODE     ---       #194
      01009267H   LINE      CODE     ---       #195
      ---         BLOCKEND  ---      ---       LVL=0

      01009364H   BLOCK     CODE     ---       LVL=0
      01009364H   BLOCK     CODE     NEAR LAB  LVL=1
      0200000AH   SYMBOL    XDATA    BYTE      status
      ---         BLOCKEND  ---      ---       LVL=1
      01009364H   LINE      CODE     ---       #215
      01009364H   LINE      CODE     ---       #216
      01009364H   LINE      CODE     ---       #220
      01009367H   LINE      CODE     ---       #222
      0100936DH   LINE      CODE     ---       #223
      0100936DH   LINE      CODE     ---       #224
      01009375H   LINE      CODE     ---       #226
      01009379H   LINE      CODE     ---       #227
      01009379H   LINE      CODE     ---       #228
      01009381H   LINE      CODE     ---       #229
      01009381H   LINE      CODE     ---       #231
      01009387H   LINE      CODE     ---       #232
      01009389H   LINE      CODE     ---       #234
      0100939FH   LINE      CODE     ---       #235
      0100939FH   LINE      CODE     ---       #236
      010093A3H   LINE      CODE     ---       #237
      010093A3H   LINE      CODE     ---       #238
      010093A3H   LINE      CODE     ---       #239
      010093A6H   LINE      CODE     ---       #240
      010093A8H   LINE      CODE     ---       #242
      010093A8H   LINE      CODE     ---       #243
      010093AEH   LINE      CODE     ---       #244
LX51 LINKER/LOCATER V4.64.0.0                                                         11/29/2018  15:53:27  PAGE 91


      010093AEH   LINE      CODE     ---       #246
      010093B3H   LINE      CODE     ---       #247
      ---         BLOCKEND  ---      ---       LVL=0

      01009C5EH   BLOCK     CODE     ---       LVL=0
      01009C5EH   BLOCK     CODE     NEAR LAB  LVL=1
      02000009H   SYMBOL    XDATA    BYTE      status
      ---         BLOCKEND  ---      ---       LVL=1
      01009C5EH   LINE      CODE     ---       #273
      01009C5EH   LINE      CODE     ---       #274
      01009C5EH   LINE      CODE     ---       #275
      01009C66H   LINE      CODE     ---       #277
      01009C68H   LINE      CODE     ---       #278
      01009C68H   LINE      CODE     ---       #279
      01009C70H   LINE      CODE     ---       #280
      01009C70H   LINE      CODE     ---       #282
      01009C75H   LINE      CODE     ---       #283
      ---         BLOCKEND  ---      ---       LVL=0
      00000004H   SYMBOL    DATA     WORD      rowAddress
      00000001H   SYMBOL    DATA     ---       rowData
      00000007H   SYMBOL    DATA     BYTE      status
      00000007H   SYMBOL    DATA     BYTE      interruptState

      010098D9H   BLOCK     CODE     ---       LVL=0
      010098D9H   BLOCK     CODE     NEAR LAB  LVL=1
      00000007H   SYMBOL    DATA     BYTE      interruptState
      ---         BLOCKEND  ---      ---       LVL=1
      010098D9H   LINE      CODE     ---       #636
      010098D9H   LINE      CODE     ---       #637
      010098D9H   LINE      CODE     ---       #640
      010098DCH   LINE      CODE     ---       #647
      010098E3H   LINE      CODE     ---       #648
      010098EAH   LINE      CODE     ---       #661
      010098F0H   LINE      CODE     ---       #668
      010098F7H   LINE      CODE     ---       #669
      010098FEH   LINE      CODE     ---       #671
      01009906H   LINE      CODE     ---       #672
      01009906H   LINE      CODE     ---       #674
      01009906H   LINE      CODE     ---       #676
      01009909H   LINE      CODE     ---       #677
      ---         BLOCKEND  ---      ---       LVL=0
      00000007H   SYMBOL    DATA     BYTE      interruptState

      ---         MODULE    ---      ---       CYLIB
      02001635H   PUBLIC    XDATA    DWORD     cydelay_32k_ms
      02001634H   PUBLIC    XDATA    BYTE      CyResetStatus
      02001630H   PUBLIC    XDATA    DWORD     cydelay_freq_hz
      0200162FH   PUBLIC    XDATA    BYTE      cydelay_freq_mhz
      0200162BH   PUBLIC    XDATA    DWORD     cydelay_freq_khz
      01009C13H   PUBLIC    CODE     ---       _CyIntSetPriority
      010092BCH   PUBLIC    CODE     ---       _CyIntSetVector
      01008C9EH   PUBLIC    CODE     ---       _?CyDelay
      01009F39H   PUBLIC    CODE     ---       CySoftwareReset
      000000CAH   SFRSYM    DATA     BYTE      SFRPRT5SEL
      000000DAH   SFRSYM    DATA     BYTE      SFRPRT6SEL
      000000D0H.6 SFRSYM    DATA     BIT       AC
      000000A8H.7 SFRSYM    DATA     BIT       EA
      000000A8H   SFRSYM    DATA     BYTE      IE
      00000085H   SFRSYM    DATA     BYTE      DPH1
      00000084H   SFRSYM    DATA     BYTE      DPL1
      000000D0H.7 SFRSYM    DATA     BIT       CY
      000000A0H   SFRSYM    DATA     BYTE      P2AX
      00000095H   SFRSYM    DATA     BYTE      DPX1
      00000081H   SFRSYM    DATA     BYTE      SP
      000000D0H.2 SFRSYM    DATA     BIT       OV
LX51 LINKER/LOCATER V4.64.0.0                                                         11/29/2018  15:53:27  PAGE 92


      00000080H   SFRSYM    DATA     BYTE      SFRPRT0DR
      00000090H   SFRSYM    DATA     BYTE      SFRPRT1DR
      000000F2H   SFRSYM    DATA     BYTE      SFRPRT12SEL
      00000098H   SFRSYM    DATA     BYTE      SFRPRT2DR
      000000B0H   SFRSYM    DATA     BYTE      SFRPRT3DR
      000000C0H   SFRSYM    DATA     BYTE      SFRPRT4DR
      000000FAH   SFRSYM    DATA     BYTE      SFRPRT15SEL
      000000C8H   SFRSYM    DATA     BYTE      SFRPRT5DR
      000000D8H   SFRSYM    DATA     BYTE      SFRPRT6DR
      00000089H   SFRSYM    DATA     BYTE      SFRPRT0PS
      00000091H   SFRSYM    DATA     BYTE      SFRPRT1PS
      00000099H   SFRSYM    DATA     BYTE      SFRPRT2PS
      000000B1H   SFRSYM    DATA     BYTE      SFRPRT3PS
      000000C1H   SFRSYM    DATA     BYTE      SFRPRT4PS
      000000C9H   SFRSYM    DATA     BYTE      SFRPRT5PS
      000000D9H   SFRSYM    DATA     BYTE      SFRPRT6PS
      000000EAH   SFRSYM    DATA     BYTE      MXAX
      000000F0H   SFRSYM    DATA     BYTE      B
      000000E0H   SFRSYM    DATA     BYTE      ACC
      000000D0H   SFRSYM    DATA     BIT       P
      000000D0H.3 SFRSYM    DATA     BIT       RS0
      000000D0H.4 SFRSYM    DATA     BIT       RS1
      00000083H   SFRSYM    DATA     BYTE      DPH
      000000E8H   SFRSYM    DATA     BYTE      SFRPRT12DR
      00000082H   SFRSYM    DATA     BYTE      DPL
      000000F8H   SFRSYM    DATA     BYTE      SFRPRT15DR
      00000086H   SFRSYM    DATA     BYTE      DPS
      000000E9H   SFRSYM    DATA     BYTE      SFRPRT12PS
      00000093H   SFRSYM    DATA     BYTE      DPX
      000000F9H   SFRSYM    DATA     BYTE      SFRPRT15PS
      000000D0H.5 SFRSYM    DATA     BIT       F0
      000000D0H.1 SFRSYM    DATA     BIT       F1
      0000008AH   SFRSYM    DATA     BYTE      SFRPRT0SEL
      000000D0H   SFRSYM    DATA     BYTE      PSW
      000000A2H   SFRSYM    DATA     BYTE      SFRPRT1SEL
      0000009AH   SFRSYM    DATA     BYTE      SFRPRT2SEL
      000000B2H   SFRSYM    DATA     BYTE      SFRPRT3SEL
      000000C2H   SFRSYM    DATA     BYTE      SFRPRT4SEL
      00000007H   SYMBOL    DATA     BYTE      wait
      00000007H   SYMBOL    DATA     BYTE      pDiv
      00000005H   SYMBOL    DATA     BYTE      qDiv
      00000003H   SYMBOL    DATA     BYTE      current
      00000007H   SYMBOL    DATA     BYTE      source
      00000007H   SYMBOL    DATA     BYTE      wait
      00000007H   SYMBOL    DATA     BYTE      poweredOn
      00000006H   SYMBOL    DATA     BYTE      freq
      00000007H   SYMBOL    DATA     BYTE      source
      00000007H   SYMBOL    DATA     BYTE      source
      00000007H   SYMBOL    DATA     BYTE      divider
      00000006H   SYMBOL    DATA     WORD      divider
      00000005H   SYMBOL    DATA     BYTE      masterClkDiv
      00000006H   SYMBOL    DATA     WORD      busClkDiv
      00000001H   SYMBOL    DATA     BYTE      interruptState
      00000007H   SYMBOL    DATA     BYTE      divider
      00000007H   SYMBOL    DATA     BYTE      source
      00000007H   SYMBOL    DATA     BYTE      source
      00000007H   SYMBOL    DATA     BYTE      mode
      00000006H   SYMBOL    DATA     BYTE      state
      00000007H   SYMBOL    DATA     BYTE      mode
      00000007H   SYMBOL    DATA     BYTE      wait
      00000007H   SYMBOL    DATA     BYTE      setting
      00000007H   SYMBOL    DATA     BYTE      setting
      00000007H   SYMBOL    DATA     BYTE      setting
      00000000H   SYMBOL    XSTK     BYTE      reason

LX51 LINKER/LOCATER V4.64.0.0                                                         11/29/2018  15:53:27  PAGE 93


      01009F39H   BLOCK     CODE     ---       LVL=0
      01009F39H   LINE      CODE     ---       #1666
      01009F39H   LINE      CODE     ---       #1667
      01009F39H   LINE      CODE     ---       #1668
      01009F40H   LINE      CODE     ---       #1669
      ---         BLOCKEND  ---      ---       LVL=0

      01008C9EH   BLOCK     CODE     ---       LVL=0
      00000000H   SYMBOL    XSTK     DWORD     milliseconds
      01008C9EH   LINE      CODE     ---       #1692
      01008CA7H   LINE      CODE     ---       #1694
      01008CBDH   LINE      CODE     ---       #1695
      01008CBDH   LINE      CODE     ---       #1700
      01008CCEH   LINE      CODE     ---       #1701
      01008CF8H   LINE      CODE     ---       #1702
      01008CFAH   LINE      CODE     ---       #1704
      01008D1FH   LINE      CODE     ---       #1705
      ---         BLOCKEND  ---      ---       LVL=0
      00000000H   SYMBOL    XSTK     DWORD     freq
      00000007H   SYMBOL    DATA     BYTE      ticks
      00000005H   SYMBOL    DATA     BYTE      lpMode
      0200162AH   SYMBOL    XDATA    BYTE      interruptStatus
      00000005H   SYMBOL    DATA     BYTE      interruptState
      00000005H   SYMBOL    DATA     BYTE      interruptState
      00000003H   SYMBOL    DATA     BYTE      interruptState

      010092BCH   BLOCK     CODE     ---       LVL=0
      02000002H   SYMBOL    XDATA    BYTE      number
      02000003H   SYMBOL    XDATA    ---       address
      010092C9H   BLOCK     CODE     NEAR LAB  LVL=1
      02000005H   SYMBOL    XDATA    ---       oldIsr
      ---         BLOCKEND  ---      ---       LVL=1
      010092BCH   LINE      CODE     ---       #2641
      010092C9H   LINE      CODE     ---       #2642
      010092C9H   LINE      CODE     ---       #2648
      010092E7H   LINE      CODE     ---       #2652
      01009307H   LINE      CODE     ---       #2654
      0100930FH   LINE      CODE     ---       #2655
      ---         BLOCKEND  ---      ---       LVL=0
      00000007H   SYMBOL    DATA     BYTE      number

      01009C13H   BLOCK     CODE     ---       LVL=0
      00000004H   SYMBOL    DATA     BYTE      number
      00000005H   SYMBOL    DATA     BYTE      priority
      01009C13H   LINE      CODE     ---       #2696
      01009C15H   LINE      CODE     ---       #2697
      01009C15H   LINE      CODE     ---       #2702
      01009C2BH   LINE      CODE     ---       #2704
      ---         BLOCKEND  ---      ---       LVL=0
      00000007H   SYMBOL    DATA     BYTE      number
      00000007H   SYMBOL    DATA     BYTE      priority
      00000005H   SYMBOL    DATA     BYTE      number
      00000006H   SYMBOL    DATA     ---       stateReg

      ---         MODULE    ---      ---       SPI_IMU
      0200164AH   PUBLIC    XDATA    BYTE      SPI_IMU_initVar
      02001649H   PUBLIC    XDATA    BYTE      SPI_IMU_swStatusTx
      02001648H   PUBLIC    XDATA    BYTE      SPI_IMU_swStatusRx
      01009E0FH   PUBLIC    CODE     ---       SPI_IMU_ReadStatus
      01009B48H   PUBLIC    CODE     ---       SPI_IMU_ClearFIFO
      01009DBDH   PUBLIC    CODE     ---       SPI_IMU_ClearTxBuffer
      01009E00H   PUBLIC    CODE     ---       SPI_IMU_ClearRxBuffer
      01009FAEH   PUBLIC    CODE     ---       SPI_IMU_ReadRxData
      01009E81H   PUBLIC    CODE     ---       _SPI_IMU_WriteTxData
      01009FA8H   PUBLIC    CODE     ---       SPI_IMU_ReadRxStatus
LX51 LINKER/LOCATER V4.64.0.0                                                         11/29/2018  15:53:27  PAGE 94


      01009FA2H   PUBLIC    CODE     ---       SPI_IMU_ReadTxStatus
      01009FCBH   PUBLIC    CODE     ---       SPI_IMU_EnableRxInt
      01009FCAH   PUBLIC    CODE     ---       SPI_IMU_EnableTxInt
      01009D85H   PUBLIC    CODE     ---       SPI_IMU_Start
      01009A9EH   PUBLIC    CODE     ---       SPI_IMU_Enable
      01009C2CH   PUBLIC    CODE     ---       SPI_IMU_Init
      000000CAH   SFRSYM    DATA     BYTE      SFRPRT5SEL
      000000DAH   SFRSYM    DATA     BYTE      SFRPRT6SEL
      000000D0H.6 SFRSYM    DATA     BIT       AC
      000000A8H.7 SFRSYM    DATA     BIT       EA
      000000A8H   SFRSYM    DATA     BYTE      IE
      00000085H   SFRSYM    DATA     BYTE      DPH1
      00000084H   SFRSYM    DATA     BYTE      DPL1
      000000D0H.7 SFRSYM    DATA     BIT       CY
      000000A0H   SFRSYM    DATA     BYTE      P2AX
      00000095H   SFRSYM    DATA     BYTE      DPX1
      00000081H   SFRSYM    DATA     BYTE      SP
      000000D0H.2 SFRSYM    DATA     BIT       OV
      00000080H   SFRSYM    DATA     BYTE      SFRPRT0DR
      00000090H   SFRSYM    DATA     BYTE      SFRPRT1DR
      000000F2H   SFRSYM    DATA     BYTE      SFRPRT12SEL
      00000098H   SFRSYM    DATA     BYTE      SFRPRT2DR
      000000B0H   SFRSYM    DATA     BYTE      SFRPRT3DR
      000000C0H   SFRSYM    DATA     BYTE      SFRPRT4DR
      000000FAH   SFRSYM    DATA     BYTE      SFRPRT15SEL
      000000C8H   SFRSYM    DATA     BYTE      SFRPRT5DR
      000000D8H   SFRSYM    DATA     BYTE      SFRPRT6DR
      00000089H   SFRSYM    DATA     BYTE      SFRPRT0PS
      00000091H   SFRSYM    DATA     BYTE      SFRPRT1PS
      00000099H   SFRSYM    DATA     BYTE      SFRPRT2PS
      000000B1H   SFRSYM    DATA     BYTE      SFRPRT3PS
      000000C1H   SFRSYM    DATA     BYTE      SFRPRT4PS
      000000C9H   SFRSYM    DATA     BYTE      SFRPRT5PS
      000000D9H   SFRSYM    DATA     BYTE      SFRPRT6PS
      000000EAH   SFRSYM    DATA     BYTE      MXAX
      000000F0H   SFRSYM    DATA     BYTE      B
      000000E0H   SFRSYM    DATA     BYTE      ACC
      000000D0H   SFRSYM    DATA     BIT       P
      000000D0H.3 SFRSYM    DATA     BIT       RS0
      000000D0H.4 SFRSYM    DATA     BIT       RS1
      00000083H   SFRSYM    DATA     BYTE      DPH
      000000E8H   SFRSYM    DATA     BYTE      SFRPRT12DR
      00000082H   SFRSYM    DATA     BYTE      DPL
      000000F8H   SFRSYM    DATA     BYTE      SFRPRT15DR
      00000086H   SFRSYM    DATA     BYTE      DPS
      000000E9H   SFRSYM    DATA     BYTE      SFRPRT12PS
      00000093H   SFRSYM    DATA     BYTE      DPX
      000000F9H   SFRSYM    DATA     BYTE      SFRPRT15PS
      000000D0H.5 SFRSYM    DATA     BIT       F0
      000000D0H.1 SFRSYM    DATA     BIT       F1
      0000008AH   SFRSYM    DATA     BYTE      SFRPRT0SEL
      000000D0H   SFRSYM    DATA     BYTE      PSW
      000000A2H   SFRSYM    DATA     BYTE      SFRPRT1SEL
      0000009AH   SFRSYM    DATA     BYTE      SFRPRT2SEL
      000000B2H   SFRSYM    DATA     BYTE      SFRPRT3SEL
      000000C2H   SFRSYM    DATA     BYTE      SFRPRT4SEL

      01009C2CH   BLOCK     CODE     ---       LVL=0
      01009C2CH   LINE      CODE     ---       #63
      01009C2CH   LINE      CODE     ---       #64
      01009C2CH   LINE      CODE     ---       #66
      01009C32H   LINE      CODE     ---       #83
      01009C35H   LINE      CODE     ---       #97
      01009C38H   LINE      CODE     ---       #98
      01009C3BH   LINE      CODE     ---       #101
LX51 LINKER/LOCATER V4.64.0.0                                                         11/29/2018  15:53:27  PAGE 95


      01009C40H   LINE      CODE     ---       #102
      01009C44H   LINE      CODE     ---       #103
      ---         BLOCKEND  ---      ---       LVL=0

      01009A9EH   BLOCK     CODE     ---       LVL=0
      01009A9EH   BLOCK     CODE     NEAR LAB  LVL=1
      00000007H   SYMBOL    DATA     BYTE      enableInterrupts
      ---         BLOCKEND  ---      ---       LVL=1
      01009A9EH   LINE      CODE     ---       #120
      01009A9EH   LINE      CODE     ---       #121
      01009A9EH   LINE      CODE     ---       #124
      01009AA1H   LINE      CODE     ---       #125
      01009AA8H   LINE      CODE     ---       #126
      01009AAFH   LINE      CODE     ---       #127
      01009AB6H   LINE      CODE     ---       #128
      01009AB9H   LINE      CODE     ---       #131
      01009ABCH   LINE      CODE     ---       #134
      01009ABFH   LINE      CODE     ---       #135
      01009AC2H   LINE      CODE     ---       #136
      ---         BLOCKEND  ---      ---       LVL=0

      01009D85H   BLOCK     CODE     ---       LVL=0
      01009D85H   LINE      CODE     ---       #163
      01009D85H   LINE      CODE     ---       #164
      01009D85H   LINE      CODE     ---       #165
      01009D8BH   LINE      CODE     ---       #166
      01009D8BH   LINE      CODE     ---       #167
      01009D8EH   LINE      CODE     ---       #168
      01009D94H   LINE      CODE     ---       #169
      01009D94H   LINE      CODE     ---       #171
      01009D97H   LINE      CODE     ---       #172
      ---         BLOCKEND  ---      ---       LVL=0
      00000007H   SYMBOL    DATA     BYTE      enableInterrupts

      01009FCAH   BLOCK     CODE     ---       LVL=0
      01009FCAH   LINE      CODE     ---       #227
      01009FCAH   LINE      CODE     ---       #228
      01009FCAH   LINE      CODE     ---       #232
      ---         BLOCKEND  ---      ---       LVL=0

      01009FCBH   BLOCK     CODE     ---       LVL=0
      01009FCBH   LINE      CODE     ---       #252
      01009FCBH   LINE      CODE     ---       #253
      01009FCBH   LINE      CODE     ---       #257
      ---         BLOCKEND  ---      ---       LVL=0
      00000007H   SYMBOL    DATA     BYTE      intSrc
      00000007H   SYMBOL    DATA     BYTE      intSrc

      01009FA2H   BLOCK     CODE     ---       LVL=0
      01009FA2H   BLOCK     CODE     NEAR LAB  LVL=1
      00000007H   SYMBOL    DATA     BYTE      tmpStatus
      ---         BLOCKEND  ---      ---       LVL=1
      01009FA2H   LINE      CODE     ---       #386
      01009FA2H   LINE      CODE     ---       #387
      01009FA2H   LINE      CODE     ---       #401
      01009FA7H   LINE      CODE     ---       #405
      01009FA7H   LINE      CODE     ---       #406
      ---         BLOCKEND  ---      ---       LVL=0

      01009FA8H   BLOCK     CODE     ---       LVL=0
      01009FA8H   BLOCK     CODE     NEAR LAB  LVL=1
      00000007H   SYMBOL    DATA     BYTE      tmpStatus
      ---         BLOCKEND  ---      ---       LVL=1
      01009FA8H   LINE      CODE     ---       #437
      01009FA8H   LINE      CODE     ---       #438
LX51 LINKER/LOCATER V4.64.0.0                                                         11/29/2018  15:53:27  PAGE 96


      01009FA8H   LINE      CODE     ---       #452
      01009FADH   LINE      CODE     ---       #456
      01009FADH   LINE      CODE     ---       #457
      ---         BLOCKEND  ---      ---       LVL=0

      01009E81H   BLOCK     CODE     ---       LVL=0
      00000007H   SYMBOL    DATA     BYTE      txData
      01009E81H   LINE      CODE     ---       #494
      01009E81H   LINE      CODE     ---       #495
      01009E81H   LINE      CODE     ---       #557
      01009E88H   LINE      CODE     ---       #558
      01009E88H   LINE      CODE     ---       #559
      01009E88H   LINE      CODE     ---       #562
      01009E8DH   LINE      CODE     ---       #565
      ---         BLOCKEND  ---      ---       LVL=0

      01009FAEH   BLOCK     CODE     ---       LVL=0
      01009FAEH   BLOCK     CODE     NEAR LAB  LVL=1
      00000007H   SYMBOL    DATA     BYTE      rxData
      ---         BLOCKEND  ---      ---       LVL=1
      01009FAEH   LINE      CODE     ---       #602
      01009FAEH   LINE      CODE     ---       #603
      01009FAEH   LINE      CODE     ---       #633
      01009FB3H   LINE      CODE     ---       #637
      01009FB3H   LINE      CODE     ---       #638
      ---         BLOCKEND  ---      ---       LVL=0
      00000007H   SYMBOL    DATA     BYTE      size
      00000007H   SYMBOL    DATA     BYTE      size

      01009E00H   BLOCK     CODE     ---       LVL=0
      01009E00H   LINE      CODE     ---       #806
      01009E00H   LINE      CODE     ---       #807
      01009E00H   LINE      CODE     ---       #809
      01009E07H   LINE      CODE     ---       #810
      01009E07H   LINE      CODE     ---       #811
      01009E0CH   LINE      CODE     ---       #812
      01009E0EH   LINE      CODE     ---       #824
      ---         BLOCKEND  ---      ---       LVL=0

      01009DBDH   BLOCK     CODE     ---       LVL=0
      01009DBDH   BLOCK     CODE     NEAR LAB  LVL=1
      00000007H   SYMBOL    DATA     BYTE      enableInterrupts
      ---         BLOCKEND  ---      ---       LVL=1
      01009DBDH   LINE      CODE     ---       #861
      01009DBDH   LINE      CODE     ---       #862
      01009DBDH   LINE      CODE     ---       #865
      01009DC0H   LINE      CODE     ---       #867
      01009DC7H   LINE      CODE     ---       #868
      01009DCBH   LINE      CODE     ---       #875
      01009DCEH   LINE      CODE     ---       #890
      ---         BLOCKEND  ---      ---       LVL=0
      00000005H   SYMBOL    DATA     BYTE      byteCount
      00000006H   SYMBOL    DATA     BYTE      bufIndex

      01009B48H   BLOCK     CODE     ---       LVL=0
      01009B48H   BLOCK     CODE     NEAR LAB  LVL=1
      00000007H   SYMBOL    DATA     BYTE      enableInterrupts
      ---         BLOCKEND  ---      ---       LVL=1
      01009B48H   LINE      CODE     ---       #995
      01009B48H   LINE      CODE     ---       #996
      01009B48H   LINE      CODE     ---       #1000
      01009B4FH   LINE      CODE     ---       #1001
      01009B4FH   LINE      CODE     ---       #1002
      01009B54H   LINE      CODE     ---       #1003
      01009B56H   LINE      CODE     ---       #1005
LX51 LINKER/LOCATER V4.64.0.0                                                         11/29/2018  15:53:27  PAGE 97


      01009B59H   LINE      CODE     ---       #1007
      01009B60H   LINE      CODE     ---       #1008
      01009B64H   LINE      CODE     ---       #1015
      01009B67H   LINE      CODE     ---       #1016
      ---         BLOCKEND  ---      ---       LVL=0
      00000007H   SYMBOL    DATA     BYTE      intSrc

      01009E0FH   BLOCK     CODE     ---       LVL=0
      01009E0FH   BLOCK     CODE     NEAR LAB  LVL=1
      00000007H   SYMBOL    DATA     BYTE      tmpStatus
      ---         BLOCKEND  ---      ---       LVL=1
      01009E0FH   LINE      CODE     ---       #1125
      01009E0FH   LINE      CODE     ---       #1126
      01009E0FH   LINE      CODE     ---       #1144
      01009E14H   LINE      CODE     ---       #1145
      01009E1AH   LINE      CODE     ---       #1146
      01009E1DH   LINE      CODE     ---       #1150
      01009E1DH   LINE      CODE     ---       #1151
      ---         BLOCKEND  ---      ---       LVL=0

      ---         MODULE    ---      ---       OPTO_PIN
      01009DE1H   PUBLIC    CODE     ---       _Opto_Pin_Write

      01009DE1H   BLOCK     CODE     ---       LVL=0
      00000007H   SYMBOL    DATA     BYTE      value
      01009DE1H   BLOCK     CODE     NEAR LAB  LVL=1
      00000006H   SYMBOL    DATA     BYTE      staticBits
      ---         BLOCKEND  ---      ---       LVL=1
      01009DE1H   LINE      CODE     ---       #53
      01009DE1H   LINE      CODE     ---       #54
      01009DE1H   LINE      CODE     ---       #55
      01009DE8H   LINE      CODE     ---       #56
      01009DF0H   LINE      CODE     ---       #57
      ---         BLOCKEND  ---      ---       LVL=0
      00000007H   SYMBOL    DATA     BYTE      mode

      ---         MODULE    ---      ---       CHIP_SELECT_A
      01009FB4H   PUBLIC    CODE     ---       _Chip_Select_A_Write

      01009FB4H   BLOCK     CODE     ---       LVL=0
      00000007H   SYMBOL    DATA     BYTE      control
      01009FB4H   LINE      CODE     ---       #37
      01009FB4H   LINE      CODE     ---       #38
      01009FB4H   LINE      CODE     ---       #39
      01009FB9H   LINE      CODE     ---       #40
      ---         BLOCKEND  ---      ---       LVL=0

      ---         MODULE    ---      ---       CHIP_SELECT_B
      01009FBAH   PUBLIC    CODE     ---       _Chip_Select_B_Write

      01009FBAH   BLOCK     CODE     ---       LVL=0
      00000007H   SYMBOL    DATA     BYTE      control
      01009FBAH   LINE      CODE     ---       #37
      01009FBAH   LINE      CODE     ---       #38
      01009FBAH   LINE      CODE     ---       #39
      01009FBFH   LINE      CODE     ---       #40
      ---         BLOCKEND  ---      ---       LVL=0

      ---         MODULE    ---      ---       CYBOOTASMKEIL
      01009CE5H   PUBLIC    CODE     NEAR LAB  CyEnterCriticalSection
      01009700H   PUBLIC    CODE     NEAR LAB  _CyDelayCycles
      010099F8H   PUBLIC    CODE     NEAR LAB  _CyDelayUs
      01009C76H   PUBLIC    CODE     NEAR LAB  _CyExitCriticalSection

      ---         MODULE    ---      ---       CYMEM
LX51 LINKER/LOCATER V4.64.0.0                                                         11/29/2018  15:53:27  PAGE 98


      02000000H   PUBLIC    XDATA    BYTE      ?_cyconfigcpy?BYTE
      010097DCH   PUBLIC    CODE     NEAR LAB  _cyconfigcpy
      01009A78H   PUBLIC    CODE     NEAR LAB  _cyconfigcpycode
      01009E1EH   PUBLIC    CODE     NEAR LAB  _cyread16
      01009E20H   PUBLIC    CODE     NEAR LAB  _cyread16_nodpx
      01009D98H   PUBLIC    CODE     NEAR LAB  _cyread24
      01009D9AH   PUBLIC    CODE     NEAR LAB  _cyread24_nodpx
      01009EB5H   PUBLIC    CODE     NEAR LAB  _cyread8
      01009EB7H   PUBLIC    CODE     NEAR LAB  _cyread8_nodpx
      01009E2DH   PUBLIC    CODE     NEAR LAB  _cywrite16
      01009E2FH   PUBLIC    CODE     NEAR LAB  _cywrite16_nodpx
      01009DCFH   PUBLIC    CODE     NEAR LAB  _cywrite24
      01009DD1H   PUBLIC    CODE     NEAR LAB  _cywrite24_nodpx
      01009EC1H   PUBLIC    CODE     NEAR LAB  _cywrite8
      01009EC3H   PUBLIC    CODE     NEAR LAB  _cywrite8_nodpx

      ---         MODULE    ---      ---       ?C_STARTUP
      00000000H   PUBLIC    NUMBER   ---       ?C?XPAGE1RST
      00000093H   PUBLIC    DATA     BYTE      ?C?XPAGE1SFR
      01002600H   PUBLIC    CODE     NEAR LAB  ?C_STARTUP
      01007CA4H   PUBLIC    CODE     NEAR LAB  STARTUP1
      01002604H   PUBLIC    CODE     NEAR LAB  _dma_wait

      ---         MODULE    ---      ---       UART_RS485_INT
      01008841H   PUBLIC    CODE     ---       UART_RS485_RXISR
      000000CAH   SFRSYM    DATA     BYTE      SFRPRT5SEL
      000000DAH   SFRSYM    DATA     BYTE      SFRPRT6SEL
      000000D0H.6 SFRSYM    DATA     BIT       AC
      000000A8H.7 SFRSYM    DATA     BIT       EA
      000000A8H   SFRSYM    DATA     BYTE      IE
      00000085H   SFRSYM    DATA     BYTE      DPH1
      00000084H   SFRSYM    DATA     BYTE      DPL1
      000000D0H.7 SFRSYM    DATA     BIT       CY
      000000A0H   SFRSYM    DATA     BYTE      P2AX
      00000095H   SFRSYM    DATA     BYTE      DPX1
      00000081H   SFRSYM    DATA     BYTE      SP
      000000D0H.2 SFRSYM    DATA     BIT       OV
      00000080H   SFRSYM    DATA     BYTE      SFRPRT0DR
      00000090H   SFRSYM    DATA     BYTE      SFRPRT1DR
      000000F2H   SFRSYM    DATA     BYTE      SFRPRT12SEL
      00000098H   SFRSYM    DATA     BYTE      SFRPRT2DR
      000000B0H   SFRSYM    DATA     BYTE      SFRPRT3DR
      000000C0H   SFRSYM    DATA     BYTE      SFRPRT4DR
      000000FAH   SFRSYM    DATA     BYTE      SFRPRT15SEL
      000000C8H   SFRSYM    DATA     BYTE      SFRPRT5DR
      000000D8H   SFRSYM    DATA     BYTE      SFRPRT6DR
      00000089H   SFRSYM    DATA     BYTE      SFRPRT0PS
      00000091H   SFRSYM    DATA     BYTE      SFRPRT1PS
      00000099H   SFRSYM    DATA     BYTE      SFRPRT2PS
      000000B1H   SFRSYM    DATA     BYTE      SFRPRT3PS
      000000C1H   SFRSYM    DATA     BYTE      SFRPRT4PS
      000000C9H   SFRSYM    DATA     BYTE      SFRPRT5PS
      000000D9H   SFRSYM    DATA     BYTE      SFRPRT6PS
      000000EAH   SFRSYM    DATA     BYTE      MXAX
      000000F0H   SFRSYM    DATA     BYTE      B
      000000E0H   SFRSYM    DATA     BYTE      ACC
      000000D0H   SFRSYM    DATA     BIT       P
      000000D0H.3 SFRSYM    DATA     BIT       RS0
      000000D0H.4 SFRSYM    DATA     BIT       RS1
      00000083H   SFRSYM    DATA     BYTE      DPH
      000000E8H   SFRSYM    DATA     BYTE      SFRPRT12DR
      00000082H   SFRSYM    DATA     BYTE      DPL
      000000F8H   SFRSYM    DATA     BYTE      SFRPRT15DR
      00000086H   SFRSYM    DATA     BYTE      DPS
      000000E9H   SFRSYM    DATA     BYTE      SFRPRT12PS
LX51 LINKER/LOCATER V4.64.0.0                                                         11/29/2018  15:53:27  PAGE 99


      00000093H   SFRSYM    DATA     BYTE      DPX
      000000F9H   SFRSYM    DATA     BYTE      SFRPRT15PS
      000000D0H.5 SFRSYM    DATA     BIT       F0
      000000D0H.1 SFRSYM    DATA     BIT       F1
      0000008AH   SFRSYM    DATA     BYTE      SFRPRT0SEL
      000000D0H   SFRSYM    DATA     BYTE      PSW
      000000A2H   SFRSYM    DATA     BYTE      SFRPRT1SEL
      0000009AH   SFRSYM    DATA     BYTE      SFRPRT2SEL
      000000B2H   SFRSYM    DATA     BYTE      SFRPRT3SEL
      000000C2H   SFRSYM    DATA     BYTE      SFRPRT4SEL

      01008841H   BLOCK     CODE     ---       LVL=0
      01008864H   BLOCK     CODE     NEAR LAB  LVL=1
      00000006H   SYMBOL    DATA     BYTE      readData
      00000007H   SYMBOL    DATA     BYTE      readStatus
      00000003H   SYMBOL    DATA     BYTE      increment_pointer
      00000002H   SYMBOL    DATA     BYTE      int_en
      ---         BLOCKEND  ---      ---       LVL=1
      01008841H   LINE      CODE     ---       #59
      01008864H   LINE      CODE     ---       #63
      01008866H   LINE      CODE     ---       #79
      0100886AH   LINE      CODE     ---       #80
      01008872H   LINE      CODE     ---       #84
      01008872H   LINE      CODE     ---       #86
      01008877H   LINE      CODE     ---       #90
      01008878H   LINE      CODE     ---       #95
      0100887DH   LINE      CODE     ---       #96
      0100887DH   LINE      CODE     ---       #101
      01008883H   LINE      CODE     ---       #109
      01008883H   LINE      CODE     ---       #111
      01008887H   LINE      CODE     ---       #112
      01008887H   LINE      CODE     ---       #114
      0100888CH   LINE      CODE     ---       #141
      0100889BH   LINE      CODE     ---       #142
      0100889DH   LINE      CODE     ---       #146
      010088A0H   LINE      CODE     ---       #147
      010088A0H   LINE      CODE     ---       #148
      010088A6H   LINE      CODE     ---       #149
      010088A6H   LINE      CODE     ---       #150
      010088ACH   LINE      CODE     ---       #151
      010088ACH   LINE      CODE     ---       #153
      010088B2H   LINE      CODE     ---       #156
      010088B8H   LINE      CODE     ---       #157
      010088B8H   LINE      CODE     ---       #158
      010088BAH   LINE      CODE     ---       #159
      010088BAH   LINE      CODE     ---       #162
      010088C6H   LINE      CODE     ---       #163
      010088C6H   LINE      CODE     ---       #164
      010088CCH   LINE      CODE     ---       #172
      010088CCH   LINE      CODE     ---       #173
      010088CCH   LINE      CODE     ---       #174
      010088CCH   LINE      CODE     ---       #175
      010088D0H   LINE      CODE     ---       #187
      010088D7H   LINE      CODE     ---       #189
      ---         BLOCKEND  ---      ---       LVL=0

      ---         MODULE    ---      ---       ADC_INT
      01009FCFH   PUBLIC    CODE     ---       ADC_ISR4
      01009FCEH   PUBLIC    CODE     ---       ADC_ISR3
      01009FCDH   PUBLIC    CODE     ---       ADC_ISR2
      01009FCCH   PUBLIC    CODE     ---       ADC_ISR1
      000000CAH   SFRSYM    DATA     BYTE      SFRPRT5SEL
      000000DAH   SFRSYM    DATA     BYTE      SFRPRT6SEL
      000000D0H.6 SFRSYM    DATA     BIT       AC
      000000A8H.7 SFRSYM    DATA     BIT       EA
LX51 LINKER/LOCATER V4.64.0.0                                                         11/29/2018  15:53:27  PAGE 100


      000000A8H   SFRSYM    DATA     BYTE      IE
      00000085H   SFRSYM    DATA     BYTE      DPH1
      00000084H   SFRSYM    DATA     BYTE      DPL1
      000000D0H.7 SFRSYM    DATA     BIT       CY
      000000A0H   SFRSYM    DATA     BYTE      P2AX
      00000095H   SFRSYM    DATA     BYTE      DPX1
      00000081H   SFRSYM    DATA     BYTE      SP
      000000D0H.2 SFRSYM    DATA     BIT       OV
      00000080H   SFRSYM    DATA     BYTE      SFRPRT0DR
      00000090H   SFRSYM    DATA     BYTE      SFRPRT1DR
      000000F2H   SFRSYM    DATA     BYTE      SFRPRT12SEL
      00000098H   SFRSYM    DATA     BYTE      SFRPRT2DR
      000000B0H   SFRSYM    DATA     BYTE      SFRPRT3DR
      000000C0H   SFRSYM    DATA     BYTE      SFRPRT4DR
      000000FAH   SFRSYM    DATA     BYTE      SFRPRT15SEL
      000000C8H   SFRSYM    DATA     BYTE      SFRPRT5DR
      000000D8H   SFRSYM    DATA     BYTE      SFRPRT6DR
      00000089H   SFRSYM    DATA     BYTE      SFRPRT0PS
      00000091H   SFRSYM    DATA     BYTE      SFRPRT1PS
      00000099H   SFRSYM    DATA     BYTE      SFRPRT2PS
      000000B1H   SFRSYM    DATA     BYTE      SFRPRT3PS
      000000C1H   SFRSYM    DATA     BYTE      SFRPRT4PS
      000000C9H   SFRSYM    DATA     BYTE      SFRPRT5PS
      000000D9H   SFRSYM    DATA     BYTE      SFRPRT6PS
      000000EAH   SFRSYM    DATA     BYTE      MXAX
      000000F0H   SFRSYM    DATA     BYTE      B
      000000E0H   SFRSYM    DATA     BYTE      ACC
      000000D0H   SFRSYM    DATA     BIT       P
      000000D0H.3 SFRSYM    DATA     BIT       RS0
      000000D0H.4 SFRSYM    DATA     BIT       RS1
      00000083H   SFRSYM    DATA     BYTE      DPH
      000000E8H   SFRSYM    DATA     BYTE      SFRPRT12DR
      00000082H   SFRSYM    DATA     BYTE      DPL
      000000F8H   SFRSYM    DATA     BYTE      SFRPRT15DR
      00000086H   SFRSYM    DATA     BYTE      DPS
      000000E9H   SFRSYM    DATA     BYTE      SFRPRT12PS
      00000093H   SFRSYM    DATA     BYTE      DPX
      000000F9H   SFRSYM    DATA     BYTE      SFRPRT15PS
      000000D0H.5 SFRSYM    DATA     BIT       F0
      000000D0H.1 SFRSYM    DATA     BIT       F1
      0000008AH   SFRSYM    DATA     BYTE      SFRPRT0SEL
      000000D0H   SFRSYM    DATA     BYTE      PSW
      000000A2H   SFRSYM    DATA     BYTE      SFRPRT1SEL
      0000009AH   SFRSYM    DATA     BYTE      SFRPRT2SEL
      000000B2H   SFRSYM    DATA     BYTE      SFRPRT3SEL
      000000C2H   SFRSYM    DATA     BYTE      SFRPRT4SEL

      01009FCCH   BLOCK     CODE     ---       LVL=0
      01009FCCH   LINE      CODE     ---       #51
      01009FCCH   LINE      CODE     ---       #81
      ---         BLOCKEND  ---      ---       LVL=0

      01009FCDH   BLOCK     CODE     ---       LVL=0
      01009FCDH   LINE      CODE     ---       #101
      01009FCDH   LINE      CODE     ---       #131
      ---         BLOCKEND  ---      ---       LVL=0

      01009FCEH   BLOCK     CODE     ---       LVL=0
      01009FCEH   LINE      CODE     ---       #151
      01009FCEH   LINE      CODE     ---       #181
      ---         BLOCKEND  ---      ---       LVL=0

      01009FCFH   BLOCK     CODE     ---       LVL=0
      01009FCFH   LINE      CODE     ---       #201
      01009FCFH   LINE      CODE     ---       #231
LX51 LINKER/LOCATER V4.64.0.0                                                         11/29/2018  15:53:27  PAGE 101


      ---         BLOCKEND  ---      ---       LVL=0

      ---         MODULE    ---      ---       ADC_AMUX
      01009C45H   PUBLIC    CODE     ---       _ADC_AMux_Select
      01009B07H   PUBLIC    CODE     ---       ADC_AMux_Start
      0200164FH   SYMBOL    XDATA    BYTE      ADC_AMux_lastChannel

      01009B07H   BLOCK     CODE     ---       LVL=0
      01009B07H   BLOCK     CODE     NEAR LAB  LVL=1
      02000003H   SYMBOL    XDATA    BYTE      chan
      ---         BLOCKEND  ---      ---       LVL=1
      01009B07H   LINE      CODE     ---       #36
      01009B07H   LINE      CODE     ---       #37
      01009B07H   LINE      CODE     ---       #40
      01009B16H   LINE      CODE     ---       #41
      01009B16H   LINE      CODE     ---       #43
      01009B19H   LINE      CODE     ---       #48
      01009B21H   LINE      CODE     ---       #50
      01009B27H   LINE      CODE     ---       #51
      ---         BLOCKEND  ---      ---       LVL=0

      01009C45H   BLOCK     CODE     ---       LVL=0
      02000002H   SYMBOL    XDATA    BYTE      channel
      01009C45H   LINE      CODE     ---       #69
      01009C4AH   LINE      CODE     ---       #70
      01009C4AH   LINE      CODE     ---       #71
      01009C4DH   LINE      CODE     ---       #72
      01009C55H   LINE      CODE     ---       #73
      01009C5DH   LINE      CODE     ---       #74
      ---         BLOCKEND  ---      ---       LVL=0

      ---         MODULE    ---      ---       ADC_EXT_CP_CLK
      01009F41H   PUBLIC    CODE     ---       ADC_Ext_CP_Clk_GetSourceRegister
      01009E8EH   PUBLIC    CODE     ---       _ADC_Ext_CP_Clk_SetModeRegister
      01009F15H   PUBLIC    CODE     ---       ADC_Ext_CP_Clk_GetDividerRegister
      010075A0H   PUBLIC    CODE     ---       _ADC_Ext_CP_Clk_SetDividerRegister
      00000007H   SYMBOL    DATA     BYTE      state

      010075A0H   BLOCK     CODE     ---       LVL=0
      02000002H   SYMBOL    XDATA    WORD      clkDivider
      02000004H   SYMBOL    XDATA    BYTE      restart
      010075ABH   BLOCK     CODE     NEAR LAB  LVL=1
      02000005H   SYMBOL    XDATA    BYTE      enabled
      02000006H   SYMBOL    XDATA    BYTE      currSrc
      02000007H   SYMBOL    XDATA    WORD      oldDivider
      ---         BLOCKEND  ---      ---       LVL=1
      010075A0H   LINE      CODE     ---       #193
      010075ABH   LINE      CODE     ---       #195
      010075ABH   LINE      CODE     ---       #198
      010075B3H   LINE      CODE     ---       #199
      010075BEH   LINE      CODE     ---       #201
      010075D0H   LINE      CODE     ---       #202
      010075D0H   LINE      CODE     ---       #203
      010075DAH   LINE      CODE     ---       #205
      010075EBH   LINE      CODE     ---       #206
      010075EBH   LINE      CODE     ---       #208
      010075EFH   LINE      CODE     ---       #209
      010075EFH   LINE      CODE     ---       #213
      010075F8H   LINE      CODE     ---       #214
      010075FFH   LINE      CODE     ---       #215
      01007600H   LINE      CODE     ---       #217
      01007600H   LINE      CODE     ---       #220
      01007607H   LINE      CODE     ---       #221
      01007618H   LINE      CODE     ---       #222
      01007618H   LINE      CODE     ---       #223
LX51 LINKER/LOCATER V4.64.0.0                                                         11/29/2018  15:53:27  PAGE 102


      01007619H   LINE      CODE     ---       #225
      01007619H   LINE      CODE     ---       #227
      0100761FH   LINE      CODE     ---       #228
      0100761FH   LINE      CODE     ---       #229
      01007624H   LINE      CODE     ---       #236
      0100762AH   LINE      CODE     ---       #237
      0100762FH   LINE      CODE     ---       #240
      01007636H   LINE      CODE     ---       #243
      01007648H   LINE      CODE     ---       #244
      01007648H   LINE      CODE     ---       #246
      01007659H   LINE      CODE     ---       #247
      0100765FH   LINE      CODE     ---       #250
      01007667H   LINE      CODE     ---       #253
      0100766EH   LINE      CODE     ---       #257
      01007673H   LINE      CODE     ---       #259
      01007673H   LINE      CODE     ---       #260
      01007673H   LINE      CODE     ---       #263
      0100767BH   LINE      CODE     ---       #264
      0100767BH   LINE      CODE     ---       #266
      0100768CH   LINE      CODE     ---       #268
      0100769FH   LINE      CODE     ---       #269
      010076A9H   LINE      CODE     ---       #270
      010076AAH   LINE      CODE     ---       #272
      010076AAH   LINE      CODE     ---       #274
      010076BBH   LINE      CODE     ---       #275
      010076D0H   LINE      CODE     ---       #276
      010076D0H   LINE      CODE     ---       #277
      010076D0H   LINE      CODE     ---       #278
      010076D0H   LINE      CODE     ---       #279
      ---         BLOCKEND  ---      ---       LVL=0

      01009F15H   BLOCK     CODE     ---       LVL=0
      01009F15H   LINE      CODE     ---       #297
      01009F15H   LINE      CODE     ---       #298
      01009F15H   LINE      CODE     ---       #299
      01009F1EH   LINE      CODE     ---       #300
      ---         BLOCKEND  ---      ---       LVL=0

      01009E8EH   BLOCK     CODE     ---       LVL=0
      00000007H   SYMBOL    DATA     BYTE      modeBitMask
      01009E8EH   LINE      CODE     ---       #332
      01009E8EH   LINE      CODE     ---       #333
      01009E8EH   LINE      CODE     ---       #334
      01009E9AH   LINE      CODE     ---       #335
      ---         BLOCKEND  ---      ---       LVL=0
      00000007H   SYMBOL    DATA     BYTE      modeBitMask
      00000007H   SYMBOL    DATA     BYTE      oldSrc

      01009F41H   BLOCK     CODE     ---       LVL=0
      01009F41H   LINE      CODE     ---       #464
      01009F41H   LINE      CODE     ---       #465
      01009F41H   LINE      CODE     ---       #466
      01009F48H   LINE      CODE     ---       #467
      ---         BLOCKEND  ---      ---       LVL=0

      ---         MODULE    ---      ---       ADC_THEACLK
      01009F49H   PUBLIC    CODE     ---       ADC_theACLK_GetSourceRegister
      01009E9BH   PUBLIC    CODE     ---       _ADC_theACLK_SetModeRegister
      01009F1FH   PUBLIC    CODE     ---       ADC_theACLK_GetDividerRegister
      01007801H   PUBLIC    CODE     ---       _ADC_theACLK_SetDividerRegister
      00000007H   SYMBOL    DATA     BYTE      state

      01007801H   BLOCK     CODE     ---       LVL=0
      02000002H   SYMBOL    XDATA    WORD      clkDivider
      02000004H   SYMBOL    XDATA    BYTE      restart
LX51 LINKER/LOCATER V4.64.0.0                                                         11/29/2018  15:53:27  PAGE 103


      0100780CH   BLOCK     CODE     NEAR LAB  LVL=1
      02000005H   SYMBOL    XDATA    BYTE      enabled
      02000006H   SYMBOL    XDATA    BYTE      currSrc
      02000007H   SYMBOL    XDATA    WORD      oldDivider
      ---         BLOCKEND  ---      ---       LVL=1
      01007801H   LINE      CODE     ---       #193
      0100780CH   LINE      CODE     ---       #195
      0100780CH   LINE      CODE     ---       #198
      01007814H   LINE      CODE     ---       #199
      0100781FH   LINE      CODE     ---       #201
      01007831H   LINE      CODE     ---       #202
      01007831H   LINE      CODE     ---       #203
      0100783BH   LINE      CODE     ---       #205
      0100784CH   LINE      CODE     ---       #206
      0100784CH   LINE      CODE     ---       #208
      01007850H   LINE      CODE     ---       #209
      01007850H   LINE      CODE     ---       #213
      01007858H   LINE      CODE     ---       #214
      0100785FH   LINE      CODE     ---       #215
      01007860H   LINE      CODE     ---       #217
      01007860H   LINE      CODE     ---       #220
      01007867H   LINE      CODE     ---       #221
      01007878H   LINE      CODE     ---       #222
      01007878H   LINE      CODE     ---       #223
      01007879H   LINE      CODE     ---       #225
      01007879H   LINE      CODE     ---       #227
      0100787FH   LINE      CODE     ---       #228
      0100787FH   LINE      CODE     ---       #229
      01007884H   LINE      CODE     ---       #233
      01007889H   LINE      CODE     ---       #234
      0100788EH   LINE      CODE     ---       #240
      01007895H   LINE      CODE     ---       #243
      010078A7H   LINE      CODE     ---       #244
      010078A7H   LINE      CODE     ---       #246
      010078B8H   LINE      CODE     ---       #247
      010078BEH   LINE      CODE     ---       #250
      010078C6H   LINE      CODE     ---       #253
      010078CDH   LINE      CODE     ---       #257
      010078D2H   LINE      CODE     ---       #259
      010078D2H   LINE      CODE     ---       #260
      010078D2H   LINE      CODE     ---       #263
      010078DAH   LINE      CODE     ---       #264
      010078DAH   LINE      CODE     ---       #266
      010078EBH   LINE      CODE     ---       #268
      010078FEH   LINE      CODE     ---       #269
      01007908H   LINE      CODE     ---       #270
      01007909H   LINE      CODE     ---       #272
      01007909H   LINE      CODE     ---       #274
      0100791AH   LINE      CODE     ---       #275
      0100792FH   LINE      CODE     ---       #276
      0100792FH   LINE      CODE     ---       #277
      0100792FH   LINE      CODE     ---       #278
      0100792FH   LINE      CODE     ---       #279
      ---         BLOCKEND  ---      ---       LVL=0

      01009F1FH   BLOCK     CODE     ---       LVL=0
      01009F1FH   LINE      CODE     ---       #297
      01009F1FH   LINE      CODE     ---       #298
      01009F1FH   LINE      CODE     ---       #299
      01009F28H   LINE      CODE     ---       #300
      ---         BLOCKEND  ---      ---       LVL=0

      01009E9BH   BLOCK     CODE     ---       LVL=0
      00000007H   SYMBOL    DATA     BYTE      modeBitMask
      01009E9BH   LINE      CODE     ---       #332
LX51 LINKER/LOCATER V4.64.0.0                                                         11/29/2018  15:53:27  PAGE 104


      01009E9BH   LINE      CODE     ---       #333
      01009E9BH   LINE      CODE     ---       #334
      01009EA7H   LINE      CODE     ---       #335
      ---         BLOCKEND  ---      ---       LVL=0
      00000007H   SYMBOL    DATA     BYTE      modeBitMask
      00000007H   SYMBOL    DATA     BYTE      oldSrc

      01009F49H   BLOCK     CODE     ---       LVL=0
      01009F49H   LINE      CODE     ---       #464
      01009F49H   LINE      CODE     ---       #465
      01009F49H   LINE      CODE     ---       #466
      01009F50H   LINE      CODE     ---       #467
      ---         BLOCKEND  ---      ---       LVL=0
      00000007H   SYMBOL    DATA     BYTE      clkPhase

      ---         MODULE    ---      ---       CYPM
      000000CAH   SFRSYM    DATA     BYTE      SFRPRT5SEL
      000000DAH   SFRSYM    DATA     BYTE      SFRPRT6SEL
      000000D0H.6 SFRSYM    DATA     BIT       AC
      000000A8H.7 SFRSYM    DATA     BIT       EA
      000000A8H   SFRSYM    DATA     BYTE      IE
      00000085H   SFRSYM    DATA     BYTE      DPH1
      00000084H   SFRSYM    DATA     BYTE      DPL1
      000000D0H.7 SFRSYM    DATA     BIT       CY
      000000A0H   SFRSYM    DATA     BYTE      P2AX
      00000095H   SFRSYM    DATA     BYTE      DPX1
      00000081H   SFRSYM    DATA     BYTE      SP
      000000D0H.2 SFRSYM    DATA     BIT       OV
      00000080H   SFRSYM    DATA     BYTE      SFRPRT0DR
      00000090H   SFRSYM    DATA     BYTE      SFRPRT1DR
      000000F2H   SFRSYM    DATA     BYTE      SFRPRT12SEL
      00000098H   SFRSYM    DATA     BYTE      SFRPRT2DR
      000000B0H   SFRSYM    DATA     BYTE      SFRPRT3DR
      000000C0H   SFRSYM    DATA     BYTE      SFRPRT4DR
      000000FAH   SFRSYM    DATA     BYTE      SFRPRT15SEL
      000000C8H   SFRSYM    DATA     BYTE      SFRPRT5DR
      000000D8H   SFRSYM    DATA     BYTE      SFRPRT6DR
      00000089H   SFRSYM    DATA     BYTE      SFRPRT0PS
      00000091H   SFRSYM    DATA     BYTE      SFRPRT1PS
      00000099H   SFRSYM    DATA     BYTE      SFRPRT2PS
      000000B1H   SFRSYM    DATA     BYTE      SFRPRT3PS
      000000C1H   SFRSYM    DATA     BYTE      SFRPRT4PS
      000000C9H   SFRSYM    DATA     BYTE      SFRPRT5PS
      000000D9H   SFRSYM    DATA     BYTE      SFRPRT6PS
      000000EAH   SFRSYM    DATA     BYTE      MXAX
      000000F0H   SFRSYM    DATA     BYTE      B
      000000E0H   SFRSYM    DATA     BYTE      ACC
      000000D0H   SFRSYM    DATA     BIT       P
      000000D0H.3 SFRSYM    DATA     BIT       RS0
      000000D0H.4 SFRSYM    DATA     BIT       RS1
      00000083H   SFRSYM    DATA     BYTE      DPH
      000000E8H   SFRSYM    DATA     BYTE      SFRPRT12DR
      00000082H   SFRSYM    DATA     BYTE      DPL
      000000F8H   SFRSYM    DATA     BYTE      SFRPRT15DR
      00000086H   SFRSYM    DATA     BYTE      DPS
      000000E9H   SFRSYM    DATA     BYTE      SFRPRT12PS
      00000093H   SFRSYM    DATA     BYTE      DPX
      000000F9H   SFRSYM    DATA     BYTE      SFRPRT15PS
      000000D0H.5 SFRSYM    DATA     BIT       F0
      000000D0H.1 SFRSYM    DATA     BIT       F1
      0000008AH   SFRSYM    DATA     BYTE      SFRPRT0SEL
      000000D0H   SFRSYM    DATA     BYTE      PSW
      000000A2H   SFRSYM    DATA     BYTE      SFRPRT1SEL
      0000009AH   SFRSYM    DATA     BYTE      SFRPRT2SEL
      000000B2H   SFRSYM    DATA     BYTE      SFRPRT3SEL
LX51 LINKER/LOCATER V4.64.0.0                                                         11/29/2018  15:53:27  PAGE 105


      000000C2H   SFRSYM    DATA     BYTE      SFRPRT4SEL
      020015B1H   SYMBOL    XDATA    ---       cyPmClockBackup
      020015C1H   SYMBOL    XDATA    ---       cyPmBackup
      00000006H   SYMBOL    DATA     WORD      clkBusDivTmp
      020015B0H   SYMBOL    XDATA    BYTE      interruptStatus
      00000005H   SYMBOL    DATA     BYTE      interruptState

      ---         MODULE    ---      ---       CYSPC
      02001650H   PUBLIC    XDATA    BYTE      SpcLockState
      01009BDFH   PUBLIC    CODE     ---       CySpcGetAlgorithm
      01009ECDH   PUBLIC    CODE     ---       CySpcUnlock
      01009B87H   PUBLIC    CODE     ---       CySpcLock
      010099C9H   PUBLIC    CODE     ---       _CySpcGetTemp
      0200000EH   PUBLIC    XDATA    BYTE      ?_CySpcWriteRow?BYTE
      01009310H   PUBLIC    CODE     ---       _CySpcWriteRow
      0200000EH   PUBLIC    XDATA    BYTE      ?_CySpcLoadRow?BYTE
      0100901BH   PUBLIC    CODE     ---       _CySpcLoadRow
      010090F9H   PUBLIC    CODE     ---       _CySpcReadData
      01009CFAH   PUBLIC    CODE     ---       CySpcStart
      000000CAH   SFRSYM    DATA     BYTE      SFRPRT5SEL
      000000DAH   SFRSYM    DATA     BYTE      SFRPRT6SEL
      000000D0H.6 SFRSYM    DATA     BIT       AC
      000000A8H.7 SFRSYM    DATA     BIT       EA
      000000A8H   SFRSYM    DATA     BYTE      IE
      00000085H   SFRSYM    DATA     BYTE      DPH1
      00000084H   SFRSYM    DATA     BYTE      DPL1
      000000D0H.7 SFRSYM    DATA     BIT       CY
      000000A0H   SFRSYM    DATA     BYTE      P2AX
      00000095H   SFRSYM    DATA     BYTE      DPX1
      00000081H   SFRSYM    DATA     BYTE      SP
      000000D0H.2 SFRSYM    DATA     BIT       OV
      00000080H   SFRSYM    DATA     BYTE      SFRPRT0DR
      00000090H   SFRSYM    DATA     BYTE      SFRPRT1DR
      000000F2H   SFRSYM    DATA     BYTE      SFRPRT12SEL
      00000098H   SFRSYM    DATA     BYTE      SFRPRT2DR
      000000B0H   SFRSYM    DATA     BYTE      SFRPRT3DR
      000000C0H   SFRSYM    DATA     BYTE      SFRPRT4DR
      000000FAH   SFRSYM    DATA     BYTE      SFRPRT15SEL
      000000C8H   SFRSYM    DATA     BYTE      SFRPRT5DR
      000000D8H   SFRSYM    DATA     BYTE      SFRPRT6DR
      00000089H   SFRSYM    DATA     BYTE      SFRPRT0PS
      00000091H   SFRSYM    DATA     BYTE      SFRPRT1PS
      00000099H   SFRSYM    DATA     BYTE      SFRPRT2PS
      000000B1H   SFRSYM    DATA     BYTE      SFRPRT3PS
      000000C1H   SFRSYM    DATA     BYTE      SFRPRT4PS
      000000C9H   SFRSYM    DATA     BYTE      SFRPRT5PS
      000000D9H   SFRSYM    DATA     BYTE      SFRPRT6PS
      000000EAH   SFRSYM    DATA     BYTE      MXAX
      000000F0H   SFRSYM    DATA     BYTE      B
      000000E0H   SFRSYM    DATA     BYTE      ACC
      000000D0H   SFRSYM    DATA     BIT       P
      000000D0H.3 SFRSYM    DATA     BIT       RS0
      000000D0H.4 SFRSYM    DATA     BIT       RS1
      00000083H   SFRSYM    DATA     BYTE      DPH
      000000E8H   SFRSYM    DATA     BYTE      SFRPRT12DR
      00000082H   SFRSYM    DATA     BYTE      DPL
      000000F8H   SFRSYM    DATA     BYTE      SFRPRT15DR
      00000086H   SFRSYM    DATA     BYTE      DPS
      000000E9H   SFRSYM    DATA     BYTE      SFRPRT12PS
      00000093H   SFRSYM    DATA     BYTE      DPX
      000000F9H   SFRSYM    DATA     BYTE      SFRPRT15PS
      000000D0H.5 SFRSYM    DATA     BIT       F0
      000000D0H.1 SFRSYM    DATA     BIT       F1
      0000008AH   SFRSYM    DATA     BYTE      SFRPRT0SEL
      000000D0H   SFRSYM    DATA     BYTE      PSW
LX51 LINKER/LOCATER V4.64.0.0                                                         11/29/2018  15:53:27  PAGE 106


      000000A2H   SFRSYM    DATA     BYTE      SFRPRT1SEL
      0000009AH   SFRSYM    DATA     BYTE      SFRPRT2SEL
      000000B2H   SFRSYM    DATA     BYTE      SFRPRT3SEL
      000000C2H   SFRSYM    DATA     BYTE      SFRPRT4SEL

      01009CFAH   BLOCK     CODE     ---       LVL=0
      01009CFAH   BLOCK     CODE     NEAR LAB  LVL=1
      00000007H   SYMBOL    DATA     BYTE      interruptState
      ---         BLOCKEND  ---      ---       LVL=1
      01009CFAH   LINE      CODE     ---       #78
      01009CFAH   LINE      CODE     ---       #79
      01009CFAH   LINE      CODE     ---       #81
      01009CFDH   LINE      CODE     ---       #83
      01009D04H   LINE      CODE     ---       #84
      01009D0BH   LINE      CODE     ---       #87
      01009D0EH   LINE      CODE     ---       #88
      ---         BLOCKEND  ---      ---       LVL=0
      00000007H   SYMBOL    DATA     BYTE      interruptState

      010090F9H   BLOCK     CODE     ---       LVL=0
      0200000BH   SYMBOL    XDATA    ---       buffer
      0200000EH   SYMBOL    XDATA    BYTE      size
      01009107H   BLOCK     CODE     NEAR LAB  LVL=1
      0200000FH   SYMBOL    XDATA    BYTE      i
      ---         BLOCKEND  ---      ---       LVL=1
      010090F9H   LINE      CODE     ---       #135
      01009107H   LINE      CODE     ---       #136
      01009107H   LINE      CODE     ---       #139
      01009115H   LINE      CODE     ---       #140
      01009115H   LINE      CODE     ---       #141
      01009123H   LINE      CODE     ---       #142
      01009123H   LINE      CODE     ---       #143
      0100912AH   LINE      CODE     ---       #144
      0100912CH   LINE      CODE     ---       #145
      0100914BH   LINE      CODE     ---       #146
      01009153H   LINE      CODE     ---       #148
      01009158H   LINE      CODE     ---       #149
      ---         BLOCKEND  ---      ---       LVL=0
      00000005H   SYMBOL    DATA     BYTE      status
      00000007H   SYMBOL    DATA     BYTE      i

      0100901BH   BLOCK     CODE     ---       LVL=0
      00000007H   SYMBOL    DATA     BYTE      array
      0200000FH   SYMBOL    XDATA    ---       buffer
      02000012H   SYMBOL    XDATA    WORD      size
      01009026H   BLOCK     CODE     NEAR LAB  LVL=1
      02000014H   SYMBOL    XDATA    BYTE      status
      00000006H   SYMBOL    DATA     WORD      i
      ---         BLOCKEND  ---      ---       LVL=1
      0100901BH   LINE      CODE     ---       #258
      01009026H   LINE      CODE     ---       #259
      01009026H   LINE      CODE     ---       #260
      0100902CH   LINE      CODE     ---       #264
      01009034H   LINE      CODE     ---       #265
      01009034H   LINE      CODE     ---       #266
      0100903AH   LINE      CODE     ---       #267
      0100903DH   LINE      CODE     ---       #268
      01009040H   LINE      CODE     ---       #271
      01009048H   LINE      CODE     ---       #272
      01009048H   LINE      CODE     ---       #273
      0100904DH   LINE      CODE     ---       #275
      0100905DH   LINE      CODE     ---       #276
      0100905DH   LINE      CODE     ---       #277
      01009073H   LINE      CODE     ---       #278
      0100907AH   LINE      CODE     ---       #279
LX51 LINKER/LOCATER V4.64.0.0                                                         11/29/2018  15:53:27  PAGE 107


      0100907AH   LINE      CODE     ---       #281
      0100907AH   LINE      CODE     ---       #282
      01009080H   LINE      CODE     ---       #283
      01009080H   LINE      CODE     ---       #284
      01009082H   LINE      CODE     ---       #286
      01009082H   LINE      CODE     ---       #287
      01009088H   LINE      CODE     ---       #288
      01009088H   LINE      CODE     ---       #290
      0100908DH   LINE      CODE     ---       #291
      ---         BLOCKEND  ---      ---       LVL=0

      01009310H   BLOCK     CODE     ---       LVL=0
      00000004H   SYMBOL    DATA     BYTE      array
      0200000FH   SYMBOL    XDATA    WORD      address
      00000003H   SYMBOL    DATA     BYTE      tempPolarity
      02000012H   SYMBOL    XDATA    BYTE      tempMagnitude
      0100931AH   BLOCK     CODE     NEAR LAB  LVL=1
      00000005H   SYMBOL    DATA     BYTE      status
      ---         BLOCKEND  ---      ---       LVL=1
      01009310H   LINE      CODE     ---       #464
      0100931AH   LINE      CODE     ---       #466
      0100931AH   LINE      CODE     ---       #467
      0100931CH   LINE      CODE     ---       #470
      01009324H   LINE      CODE     ---       #471
      01009324H   LINE      CODE     ---       #472
      0100932AH   LINE      CODE     ---       #473
      0100932DH   LINE      CODE     ---       #474
      01009330H   LINE      CODE     ---       #477
      01009338H   LINE      CODE     ---       #478
      01009338H   LINE      CODE     ---       #479
      0100933DH   LINE      CODE     ---       #480
      01009345H   LINE      CODE     ---       #481
      0100934FH   LINE      CODE     ---       #482
      01009351H   LINE      CODE     ---       #483
      01009359H   LINE      CODE     ---       #484
      0100935BH   LINE      CODE     ---       #486
      0100935BH   LINE      CODE     ---       #487
      0100935DH   LINE      CODE     ---       #488
      0100935DH   LINE      CODE     ---       #489
      0100935FH   LINE      CODE     ---       #491
      0100935FH   LINE      CODE     ---       #492
      01009361H   LINE      CODE     ---       #493
      01009361H   LINE      CODE     ---       #495
      01009363H   LINE      CODE     ---       #496
      ---         BLOCKEND  ---      ---       LVL=0
      00000007H   SYMBOL    DATA     BYTE      array
      00000005H   SYMBOL    DATA     BYTE      sectorNumber
      00000006H   SYMBOL    DATA     BYTE      status

      010099C9H   BLOCK     CODE     ---       LVL=0
      00000007H   SYMBOL    DATA     BYTE      numSamples
      010099C9H   BLOCK     CODE     NEAR LAB  LVL=1
      00000006H   SYMBOL    DATA     BYTE      status
      ---         BLOCKEND  ---      ---       LVL=1
      010099C9H   LINE      CODE     ---       #573
      010099C9H   LINE      CODE     ---       #574
      010099C9H   LINE      CODE     ---       #575
      010099CBH   LINE      CODE     ---       #578
      010099D3H   LINE      CODE     ---       #579
      010099D3H   LINE      CODE     ---       #580
      010099D9H   LINE      CODE     ---       #581
      010099DCH   LINE      CODE     ---       #582
      010099DFH   LINE      CODE     ---       #585
      010099E7H   LINE      CODE     ---       #586
      010099E7H   LINE      CODE     ---       #587
LX51 LINKER/LOCATER V4.64.0.0                                                         11/29/2018  15:53:27  PAGE 108


      010099ECH   LINE      CODE     ---       #588
      010099EEH   LINE      CODE     ---       #590
      010099EEH   LINE      CODE     ---       #591
      010099F0H   LINE      CODE     ---       #592
      010099F0H   LINE      CODE     ---       #593
      010099F2H   LINE      CODE     ---       #595
      010099F2H   LINE      CODE     ---       #596
      010099F4H   LINE      CODE     ---       #597
      010099F4H   LINE      CODE     ---       #599
      010099F6H   LINE      CODE     ---       #600
      ---         BLOCKEND  ---      ---       LVL=0

      01009B87H   BLOCK     CODE     ---       LVL=0
      01009B87H   BLOCK     CODE     NEAR LAB  LVL=1
      0200000EH   SYMBOL    XDATA    BYTE      status
      00000007H   SYMBOL    DATA     BYTE      interruptState
      ---         BLOCKEND  ---      ---       LVL=1
      01009B87H   LINE      CODE     ---       #618
      01009B87H   LINE      CODE     ---       #619
      01009B87H   LINE      CODE     ---       #620
      01009B8DH   LINE      CODE     ---       #624
      01009B90H   LINE      CODE     ---       #626
      01009B96H   LINE      CODE     ---       #627
      01009B96H   LINE      CODE     ---       #628
      01009B98H   LINE      CODE     ---       #629
      01009B9DH   LINE      CODE     ---       #647
      01009B9DH   LINE      CODE     ---       #650
      01009BA0H   LINE      CODE     ---       #652
      01009BA5H   LINE      CODE     ---       #653
      ---         BLOCKEND  ---      ---       LVL=0

      01009ECDH   BLOCK     CODE     ---       LVL=0
      01009ECDH   BLOCK     CODE     NEAR LAB  LVL=1
      00000007H   SYMBOL    DATA     BYTE      interruptState
      ---         BLOCKEND  ---      ---       LVL=1
      01009ECDH   LINE      CODE     ---       #670
      01009ECDH   LINE      CODE     ---       #671
      01009ECDH   LINE      CODE     ---       #675
      01009ED0H   LINE      CODE     ---       #678
      01009ED5H   LINE      CODE     ---       #698
      01009ED8H   LINE      CODE     ---       #699
      ---         BLOCKEND  ---      ---       LVL=0

      01009BDFH   BLOCK     CODE     ---       LVL=0
      01009BDFH   BLOCK     CODE     NEAR LAB  LVL=1
      00000007H   SYMBOL    DATA     BYTE      status
      ---         BLOCKEND  ---      ---       LVL=1
      01009BDFH   LINE      CODE     ---       #716
      01009BDFH   LINE      CODE     ---       #717
      01009BDFH   LINE      CODE     ---       #718
      01009BE1H   LINE      CODE     ---       #721
      01009BE9H   LINE      CODE     ---       #722
      01009BE9H   LINE      CODE     ---       #723
      01009BEFH   LINE      CODE     ---       #724
      01009BF2H   LINE      CODE     ---       #725
      01009BF5H   LINE      CODE     ---       #726
      01009BF7H   LINE      CODE     ---       #728
      01009BF7H   LINE      CODE     ---       #729
      01009BF9H   LINE      CODE     ---       #730
      01009BF9H   LINE      CODE     ---       #732
      01009BF9H   LINE      CODE     ---       #733
      ---         BLOCKEND  ---      ---       LVL=0

      ---         MODULE    ---      ---       SPI_IMU_INTCLOCK
      01009E3CH   PUBLIC    CODE     ---       SPI_IMU_IntClock_Start
LX51 LINKER/LOCATER V4.64.0.0                                                         11/29/2018  15:53:27  PAGE 109



      01009E3CH   BLOCK     CODE     ---       LVL=0
      01009E3CH   LINE      CODE     ---       #45
      01009E3CH   LINE      CODE     ---       #46
      01009E3CH   LINE      CODE     ---       #48
      01009E43H   LINE      CODE     ---       #49
      01009E4AH   LINE      CODE     ---       #50
      ---         BLOCKEND  ---      ---       LVL=0
      00000007H   SYMBOL    DATA     BYTE      state
      00000007H   SYMBOL    DATA     BYTE      modeBitMask
      00000007H   SYMBOL    DATA     BYTE      modeBitMask
      00000007H   SYMBOL    DATA     BYTE      oldSrc

      ---         MODULE    ---      ---       ?C?FPADD
      01004D88H   PUBLIC    CODE     ---       ?C?FPADD
      01004D84H   PUBLIC    CODE     ---       ?C?FPSUB

      ---         MODULE    ---      ---       ?C?FPMUL
      01004E79H   PUBLIC    CODE     ---       ?C?FPMUL

      ---         MODULE    ---      ---       ?C?FPDIV
      01004F82H   PUBLIC    CODE     ---       ?C?FPDIV

      ---         MODULE    ---      ---       ?C?FPCMP
      01005021H   PUBLIC    CODE     ---       ?C?FPCMP
      0100501FH   PUBLIC    CODE     ---       ?C?FPCMP3

      ---         MODULE    ---      ---       ?C?FPNEG
      01005098H   PUBLIC    CODE     ---       ?C?FPNEG

      ---         MODULE    ---      ---       ?C?FCAST
      010050B3H   PUBLIC    CODE     ---       ?C?FCASTC
      010050AEH   PUBLIC    CODE     ---       ?C?FCASTI
      010050A9H   PUBLIC    CODE     ---       ?C?FCASTL

      ---         MODULE    ---      ---       ?C?CASTF
      010050E7H   PUBLIC    CODE     ---       ?C?CASTF

      ---         MODULE    ---      ---       PRINTF
      020008B0H   PUBLIC    XDATA    ---       ?_PRINTF?BYTE
      020008B0H   PUBLIC    XDATA    ---       ?_SPRINTF?BYTE
      01005E7BH   PUBLIC    CODE     ---       _PRINTF
      01005E75H   PUBLIC    CODE     ---       _SPRINTF

      ---         MODULE    ---      ---       FABS
      01009EA8H   PUBLIC    CODE     ---       _FABS

      ---         MODULE    ---      ---       ?C?FPGETOPN
      0100511EH   PUBLIC    CODE     ---       ?C?FPGETOPN2
      01005153H   PUBLIC    CODE     ---       ?C?FPNANRESULT
      0100515DH   PUBLIC    CODE     ---       ?C?FPOVERFLOW
      01005135H   PUBLIC    CODE     ---       ?C?FPRESULT
      01005149H   PUBLIC    CODE     ---       ?C?FPRESULT2
      0100515AH   PUBLIC    CODE     ---       ?C?FPUNDERFLOW

      ---         MODULE    ---      ---       ?C?FPROUND
      01005168H   PUBLIC    CODE     ---       ?C?FPROUND

      ---         MODULE    ---      ---       ?C?FPCONVERT
      010051A5H   PUBLIC    CODE     ---       ?C?FPCONVERT

      ---         MODULE    ---      ---       ?C?FTNPWR
      010052DAH   PUBLIC    CODE     ---       ?C?FTNPWR

      ---         MODULE    ---      ---       ?C_INIT
LX51 LINKER/LOCATER V4.64.0.0                                                         11/29/2018  15:53:27  PAGE 110


      01007D7CH   PUBLIC    CODE     ---       ?C_START

      ---         MODULE    ---      ---       ?C?CLDPTR
      0100531AH   PUBLIC    CODE     ---       ?C?CLDPTR

      ---         MODULE    ---      ---       ?C?CLDOPTR
      01005333H   PUBLIC    CODE     ---       ?C?CLDOPTR

      ---         MODULE    ---      ---       ?C?CSTPTR
      01005360H   PUBLIC    CODE     ---       ?C?CSTPTR

      ---         MODULE    ---      ---       ?C?IMUL
      01005372H   PUBLIC    CODE     ---       ?C?IMUL

      ---         MODULE    ---      ---       ?C?ISTPTR
      01005384H   PUBLIC    CODE     ---       ?C?ISTPTR

      ---         MODULE    ---      ---       ?C?LMUL
      010053A3H   PUBLIC    CODE     ---       ?C?LMUL

      ---         MODULE    ---      ---       ?C?ULDIV
      0100542EH   PUBLIC    CODE     ---       ?C?ULDIV

      ---         MODULE    ---      ---       ?C?SLDIV
      01009576H   PUBLIC    CODE     ---       ?C?SLDIV

      ---         MODULE    ---      ---       ?C?LNOT
      010054C0H   PUBLIC    CODE     ---       ?C?LNOT

      ---         MODULE    ---      ---       ?C?LNEG
      010054CDH   PUBLIC    CODE     ---       ?C?LNEG

      ---         MODULE    ---      ---       ?C?ULCMP
      010054DBH   PUBLIC    CODE     ---       ?C?ULCMP

      ---         MODULE    ---      ---       ?C?ULSHR
      010054ECH   PUBLIC    CODE     ---       ?C?ULSHR

      ---         MODULE    ---      ---       ?C?SLSHR
      010054FFH   PUBLIC    CODE     ---       ?C?SLSHR

      ---         MODULE    ---      ---       ?C?LSHL
      01005513H   PUBLIC    CODE     ---       ?C?LSHL

      ---         MODULE    ---      ---       ?C?LLDPTR
      01005526H   PUBLIC    CODE     ---       ?C?LLDPTR

      ---         MODULE    ---      ---       ?C?LSTPTR
      01005546H   PUBLIC    CODE     ---       ?C?LSTPTR

      ---         MODULE    ---      ---       ?C?LSTXDATA
      01005560H   PUBLIC    CODE     ---       ?C?LSTXDATA

      ---         MODULE    ---      ---       ?C?OFFX256
      0100556CH   PUBLIC    CODE     ---       ?C?OFFX256

      ---         MODULE    ---      ---       ?C?OFFXADD
      0100557DH   PUBLIC    CODE     ---       ?C?OFFXADD

      ---         MODULE    ---      ---       ?C?PLDIXDATA
      01005589H   PUBLIC    CODE     ---       ?C?PLDIXDATA

      ---         MODULE    ---      ---       ?C?PSTXDATA
      010055A0H   PUBLIC    CODE     ---       ?C?PSTXDATA

LX51 LINKER/LOCATER V4.64.0.0                                                         11/29/2018  15:53:27  PAGE 111


      ---         MODULE    ---      ---       ?C?CCASE
      010055A9H   PUBLIC    CODE     ---       ?C?CCASE

      ---         MODULE    ---      ---       ?C_XBP
      00000028H   PUBLIC    DATA     ---       ?C_XBP

      ---         MODULE    ---      ---       ?C?ADDXBP
      010055CFH   PUBLIC    CODE     ---       ?C?ADDXBP

      ---         MODULE    ---      ---       ?C?LIMUL
      010055F3H   PUBLIC    CODE     ---       ?C?LIMUL

      ---         MODULE    ---      ---       PUTCHAR
      01009A51H   PUBLIC    CODE     ---       _PUTCHAR

      ---         MODULE    ---      ---       STRCAT
      020008B0H   PUBLIC    XDATA    ---       ?_STRCAT?BYTE
      0100908EH   PUBLIC    CODE     ---       _STRCAT

      ---         MODULE    ---      ---       STRLEN
      01009D0FH   PUBLIC    CODE     ---       _STRLEN

      ---         MODULE    ---      ---       ?C?MEMSET
      01005620H   PUBLIC    CODE     ---       ?C?MEMSET

      ---         MODULE    ---      ---       ?C?COPYAMD
      01005708H   PUBLIC    CODE     ---       ?C?COPYAMD

      ---         MODULE    ---      ---       ?C?STRCPYAMD
      010057E6H   PUBLIC    CODE     ---       ?C?STRCPYAMD

      ---         MODULE    ---      ---       ?C?IILDX
      01005803H   PUBLIC    CODE     ---       ?C?IILDX

      ---         MODULE    ---      ---       ?C?ILDIX
      01005819H   PUBLIC    CODE     ---       ?C?ILDIX

      ---         MODULE    ---      ---       ?C?LLDIDATA
      0100582FH   PUBLIC    CODE     ---       ?C?LLDIDATA

      ---         MODULE    ---      ---       ?C?LLDXDATA
      0100583BH   PUBLIC    CODE     ---       ?C?LLDXDATA

      ---         MODULE    ---      ---       ?C?LLDPDATA
      01005847H   PUBLIC    CODE     ---       ?C?LLDPDATA

      ---         MODULE    ---      ---       ?C?LLDCODE
      01005853H   PUBLIC    CODE     ---       ?C?LLDCODE

      ---         MODULE    ---      ---       ?C?LSTIDATA
      01005863H   PUBLIC    CODE     ---       ?C?LSTIDATA

      ---         MODULE    ---      ---       ?C?LSTPDATA
      0100586FH   PUBLIC    CODE     ---       ?C?LSTPDATA



INTER-MODULE CROSS-REFERENCE LISTING


NAME . . . . . . . . . . . . . . . . . CLASS    MODULE NAMES
============================================================

?_Bootloadable_SetFlashByte?BYTE . . . XDATA    BOOTLOADABLE  
?_cyconfigcpy?BYTE . . . . . . . . . . XDATA    CYMEM  CYFITTER_CFG  
LX51 LINKER/LOCATER V4.64.0.0                                                         11/29/2018  15:53:27  PAGE 112


?_CyDmaChSetConfiguration?BYTE . . . . XDATA    CYDMAC  DMA_DMA  
?_CyDmaChStatus?BYTE . . . . . . . . . XDATA    CYDMAC  
?_CyDmaTdGetAddress?BYTE . . . . . . . XDATA    CYDMAC  
?_CyDmaTdGetConfiguration?BYTE . . . . XDATA    CYDMAC  
?_CyDmaTdSetConfiguration?BYTE . . . . XDATA    CYDMAC  MAIN  
?_CySpcLoadMultiByte?BYTE. . . . . . . XDATA    CYSPC  EEPROM  
?_CySpcLoadRow?BYTE. . . . . . . . . . XDATA    CYSPC  EEPROM  
?_CySpcLoadRowFull?BYTE. . . . . . . . XDATA    CYSPC  CYFLASH  
?_CySpcWriteRow?BYTE . . . . . . . . . XDATA    CYSPC  CYFLASH  EEPROM  
?_CyWriteRowFull?BYTE. . . . . . . . . XDATA    CYFLASH  
?_DMA_DmaInitialize?BYTE . . . . . . . XDATA    DMA_DMA  MAIN  
?_PRINTF?BYTE. . . . . . . . . . . . . XDATA    PRINTF  
?_SPRINTF?BYTE . . . . . . . . . . . . XDATA    PRINTF  COMMAND_PROCESSING  
?_strcat?BYTE. . . . . . . . . . . . . XDATA    STRCAT  COMMAND_PROCESSING  
?C?ADDXBP. . . . . . . . . . . . . . . CODE     ?C?ADDXBP  CYLIB  
?C?CASTF . . . . . . . . . . . . . . . CODE     ?C?CASTF  ADC  
?C?CCASE . . . . . . . . . . . . . . . CODE     ?C?CCASE  COMMAND_PROCESSING  PRINTF  
?C?CLDOPTR . . . . . . . . . . . . . . CODE     ?C?CLDOPTR  PRINTF  
?C?CLDPTR. . . . . . . . . . . . . . . CODE     ?C?CLDPTR  COMMAND_PROCESSING  CYSPC  PRINTF  SPI_IMU  STRCAT  STRLEN  U
                                                ART_RS485  
?C?CODESEG . . . . . . . . . . . . . . NUMBER   ** LX51 GENERATED **  
?C?COPYAMD . . . . . . . . . . . . . . CODE     ?C?COPYAMD  COMMAND_PROCESSING  INTERRUPTIONS  
?C?CSTPTR. . . . . . . . . . . . . . . CODE     ?C?CSTPTR  CYDMAC  CYSPC  PRINTF  STRCAT  
?C?FCASTC. . . . . . . . . . . . . . . CODE     ?C?FCAST  
?C?FCASTI. . . . . . . . . . . . . . . CODE     ?C?FCAST  ADC  IMU_FUNCTIONS  
?C?FCASTL. . . . . . . . . . . . . . . CODE     ?C?FCAST  ADC  COMMAND_PROCESSING  IMU_FUNCTIONS  
?C?FPADD . . . . . . . . . . . . . . . CODE     ?C?FPADD  ?C?FPCONVERT  IMU_FUNCTIONS  UTILS  
?C?FPCMP . . . . . . . . . . . . . . . CODE     ?C?FPCMP  
?C?FPCMP3. . . . . . . . . . . . . . . CODE     ?C?FPCMP  ADC  IMU_FUNCTIONS  
?C?FPCONVERT . . . . . . . . . . . . . CODE     ?C?FPCONVERT  PRINTF  
?C?FPDIV . . . . . . . . . . . . . . . CODE     ?C?FPDIV  ?C?FPCONVERT  ADC  COMMAND_PROCESSING  IMU_FUNCTIONS  
?C?FPGETOPN2 . . . . . . . . . . . . . CODE     ?C?FPGETOPN  ?C?FPADD  ?C?FPDIV  ?C?FPMUL  
?C?FPMUL . . . . . . . . . . . . . . . CODE     ?C?FPMUL  ?C?FPCONVERT  ?C?FTNPWR  ADC  IMU_FUNCTIONS  UTILS  
?C?FPNANRESULT . . . . . . . . . . . . CODE     ?C?FPGETOPN  ?C?FPADD  ?C?FPDIV  ?C?FPMUL  
?C?FPNEG . . . . . . . . . . . . . . . CODE     ?C?FPNEG  IMU_FUNCTIONS  
?C?FPOVERFLOW. . . . . . . . . . . . . CODE     ?C?FPGETOPN  ?C?FPADD  ?C?FPDIV  ?C?FPMUL  
?C?FPRESULT. . . . . . . . . . . . . . CODE     ?C?FPGETOPN  ?C?FPADD  ?C?FPDIV  ?C?FPMUL  
?C?FPRESULT2 . . . . . . . . . . . . . CODE     ?C?FPGETOPN  ?C?FPDIV  ?C?FPMUL  
?C?FPROUND . . . . . . . . . . . . . . CODE     ?C?FPROUND  PRINTF  
?C?FPSUB . . . . . . . . . . . . . . . CODE     ?C?FPADD  IMU_FUNCTIONS  UTILS  
?C?FPUNDERFLOW . . . . . . . . . . . . CODE     ?C?FPGETOPN  ?C?FPADD  ?C?FPDIV  ?C?FPMUL  
?C?FTNPWR. . . . . . . . . . . . . . . CODE     ?C?FTNPWR  ?C?FPCONVERT  
?C?IILDX . . . . . . . . . . . . . . . CODE     ?C?IILDX  STRCAT  
?C?ILDIX . . . . . . . . . . . . . . . CODE     ?C?ILDIX  STRCAT  
?C?IMUL. . . . . . . . . . . . . . . . CODE     ?C?IMUL  COMMAND_PROCESSING  
?C?ISTPTR. . . . . . . . . . . . . . . CODE     ?C?ISTPTR  CYDMAC  
?C?LIMUL . . . . . . . . . . . . . . . CODE     ?C?LIMUL  CYSPC  
?C?LLDCODE . . . . . . . . . . . . . . CODE     ?C?LLDCODE  ?C?LLDPTR  
?C?LLDIDATA. . . . . . . . . . . . . . CODE     ?C?LLDIDATA  ?C?LLDPTR  
?C?LLDPDATA. . . . . . . . . . . . . . CODE     ?C?LLDPDATA  ?C?LLDPTR  
?C?LLDPTR. . . . . . . . . . . . . . . CODE     ?C?LLDPTR  CYLIB  UTILS  
?C?LLDXDATA. . . . . . . . . . . . . . CODE     ?C?LLDXDATA  ?C?LLDPTR  
?C?LMUL. . . . . . . . . . . . . . . . CODE     ?C?LMUL  ADC  CYLIB  CYPM  
?C?LNEG. . . . . . . . . . . . . . . . CODE     ?C?LNEG  ?C?CASTF  ?C?FCAST  
?C?LNOT. . . . . . . . . . . . . . . . CODE     ?C?LNOT  CYDMAC  
?C?LSHL. . . . . . . . . . . . . . . . CODE     ?C?LSHL  ADC  CYDMAC  CYLIB  
?C?LSTIDATA. . . . . . . . . . . . . . CODE     ?C?LSTIDATA  ?C?LSTPTR  
?C?LSTPDATA. . . . . . . . . . . . . . CODE     ?C?LSTPDATA  ?C?LSTPTR  
?C?LSTPTR. . . . . . . . . . . . . . . CODE     ?C?LSTPTR  CYLIB  UTILS  
?C?LSTXDATA. . . . . . . . . . . . . . CODE     ?C?LSTXDATA  ?C?LSTPTR  ADC  BOOTLOADABLE  COMMAND_PROCESSING  CYDMAC  C
                                                YFITTER_CFG  CYLIB  CYSPC  IMU_FUNCTIONS  INTERRUPTIONS  UTILS  
?C?MEMSET. . . . . . . . . . . . . . . CODE     ?C?MEMSET  COMMAND_PROCESSING  IMU_FUNCTIONS  
?C?OFFX256 . . . . . . . . . . . . . . CODE     ?C?OFFX256  COMMAND_PROCESSING  
?C?OFFXADD . . . . . . . . . . . . . . CODE     ?C?OFFXADD  COMMAND_PROCESSING  IMU_FUNCTIONS  
?C?PLDIXDATA . . . . . . . . . . . . . CODE     ?C?PLDIXDATA  PRINTF  
LX51 LINKER/LOCATER V4.64.0.0                                                         11/29/2018  15:53:27  PAGE 113


?C?PSTXDATA. . . . . . . . . . . . . . CODE     ?C?PSTXDATA  PRINTF  
?C?SLDIV . . . . . . . . . . . . . . . CODE     ?C?SLDIV  ADC  
?C?SLSHR . . . . . . . . . . . . . . . CODE     ?C?SLSHR  UTILS  
?C?STRCPYAMD . . . . . . . . . . . . . CODE     ?C?STRCPYAMD  COMMAND_PROCESSING  
?C?ULCMP . . . . . . . . . . . . . . . CODE     ?C?ULCMP  CYDMAC  CYFLASH  
?C?ULDIV . . . . . . . . . . . . . . . CODE     ?C?ULDIV  ?C?SLDIV  ADC  BOOTLOADABLE  CYLIB  CYPM  
?C?ULSHR . . . . . . . . . . . . . . . CODE     ?C?ULSHR  CYLIB  
?C?XDATASEG. . . . . . . . . . . . . . NUMBER   ** LX51 GENERATED **  
?C?XPAGE1RST . . . . . . . . . . . . . NUMBER   ?C_STARTUP  ADC_INT  INTERRUPTIONS  ISR_RS485_RX  UART_RS485_INT  
?C?XPAGE1SFR . . . . . . . . . . . . . DATA     ?C_STARTUP  ADC_INT  INTERRUPTIONS  ISR_RS485_RX  UART_RS485_INT  
?C_START . . . . . . . . . . . . . . . CODE     ?C_INIT  ?C_STARTUP  
?C_STARTUP . . . . . . . . . . . . . . CODE     ?C_STARTUP  MAIN  
?C_XBP . . . . . . . . . . . . . . . . DATA     ?C_XBP  ?C?ADDXBP  ?C_STARTUP  CYLIB  
_?CyDelay. . . . . . . . . . . . . . . CODE     CYLIB  COMMAND_PROCESSING  CYBOOTASMKEIL  IMU_FUNCTIONS  MAIN  
_?CyDelayFreq. . . . . . . . . . . . . CODE     CYLIB  
_?CyHalt . . . . . . . . . . . . . . . CODE     CYLIB  
_ADC_AMux_FastSelect . . . . . . . . . CODE     ADC_AMUX  
_ADC_AMux_Select . . . . . . . . . . . CODE     ADC_AMUX  ADC  
_ADC_AMux_Set. . . . . . . . . . . . . CODE     CYFITTER_CFG  ADC_AMUX  
_ADC_AMux_Unset. . . . . . . . . . . . CODE     CYFITTER_CFG  ADC_AMUX  
_ADC_CountsTo_mVolts . . . . . . . . . CODE     ADC  
_ADC_CountsTo_uVolts . . . . . . . . . CODE     ADC  
_ADC_CountsTo_Volts. . . . . . . . . . CODE     ADC  
_ADC_Ext_CP_Clk_ClearModeRegister. . . CODE     ADC_EXT_CP_CLK  
_ADC_Ext_CP_Clk_SetDividerRegister . . CODE     ADC_EXT_CP_CLK  ADC  
_ADC_Ext_CP_Clk_SetModeRegister. . . . CODE     ADC_EXT_CP_CLK  ADC  
_ADC_Ext_CP_Clk_SetSourceRegister. . . CODE     ADC_EXT_CP_CLK  
_ADC_Ext_CP_Clk_StandbyPower . . . . . CODE     ADC_EXT_CP_CLK  
_ADC_IsEndConversion . . . . . . . . . CODE     ADC  
_ADC_SelectConfiguration . . . . . . . CODE     ADC  
_ADC_SetBufferGain . . . . . . . . . . CODE     ADC  
_ADC_SetCoherency. . . . . . . . . . . CODE     ADC  
_ADC_SetGain . . . . . . . . . . . . . CODE     ADC  
_ADC_SetGCOR . . . . . . . . . . . . . CODE     ADC  
_ADC_SetOffset . . . . . . . . . . . . CODE     ADC  
_ADC_SOC_Write . . . . . . . . . . . . CODE     ADC_SOC  INTERRUPTIONS  MAIN  
_ADC_STATUS_WriteMask. . . . . . . . . CODE     ADC_STATUS  
_ADC_theACLK_ClearModeRegister . . . . CODE     ADC_THEACLK  
_ADC_theACLK_SetDividerRegister. . . . CODE     ADC_THEACLK  ADC  
_ADC_theACLK_SetModeRegister . . . . . CODE     ADC_THEACLK  ADC  
_ADC_theACLK_SetPhaseRegister. . . . . CODE     ADC_THEACLK  
_ADC_theACLK_SetSourceRegister . . . . CODE     ADC_THEACLK  
_ADC_theACLK_StandbyPower. . . . . . . CODE     ADC_THEACLK  
_Bootloadable_SetFlashByte . . . . . . CODE     BOOTLOADABLE  
_cfg_write_bytes . . . . . . . . . . . CODE     CYMEM  
_cfg_write_bytes_code. . . . . . . . . CODE     CYMEM  
_Chip_Select_A_Write . . . . . . . . . CODE     CHIP_SELECT_A  IMU_FUNCTIONS  
_Chip_Select_B_Write . . . . . . . . . CODE     CHIP_SELECT_B  IMU_FUNCTIONS  
_ChipSelector. . . . . . . . . . . . . CODE     IMU_FUNCTIONS  
_CLOCK_UART_ClearModeRegister. . . . . CODE     CLOCK_UART  
_CLOCK_UART_SetDividerRegister . . . . CODE     CLOCK_UART  COMMAND_PROCESSING  
_CLOCK_UART_SetModeRegister. . . . . . CODE     CLOCK_UART  
_CLOCK_UART_SetSourceRegister. . . . . CODE     CLOCK_UART  
_CLOCK_UART_StandbyPower . . . . . . . CODE     CLOCK_UART  
_commWrite . . . . . . . . . . . . . . CODE     COMMAND_PROCESSING  
_CyBusClk_SetDivider . . . . . . . . . CODE     CYLIB  CYPM  
_cyconfigcpy . . . . . . . . . . . . . CODE     CYMEM  CYFITTER_CFG  
_cyconfigcpycode . . . . . . . . . . . CODE     CYMEM  CYFITTER_CFG  
_CyCpuClk_SetDivider . . . . . . . . . CODE     CYLIB  
_CyDelay . . . . . . . . . . . . . . . CODE     CYBOOTASMKEIL  
_CyDelayCycles . . . . . . . . . . . . CODE     CYBOOTASMKEIL  CYFITTER_CFG  CYLIB  CYPM  
_CyDelayUs . . . . . . . . . . . . . . CODE     CYBOOTASMKEIL  ADC  CYFLASH  CYLIB  CYPM  CYSPC  IMU_FUNCTIONS  
_CyDmacClearError. . . . . . . . . . . CODE     CYDMAC  
_CyDmaChDisable. . . . . . . . . . . . CODE     CYDMAC  DMA_DMA  
_CyDmaChEnable . . . . . . . . . . . . CODE     CYDMAC  MAIN  
LX51 LINKER/LOCATER V4.64.0.0                                                         11/29/2018  15:53:27  PAGE 114


_CyDmaChFree . . . . . . . . . . . . . CODE     CYDMAC  
_CyDmaChGetRequest . . . . . . . . . . CODE     CYDMAC  
_CyDmaChPriority . . . . . . . . . . . CODE     CYDMAC  DMA_DMA  
_CyDmaChRoundRobin . . . . . . . . . . CODE     CYDMAC  
_CyDmaChSetConfiguration . . . . . . . CODE     CYDMAC  DMA_DMA  
_CyDmaChSetExtendedAddress . . . . . . CODE     CYDMAC  DMA_DMA  
_CyDmaChSetInitialTd . . . . . . . . . CODE     CYDMAC  MAIN  
_CyDmaChSetRequest . . . . . . . . . . CODE     CYDMAC  
_CyDmaChStatus . . . . . . . . . . . . CODE     CYDMAC  
_CyDmaClearPendingDrq. . . . . . . . . CODE     CYDMAC  
_CyDmaTdFree . . . . . . . . . . . . . CODE     CYDMAC  
_CyDmaTdGetAddress . . . . . . . . . . CODE     CYDMAC  
_CyDmaTdGetConfiguration . . . . . . . CODE     CYDMAC  
_CyDmaTdSetAddress . . . . . . . . . . CODE     CYDMAC  MAIN  
_CyDmaTdSetConfiguration . . . . . . . CODE     CYDMAC  MAIN  
_CyEnableInts. . . . . . . . . . . . . CODE     CYLIB  
_CyExitCriticalSection . . . . . . . . CODE     CYBOOTASMKEIL  ADC  ADC_STATUS  CYDMAC  CYFLASH  CYLIB  CYPM  CYSPC  EEP
                                                ROM  FF_STATUS  MY_TIMER  SPI_IMU  UART_RS485  
_CyFlash_SetWaitCycles . . . . . . . . CODE     CYFLASH  CYPM  
_CyGetUniqueId . . . . . . . . . . . . CODE     CYLIB  
_CyILO_SetPowerMode. . . . . . . . . . CODE     CYLIB  CYPM  
_CyILO_SetSource . . . . . . . . . . . CODE     CYLIB  
_CyIMO_SetFreq . . . . . . . . . . . . CODE     CYLIB  CYPM  
_CyIMO_SetSource . . . . . . . . . . . CODE     CYLIB  CYPM  
_CyIMO_Start . . . . . . . . . . . . . CODE     CYLIB  CYPM  
_CyIntGetPriority. . . . . . . . . . . CODE     CYLIB  
_CyIntGetState . . . . . . . . . . . . CODE     CYLIB  
_CyIntGetVector. . . . . . . . . . . . CODE     CYLIB  
_CyIntSetPriority. . . . . . . . . . . CODE     CYLIB  ADC  UART_RS485  
_CyIntSetVector. . . . . . . . . . . . CODE     CYLIB  ADC  UART_RS485  
_CyMasterClk_SetDivider. . . . . . . . CODE     CYLIB  CYPM  
_CyMasterClk_SetSource . . . . . . . . CODE     CYLIB  CYPM  
_cymemzero . . . . . . . . . . . . . . CODE     CYMEM  
_CyPLL_OUT_SetPQ . . . . . . . . . . . CODE     CYLIB  
_CyPLL_OUT_SetSource . . . . . . . . . CODE     CYLIB  
_CyPLL_OUT_Start . . . . . . . . . . . CODE     CYLIB  CYPM  
_CyPmAltAct. . . . . . . . . . . . . . CODE     CYPM  
_CyPmCtwSetInterval. . . . . . . . . . CODE     CYPM  
_CyPmFtwSetInterval. . . . . . . . . . CODE     CYPM  CYLIB  
_CyPmHibernateEx . . . . . . . . . . . CODE     CYPM  
_CyPmReadStatus. . . . . . . . . . . . CODE     CYPM  CYLIB  
_CyPmSleep . . . . . . . . . . . . . . CODE     CYPM  
_cyread16. . . . . . . . . . . . . . . CODE     CYMEM  
_cyread16_nodpx. . . . . . . . . . . . CODE     CYMEM  ADC  ADC_EXT_CP_CLK  ADC_THEACLK  CLOCK_UART  CYDMAC  CYLIB  ISR_
                                                RS485_RX  PACER_TIMER  SPI_IMU_INTCLOCK  
_cyread24. . . . . . . . . . . . . . . CODE     CYMEM  
_cyread24_nodpx. . . . . . . . . . . . CODE     CYMEM  MY_TIMER  
_cyread32. . . . . . . . . . . . . . . CODE     CYMEM  
_cyread32_nodpx. . . . . . . . . . . . CODE     CYMEM  CYDMAC  
_cyread8 . . . . . . . . . . . . . . . CODE     CYMEM  ADC  CYFITTER_CFG  CYLIB  CYSPC  
_cyread8_nodpx . . . . . . . . . . . . CODE     CYMEM  
_CySetFlashEEBuffer. . . . . . . . . . CODE     CYFLASH  
_CySpcEraseSector. . . . . . . . . . . CODE     CYSPC  EEPROM  
_CySpcGetTemp. . . . . . . . . . . . . CODE     CYSPC  CYFLASH  
_CySpcLoadMultiByte. . . . . . . . . . CODE     CYSPC  EEPROM  
_CySpcLoadRow. . . . . . . . . . . . . CODE     CYSPC  EEPROM  
_CySpcLoadRowFull. . . . . . . . . . . CODE     CYSPC  CYFLASH  
_CySpcReadData . . . . . . . . . . . . CODE     CYSPC  CYFLASH  
_CySpcWriteRow . . . . . . . . . . . . CODE     CYSPC  CYFLASH  EEPROM  
_CyUsbClk_SetSource. . . . . . . . . . CODE     CYLIB  
_CyVdLvAnalogEnable. . . . . . . . . . CODE     CYLIB  CYPM  
_CyVdLvDigitEnable . . . . . . . . . . CODE     CYLIB  CYPM  
_CyVdStickyStatus. . . . . . . . . . . CODE     CYLIB  
_CyWdtStart. . . . . . . . . . . . . . CODE     CYLIB  
_cywrite16 . . . . . . . . . . . . . . CODE     CYMEM  CYFITTER_CFG  
LX51 LINKER/LOCATER V4.64.0.0                                                         11/29/2018  15:53:27  PAGE 115


_cywrite16_nodpx . . . . . . . . . . . CODE     CYMEM  ADC  ADC_EXT_CP_CLK  ADC_THEACLK  CLOCK_UART  CYDMAC  CYFITTER_CF
                                                G  CYLIB  ISR_RS485_RX  PACER_TIMER  SPI_IMU_INTCLOCK  
_cywrite24 . . . . . . . . . . . . . . CODE     CYMEM  
_cywrite24_nodpx . . . . . . . . . . . CODE     CYMEM  MY_TIMER  
_cywrite32 . . . . . . . . . . . . . . CODE     CYMEM  
_cywrite32_nodpx . . . . . . . . . . . CODE     CYMEM  
_cywrite8. . . . . . . . . . . . . . . CODE     CYMEM  CYFITTER_CFG  
_cywrite8_nodpx. . . . . . . . . . . . CODE     CYMEM  
_CyWriteRowData. . . . . . . . . . . . CODE     CYFLASH  BOOTLOADABLE  
_CyWriteRowFull. . . . . . . . . . . . CODE     CYFLASH  
_CyXTAL_32KHZ_SetPowerMode . . . . . . CODE     CYLIB  
_CyXTAL_SetFbVoltage . . . . . . . . . CODE     CYLIB  
_CyXTAL_SetStartup . . . . . . . . . . CODE     CYLIB  
_CyXTAL_SetWdVoltage . . . . . . . . . CODE     CYLIB  
_CyXTAL_Start. . . . . . . . . . . . . CODE     CYLIB  CYPM  
_DMA_DmaInitialize . . . . . . . . . . CODE     DMA_DMA  MAIN  
_dma_wait. . . . . . . . . . . . . . . CODE     ?C_STARTUP  
_EEPROM_ByteWritePos . . . . . . . . . CODE     EEPROM  
_EEPROM_EraseSector. . . . . . . . . . CODE     EEPROM  
_EEPROM_ReadByte . . . . . . . . . . . CODE     EEPROM  
_EEPROM_StartErase . . . . . . . . . . CODE     EEPROM  
_EEPROM_StartWrite . . . . . . . . . . CODE     EEPROM  
_EEPROM_Write. . . . . . . . . . . . . CODE     EEPROM  COMMAND_PROCESSING  
_EEPROM_WriteByte. . . . . . . . . . . CODE     EEPROM  
_FABS. . . . . . . . . . . . . . . . . CODE     FABS  IMU_FUNCTIONS  
_FF_STATUS_WriteMask . . . . . . . . . CODE     FF_STATUS  
_FTDI_ENABLE_REG_Write . . . . . . . . CODE     FTDI_ENABLE_REG  COMMAND_PROCESSING  MAIN  
_get_param_list. . . . . . . . . . . . CODE     COMMAND_PROCESSING  
_infoGet . . . . . . . . . . . . . . . CODE     COMMAND_PROCESSING  INTERRUPTIONS  
_infoPrepare . . . . . . . . . . . . . CODE     COMMAND_PROCESSING  
_infoReading . . . . . . . . . . . . . CODE     COMMAND_PROCESSING  
_invSqrt . . . . . . . . . . . . . . . CODE     UTILS  
_ISR_RS485_RX_SetPriority. . . . . . . CODE     ISR_RS485_RX  
_ISR_RS485_RX_SetVector. . . . . . . . CODE     ISR_RS485_RX  
_ISR_RS485_RX_StartEx. . . . . . . . . CODE     ISR_RS485_RX  MAIN  
_LCRChecksum . . . . . . . . . . . . . CODE     COMMAND_PROCESSING  
_memStore. . . . . . . . . . . . . . . CODE     COMMAND_PROCESSING  
_MY_TIMER_SetInterruptMode . . . . . . CODE     MY_TIMER  
_MY_TIMER_WriteControlRegister . . . . CODE     MY_TIMER  
_MY_TIMER_WriteCounter . . . . . . . . CODE     MY_TIMER  INTERRUPTIONS  
_MY_TIMER_WritePeriod. . . . . . . . . CODE     MY_TIMER  
_Opto_Pin_SetDriveMode . . . . . . . . CODE     OPTO_PIN  
_Opto_Pin_Write. . . . . . . . . . . . CODE     OPTO_PIN  IMU_FUNCTIONS  MAIN  
_PACER_TIMER_SetInterruptMode. . . . . CODE     PACER_TIMER  
_PACER_TIMER_WriteControlRegister. . . CODE     PACER_TIMER  
_PACER_TIMER_WriteCounter. . . . . . . CODE     PACER_TIMER  
_PACER_TIMER_WritePeriod . . . . . . . CODE     PACER_TIMER  
_PRINTF. . . . . . . . . . . . . . . . CODE     PRINTF  
_PUTCHAR . . . . . . . . . . . . . . . CODE     PUTCHAR  PRINTF  
_ReadAcc . . . . . . . . . . . . . . . CODE     IMU_FUNCTIONS  
_ReadControlRegister . . . . . . . . . CODE     IMU_FUNCTIONS  
_ReadGyro. . . . . . . . . . . . . . . CODE     IMU_FUNCTIONS  
_ReadIMU . . . . . . . . . . . . . . . CODE     IMU_FUNCTIONS  
_ReadMag . . . . . . . . . . . . . . . CODE     IMU_FUNCTIONS  
_ReadMagCal. . . . . . . . . . . . . . CODE     IMU_FUNCTIONS  
_ReadQuat. . . . . . . . . . . . . . . CODE     IMU_FUNCTIONS  
_ReadTemp. . . . . . . . . . . . . . . CODE     IMU_FUNCTIONS  
_RESET_FF_Write. . . . . . . . . . . . CODE     RESET_FF  MAIN  
_RS485_CTS_Write . . . . . . . . . . . CODE     RS485_CTS  COMMAND_PROCESSING  INTERRUPTIONS  MAIN  
_sendAcknowledgment. . . . . . . . . . CODE     COMMAND_PROCESSING  
_SetAnalogRoutingPumps . . . . . . . . CODE     CYFITTER_CFG  
_SPI_IMU_IntClock_ClearModeRegister. . CODE     SPI_IMU_INTCLOCK  
_SPI_IMU_IntClock_SetDividerRegister . CODE     SPI_IMU_INTCLOCK  
_SPI_IMU_IntClock_SetModeRegister. . . CODE     SPI_IMU_INTCLOCK  
_SPI_IMU_IntClock_SetSourceRegister. . CODE     SPI_IMU_INTCLOCK  
LX51 LINKER/LOCATER V4.64.0.0                                                         11/29/2018  15:53:27  PAGE 116


_SPI_IMU_IntClock_StandbyPower . . . . CODE     SPI_IMU_INTCLOCK  
_SPI_IMU_PutArray. . . . . . . . . . . CODE     SPI_IMU  
_SPI_IMU_SetInterruptMode. . . . . . . CODE     SPI_IMU  
_SPI_IMU_SetRxInterruptMode. . . . . . CODE     SPI_IMU  
_SPI_IMU_SetTxInterruptMode. . . . . . CODE     SPI_IMU  
_SPI_IMU_WriteTxData . . . . . . . . . CODE     SPI_IMU  IMU_FUNCTIONS  
_SPRINTF . . . . . . . . . . . . . . . CODE     PRINTF  COMMAND_PROCESSING  
_strcat. . . . . . . . . . . . . . . . CODE     STRCAT  COMMAND_PROCESSING  
_STRLEN. . . . . . . . . . . . . . . . CODE     STRLEN  COMMAND_PROCESSING  
_UART_RS485_PutArray . . . . . . . . . CODE     UART_RS485  
_UART_RS485_PutChar. . . . . . . . . . CODE     UART_RS485  COMMAND_PROCESSING  
_UART_RS485_PutCRLF. . . . . . . . . . CODE     UART_RS485  
_UART_RS485_PutString. . . . . . . . . CODE     UART_RS485  COMMAND_PROCESSING  
_UART_RS485_SendBreak. . . . . . . . . CODE     UART_RS485  
_UART_RS485_SetRxAddress1. . . . . . . CODE     UART_RS485  
_UART_RS485_SetRxAddress2. . . . . . . CODE     UART_RS485  
_UART_RS485_SetRxAddressMode . . . . . CODE     UART_RS485  
_UART_RS485_SetRxInterruptMode . . . . CODE     UART_RS485  
_UART_RS485_SetTxAddressMode . . . . . CODE     UART_RS485  
_UART_RS485_SetTxInterruptMode . . . . CODE     UART_RS485  
_UART_RS485_WriteControlRegister . . . CODE     UART_RS485  
_UART_RS485_WriteTxData. . . . . . . . CODE     UART_RS485  
_v3_normalize. . . . . . . . . . . . . CODE     UTILS  IMU_FUNCTIONS  
_v4_normalize. . . . . . . . . . . . . CODE     UTILS  IMU_FUNCTIONS  
_WriteControlRegister. . . . . . . . . CODE     IMU_FUNCTIONS  
AC . . . . . . . . . . . . . . . . . . DATA     COMMAND_PROCESSING  
ACC. . . . . . . . . . . . . . . . . . DATA     COMMAND_PROCESSING  
Accel. . . . . . . . . . . . . . . . . XDATA    GLOBALS  IMU_FUNCTIONS  
ADC_AMux__addrTable. . . . . . . . . . CONST    CYFITTER_CFG  
ADC_AMux__maskTable. . . . . . . . . . CONST    CYFITTER_CFG  
ADC_AMux_Start . . . . . . . . . . . . CODE     ADC_AMUX  
ADC_buf. . . . . . . . . . . . . . . . XDATA    GLOBALS  INTERRUPTIONS  MAIN  
ADC_Config . . . . . . . . . . . . . . XDATA    ADC  
ADC_convDone . . . . . . . . . . . . . XDATA    ADC  
ADC_CountsPerVolt. . . . . . . . . . . XDATA    ADC  
ADC_Enable . . . . . . . . . . . . . . CODE     ADC  
ADC_Ext_CP_Clk_GetDividerRegister. . . CODE     ADC_EXT_CP_CLK  
ADC_Ext_CP_Clk_GetModeRegister . . . . CODE     ADC_EXT_CP_CLK  
ADC_Ext_CP_Clk_GetSourceRegister . . . CODE     ADC_EXT_CP_CLK  
ADC_Ext_CP_Clk_Start . . . . . . . . . CODE     ADC_EXT_CP_CLK  
ADC_Ext_CP_Clk_Stop. . . . . . . . . . CODE     ADC_EXT_CP_CLK  
ADC_Ext_CP_Clk_StopBlock . . . . . . . CODE     ADC_EXT_CP_CLK  
ADC_GetResult16. . . . . . . . . . . . CODE     ADC  
ADC_GetResult32. . . . . . . . . . . . CODE     ADC  
ADC_GetResult8 . . . . . . . . . . . . CODE     ADC  
ADC_Init . . . . . . . . . . . . . . . CODE     ADC  
ADC_initVar. . . . . . . . . . . . . . XDATA    ADC  
ADC_ISR1 . . . . . . . . . . . . . . . CODE     ADC_INT  ADC  
ADC_ISR2 . . . . . . . . . . . . . . . CODE     ADC_INT  
ADC_ISR3 . . . . . . . . . . . . . . . CODE     ADC_INT  
ADC_ISR4 . . . . . . . . . . . . . . . CODE     ADC_INT  
ADC_Offset . . . . . . . . . . . . . . XDATA    ADC  
ADC_Read16 . . . . . . . . . . . . . . CODE     ADC  
ADC_Read32 . . . . . . . . . . . . . . CODE     ADC  
ADC_Read8. . . . . . . . . . . . . . . CODE     ADC  
ADC_ReadGCOR . . . . . . . . . . . . . CODE     ADC  
ADC_SOC_Read . . . . . . . . . . . . . CODE     ADC_SOC  
ADC_Start. . . . . . . . . . . . . . . CODE     ADC  MAIN  
ADC_StartConvert . . . . . . . . . . . CODE     ADC  
ADC_started. . . . . . . . . . . . . . XDATA    ADC  
ADC_STATUS_InterruptDisable. . . . . . CODE     ADC_STATUS  
ADC_STATUS_InterruptEnable . . . . . . CODE     ADC_STATUS  
ADC_STATUS_Read. . . . . . . . . . . . CODE     ADC_STATUS  INTERRUPTIONS  
ADC_STATUS_ReadMask. . . . . . . . . . CODE     ADC_STATUS  
ADC_Stop . . . . . . . . . . . . . . . CODE     ADC  
LX51 LINKER/LOCATER V4.64.0.0                                                         11/29/2018  15:53:27  PAGE 117


ADC_stopConversion . . . . . . . . . . XDATA    ADC  
ADC_StopConvert. . . . . . . . . . . . CODE     ADC  
ADC_theACLK_GetDividerRegister . . . . CODE     ADC_THEACLK  
ADC_theACLK_GetModeRegister. . . . . . CODE     ADC_THEACLK  
ADC_theACLK_GetPhaseRegister . . . . . CODE     ADC_THEACLK  
ADC_theACLK_GetSourceRegister. . . . . CODE     ADC_THEACLK  
ADC_theACLK_Start. . . . . . . . . . . CODE     ADC_THEACLK  
ADC_theACLK_Stop . . . . . . . . . . . CODE     ADC_THEACLK  
ADC_theACLK_StopBlock. . . . . . . . . CODE     ADC_THEACLK  
analog_read_end. . . . . . . . . . . . CODE     INTERRUPTIONS  
B. . . . . . . . . . . . . . . . . . . DATA     COMMAND_PROCESSING  
Bootloadable_Load. . . . . . . . . . . CODE     BOOTLOADABLE  COMMAND_PROCESSING  
c_mem. . . . . . . . . . . . . . . . . XDATA    GLOBALS  COMMAND_PROCESSING  IMU_FUNCTIONS  INTERRUPTIONS  
Chip_Select_A_Read . . . . . . . . . . CODE     CHIP_SELECT_A  
Chip_Select_B_Read . . . . . . . . . . CODE     CHIP_SELECT_B  
CLOCK_UART_GetDividerRegister. . . . . CODE     CLOCK_UART  
CLOCK_UART_GetModeRegister . . . . . . CODE     CLOCK_UART  
CLOCK_UART_GetSourceRegister . . . . . CODE     CLOCK_UART  
CLOCK_UART_Start . . . . . . . . . . . CODE     CLOCK_UART  
CLOCK_UART_Stop. . . . . . . . . . . . CODE     CLOCK_UART  
CLOCK_UART_StopBlock . . . . . . . . . CODE     CLOCK_UART  
cmd_get_imu_readings . . . . . . . . . CODE     COMMAND_PROCESSING  
cmd_get_sensors. . . . . . . . . . . . CODE     COMMAND_PROCESSING  
cmd_ping . . . . . . . . . . . . . . . CODE     COMMAND_PROCESSING  
cmd_set_baudrate . . . . . . . . . . . CODE     COMMAND_PROCESSING  
cmd_store_params . . . . . . . . . . . CODE     COMMAND_PROCESSING  
commProcess. . . . . . . . . . . . . . CODE     COMMAND_PROCESSING  INTERRUPTIONS  
CY . . . . . . . . . . . . . . . . . . DATA     COMMAND_PROCESSING  
cydelay_32k_ms . . . . . . . . . . . . XDATA    CYLIB  
cydelay_freq_hz. . . . . . . . . . . . XDATA    CYLIB  
cydelay_freq_khz . . . . . . . . . . . XDATA    CYLIB  
cydelay_freq_mhz . . . . . . . . . . . XDATA    CYLIB  CYBOOTASMKEIL  
CyDisableInts. . . . . . . . . . . . . CODE     CYLIB  
CyDmacConfigure. . . . . . . . . . . . CODE     CYDMAC  ?C_STARTUP  
CyDmacError. . . . . . . . . . . . . . CODE     CYDMAC  
CyDmacErrorAddress . . . . . . . . . . CODE     CYDMAC  
CyDmaChAlloc . . . . . . . . . . . . . CODE     CYDMAC  
CyDmaTdAllocate. . . . . . . . . . . . CODE     CYDMAC  MAIN  
CyDmaTdFreeCount . . . . . . . . . . . CODE     CYDMAC  
CyEEPROM_ReadRelease . . . . . . . . . CODE     CYFLASH  EEPROM  
CyEEPROM_ReadReserve . . . . . . . . . CODE     CYFLASH  EEPROM  
CyEEPROM_Start . . . . . . . . . . . . CODE     CYFLASH  EEPROM  
CyEEPROM_Stop. . . . . . . . . . . . . CODE     CYFLASH  EEPROM  
CyEnterCriticalSection . . . . . . . . CODE     CYBOOTASMKEIL  ADC  ADC_STATUS  CYDMAC  CYFLASH  CYLIB  CYPM  CYSPC  EEP
                                                ROM  FF_STATUS  MY_TIMER  SPI_IMU  UART_RS485  
cyfitter_cfg . . . . . . . . . . . . . CODE     CYFITTER_CFG  ?C_STARTUP  
CyFlash_Start. . . . . . . . . . . . . CODE     CYFLASH  
CyFlash_Stop . . . . . . . . . . . . . CODE     CYFLASH  
CyILO_Disable33K . . . . . . . . . . . CODE     CYLIB  
CyILO_Enable33K. . . . . . . . . . . . CODE     CYLIB  
CyILO_Start100K. . . . . . . . . . . . CODE     CYLIB  CYPM  
CyILO_Start1K. . . . . . . . . . . . . CODE     CYLIB  CYPM  
CyILO_Stop100K . . . . . . . . . . . . CODE     CYLIB  
CyILO_Stop1K . . . . . . . . . . . . . CODE     CYLIB  
CyIMO_DisableDoubler . . . . . . . . . CODE     CYLIB  CYPM  
CyIMO_EnableDoubler. . . . . . . . . . CODE     CYLIB  CYPM  
CyIMO_Stop . . . . . . . . . . . . . . CODE     CYLIB  CYPM  
CyPLL_OUT_Stop . . . . . . . . . . . . CODE     CYLIB  CYPM  
CyPmHibernate. . . . . . . . . . . . . CODE     CYPM  
CyPmOppsSet. . . . . . . . . . . . . . CODE     CYPM  
CyPmRestoreClocks. . . . . . . . . . . CODE     CYPM  
CyPmSaveClocks . . . . . . . . . . . . CODE     CYPM  
CyResetStatus. . . . . . . . . . . . . XDATA    CYLIB  ?C_STARTUP  
CySetTemp. . . . . . . . . . . . . . . CODE     CYFLASH  COMMAND_PROCESSING  EEPROM  
CySoftwareReset. . . . . . . . . . . . CODE     CYLIB  BOOTLOADABLE  
LX51 LINKER/LOCATER V4.64.0.0                                                         11/29/2018  15:53:27  PAGE 118


CySpcGetAlgorithm. . . . . . . . . . . CODE     CYSPC  CYFLASH  
CySpcLock. . . . . . . . . . . . . . . CODE     CYSPC  CYFLASH  EEPROM  
CySpcStart . . . . . . . . . . . . . . CODE     CYSPC  CYFLASH  EEPROM  
CySpcStop. . . . . . . . . . . . . . . CODE     CYSPC  
CySpcUnlock. . . . . . . . . . . . . . CODE     CYSPC  CYFLASH  EEPROM  
CyVdHvAnalogDisable. . . . . . . . . . CODE     CYLIB  CYPM  
CyVdHvAnalogEnable . . . . . . . . . . CODE     CYLIB  CYPM  
CyVdLvAnalogDisable. . . . . . . . . . CODE     CYLIB  CYPM  
CyVdLvDigitDisable . . . . . . . . . . CODE     CYLIB  CYPM  
CyVdRealTimeStatus . . . . . . . . . . CODE     CYLIB  
CyWdtClear . . . . . . . . . . . . . . CODE     CYLIB  
CyXTAL_32KHZ_ReadStatus. . . . . . . . CODE     CYLIB  
CyXTAL_32KHZ_Start . . . . . . . . . . CODE     CYLIB  CYPM  
CyXTAL_32KHZ_Stop. . . . . . . . . . . CODE     CYLIB  
CyXTAL_DisableErrStatus. . . . . . . . CODE     CYLIB  
CyXTAL_DisableFaultRecovery. . . . . . CODE     CYLIB  
CyXTAL_EnableErrStatus . . . . . . . . CODE     CYLIB  
CyXTAL_EnableFaultRecovery . . . . . . CODE     CYLIB  
CyXTAL_ReadStatus. . . . . . . . . . . CODE     CYLIB  
CyXTAL_Stop. . . . . . . . . . . . . . CODE     CYLIB  CYPM  
dieTemperature . . . . . . . . . . . . XDATA    CYFLASH  EEPROM  
DMA_DmaHandle. . . . . . . . . . . . . XDATA    DMA_DMA  
DMA_DmaRelease . . . . . . . . . . . . CODE     DMA_DMA  
DPH. . . . . . . . . . . . . . . . . . DATA     COMMAND_PROCESSING  
DPH1 . . . . . . . . . . . . . . . . . DATA     COMMAND_PROCESSING  
DPL. . . . . . . . . . . . . . . . . . DATA     COMMAND_PROCESSING  
DPL1 . . . . . . . . . . . . . . . . . DATA     COMMAND_PROCESSING  
DPS. . . . . . . . . . . . . . . . . . DATA     COMMAND_PROCESSING  
DPX. . . . . . . . . . . . . . . . . . DATA     COMMAND_PROCESSING  
DPX1 . . . . . . . . . . . . . . . . . DATA     COMMAND_PROCESSING  
EA . . . . . . . . . . . . . . . . . . DATA     COMMAND_PROCESSING  
EEPROM_ADDR. . . . . . . . . . . . . . XDATA    COMMAND_PROCESSING  
EEPROM_Enable. . . . . . . . . . . . . CODE     EEPROM  
EEPROM_Query . . . . . . . . . . . . . CODE     EEPROM  
EEPROM_Start . . . . . . . . . . . . . CODE     EEPROM  MAIN  
EEPROM_Stop. . . . . . . . . . . . . . CODE     EEPROM  
EEPROM_UpdateTemperature . . . . . . . CODE     EEPROM  
F0 . . . . . . . . . . . . . . . . . . DATA     COMMAND_PROCESSING  
F1 . . . . . . . . . . . . . . . . . . DATA     COMMAND_PROCESSING  
FF_STATUS_InterruptDisable . . . . . . CODE     FF_STATUS  
FF_STATUS_InterruptEnable. . . . . . . CODE     FF_STATUS  
FF_STATUS_Read . . . . . . . . . . . . CODE     FF_STATUS  MAIN  
FF_STATUS_ReadMask . . . . . . . . . . CODE     FF_STATUS  
FTDI_ENABLE_REG_Read . . . . . . . . . CODE     FTDI_ENABLE_REG  
function_scheduler . . . . . . . . . . CODE     INTERRUPTIONS  MAIN  
g_imu. . . . . . . . . . . . . . . . . XDATA    GLOBALS  COMMAND_PROCESSING  IMU_FUNCTIONS  INTERRUPTIONS  
g_imuNew . . . . . . . . . . . . . . . XDATA    GLOBALS  IMU_FUNCTIONS  INTERRUPTIONS  
g_mem. . . . . . . . . . . . . . . . . XDATA    GLOBALS  COMMAND_PROCESSING  
g_rx . . . . . . . . . . . . . . . . . XDATA    GLOBALS  COMMAND_PROCESSING  INTERRUPTIONS  MAIN  
Gyro . . . . . . . . . . . . . . . . . XDATA    GLOBALS  IMU_FUNCTIONS  
IE . . . . . . . . . . . . . . . . . . DATA     COMMAND_PROCESSING  
IMU_connected. . . . . . . . . . . . . XDATA    GLOBALS  COMMAND_PROCESSING  IMU_FUNCTIONS  
imus_data_size . . . . . . . . . . . . XDATA    GLOBALS  COMMAND_PROCESSING  IMU_FUNCTIONS  
ImusReset. . . . . . . . . . . . . . . CODE     IMU_FUNCTIONS  
infoSend . . . . . . . . . . . . . . . CODE     COMMAND_PROCESSING  
InitIMU. . . . . . . . . . . . . . . . CODE     IMU_FUNCTIONS  
InitIMUgeneral . . . . . . . . . . . . CODE     IMU_FUNCTIONS  MAIN  
InitIMUMagCal. . . . . . . . . . . . . CODE     IMU_FUNCTIONS  
interrupt_flag . . . . . . . . . . . . BIT      GLOBALS  INTERRUPTIONS  MAIN  
interrupt_manager. . . . . . . . . . . CODE     INTERRUPTIONS  MAIN  
ISR_RS485_RX_ClearPending. . . . . . . CODE     ISR_RS485_RX  
ISR_RS485_RX_Disable . . . . . . . . . CODE     ISR_RS485_RX  COMMAND_PROCESSING  
ISR_RS485_RX_Enable. . . . . . . . . . CODE     ISR_RS485_RX  COMMAND_PROCESSING  
ISR_RS485_RX_ExInterrupt . . . . . . . CODE     INTERRUPTIONS  MAIN  
ISR_RS485_RX_GetPriority . . . . . . . CODE     ISR_RS485_RX  
LX51 LINKER/LOCATER V4.64.0.0                                                         11/29/2018  15:53:27  PAGE 119


ISR_RS485_RX_GetState. . . . . . . . . CODE     ISR_RS485_RX  
ISR_RS485_RX_GetVector . . . . . . . . CODE     ISR_RS485_RX  
ISR_RS485_RX_Interrupt . . . . . . . . CODE     ISR_RS485_RX  
ISR_RS485_RX_SetPending. . . . . . . . CODE     ISR_RS485_RX  
ISR_RS485_RX_Start . . . . . . . . . . CODE     ISR_RS485_RX  
ISR_RS485_RX_Stop. . . . . . . . . . . CODE     ISR_RS485_RX  
Mag. . . . . . . . . . . . . . . . . . XDATA    GLOBALS  IMU_FUNCTIONS  
MagCal . . . . . . . . . . . . . . . . XDATA    GLOBALS  COMMAND_PROCESSING  IMU_FUNCTIONS  
main . . . . . . . . . . . . . . . . . CODE     MAIN  ?C_INIT  
memInit. . . . . . . . . . . . . . . . CODE     COMMAND_PROCESSING  
memRecall. . . . . . . . . . . . . . . CODE     COMMAND_PROCESSING  MAIN  
memRestore . . . . . . . . . . . . . . CODE     COMMAND_PROCESSING  
MXAX . . . . . . . . . . . . . . . . . DATA     COMMAND_PROCESSING  
MY_TIMER_ClearFIFO . . . . . . . . . . CODE     MY_TIMER  
MY_TIMER_Enable. . . . . . . . . . . . CODE     MY_TIMER  
MY_TIMER_Init. . . . . . . . . . . . . CODE     MY_TIMER  
MY_TIMER_initVar . . . . . . . . . . . XDATA    MY_TIMER  
MY_TIMER_ReadCapture . . . . . . . . . CODE     MY_TIMER  
MY_TIMER_ReadControlRegister . . . . . CODE     MY_TIMER  
MY_TIMER_ReadCounter . . . . . . . . . CODE     MY_TIMER  INTERRUPTIONS  
MY_TIMER_ReadPeriod. . . . . . . . . . CODE     MY_TIMER  
MY_TIMER_ReadStatusRegister. . . . . . CODE     MY_TIMER  
MY_TIMER_SoftwareCapture . . . . . . . CODE     MY_TIMER  
MY_TIMER_Start . . . . . . . . . . . . CODE     MY_TIMER  MAIN  
MY_TIMER_Stop. . . . . . . . . . . . . CODE     MY_TIMER  
N_IMU_Connected. . . . . . . . . . . . XDATA    GLOBALS  COMMAND_PROCESSING  IMU_FUNCTIONS  
Opto_Pin_Read. . . . . . . . . . . . . CODE     OPTO_PIN  
Opto_Pin_ReadDataReg . . . . . . . . . CODE     OPTO_PIN  
OV . . . . . . . . . . . . . . . . . . DATA     COMMAND_PROCESSING  
P. . . . . . . . . . . . . . . . . . . DATA     COMMAND_PROCESSING  
P2AX . . . . . . . . . . . . . . . . . DATA     COMMAND_PROCESSING  
PACER_TIMER_Enable . . . . . . . . . . CODE     PACER_TIMER  
PACER_TIMER_Init . . . . . . . . . . . CODE     PACER_TIMER  
PACER_TIMER_initVar. . . . . . . . . . XDATA    PACER_TIMER  
PACER_TIMER_ReadCapture. . . . . . . . CODE     PACER_TIMER  
PACER_TIMER_ReadControlRegister. . . . CODE     PACER_TIMER  
PACER_TIMER_ReadCounter. . . . . . . . CODE     PACER_TIMER  
PACER_TIMER_ReadPeriod . . . . . . . . CODE     PACER_TIMER  
PACER_TIMER_ReadStatusRegister . . . . CODE     PACER_TIMER  
PACER_TIMER_SoftwareCapture. . . . . . CODE     PACER_TIMER  
PACER_TIMER_Start. . . . . . . . . . . CODE     PACER_TIMER  MAIN  
PACER_TIMER_Stop . . . . . . . . . . . CODE     PACER_TIMER  
PSW. . . . . . . . . . . . . . . . . . DATA     COMMAND_PROCESSING  
Quat . . . . . . . . . . . . . . . . . XDATA    GLOBALS  IMU_FUNCTIONS  
ReadAllIMUs. . . . . . . . . . . . . . CODE     IMU_FUNCTIONS  INTERRUPTIONS  
RESET_FF_Read. . . . . . . . . . . . . CODE     RESET_FF  
RS0. . . . . . . . . . . . . . . . . . DATA     COMMAND_PROCESSING  
RS1. . . . . . . . . . . . . . . . . . DATA     COMMAND_PROCESSING  
RS485_CTS_Read . . . . . . . . . . . . CODE     RS485_CTS  
sensor_value_1 . . . . . . . . . . . . XDATA    GLOBALS  COMMAND_PROCESSING  INTERRUPTIONS  
sensor_value_2 . . . . . . . . . . . . XDATA    GLOBALS  COMMAND_PROCESSING  INTERRUPTIONS  
SFRPRT0DR. . . . . . . . . . . . . . . DATA     COMMAND_PROCESSING  
SFRPRT0PS. . . . . . . . . . . . . . . DATA     COMMAND_PROCESSING  
SFRPRT0SEL . . . . . . . . . . . . . . DATA     COMMAND_PROCESSING  
SFRPRT12DR . . . . . . . . . . . . . . DATA     COMMAND_PROCESSING  
SFRPRT12PS . . . . . . . . . . . . . . DATA     COMMAND_PROCESSING  
SFRPRT12SEL. . . . . . . . . . . . . . DATA     COMMAND_PROCESSING  
SFRPRT15DR . . . . . . . . . . . . . . DATA     COMMAND_PROCESSING  
SFRPRT15PS . . . . . . . . . . . . . . DATA     COMMAND_PROCESSING  
SFRPRT15SEL. . . . . . . . . . . . . . DATA     COMMAND_PROCESSING  
SFRPRT1DR. . . . . . . . . . . . . . . DATA     COMMAND_PROCESSING  
SFRPRT1PS. . . . . . . . . . . . . . . DATA     COMMAND_PROCESSING  
SFRPRT1SEL . . . . . . . . . . . . . . DATA     COMMAND_PROCESSING  
SFRPRT2DR. . . . . . . . . . . . . . . DATA     COMMAND_PROCESSING  
SFRPRT2PS. . . . . . . . . . . . . . . DATA     COMMAND_PROCESSING  
LX51 LINKER/LOCATER V4.64.0.0                                                         11/29/2018  15:53:27  PAGE 120


SFRPRT2SEL . . . . . . . . . . . . . . DATA     COMMAND_PROCESSING  
SFRPRT3DR. . . . . . . . . . . . . . . DATA     COMMAND_PROCESSING  
SFRPRT3PS. . . . . . . . . . . . . . . DATA     COMMAND_PROCESSING  
SFRPRT3SEL . . . . . . . . . . . . . . DATA     COMMAND_PROCESSING  
SFRPRT4DR. . . . . . . . . . . . . . . DATA     COMMAND_PROCESSING  
SFRPRT4PS. . . . . . . . . . . . . . . DATA     COMMAND_PROCESSING  
SFRPRT4SEL . . . . . . . . . . . . . . DATA     COMMAND_PROCESSING  
SFRPRT5DR. . . . . . . . . . . . . . . DATA     COMMAND_PROCESSING  
SFRPRT5PS. . . . . . . . . . . . . . . DATA     COMMAND_PROCESSING  
SFRPRT5SEL . . . . . . . . . . . . . . DATA     COMMAND_PROCESSING  
SFRPRT6DR. . . . . . . . . . . . . . . DATA     COMMAND_PROCESSING  
SFRPRT6PS. . . . . . . . . . . . . . . DATA     COMMAND_PROCESSING  
SFRPRT6SEL . . . . . . . . . . . . . . DATA     COMMAND_PROCESSING  
single_imu_size. . . . . . . . . . . . XDATA    GLOBALS  COMMAND_PROCESSING  IMU_FUNCTIONS  
SP . . . . . . . . . . . . . . . . . . DATA     COMMAND_PROCESSING  
SpcLockState . . . . . . . . . . . . . XDATA    CYSPC  
SPI_delay. . . . . . . . . . . . . . . CODE     IMU_FUNCTIONS  
SPI_IMU_ClearFIFO. . . . . . . . . . . CODE     SPI_IMU  IMU_FUNCTIONS  MAIN  
SPI_IMU_ClearRxBuffer. . . . . . . . . CODE     SPI_IMU  IMU_FUNCTIONS  MAIN  
SPI_IMU_ClearTxBuffer. . . . . . . . . CODE     SPI_IMU  IMU_FUNCTIONS  MAIN  
SPI_IMU_DisableInt . . . . . . . . . . CODE     SPI_IMU  
SPI_IMU_DisableRxInt . . . . . . . . . CODE     SPI_IMU  
SPI_IMU_DisableTxInt . . . . . . . . . CODE     SPI_IMU  
SPI_IMU_Enable . . . . . . . . . . . . CODE     SPI_IMU  MAIN  
SPI_IMU_EnableInt. . . . . . . . . . . CODE     SPI_IMU  
SPI_IMU_EnableRxInt. . . . . . . . . . CODE     SPI_IMU  
SPI_IMU_EnableTxInt. . . . . . . . . . CODE     SPI_IMU  
SPI_IMU_GetRxBufferSize. . . . . . . . CODE     SPI_IMU  
SPI_IMU_GetTxBufferSize. . . . . . . . CODE     SPI_IMU  
SPI_IMU_Init . . . . . . . . . . . . . CODE     SPI_IMU  MAIN  
SPI_IMU_initVar. . . . . . . . . . . . XDATA    SPI_IMU  
SPI_IMU_IntClock_GetDividerRegister. . CODE     SPI_IMU_INTCLOCK  
SPI_IMU_IntClock_GetModeRegister . . . CODE     SPI_IMU_INTCLOCK  
SPI_IMU_IntClock_GetSourceRegister . . CODE     SPI_IMU_INTCLOCK  
SPI_IMU_IntClock_Start . . . . . . . . CODE     SPI_IMU_INTCLOCK  SPI_IMU  
SPI_IMU_IntClock_Stop. . . . . . . . . CODE     SPI_IMU_INTCLOCK  SPI_IMU  
SPI_IMU_IntClock_StopBlock . . . . . . CODE     SPI_IMU_INTCLOCK  
SPI_IMU_ReadRxData . . . . . . . . . . CODE     SPI_IMU  IMU_FUNCTIONS  
SPI_IMU_ReadRxStatus . . . . . . . . . CODE     SPI_IMU  
SPI_IMU_ReadStatus . . . . . . . . . . CODE     SPI_IMU  IMU_FUNCTIONS  
SPI_IMU_ReadTxStatus . . . . . . . . . CODE     SPI_IMU  
SPI_IMU_Start. . . . . . . . . . . . . CODE     SPI_IMU  MAIN  
SPI_IMU_Stop . . . . . . . . . . . . . CODE     SPI_IMU  
SPI_IMU_swStatusRx . . . . . . . . . . XDATA    SPI_IMU  
SPI_IMU_swStatusTx . . . . . . . . . . XDATA    SPI_IMU  
STARTUP1 . . . . . . . . . . . . . . . CODE     ?C_STARTUP  
Temp . . . . . . . . . . . . . . . . . XDATA    GLOBALS  IMU_FUNCTIONS  
timer_value. . . . . . . . . . . . . . XDATA    GLOBALS  COMMAND_PROCESSING  IMU_FUNCTIONS  INTERRUPTIONS  
timer_value0 . . . . . . . . . . . . . XDATA    GLOBALS  COMMAND_PROCESSING  IMU_FUNCTIONS  INTERRUPTIONS  
UART_RS485_ClearRxBuffer . . . . . . . CODE     UART_RS485  MAIN  
UART_RS485_ClearTxBuffer . . . . . . . CODE     UART_RS485  COMMAND_PROCESSING  MAIN  
UART_RS485_Enable. . . . . . . . . . . CODE     UART_RS485  
UART_RS485_errorStatus . . . . . . . . XDATA    UART_RS485  UART_RS485_INT  
UART_RS485_GetByte . . . . . . . . . . CODE     UART_RS485  
UART_RS485_GetChar . . . . . . . . . . CODE     UART_RS485  INTERRUPTIONS  
UART_RS485_GetRxBufferSize . . . . . . CODE     UART_RS485  INTERRUPTIONS  
UART_RS485_GetTxBufferSize . . . . . . CODE     UART_RS485  
UART_RS485_Init. . . . . . . . . . . . CODE     UART_RS485  MAIN  
UART_RS485_initVar . . . . . . . . . . XDATA    UART_RS485  
UART_RS485_ReadControlRegister . . . . CODE     UART_RS485  
UART_RS485_ReadRxData. . . . . . . . . CODE     UART_RS485  
UART_RS485_ReadRxStatus. . . . . . . . CODE     UART_RS485  MAIN  
UART_RS485_ReadTxStatus. . . . . . . . CODE     UART_RS485  COMMAND_PROCESSING  
UART_RS485_rxBuffer. . . . . . . . . . XDATA    UART_RS485  UART_RS485_INT  
UART_RS485_rxBufferLoopDetect. . . . . XDATA    UART_RS485  UART_RS485_INT  
LX51 LINKER/LOCATER V4.64.0.0                                                         11/29/2018  15:53:27  PAGE 121


UART_RS485_rxBufferOverflow. . . . . . XDATA    UART_RS485  UART_RS485_INT  
UART_RS485_rxBufferRead. . . . . . . . XDATA    UART_RS485  UART_RS485_INT  
UART_RS485_rxBufferWrite . . . . . . . XDATA    UART_RS485  UART_RS485_INT  
UART_RS485_RXISR . . . . . . . . . . . CODE     UART_RS485_INT  UART_RS485  
UART_RS485_Start . . . . . . . . . . . CODE     UART_RS485  MAIN  
UART_RS485_Stop. . . . . . . . . . . . CODE     UART_RS485  MAIN  

Program Size: data=41.3 xdata=5713 const=1677 code=31184
LX51 RUN COMPLETE.  0 WARNING(S),  0 ERROR(S)
