LX51 LINKER/LOCATER V4.64.0.0                                                           01/31/2019  11:47:34  PAGE 1


LX51 LINKER/LOCATER V4.64.0.0, INVOKED BY:
C:\PROGRAM FILES (X86)\CYPRESS\PSOC CREATOR\4.2\PSOC CREATOR\IMPORT\KEIL\PK51\9.51\C51\BIN\LX51.EXE .\DP8051_Keil_951\Re
>> lease\command_processing.obj, .\DP8051_Keil_951\Release\globals.obj, .\DP8051_Keil_951\Release\interruptions.obj, .\D
>> P8051_Keil_951\Release\main.obj, .\DP8051_Keil_951\Release\utils.obj, .\DP8051_Keil_951\Release\IMU_functions.obj, .\
>> DP8051_Keil_951\Release\cyfitter_cfg.obj, .\DP8051_Keil_951\Release\firmware.lib, C:\Program Files (x86)\Cypress\PSoC
>>  Creator\4.2\PSoC Creator\psoc\content\cycomponentlibrary\CyComponentLibrary.cylib\DP8051\DP8051_Keil_951\Release\CyC
>> omponentLibrary.lib TO .\DP8051_Keil_951\Release\firmware.omf CODE RU RC (10) DW (16) WL (2) PR (.\DP8051_Keil_951\Re
>> lease/firmware.map) IX CL (XDATA (X:0X0000-X:0X1FFF)) CL (CODE (C:0X2600-C:0XFFBF)) CL (CONST (C:0X2600-C:0XFFBF))


CPU MODE:     8051 MODE
MEMORY MODEL: LARGE WITH FLOATING POINT ARITHMETIC


INPUT MODULES INCLUDED:
  .\DP8051_Keil_951\Release\command_processing.obj (COMMAND_PROCESSING)
         COMMENT TYPE 0: C51 V9.51
  .\DP8051_Keil_951\Release\globals.obj (GLOBALS)
         COMMENT TYPE 0: C51 V9.51
  .\DP8051_Keil_951\Release\interruptions.obj (INTERRUPTIONS)
         COMMENT TYPE 0: C51 V9.51
  .\DP8051_Keil_951\Release\main.obj (MAIN)
         COMMENT TYPE 0: C51 V9.51
  .\DP8051_Keil_951\Release\utils.obj (UTILS)
         COMMENT TYPE 0: C51 V9.51
  .\DP8051_Keil_951\Release\IMU_functions.obj (IMU_FUNCTIONS)
         COMMENT TYPE 0: C51 V9.51
  .\DP8051_Keil_951\Release\cyfitter_cfg.obj (CYFITTER_CFG)
         COMMENT TYPE 0: C51 V9.51
  .\DP8051_Keil_951\Release\firmware.lib (UART_RS485)
         COMMENT TYPE 0: C51 V9.51
  .\DP8051_Keil_951\Release\firmware.lib (ISR_RS485_RX)
         COMMENT TYPE 0: C51 V9.51
  .\DP8051_Keil_951\Release\firmware.lib (PACER_TIMER)
         COMMENT TYPE 0: C51 V9.51
  .\DP8051_Keil_951\Release\firmware.lib (CLOCK_UART)
         COMMENT TYPE 0: C51 V9.51
  .\DP8051_Keil_951\Release\firmware.lib (EEPROM)
         COMMENT TYPE 0: C51 V9.51
  .\DP8051_Keil_951\Release\firmware.lib (ADC)
         COMMENT TYPE 0: C51 V9.51
  .\DP8051_Keil_951\Release\firmware.lib (RS485_CTS)
         COMMENT TYPE 0: C51 V9.51
  .\DP8051_Keil_951\Release\firmware.lib (BOOTLOADABLE)
         COMMENT TYPE 0: C51 V9.51
  .\DP8051_Keil_951\Release\firmware.lib (FTDI_ENABLE_REG)
         COMMENT TYPE 0: C51 V9.51
  .\DP8051_Keil_951\Release\firmware.lib (RESET_FF)
         COMMENT TYPE 0: C51 V9.51
  .\DP8051_Keil_951\Release\firmware.lib (FF_STATUS)
         COMMENT TYPE 0: C51 V9.51
  .\DP8051_Keil_951\Release\firmware.lib (MY_TIMER)
         COMMENT TYPE 0: C51 V9.51
  .\DP8051_Keil_951\Release\firmware.lib (ADC_STATUS)
         COMMENT TYPE 0: C51 V9.51
  .\DP8051_Keil_951\Release\firmware.lib (DMA_DMA)
         COMMENT TYPE 0: C51 V9.51
  .\DP8051_Keil_951\Release\firmware.lib (ADC_SOC)
         COMMENT TYPE 0: C51 V9.51
  .\DP8051_Keil_951\Release\firmware.lib (CYDMAC)
         COMMENT TYPE 0: C51 V9.51
  .\DP8051_Keil_951\Release\firmware.lib (CYFLASH)
         COMMENT TYPE 0: C51 V9.51
  .\DP8051_Keil_951\Release\firmware.lib (CYLIB)
         COMMENT TYPE 0: C51 V9.51
  .\DP8051_Keil_951\Release\firmware.lib (SPI_IMU)
LX51 LINKER/LOCATER V4.64.0.0                                                         01/31/2019  11:47:34  PAGE 2


         COMMENT TYPE 0: C51 V9.51
  .\DP8051_Keil_951\Release\firmware.lib (OPTO_PIN)
         COMMENT TYPE 0: C51 V9.51
  .\DP8051_Keil_951\Release\firmware.lib (CHIP_SELECT_A)
         COMMENT TYPE 0: C51 V9.51
  .\DP8051_Keil_951\Release\firmware.lib (CHIP_SELECT_B)
         COMMENT TYPE 0: C51 V9.51
  .\DP8051_Keil_951\Release\firmware.lib (CYBOOTASMKEIL)
         COMMENT TYPE 0: AX51 V3.07d
  .\DP8051_Keil_951\Release\firmware.lib (CYMEM)
         COMMENT TYPE 0: AX51 V3.07d
  .\DP8051_Keil_951\Release\firmware.lib (?C_STARTUP)
         COMMENT TYPE 0: AX51 V3.07d
  .\DP8051_Keil_951\Release\firmware.lib (UART_RS485_INT)
         COMMENT TYPE 0: C51 V9.51
  .\DP8051_Keil_951\Release\firmware.lib (ADC_INT)
         COMMENT TYPE 0: C51 V9.51
  .\DP8051_Keil_951\Release\firmware.lib (ADC_AMUX)
         COMMENT TYPE 0: C51 V9.51
  .\DP8051_Keil_951\Release\firmware.lib (ADC_EXT_CP_CLK)
         COMMENT TYPE 0: C51 V9.51
  .\DP8051_Keil_951\Release\firmware.lib (ADC_THEACLK)
         COMMENT TYPE 0: C51 V9.51
  .\DP8051_Keil_951\Release\firmware.lib (CYPM)
         COMMENT TYPE 0: C51 V9.51
  .\DP8051_Keil_951\Release\firmware.lib (CYSPC)
         COMMENT TYPE 0: C51 V9.51
  .\DP8051_Keil_951\Release\firmware.lib (SPI_IMU_INTCLOCK)
         COMMENT TYPE 0: C51 V9.51
  C:\PROGRAM FILES (X86)\CYPRESS\PSOC CREATOR\4.2\PSOC CREATOR\IMPORT\KEIL\PK51\9.51\C51\LIB\C51FPL.LIB (?C?FPADD)
         COMMENT TYPE 1: A51 / ASM51 Assembler
  C:\PROGRAM FILES (X86)\CYPRESS\PSOC CREATOR\4.2\PSOC CREATOR\IMPORT\KEIL\PK51\9.51\C51\LIB\C51FPL.LIB (?C?FPMUL)
         COMMENT TYPE 1: A51 / ASM51 Assembler
  C:\PROGRAM FILES (X86)\CYPRESS\PSOC CREATOR\4.2\PSOC CREATOR\IMPORT\KEIL\PK51\9.51\C51\LIB\C51FPL.LIB (?C?FPDIV)
         COMMENT TYPE 1: A51 / ASM51 Assembler
  C:\PROGRAM FILES (X86)\CYPRESS\PSOC CREATOR\4.2\PSOC CREATOR\IMPORT\KEIL\PK51\9.51\C51\LIB\C51FPL.LIB (?C?FPCMP)
         COMMENT TYPE 1: A51 / ASM51 Assembler
  C:\PROGRAM FILES (X86)\CYPRESS\PSOC CREATOR\4.2\PSOC CREATOR\IMPORT\KEIL\PK51\9.51\C51\LIB\C51FPL.LIB (?C?FPNEG)
         COMMENT TYPE 1: A51 / ASM51 Assembler
  C:\PROGRAM FILES (X86)\CYPRESS\PSOC CREATOR\4.2\PSOC CREATOR\IMPORT\KEIL\PK51\9.51\C51\LIB\C51FPL.LIB (?C?FCAST)
         COMMENT TYPE 1: A51 / ASM51 Assembler
  C:\PROGRAM FILES (X86)\CYPRESS\PSOC CREATOR\4.2\PSOC CREATOR\IMPORT\KEIL\PK51\9.51\C51\LIB\C51FPL.LIB (?C?CASTF)
         COMMENT TYPE 1: A51 / ASM51 Assembler
  C:\PROGRAM FILES (X86)\CYPRESS\PSOC CREATOR\4.2\PSOC CREATOR\IMPORT\KEIL\PK51\9.51\C51\LIB\C51FPL.LIB (PRINTF)
         COMMENT TYPE 1: A51 / ASM51 Assembler
  C:\PROGRAM FILES (X86)\CYPRESS\PSOC CREATOR\4.2\PSOC CREATOR\IMPORT\KEIL\PK51\9.51\C51\LIB\C51FPL.LIB (FABS)
         COMMENT TYPE 1: A51 / ASM51 Assembler
  C:\PROGRAM FILES (X86)\CYPRESS\PSOC CREATOR\4.2\PSOC CREATOR\IMPORT\KEIL\PK51\9.51\C51\LIB\C51FPL.LIB (?C?FPGETOPN)
         COMMENT TYPE 1: A51 / ASM51 Assembler
  C:\PROGRAM FILES (X86)\CYPRESS\PSOC CREATOR\4.2\PSOC CREATOR\IMPORT\KEIL\PK51\9.51\C51\LIB\C51FPL.LIB (?C?FPROUND)
         COMMENT TYPE 1: A51 / ASM51 Assembler
  C:\PROGRAM FILES (X86)\CYPRESS\PSOC CREATOR\4.2\PSOC CREATOR\IMPORT\KEIL\PK51\9.51\C51\LIB\C51FPL.LIB (?C?FPCONVERT)
         COMMENT TYPE 1: A51 / ASM51 Assembler
  C:\PROGRAM FILES (X86)\CYPRESS\PSOC CREATOR\4.2\PSOC CREATOR\IMPORT\KEIL\PK51\9.51\C51\LIB\C51FPL.LIB (?C?FTNPWR)
         COMMENT TYPE 1: A51 / ASM51 Assembler
  C:\PROGRAM FILES (X86)\CYPRESS\PSOC CREATOR\4.2\PSOC CREATOR\IMPORT\KEIL\PK51\9.51\C51\LIB\C51L.LIB (?C_INIT)
         COMMENT TYPE 1: A51 / ASM51 Assembler
  C:\PROGRAM FILES (X86)\CYPRESS\PSOC CREATOR\4.2\PSOC CREATOR\IMPORT\KEIL\PK51\9.51\C51\LIB\C51L.LIB (?C?CLDPTR)
         COMMENT TYPE 1: A51 / ASM51 Assembler
  C:\PROGRAM FILES (X86)\CYPRESS\PSOC CREATOR\4.2\PSOC CREATOR\IMPORT\KEIL\PK51\9.51\C51\LIB\C51L.LIB (?C?CLDOPTR)
         COMMENT TYPE 1: A51 / ASM51 Assembler
  C:\PROGRAM FILES (X86)\CYPRESS\PSOC CREATOR\4.2\PSOC CREATOR\IMPORT\KEIL\PK51\9.51\C51\LIB\C51L.LIB (?C?CSTPTR)
         COMMENT TYPE 1: A51 / ASM51 Assembler
  C:\PROGRAM FILES (X86)\CYPRESS\PSOC CREATOR\4.2\PSOC CREATOR\IMPORT\KEIL\PK51\9.51\C51\LIB\C51L.LIB (?C?IMUL)
         COMMENT TYPE 1: A51 / ASM51 Assembler
LX51 LINKER/LOCATER V4.64.0.0                                                         01/31/2019  11:47:34  PAGE 3


  C:\PROGRAM FILES (X86)\CYPRESS\PSOC CREATOR\4.2\PSOC CREATOR\IMPORT\KEIL\PK51\9.51\C51\LIB\C51L.LIB (?C?ISTPTR)
         COMMENT TYPE 1: A51 / ASM51 Assembler
  C:\PROGRAM FILES (X86)\CYPRESS\PSOC CREATOR\4.2\PSOC CREATOR\IMPORT\KEIL\PK51\9.51\C51\LIB\C51L.LIB (?C?LMUL)
         COMMENT TYPE 1: A51 / ASM51 Assembler
  C:\PROGRAM FILES (X86)\CYPRESS\PSOC CREATOR\4.2\PSOC CREATOR\IMPORT\KEIL\PK51\9.51\C51\LIB\C51L.LIB (?C?ULDIV)
         COMMENT TYPE 1: A51 / ASM51 Assembler
  C:\PROGRAM FILES (X86)\CYPRESS\PSOC CREATOR\4.2\PSOC CREATOR\IMPORT\KEIL\PK51\9.51\C51\LIB\C51L.LIB (?C?SLDIV)
         COMMENT TYPE 1: A51 / ASM51 Assembler
  C:\PROGRAM FILES (X86)\CYPRESS\PSOC CREATOR\4.2\PSOC CREATOR\IMPORT\KEIL\PK51\9.51\C51\LIB\C51L.LIB (?C?LNOT)
         COMMENT TYPE 1: A51 / ASM51 Assembler
  C:\PROGRAM FILES (X86)\CYPRESS\PSOC CREATOR\4.2\PSOC CREATOR\IMPORT\KEIL\PK51\9.51\C51\LIB\C51L.LIB (?C?LNEG)
         COMMENT TYPE 1: A51 / ASM51 Assembler
  C:\PROGRAM FILES (X86)\CYPRESS\PSOC CREATOR\4.2\PSOC CREATOR\IMPORT\KEIL\PK51\9.51\C51\LIB\C51L.LIB (?C?ULCMP)
         COMMENT TYPE 1: A51 / ASM51 Assembler
  C:\PROGRAM FILES (X86)\CYPRESS\PSOC CREATOR\4.2\PSOC CREATOR\IMPORT\KEIL\PK51\9.51\C51\LIB\C51L.LIB (?C?ULSHR)
         COMMENT TYPE 1: A51 / ASM51 Assembler
  C:\PROGRAM FILES (X86)\CYPRESS\PSOC CREATOR\4.2\PSOC CREATOR\IMPORT\KEIL\PK51\9.51\C51\LIB\C51L.LIB (?C?SLSHR)
         COMMENT TYPE 1: A51 / ASM51 Assembler
  C:\PROGRAM FILES (X86)\CYPRESS\PSOC CREATOR\4.2\PSOC CREATOR\IMPORT\KEIL\PK51\9.51\C51\LIB\C51L.LIB (?C?LSHL)
         COMMENT TYPE 1: A51 / ASM51 Assembler
  C:\PROGRAM FILES (X86)\CYPRESS\PSOC CREATOR\4.2\PSOC CREATOR\IMPORT\KEIL\PK51\9.51\C51\LIB\C51L.LIB (?C?LLDPTR)
         COMMENT TYPE 1: A51 / ASM51 Assembler
  C:\PROGRAM FILES (X86)\CYPRESS\PSOC CREATOR\4.2\PSOC CREATOR\IMPORT\KEIL\PK51\9.51\C51\LIB\C51L.LIB (?C?LSTPTR)
         COMMENT TYPE 1: A51 / ASM51 Assembler
  C:\PROGRAM FILES (X86)\CYPRESS\PSOC CREATOR\4.2\PSOC CREATOR\IMPORT\KEIL\PK51\9.51\C51\LIB\C51L.LIB (?C?LSTXDATA)
         COMMENT TYPE 1: A51 / ASM51 Assembler
  C:\PROGRAM FILES (X86)\CYPRESS\PSOC CREATOR\4.2\PSOC CREATOR\IMPORT\KEIL\PK51\9.51\C51\LIB\C51L.LIB (?C?OFFX256)
         COMMENT TYPE 1: A51 / ASM51 Assembler
  C:\PROGRAM FILES (X86)\CYPRESS\PSOC CREATOR\4.2\PSOC CREATOR\IMPORT\KEIL\PK51\9.51\C51\LIB\C51L.LIB (?C?OFFXADD)
         COMMENT TYPE 1: A51 / ASM51 Assembler
  C:\PROGRAM FILES (X86)\CYPRESS\PSOC CREATOR\4.2\PSOC CREATOR\IMPORT\KEIL\PK51\9.51\C51\LIB\C51L.LIB (?C?PLDIXDATA)
         COMMENT TYPE 1: A51 / ASM51 Assembler
  C:\PROGRAM FILES (X86)\CYPRESS\PSOC CREATOR\4.2\PSOC CREATOR\IMPORT\KEIL\PK51\9.51\C51\LIB\C51L.LIB (?C?PSTXDATA)
         COMMENT TYPE 1: A51 / ASM51 Assembler
  C:\PROGRAM FILES (X86)\CYPRESS\PSOC CREATOR\4.2\PSOC CREATOR\IMPORT\KEIL\PK51\9.51\C51\LIB\C51L.LIB (?C?CCASE)
         COMMENT TYPE 1: A51 / ASM51 Assembler
  C:\PROGRAM FILES (X86)\CYPRESS\PSOC CREATOR\4.2\PSOC CREATOR\IMPORT\KEIL\PK51\9.51\C51\LIB\C51L.LIB (?C_XBP)
         COMMENT TYPE 1: A51 / ASM51 Assembler
  C:\PROGRAM FILES (X86)\CYPRESS\PSOC CREATOR\4.2\PSOC CREATOR\IMPORT\KEIL\PK51\9.51\C51\LIB\C51L.LIB (?C?ADDXBP)
         COMMENT TYPE 1: A51 / ASM51 Assembler
  C:\PROGRAM FILES (X86)\CYPRESS\PSOC CREATOR\4.2\PSOC CREATOR\IMPORT\KEIL\PK51\9.51\C51\LIB\C51L.LIB (?C?LIMUL)
         COMMENT TYPE 1: A51 / ASM51 Assembler
  C:\PROGRAM FILES (X86)\CYPRESS\PSOC CREATOR\4.2\PSOC CREATOR\IMPORT\KEIL\PK51\9.51\C51\LIB\C51L.LIB (PUTCHAR)
         COMMENT TYPE 1: A51 / ASM51 Assembler
  C:\PROGRAM FILES (X86)\CYPRESS\PSOC CREATOR\4.2\PSOC CREATOR\IMPORT\KEIL\PK51\9.51\C51\LIB\C51L.LIB (STRCAT)
         COMMENT TYPE 1: C51 Compiler
  C:\PROGRAM FILES (X86)\CYPRESS\PSOC CREATOR\4.2\PSOC CREATOR\IMPORT\KEIL\PK51\9.51\C51\LIB\C51L.LIB (STRLEN)
         COMMENT TYPE 1: A51 / ASM51 Assembler
  C:\PROGRAM FILES (X86)\CYPRESS\PSOC CREATOR\4.2\PSOC CREATOR\IMPORT\KEIL\PK51\9.51\C51\LIB\C51L.LIB (?C?MEMSET)
         COMMENT TYPE 1: A51 / ASM51 Assembler
  C:\PROGRAM FILES (X86)\CYPRESS\PSOC CREATOR\4.2\PSOC CREATOR\IMPORT\KEIL\PK51\9.51\C51\LIB\C51L.LIB (?C?COPYAMD)
         COMMENT TYPE 1: A51 / ASM51 Assembler
  C:\PROGRAM FILES (X86)\CYPRESS\PSOC CREATOR\4.2\PSOC CREATOR\IMPORT\KEIL\PK51\9.51\C51\LIB\C51L.LIB (?C?STRCPYAMD)
         COMMENT TYPE 1: A51 / ASM51 Assembler
  C:\PROGRAM FILES (X86)\CYPRESS\PSOC CREATOR\4.2\PSOC CREATOR\IMPORT\KEIL\PK51\9.51\C51\LIB\C51L.LIB (?C?IILDX)
         COMMENT TYPE 1: A51 / ASM51 Assembler
  C:\PROGRAM FILES (X86)\CYPRESS\PSOC CREATOR\4.2\PSOC CREATOR\IMPORT\KEIL\PK51\9.51\C51\LIB\C51L.LIB (?C?ILDIX)
         COMMENT TYPE 1: A51 / ASM51 Assembler
  C:\PROGRAM FILES (X86)\CYPRESS\PSOC CREATOR\4.2\PSOC CREATOR\IMPORT\KEIL\PK51\9.51\C51\LIB\C51L.LIB (?C?LLDIDATA)
         COMMENT TYPE 1: A51 / ASM51 Assembler
  C:\PROGRAM FILES (X86)\CYPRESS\PSOC CREATOR\4.2\PSOC CREATOR\IMPORT\KEIL\PK51\9.51\C51\LIB\C51L.LIB (?C?LLDXDATA)
         COMMENT TYPE 1: A51 / ASM51 Assembler
  C:\PROGRAM FILES (X86)\CYPRESS\PSOC CREATOR\4.2\PSOC CREATOR\IMPORT\KEIL\PK51\9.51\C51\LIB\C51L.LIB (?C?LLDPDATA)
         COMMENT TYPE 1: A51 / ASM51 Assembler
  C:\PROGRAM FILES (X86)\CYPRESS\PSOC CREATOR\4.2\PSOC CREATOR\IMPORT\KEIL\PK51\9.51\C51\LIB\C51L.LIB (?C?LLDCODE)
LX51 LINKER/LOCATER V4.64.0.0                                                         01/31/2019  11:47:34  PAGE 4


         COMMENT TYPE 1: A51 / ASM51 Assembler
  C:\PROGRAM FILES (X86)\CYPRESS\PSOC CREATOR\4.2\PSOC CREATOR\IMPORT\KEIL\PK51\9.51\C51\LIB\C51L.LIB (?C?LSTIDATA)
         COMMENT TYPE 1: A51 / ASM51 Assembler
  C:\PROGRAM FILES (X86)\CYPRESS\PSOC CREATOR\4.2\PSOC CREATOR\IMPORT\KEIL\PK51\9.51\C51\LIB\C51L.LIB (?C?LSTPDATA)
         COMMENT TYPE 1: A51 / ASM51 Assembler


ACTIVE MEMORY CLASSES OF MODULE:  .\DP8051_Keil_951\Release\firmware.omf (COMMAND_PROCESSING)

BASE        START       END         USED      MEMORY CLASS
==========================================================
X:000000H   X:000000H   X:001FFFH   001651H   XDATA
C:000000H   C:002600H   C:00FFBFH   0079DFH   CODE
C:000000H   C:002600H   C:00FFBFH   00068DH   CONST
I:000000H   I:000000H   I:00007FH   000027H   DATA
I:000020H.0 I:000020H.0 I:00002FH.7 000001H.3 BIT
I:000000H   I:000000H   I:0000FFH   000001H   IDATA


MEMORY MAP OF MODULE:  .\DP8051_Keil_951\Release\firmware.omf (COMMAND_PROCESSING)


START     STOP      LENGTH    ALIGN  RELOC    MEMORY CLASS   SEGMENT NAME
=========================================================================

* * * * * * * * * * *   D A T A   M E M O R Y   * * * * * * * * * * * * *
000000H   000007H   000008H   ---    AT..     DATA           "REG BANK 0"
000008H   00001EH   000017H   BYTE   UNIT     DATA           _DATA_GROUP_
00001FH.0 00001FH.7 000001H.0 ---    ---      **GAP**
000020H.0 000021H.1 000001H.2 BIT    UNIT     BIT            _BIT_GROUP_
000021H.2 000021H.2 000000H.1 BIT    UNIT     BIT            ?BI?GLOBALS
000021H.3 000021H   000000H.5 ---    ---      **GAP**
000022H   000027H   000006H   BYTE   UNIT     DATA           ?DT?INTERRUPTIONS
000028H   000029H   000002H   BYTE   UNIT     DATA           ?C?LIB_DATA
00002AH   00002AH   000001H   BYTE   UNIT     IDATA          ?STACK

* * * * * * * * * * *   C O D E   M E M O R Y   * * * * * * * * * * * * *
002600H   002619H   00001AH   ---    OFFS..   CODE           ?CO?KEILSTART?3
00261AH   0034DCH   000EC3H   BYTE   UNIT     CODE           ?PR?_GET_PARAM_LIST?COMMAND_PROCESSING
0034DDH   004259H   000D7DH   BYTE   UNIT     CODE           ?PR?_READQUAT?IMU_FUNCTIONS
00425AH   004D80H   000B27H   BYTE   UNIT     CODE           ?CO?COMMAND_PROCESSING
004D81H   00587AH   000AFAH   BYTE   UNIT     CODE           ?C?LIB_CODE
00587BH   005E0FH   000595H   BYTE   UNIT     CODE           ?PR?_INFOPREPARE?COMMAND_PROCESSING
005E10H   006292H   000483H   BYTE   UNIT     CODE           ?PR?PRINTF?PRINTF
006293H   00670DH   00047BH   BYTE   UNIT     CODE           ?PR?_INFOREADING?COMMAND_PROCESSING
00670EH   006B02H   0003F5H   BYTE   UNIT     CODE           ?PR?CMD_GET_IMU_READINGS?COMMAND_PROCESSING
006B03H   006E3DH   00033BH   BYTE   UNIT     CODE           ?PR?READALLIMUS?IMU_FUNCTIONS
006E3EH   00711BH   0002DEH   BYTE   UNIT     CODE           ?PR?INITIMUGENERAL?IMU_FUNCTIONS
00711CH   0072BCH   0001A1H   BYTE   UNIT     CODE           ?PR?_ADC_GAINCOMPENSATION?ADC
0072BDH   007446H   00018AH   BYTE   UNIT     CODE           ?PR?_V4_NORMALIZE?UTILS
007447H   00759FH   000159H   BYTE   UNIT     CODE           ?PR?CLOCKSETUP?CYFITTER_CFG
0075A0H   0076D0H   000131H   BYTE   UNIT     CODE           ?PR?_ADC_EXT_CP_CLK_SETDIVIDERREGISTER?ADC_EXT_CP_CLK
0076D1H   007800H   000130H   BYTE   UNIT     CODE           ?PR?_CLOCK_UART_SETDIVIDERREGISTER?CLOCK_UART
007801H   00792FH   00012FH   BYTE   UNIT     CODE           ?PR?_ADC_THEACLK_SETDIVIDERREGISTER?ADC_THEACLK
007930H   007A5AH   00012BH   BYTE   UNIT     CODE           ?PR?CYFITTER_CFG?CYFITTER_CFG
007A5BH   007B81H   000127H   BYTE   UNIT     CODE           ?PR?INTERRUPT_MANAGER?INTERRUPTIONS
007B82H   007CA3H   000122H   BYTE   UNIT     CODE           ?PR?_V3_NORMALIZE?UTILS
007CA4H   007DC0H   00011DH   BYTE   UNIT     CODE           ?C_C51STARTUP
007DC1H   007EDCH   00011CH   BYTE   UNIT     CODE           ?PR?_READACC?IMU_FUNCTIONS
007EDDH   007FF8H   00011CH   BYTE   UNIT     CODE           ?PR?_READGYRO?IMU_FUNCTIONS
007FF9H   00810FH   000117H   BYTE   UNIT     CODE           ?PR?_READMAG?IMU_FUNCTIONS
008110H   00820DH   0000FEH   BYTE   UNIT     CODE           ?PR?MAIN?MAIN
00820EH   008305H   0000F8H   BYTE   UNIT     CODE           ?PR?COMMPROCESS?COMMAND_PROCESSING
008306H   0083F6H   0000F1H   BYTE   UNIT     CODE           ?PR?INITIMU?IMU_FUNCTIONS
0083F7H   0084E7H   0000F1H   BYTE   UNIT     CODE           ?PR?INITIMUMAGCAL?IMU_FUNCTIONS
LX51 LINKER/LOCATER V4.64.0.0                                                         01/31/2019  11:47:34  PAGE 5


0084E8H   0085D6H   0000EFH   BYTE   UNIT     CODE           ?PR?_INVSQRT?UTILS
0085D7H   0086BFH   0000E9H   BYTE   UNIT     CODE           ?PR?CFG_DMA_INIT?CYFITTER_CFG
0086C0H   00879EH   0000DFH   BYTE   UNIT     CODE           ?PR?_EEPROM_WRITE?EEPROM
00879FH   00884FH   0000B1H   BYTE   UNIT     CODE           ?PR?ADC_INIT?ADC
008850H   008900H   0000B1H   BYTE   UNIT     CODE           ?PR?UART_RS485_RXISR?UART_RS485_INT
008901H   0089AEH   0000AEH   BYTE   UNIT     CODE           ?PR?_MEMSTORE?COMMAND_PROCESSING
0089AFH   008A5CH   0000AEH   BYTE   UNIT     CODE           ?PR?_ADC_INITCONFIG?ADC
008A5DH   008B05H   0000A9H   BYTE   UNIT     CODE           ?PR?_READIMU?IMU_FUNCTIONS
008B06H   008B97H   000092H   BYTE   UNIT     CODE           ?C_INITSEG
008B98H   008C24H   00008DH   BYTE   UNIT     CODE           ?PR?_COMMWRITE?COMMAND_PROCESSING
008C25H   008CACH   000088H   BYTE   UNIT     CODE           ?PR?ADC_ENABLE?ADC
008CADH   008D34H   000088H   BYTE   UNIT     CODE           ?PR?_?CYDELAY?CYLIB
008D35H   008DBBH   000087H   BYTE   UNIT     CODE           ?PR?_CYDMATDSETCONFIGURATION?CYDMAC
008DBCH   008E3FH   000084H   BYTE   UNIT     CODE           ?PR?_READMAGCAL?IMU_FUNCTIONS
008E40H   008EC0H   000081H   BYTE   UNIT     CODE           ?PR?MEMINIT?COMMAND_PROCESSING
008EC1H   008F39H   000079H   BYTE   UNIT     CODE           ?PR?_CYDMACHSETCONFIGURATION?CYDMAC
008F3AH   008FB1H   000078H   BYTE   UNIT     CODE           ?PR?_CYDMACHSETEXTENDEDADDRESS?CYDMAC
008FB2H   009029H   000078H   BYTE   UNIT     CODE           ?PR?_CYDMATDSETADDRESS?CYDMAC
00902AH   00909CH   000073H   BYTE   UNIT     CODE           ?PR?_CYSPCLOADROW?CYSPC
00909DH   009107H   00006BH   BYTE   UNIT     CODE           ?PR?_STRCAT?STRCAT
009108H   009167H   000060H   BYTE   UNIT     CODE           ?PR?_CYSPCREADDATA?CYSPC
009168H   0091C5H   00005EH   BYTE   UNIT     CODE           ?PR?_READTEMP?IMU_FUNCTIONS
0091C6H   009220H   00005BH   BYTE   UNIT     CODE           ?PR?UART_RS485_GETCHAR?UART_RS485
009221H   009276H   000056H   BYTE   UNIT     CODE           ?PR?CYSETTEMPINT?CYFLASH
009277H   0092CAH   000054H   BYTE   UNIT     CODE           ?PR?FUNCTION_SCHEDULER?INTERRUPTIONS
0092CBH   00931EH   000054H   BYTE   UNIT     CODE           ?PR?_CYINTSETVECTOR?CYLIB
00931FH   009372H   000054H   BYTE   UNIT     CODE           ?PR?_CYSPCWRITEROW?CYSPC
009373H   0093C2H   000050H   BYTE   UNIT     CODE           ?PR?CYFLASHGETSPCALGORITHM?CYFLASH
0093C3H   009411H   00004FH   BYTE   UNIT     CODE           ?PR?UART_RS485_GETRXBUFFERSIZE?UART_RS485
009412H   00945EH   00004DH   BYTE   UNIT     CODE           ?PR?MEMRECALL?COMMAND_PROCESSING
00945FH   0094A9H   00004BH   BYTE   UNIT     CODE           ?PR?_CYDMACHENABLE?CYDMAC
0094AAH   0094F3H   00004AH   BYTE   UNIT     CODE           ?PR?_DMA_DMAINITIALIZE?DMA_DMA
0094F4H   00953CH   000049H   BYTE   UNIT     CODE           ?PR?_CHIPSELECTOR?IMU_FUNCTIONS
00953DH   009584H   000048H   BYTE   UNIT     CODE           ?PR?MEMRESTORE?COMMAND_PROCESSING
009585H   0095C8H   000044H   BYTE   UNIT     CODE           ?C?LDIV
0095C9H   009609H   000041H   BYTE   UNIT     CODE           ?PR?CMD_GET_SENSORS?COMMAND_PROCESSING
00960AH   009649H   000040H   BYTE   UNIT     CODE           ?PR?_CYDMACHPRIORITY?CYDMAC
00964AH   009687H   00003EH   BYTE   UNIT     CODE           ?PR?CYDMATDALLOCATE?CYDMAC
009688H   0096C4H   00003DH   BYTE   UNIT     CODE           ?PR?_ADC_SETDSMREF0REG?ADC
0096C5H   009700H   00003CH   BYTE   UNIT     CODE           ?PR?PACER_TIMER_INIT?PACER_TIMER
009701H   009737H   000037H   BYTE   UNIT     CODE           ?PR?ANALOG_READ_END?INTERRUPTIONS
009738H   00976DH   000036H   BYTE   UNIT     CODE           ?PR?CYDMACCONFIGURE?CYDMAC
00976EH   0097A1H   000034H   BYTE   UNIT     CODE           ?PR?_UART_RS485_PUTSTRING?UART_RS485
0097A2H   0097D5H   000034H   BYTE   UNIT     CODE           ?PR?_CYCONFIGCPY?CYMEM
0097D6H   0097FCH   000027H   BYTE   UNIT     CODE           ?PR?PUTCHAR?PUTCHAR
0097FDH   0097FFH   000003H   BYTE   UNIT     CODE           ?PR?ISR_RS485_RX_EXINTERRUPT?INTERRUPTIONS
009800H   00983AH   00003BH   PAGE   UNIT     CODE           ?PR?CYDELAYCYCLES?CYBOOTASMKEIL
00983BH   00986DH   000033H   BYTE   UNIT     CODE           ?PR?ANALOGSETDEFAULT?CYFITTER_CFG
00986EH   0098A0H   000033H   BYTE   UNIT     CODE           ?PR?UART_RS485_INIT?UART_RS485
0098A1H   0098D2H   000032H   BYTE   UNIT     CODE           ?PR?_LCRCHECKSUM?COMMAND_PROCESSING
0098D3H   009903H   000031H   BYTE   UNIT     CODE           ?PR?_ADC_AMUX_UNSET?CYFITTER_CFG
009904H   009934H   000031H   BYTE   UNIT     CODE           ?PR?CYEEPROM_START?CYFLASH
009935H   009964H   000030H   BYTE   UNIT     CODE           ?PR?_INFOGET?COMMAND_PROCESSING
009965H   009994H   000030H   BYTE   UNIT     CODE           ?PR?_WRITECONTROLREGISTER?IMU_FUNCTIONS
009995H   0099C4H   000030H   BYTE   UNIT     CODE           ?PR?_ADC_AMUX_SET?CYFITTER_CFG
0099C5H   0099F3H   00002FH   BYTE   UNIT     CODE           ?PR?UART_RS485_CLEARRXBUFFER?UART_RS485
0099F4H   009A21H   00002EH   BYTE   UNIT     CODE           ?PR?_CYSPCGETTEMP?CYSPC
009A22H   009A22H   000001H   BYTE   UNIT     CODE           ?PR?ISR_RS485_RX_INTERRUPT?ISR_RS485_RX
009A23H   009A23H   000001H   BYTE   UNIT     CODE           ?PR?SPI_IMU_ENABLETXINT?SPI_IMU
009A24H   009A50H   00002DH   DWORD  UNIT     CODE           ?PR?CYDELAYUS?CYBOOTASMKEIL
009A51H   009A7CH   00002CH   BYTE   UNIT     CODE           ?PR?MY_TIMER_INIT?MY_TIMER
009A7DH   009AA2H   000026H   BYTE   UNIT     CODE           ?PR?CYCONFIGCPYCODE?CYMEM
009AA3H   009AC7H   000025H   BYTE   UNIT     CODE           ?PR?SPI_IMU_ENABLE?SPI_IMU
009AC8H   009AE9H   000022H   BYTE   UNIT     CODE           ?PR?UART_RS485_ENABLE?UART_RS485
009AEAH   009B0BH   000022H   BYTE   UNIT     CODE           ?PR?UART_RS485_STOP?UART_RS485
LX51 LINKER/LOCATER V4.64.0.0                                                         01/31/2019  11:47:34  PAGE 6


009B0CH   009B2CH   000021H   BYTE   UNIT     CODE           ?PR?ADC_AMUX_START?ADC_AMUX
009B2DH   009B4CH   000020H   BYTE   UNIT     CODE           ?PR?CMD_SET_BAUDRATE?COMMAND_PROCESSING
009B4DH   009B6CH   000020H   BYTE   UNIT     CODE           ?PR?SPI_IMU_CLEARFIFO?SPI_IMU
009B6DH   009B8BH   00001FH   BYTE   UNIT     CODE           ?PR?_ISR_RS485_RX_STARTEX?ISR_RS485_RX
009B8CH   009BAAH   00001FH   BYTE   UNIT     CODE           ?PR?CYSPCLOCK?CYSPC
009BABH   009BC8H   00001EH   BYTE   UNIT     CODE           ?PR?_CYDMACHSETINITIALTD?CYDMAC
009BC9H   009BE3H   00001BH   BYTE   UNIT     CODE           ?PR?SPI_DELAY?IMU_FUNCTIONS
009BE4H   009BFEH   00001BH   BYTE   UNIT     CODE           ?PR?CYSPCGETALGORITHM?CYSPC
009BFFH   009C17H   000019H   BYTE   UNIT     CODE           ?PR?ADC_START?ADC
009C18H   009C30H   000019H   BYTE   UNIT     CODE           ?PR?_CYINTSETPRIORITY?CYLIB
009C31H   009C49H   000019H   BYTE   UNIT     CODE           ?PR?SPI_IMU_INIT?SPI_IMU
009C4AH   009C62H   000019H   BYTE   UNIT     CODE           ?PR?_ADC_AMUX_SELECT?ADC_AMUX
009C63H   009C7AH   000018H   BYTE   UNIT     CODE           ?PR?CYSETTEMP?CYFLASH
009C7BH   009C92H   000018H   BYTE   UNIT     CODE           ?PR?CYEXITCRITICALSECTION?CYBOOTASMKEIL
009C93H   009CA9H   000017H   BYTE   UNIT     CODE           ?PR?_READCONTROLREGISTER?IMU_FUNCTIONS
009CAAH   009CBFH   000016H   BYTE   UNIT     CODE           ?PR?PACER_TIMER_ENABLE?PACER_TIMER
009CC0H   009CD4H   000015H   BYTE   UNIT     CODE           ?PR?_SENDACKNOWLEDGMENT?COMMAND_PROCESSING
009CD5H   009CE9H   000015H   BYTE   UNIT     CODE           ?PR?CMD_STORE_PARAMS?COMMAND_PROCESSING
009CEAH   009CFEH   000015H   BYTE   UNIT     CODE           ?PR?CYENTERCRITICALSECTION?CYBOOTASMKEIL
009CFFH   009D13H   000015H   BYTE   UNIT     CODE           ?PR?CYSPCSTART?CYSPC
009D14H   009D28H   000015H   BYTE   UNIT     CODE           ?PR?_STRLEN?STRLEN
009D29H   009D3CH   000014H   BYTE   UNIT     CODE           ?PR?CMD_PING?COMMAND_PROCESSING
009D3DH   009D50H   000014H   BYTE   UNIT     CODE           ?PR?UART_RS485_READRXSTATUS?UART_RS485
009D51H   009D63H   000013H   BYTE   UNIT     CODE           ?PR?UART_RS485_START?UART_RS485
009D64H   009D76H   000013H   BYTE   UNIT     CODE           ?PR?PACER_TIMER_START?PACER_TIMER
009D77H   009D89H   000013H   BYTE   UNIT     CODE           ?PR?MY_TIMER_START?MY_TIMER
009D8AH   009D9CH   000013H   BYTE   UNIT     CODE           ?PR?SPI_IMU_START?SPI_IMU
009D9DH   009DAFH   000013H   BYTE   UNIT     CODE           ?PR?CYREAD24?CYMEM
009DB0H   009DC1H   000012H   BYTE   UNIT     CODE           ?PR?UART_RS485_CLEARTXBUFFER?UART_RS485
009DC2H   009DD3H   000012H   BYTE   UNIT     CODE           ?PR?SPI_IMU_CLEARTXBUFFER?SPI_IMU
009DD4H   009DE5H   000012H   BYTE   UNIT     CODE           ?PR?CYWRITE24?CYMEM
009DE6H   009DF5H   000010H   BYTE   UNIT     CODE           ?PR?_OPTO_PIN_WRITE?OPTO_PIN
009DF6H   009E04H   00000FH   BYTE   UNIT     CODE           ?PR?MY_TIMER_READCOUNTER?MY_TIMER
009E05H   009E13H   00000FH   BYTE   UNIT     CODE           ?PR?SPI_IMU_CLEARRXBUFFER?SPI_IMU
009E14H   009E22H   00000FH   BYTE   UNIT     CODE           ?PR?SPI_IMU_READSTATUS?SPI_IMU
009E23H   009E31H   00000FH   BYTE   UNIT     CODE           ?PR?CYREAD16?CYMEM
009E32H   009E40H   00000FH   BYTE   UNIT     CODE           ?PR?CYWRITE16?CYMEM
009E41H   009E4FH   00000FH   BYTE   UNIT     CODE           ?PR?SPI_IMU_INTCLOCK_START?SPI_IMU_INTCLOCK
009E50H   009E5DH   00000EH   BYTE   UNIT     CODE           ?PR?_ISR_RS485_RX_SETVECTOR?ISR_RS485_RX
009E5EH   009E6BH   00000EH   BYTE   UNIT     CODE           ?PR?_PACER_TIMER_WRITEPERIOD?PACER_TIMER
009E6CH   009E79H   00000EH   BYTE   UNIT     CODE           ?PR?_PACER_TIMER_WRITECOUNTER?PACER_TIMER
009E7AH   009E86H   00000DH   BYTE   UNIT     CODE           ?PR?_UART_RS485_PUTCHAR?UART_RS485
009E87H   009E93H   00000DH   BYTE   UNIT     CODE           ?PR?MY_TIMER_CLEARFIFO?MY_TIMER
009E94H   009EA0H   00000DH   BYTE   UNIT     CODE           ?PR?_SPI_IMU_WRITETXDATA?SPI_IMU
009EA1H   009EADH   00000DH   BYTE   UNIT     CODE           ?PR?_ADC_EXT_CP_CLK_SETMODEREGISTER?ADC_EXT_CP_CLK
009EAEH   009EBAH   00000DH   BYTE   UNIT     CODE           ?PR?_ADC_THEACLK_SETMODEREGISTER?ADC_THEACLK
009EBBH   009EC7H   00000DH   BYTE   UNIT     CODE           ?PR?_FABS?FABS
009EC8H   009ED3H   00000CH   BYTE   UNIT     CODE           ?PR?CYREAD8?CYMEM
009ED4H   009EDFH   00000CH   BYTE   UNIT     CODE           ?PR?CYWRITE8?CYMEM
009EE0H   009EEBH   00000CH   BYTE   UNIT     CODE           ?PR?CYSPCUNLOCK?CYSPC
009EECH   009EF5H   00000AH   BYTE   UNIT     CODE           ?PR?_ISR_RS485_RX_SETPRIORITY?ISR_RS485_RX
009EF6H   009EFFH   00000AH   BYTE   UNIT     CODE           ?PR?CLOCK_UART_GETDIVIDERREGISTER?CLOCK_UART
009F00H   009F09H   00000AH   BYTE   UNIT     CODE           ?PR?BOOTLOADABLE_LOAD?BOOTLOADABLE
009F0AH   009F13H   00000AH   BYTE   UNIT     CODE           ?PR?_MY_TIMER_WRITEPERIOD?MY_TIMER
009F14H   009F1DH   00000AH   BYTE   UNIT     CODE           ?PR?MY_TIMER_READCAPTURE?MY_TIMER
009F1EH   009F27H   00000AH   BYTE   UNIT     CODE           ?PR?_MY_TIMER_WRITECOUNTER?MY_TIMER
009F28H   009F31H   00000AH   BYTE   UNIT     CODE           ?PR?ADC_EXT_CP_CLK_GETDIVIDERREGISTER?ADC_EXT_CP_CLK
009F32H   009F3BH   00000AH   BYTE   UNIT     CODE           ?PR?ADC_THEACLK_GETDIVIDERREGISTER?ADC_THEACLK
009F3CH   009F43H   000008H   BYTE   UNIT     CODE           ?PR?CLOCK_UART_GETSOURCEREGISTER?CLOCK_UART
009F44H   009F4BH   000008H   BYTE   UNIT     CODE           ?PR?MY_TIMER_ENABLE?MY_TIMER
009F4CH   009F53H   000008H   BYTE   UNIT     CODE           ?PR?CYSOFTWARERESET?CYLIB
009F54H   009F5BH   000008H   BYTE   UNIT     CODE           ?PR?ADC_EXT_CP_CLK_GETSOURCEREGISTER?ADC_EXT_CP_CLK
009F5CH   009F63H   000008H   BYTE   UNIT     CODE           ?PR?ADC_THEACLK_GETSOURCEREGISTER?ADC_THEACLK
009F64H   009F6AH   000007H   BYTE   UNIT     CODE           ?PR?ISR_RS485_RX_ENABLE?ISR_RS485_RX
009F6BH   009F71H   000007H   BYTE   UNIT     CODE           ?PR?ISR_RS485_RX_DISABLE?ISR_RS485_RX
LX51 LINKER/LOCATER V4.64.0.0                                                         01/31/2019  11:47:34  PAGE 7


009F72H   009F78H   000007H   BYTE   UNIT     CODE           ?PR?EEPROM_ENABLE?EEPROM
009F79H   009F7EH   000006H   BYTE   UNIT     CODE           ?PR?UART_RS485_READTXSTATUS?UART_RS485
009F7FH   009F84H   000006H   BYTE   UNIT     CODE           ?PR?_PACER_TIMER_SETINTERRUPTMODE?PACER_TIMER
009F85H   009F8AH   000006H   BYTE   UNIT     CODE           ?PR?_RS485_CTS_WRITE?RS485_CTS
009F8BH   009F90H   000006H   BYTE   UNIT     CODE           ?PR?_FTDI_ENABLE_REG_WRITE?FTDI_ENABLE_REG
009F91H   009F96H   000006H   BYTE   UNIT     CODE           ?PR?_RESET_FF_WRITE?RESET_FF
009F97H   009F9CH   000006H   BYTE   UNIT     CODE           ?PR?FF_STATUS_READ?FF_STATUS
009F9DH   009FA2H   000006H   BYTE   UNIT     CODE           ?PR?_MY_TIMER_SETINTERRUPTMODE?MY_TIMER
009FA3H   009FA8H   000006H   BYTE   UNIT     CODE           ?PR?MY_TIMER_READSTATUSREGISTER?MY_TIMER
009FA9H   009FAEH   000006H   BYTE   UNIT     CODE           ?PR?ADC_STATUS_READ?ADC_STATUS
009FAFH   009FB4H   000006H   BYTE   UNIT     CODE           ?PR?_ADC_SOC_WRITE?ADC_SOC
009FB5H   009FBAH   000006H   BYTE   UNIT     CODE           ?PR?SPI_IMU_READTXSTATUS?SPI_IMU
009FBBH   009FC0H   000006H   BYTE   UNIT     CODE           ?PR?SPI_IMU_READRXSTATUS?SPI_IMU
009FC1H   009FC6H   000006H   BYTE   UNIT     CODE           ?PR?SPI_IMU_READRXDATA?SPI_IMU
009FC7H   009FCCH   000006H   BYTE   UNIT     CODE           ?PR?_CHIP_SELECT_A_WRITE?CHIP_SELECT_A
009FCDH   009FD2H   000006H   BYTE   UNIT     CODE           ?PR?_CHIP_SELECT_B_WRITE?CHIP_SELECT_B
009FD3H   009FD6H   000004H   BYTE   UNIT     CODE           ?PR?EEPROM_START?EEPROM
009FD7H   009FD9H   000003H   BYTE   UNIT     CODE           ?PR?_CYCLOCKSTARTUPERROR?CYFITTER_CFG
009FDAH   009FDAH   000001H   BYTE   UNIT     CODE           ?PR?SPI_IMU_ENABLERXINT?SPI_IMU
009FDBH   009FDBH   000001H   BYTE   UNIT     CODE           ?PR?ADC_ISR1?ADC_INT
009FDCH   009FDCH   000001H   BYTE   UNIT     CODE           ?PR?ADC_ISR2?ADC_INT
009FDDH   009FDDH   000001H   BYTE   UNIT     CODE           ?PR?ADC_ISR3?ADC_INT
009FDEH   009FDEH   000001H   BYTE   UNIT     CODE           ?PR?ADC_ISR4?ADC_INT
009FDFH   00A66BH   00068DH   BYTE   UNIT     CONST          ?CO?CYFITTER_CFG

* * * * * * * * * * *  X D A T A   M E M O R Y  * * * * * * * * * * * * *
000000H   0008DFH   0008E0H   BYTE   UNIT     XDATA          _XDATA_GROUP_
0008E0H   0010E1H   000802H   BYTE   UNIT     XDATA          ?XD?GLOBALS
0010E2H   00152FH   00044EH   BYTE   UNIT     XDATA          ?XD?COMMAND_PROCESSING
001530H   0015AFH   000080H   BYTE   UNIT     XDATA          ?XD?INTERRUPTIONS
0015B0H   0015F2H   000043H   BYTE   UNIT     XDATA          ?XD?CYPM
0015F3H   001619H   000027H   BYTE   UNIT     XDATA          ?XD?UART_RS485
00161AH   001629H   000010H   BYTE   UNIT     XDATA          ?XD?ADC
00162AH   001638H   00000FH   BYTE   UNIT     XDATA          ?XD?CYLIB
001639H   00163EH   000006H   BYTE   UNIT     XDATA          ?XD?CYDMAC
00163FH   001643H   000005H   BYTE   UNIT     XDATA          ?XD?CYFLASH
001644H   001647H   000004H   BYTE   UNIT     XDATA          ?XD?CYFITTER_CFG
001648H   00164AH   000003H   BYTE   UNIT     XDATA          ?XD?SPI_IMU
00164BH   00164BH   000001H   BYTE   UNIT     XDATA          ?XD?IMU_FUNCTIONS
00164CH   00164CH   000001H   BYTE   UNIT     XDATA          ?XD?PACER_TIMER
00164DH   00164DH   000001H   BYTE   UNIT     XDATA          ?XD?MY_TIMER
00164EH   00164EH   000001H   BYTE   UNIT     XDATA          ?XD?DMA_DMA
00164FH   00164FH   000001H   BYTE   UNIT     XDATA          ?XD?ADC_AMUX
001650H   001650H   000001H   BYTE   UNIT     XDATA          ?XD?CYSPC

* * * * * * * * *   R E M O V E D     S E G M E N T S   * * * * * * * *
   *DEL*:           000013H   BYTE   UNIT     CODE           ?PR?INFOSEND?COMMAND_PROCESSING
   *DEL*:           00044CH   BYTE   UNIT     XDATA          ?XD?INFOSEND?COMMAND_PROCESSING
   *DEL*:           000029H   BYTE   UNIT     CODE           ?PR?IMUSRESET?IMU_FUNCTIONS
   *DEL*:           00001AH   BYTE   UNIT     CODE           ?PR?_SETANALOGROUTINGPUMPS?CYFITTER_CFG
   *DEL*:           000003H   BYTE   UNIT     CODE           ?PR?UART_RS485_READCONTROLREGISTER?UART_RS485
   *DEL*:           000006H   BYTE   UNIT     CODE           ?PR?_UART_RS485_WRITECONTROLREGISTER?UART_RS485
   *DEL*:           000001H   BYTE   UNIT     XDATA          ?XD?_UART_RS485_WRITECONTROLREGISTER?UART_RS485
   *DEL*:           000006H   BYTE   UNIT     CODE           ?PR?_UART_RS485_SETRXINTERRUPTMODE?UART_RS485
   *DEL*:           00004AH   BYTE   UNIT     CODE           ?PR?UART_RS485_READRXDATA?UART_RS485
   *DEL*:           00001FH   BYTE   UNIT     CODE           ?PR?UART_RS485_GETBYTE?UART_RS485
   *DEL*:           000006H   BYTE   UNIT     CODE           ?PR?_UART_RS485_SETRXADDRESSMODE?UART_RS485
   *DEL*:           000001H   BYTE   UNIT     XDATA          ?XD?_UART_RS485_SETRXADDRESSMODE?UART_RS485
   *DEL*:           000006H   BYTE   UNIT     CODE           ?PR?_UART_RS485_SETRXADDRESS1?UART_RS485
   *DEL*:           000006H   BYTE   UNIT     CODE           ?PR?_UART_RS485_SETRXADDRESS2?UART_RS485
   *DEL*:           000006H   BYTE   UNIT     CODE           ?PR?_UART_RS485_SETTXINTERRUPTMODE?UART_RS485
   *DEL*:           00000CH   BYTE   UNIT     CODE           ?PR?_UART_RS485_WRITETXDATA?UART_RS485
   *DEL*:           000032H   BYTE   UNIT     CODE           ?PR?_UART_RS485_PUTARRAY?UART_RS485
   *DEL*:           000003H   BYTE   UNIT     XDATA          ?XD?_UART_RS485_PUTARRAY?UART_RS485
   *DEL*:           000014H   BYTE   UNIT     CODE           ?PR?_UART_RS485_PUTCRLF?UART_RS485
LX51 LINKER/LOCATER V4.64.0.0                                                         01/31/2019  11:47:34  PAGE 8


   *DEL*:           000017H   BYTE   UNIT     CODE           ?PR?UART_RS485_GETTXBUFFERSIZE?UART_RS485
   *DEL*:           000059H   BYTE   UNIT     CODE           ?PR?_UART_RS485_SENDBREAK?UART_RS485
   *DEL*:           000001H   BYTE   UNIT     XDATA          ?XD?_UART_RS485_SENDBREAK?UART_RS485
   *DEL*:           000006H   BYTE   UNIT     CODE           ?PR?_UART_RS485_SETTXADDRESSMODE?UART_RS485
   *DEL*:           000001H   BYTE   UNIT     XDATA          ?XD?_UART_RS485_SETTXADDRESSMODE?UART_RS485
   *DEL*:           000013H   BYTE   UNIT     CODE           ?PR?ISR_RS485_RX_START?ISR_RS485_RX
   *DEL*:           000004H   BYTE   UNIT     CODE           ?PR?ISR_RS485_RX_STOP?ISR_RS485_RX
   *DEL*:           00000AH   BYTE   UNIT     CODE           ?PR?ISR_RS485_RX_GETVECTOR?ISR_RS485_RX
   *DEL*:           00000BH   BYTE   UNIT     CODE           ?PR?ISR_RS485_RX_GETPRIORITY?ISR_RS485_RX
   *DEL*:           00000EH   BYTE   UNIT     CODE           ?PR?ISR_RS485_RX_GETSTATE?ISR_RS485_RX
   *DEL*:           000007H   BYTE   UNIT     CODE           ?PR?ISR_RS485_RX_SETPENDING?ISR_RS485_RX
   *DEL*:           000007H   BYTE   UNIT     CODE           ?PR?ISR_RS485_RX_CLEARPENDING?ISR_RS485_RX
   *DEL*:           000016H   BYTE   UNIT     CODE           ?PR?PACER_TIMER_STOP?PACER_TIMER
   *DEL*:           00000AH   BYTE   UNIT     CODE           ?PR?PACER_TIMER_SOFTWARECAPTURE?PACER_TIMER
   *DEL*:           000006H   BYTE   UNIT     CODE           ?PR?PACER_TIMER_READSTATUSREGISTER?PACER_TIMER
   *DEL*:           000006H   BYTE   UNIT     CODE           ?PR?PACER_TIMER_READCONTROLREGISTER?PACER_TIMER
   *DEL*:           000006H   BYTE   UNIT     CODE           ?PR?_PACER_TIMER_WRITECONTROLREGISTER?PACER_TIMER
   *DEL*:           00000AH   BYTE   UNIT     CODE           ?PR?PACER_TIMER_READPERIOD?PACER_TIMER
   *DEL*:           00000AH   BYTE   UNIT     CODE           ?PR?PACER_TIMER_READCAPTURE?PACER_TIMER
   *DEL*:           000013H   BYTE   UNIT     CODE           ?PR?PACER_TIMER_READCOUNTER?PACER_TIMER
   *DEL*:           00000FH   BYTE   UNIT     CODE           ?PR?CLOCK_UART_START?CLOCK_UART
   *DEL*:           00000FH   BYTE   UNIT     CODE           ?PR?CLOCK_UART_STOP?CLOCK_UART
   *DEL*:           00006DH   BYTE   UNIT     CODE           ?PR?CLOCK_UART_STOPBLOCK?CLOCK_UART
   *DEL*:           000002H   BYTE   UNIT     XDATA          ?XD?CLOCK_UART_STOPBLOCK?CLOCK_UART
   *DEL*:           000013H   BYTE   UNIT     CODE           ?PR?_CLOCK_UART_STANDBYPOWER?CLOCK_UART
   *DEL*:           00000DH   BYTE   UNIT     CODE           ?PR?_CLOCK_UART_SETMODEREGISTER?CLOCK_UART
   *DEL*:           00000EH   BYTE   UNIT     CODE           ?PR?_CLOCK_UART_CLEARMODEREGISTER?CLOCK_UART
   *DEL*:           000008H   BYTE   UNIT     CODE           ?PR?CLOCK_UART_GETMODEREGISTER?CLOCK_UART
   *DEL*:           000062H   BYTE   UNIT     CODE           ?PR?_CLOCK_UART_SETSOURCEREGISTER?CLOCK_UART
   *DEL*:           000003H   BYTE   UNIT     XDATA          ?XD?_CLOCK_UART_SETSOURCEREGISTER?CLOCK_UART
   *DEL*:           000004H   BYTE   UNIT     CODE           ?PR?EEPROM_STOP?EEPROM
   *DEL*:           000124H   BYTE   UNIT     CODE           ?PR?_EEPROM_WRITEBYTE?EEPROM
   *DEL*:           000008H   BYTE   UNIT     XDATA          ?XD?_EEPROM_WRITEBYTE?EEPROM
   *DEL*:           00003AH   BYTE   UNIT     CODE           ?PR?_EEPROM_READBYTE?EEPROM
   *DEL*:           000004H   BYTE   UNIT     XDATA          ?XD?_EEPROM_READBYTE?EEPROM
   *DEL*:           000004H   BYTE   UNIT     CODE           ?PR?EEPROM_UPDATETEMPERATURE?EEPROM
   *DEL*:           00006FH   BYTE   UNIT     CODE           ?PR?_EEPROM_ERASESECTOR?EEPROM
   *DEL*:           000002H   BYTE   UNIT     XDATA          ?XD?_EEPROM_ERASESECTOR?EEPROM
   *DEL*:           0000B9H   BYTE   UNIT     CODE           ?PR?_EEPROM_STARTWRITE?EEPROM
   *DEL*:           000005H   BYTE   UNIT     XDATA          ?XD?_EEPROM_STARTWRITE?EEPROM
   *DEL*:           000046H   BYTE   UNIT     CODE           ?PR?_EEPROM_STARTERASE?EEPROM
   *DEL*:           000002H   BYTE   UNIT     XDATA          ?XD?_EEPROM_STARTERASE?EEPROM
   *DEL*:           00003BH   BYTE   UNIT     CODE           ?PR?EEPROM_QUERY?EEPROM
   *DEL*:           000001H   BYTE   UNIT     XDATA          ?XD?EEPROM_QUERY?EEPROM
   *DEL*:           0000E5H   BYTE   UNIT     CODE           ?PR?_EEPROM_BYTEWRITEPOS?EEPROM
   *DEL*:           000004H   BYTE   UNIT     XDATA          ?XD?_EEPROM_BYTEWRITEPOS?EEPROM
   *DEL*:           000088H   BYTE   UNIT     CODE           ?PR?ADC_STOP?ADC
   *DEL*:           000001H   BYTE   UNIT     XDATA          ?XD?ADC_STOP?ADC
   *DEL*:           000012H   BYTE   UNIT     CODE           ?PR?_ADC_SETBUFFERGAIN?ADC
   *DEL*:           00000EH   BYTE   UNIT     CODE           ?PR?_ADC_SETCOHERENCY?ADC
   *DEL*:           0000F2H   BYTE   UNIT     CODE           ?PR?_ADC_SETGCOR?ADC
   *DEL*:           00000BH   BYTE   UNIT     XDATA          ?XD?_ADC_SETGCOR?ADC
   *DEL*:           000039H   BYTE   UNIT     CODE           ?PR?ADC_READGCOR?ADC
   *DEL*:           000001H   BYTE   UNIT     XDATA          ?XD?ADC_READGCOR?ADC
   *DEL*:           000008H   BYTE   UNIT     CODE           ?PR?ADC_STARTCONVERT?ADC
   *DEL*:           000008H   BYTE   UNIT     CODE           ?PR?ADC_STOPCONVERT?ADC
   *DEL*:           00001FH   BYTE   UNIT     CODE           ?PR?_ADC_ISENDCONVERSION?ADC
   *DEL*:           00002CH   BYTE   UNIT     CODE           ?PR?ADC_GETRESULT8?ADC
   *DEL*:           000060H   BYTE   UNIT     CODE           ?PR?ADC_GETRESULT16?ADC
   *DEL*:           000003H   BYTE   UNIT     XDATA          ?XD?ADC_GETRESULT16?ADC
   *DEL*:           0001B4H   BYTE   UNIT     CODE           ?PR?ADC_GETRESULT32?ADC
   *DEL*:           000007H   BYTE   UNIT     XDATA          ?XD?ADC_GETRESULT32?ADC
   *DEL*:           000007H   BYTE   UNIT     CODE           ?PR?_ADC_SETOFFSET?ADC
   *DEL*:           000007H   BYTE   UNIT     CODE           ?PR?_ADC_SETGAIN?ADC
   *DEL*:           00005FH   BYTE   UNIT     CODE           ?PR?_ADC_COUNTSTO_MVOLTS?ADC
LX51 LINKER/LOCATER V4.64.0.0                                                         01/31/2019  11:47:34  PAGE 9


   *DEL*:           000004H   BYTE   UNIT     XDATA          ?XD?_ADC_COUNTSTO_MVOLTS?ADC
   *DEL*:           00006DH   BYTE   UNIT     CODE           ?PR?_ADC_COUNTSTO_VOLTS?ADC
   *DEL*:           000004H   BYTE   UNIT     XDATA          ?XD?_ADC_COUNTSTO_VOLTS?ADC
   *DEL*:           000137H   BYTE   UNIT     CODE           ?PR?_ADC_COUNTSTO_UVOLTS?ADC
   *DEL*:           00000DH   BYTE   UNIT     XDATA          ?XD?_ADC_COUNTSTO_UVOLTS?ADC
   *DEL*:           000072H   BYTE   UNIT     CODE           ?PR?_ADC_SELECTCONFIGURATION?ADC
   *DEL*:           000002H   BYTE   UNIT     XDATA          ?XD?_ADC_SELECTCONFIGURATION?ADC
   *DEL*:           000016H   BYTE   UNIT     CODE           ?PR?ADC_READ8?ADC
   *DEL*:           000016H   BYTE   UNIT     CODE           ?PR?ADC_READ16?ADC
   *DEL*:           000016H   BYTE   UNIT     CODE           ?PR?ADC_READ32?ADC
   *DEL*:           000006H   BYTE   UNIT     CODE           ?PR?RS485_CTS_READ?RS485_CTS
   *DEL*:           0000FBH   BYTE   UNIT     CODE           ?PR?_BOOTLOADABLE_SETFLASHBYTE?BOOTLOADABLE
   *DEL*:           000110H   BYTE   UNIT     XDATA          ?XD?_BOOTLOADABLE_SETFLASHBYTE?BOOTLOADABLE
   *DEL*:           000006H   BYTE   UNIT     CODE           ?PR?FTDI_ENABLE_REG_READ?FTDI_ENABLE_REG
   *DEL*:           000006H   BYTE   UNIT     CODE           ?PR?RESET_FF_READ?RESET_FF
   *DEL*:           00000EH   BYTE   UNIT     CODE           ?PR?FF_STATUS_INTERRUPTENABLE?FF_STATUS
   *DEL*:           00000EH   BYTE   UNIT     CODE           ?PR?FF_STATUS_INTERRUPTDISABLE?FF_STATUS
   *DEL*:           000009H   BYTE   UNIT     CODE           ?PR?_FF_STATUS_WRITEMASK?FF_STATUS
   *DEL*:           000006H   BYTE   UNIT     CODE           ?PR?FF_STATUS_READMASK?FF_STATUS
   *DEL*:           000008H   BYTE   UNIT     CODE           ?PR?MY_TIMER_STOP?MY_TIMER
   *DEL*:           000006H   BYTE   UNIT     CODE           ?PR?MY_TIMER_SOFTWARECAPTURE?MY_TIMER
   *DEL*:           000006H   BYTE   UNIT     CODE           ?PR?MY_TIMER_READCONTROLREGISTER?MY_TIMER
   *DEL*:           000006H   BYTE   UNIT     CODE           ?PR?_MY_TIMER_WRITECONTROLREGISTER?MY_TIMER
   *DEL*:           00000AH   BYTE   UNIT     CODE           ?PR?MY_TIMER_READPERIOD?MY_TIMER
   *DEL*:           00000EH   BYTE   UNIT     CODE           ?PR?ADC_STATUS_INTERRUPTENABLE?ADC_STATUS
   *DEL*:           00000EH   BYTE   UNIT     CODE           ?PR?ADC_STATUS_INTERRUPTDISABLE?ADC_STATUS
   *DEL*:           000009H   BYTE   UNIT     CODE           ?PR?_ADC_STATUS_WRITEMASK?ADC_STATUS
   *DEL*:           000006H   BYTE   UNIT     CODE           ?PR?ADC_STATUS_READMASK?ADC_STATUS
   *DEL*:           000009H   BYTE   UNIT     CODE           ?PR?DMA_DMARELEASE?DMA_DMA
   *DEL*:           000006H   BYTE   UNIT     CODE           ?PR?ADC_SOC_READ?ADC_SOC
   *DEL*:           000012H   BYTE   UNIT     CODE           ?PR?CYDMACERROR?CYDMAC
   *DEL*:           000010H   BYTE   UNIT     CODE           ?PR?_CYDMACCLEARERROR?CYDMAC
   *DEL*:           00000AH   BYTE   UNIT     CODE           ?PR?CYDMACERRORADDRESS?CYDMAC
   *DEL*:           0000BEH   BYTE   UNIT     CODE           ?PR?CYDMACHALLOC?CYDMAC
   *DEL*:           000006H   BYTE   UNIT     XDATA          ?XD?CYDMACHALLOC?CYDMAC
   *DEL*:           000064H   BYTE   UNIT     CODE           ?PR?_CYDMACHFREE?CYDMAC
   *DEL*:           000003H   BYTE   UNIT     XDATA          ?XD?_CYDMACHFREE?CYDMAC
   *DEL*:           000033H   BYTE   UNIT     CODE           ?PR?_CYDMACHDISABLE?CYDMAC
   *DEL*:           000033H   BYTE   UNIT     CODE           ?PR?_CYDMACLEARPENDINGDRQ?CYDMAC
   *DEL*:           000025H   BYTE   UNIT     CODE           ?PR?_CYDMACHSETREQUEST?CYDMAC
   *DEL*:           000024H   BYTE   UNIT     CODE           ?PR?_CYDMACHGETREQUEST?CYDMAC
   *DEL*:           000072H   BYTE   UNIT     CODE           ?PR?_CYDMACHSTATUS?CYDMAC
   *DEL*:           000007H   BYTE   UNIT     XDATA          ?XD?_CYDMACHSTATUS?CYDMAC
   *DEL*:           00003EH   BYTE   UNIT     CODE           ?PR?_CYDMATDFREE?CYDMAC
   *DEL*:           000002H   BYTE   UNIT     XDATA          ?XD?_CYDMATDFREE?CYDMAC
   *DEL*:           000009H   BYTE   UNIT     CODE           ?PR?CYDMATDFREECOUNT?CYDMAC
   *DEL*:           0000C9H   BYTE   UNIT     CODE           ?PR?_CYDMATDGETCONFIGURATION?CYDMAC
   *DEL*:           00000DH   BYTE   UNIT     XDATA          ?XD?_CYDMATDGETCONFIGURATION?CYDMAC
   *DEL*:           0000A6H   BYTE   UNIT     CODE           ?PR?_CYDMATDGETADDRESS?CYDMAC
   *DEL*:           00000AH   BYTE   UNIT     XDATA          ?XD?_CYDMATDGETADDRESS?CYDMAC
   *DEL*:           000038H   BYTE   UNIT     CODE           ?PR?_CYDMACHROUNDROBIN?CYDMAC
   *DEL*:           000031H   BYTE   UNIT     CODE           ?PR?CYFLASH_START?CYFLASH
   *DEL*:           000015H   BYTE   UNIT     CODE           ?PR?CYFLASH_STOP?CYFLASH
   *DEL*:           00007DH   BYTE   UNIT     CODE           ?PR?_CYSETFLASHEEBUFFER?CYFLASH
   *DEL*:           000004H   BYTE   UNIT     XDATA          ?XD?_CYSETFLASHEEBUFFER?CYFLASH
   *DEL*:           000034H   BYTE   UNIT     CODE           ?PR?_CYWRITEROWDATA?CYFLASH
   *DEL*:           000003H   BYTE   UNIT     XDATA          ?XD?_CYWRITEROWDATA?CYFLASH
   *DEL*:           000190H   BYTE   UNIT     CODE           ?PR?_CYWRITEROWFULL?CYFLASH
   *DEL*:           000009H   BYTE   UNIT     XDATA          ?XD?_CYWRITEROWFULL?CYFLASH
   *DEL*:           000044H   BYTE   UNIT     CODE           ?PR?_CYFLASH_SETWAITCYCLES?CYFLASH
   *DEL*:           000001H   BYTE   UNIT     XDATA          ?XD?_CYFLASH_SETWAITCYCLES?CYFLASH
   *DEL*:           000015H   BYTE   UNIT     CODE           ?PR?CYEEPROM_STOP?CYFLASH
   *DEL*:           000010H   BYTE   UNIT     CODE           ?PR?CYEEPROM_READRESERVE?CYFLASH
   *DEL*:           000008H   BYTE   UNIT     CODE           ?PR?CYEEPROM_READRELEASE?CYFLASH
   *DEL*:           00006EH   BYTE   UNIT     CODE           ?PR?_CYPLL_OUT_START?CYLIB
LX51 LINKER/LOCATER V4.64.0.0                                                         01/31/2019  11:47:34  PAGE 10


   *DEL*:           000004H   BYTE   UNIT     XDATA          ?XD?_CYPLL_OUT_START?CYLIB
   *DEL*:           000008H   BYTE   UNIT     CODE           ?PR?CYPLL_OUT_STOP?CYLIB
   *DEL*:           000036H   BYTE   UNIT     CODE           ?PR?_CYPLL_OUT_SETPQ?CYLIB
   *DEL*:           000010H   BYTE   UNIT     CODE           ?PR?_CYPLL_OUT_SETSOURCE?CYLIB
   *DEL*:           000053H   BYTE   UNIT     CODE           ?PR?_CYIMO_START?CYLIB
   *DEL*:           000003H   BYTE   UNIT     XDATA          ?XD?_CYIMO_START?CYLIB
   *DEL*:           00000FH   BYTE   UNIT     CODE           ?PR?CYIMO_STOP?CYLIB
   *DEL*:           000027H   BYTE   UNIT     CODE           ?PR?CYUSB_POWERONCHECK?CYLIB
   *DEL*:           0000B6H   BYTE   UNIT     CODE           ?PR?_CYIMO_SETTRIMVALUE?CYLIB
   *DEL*:           000001H   BYTE   UNIT     XDATA          ?XD?_CYIMO_SETTRIMVALUE?CYLIB
   *DEL*:           000118H   BYTE   UNIT     CODE           ?PR?_CYIMO_SETFREQ?CYLIB
   *DEL*:           000003H   BYTE   UNIT     XDATA          ?XD?_CYIMO_SETFREQ?CYLIB
   *DEL*:           00002FH   BYTE   UNIT     CODE           ?PR?_CYIMO_SETSOURCE?CYLIB
   *DEL*:           000008H   BYTE   UNIT     CODE           ?PR?CYIMO_ENABLEDOUBLER?CYLIB
   *DEL*:           000008H   BYTE   UNIT     CODE           ?PR?CYIMO_DISABLEDOUBLER?CYLIB
   *DEL*:           00000DH   BYTE   UNIT     CODE           ?PR?_CYMASTERCLK_SETSOURCE?CYLIB
   *DEL*:           000006H   BYTE   UNIT     CODE           ?PR?_CYMASTERCLK_SETDIVIDER?CYLIB
   *DEL*:           000023H   BYTE   UNIT     CODE           ?PR?_CYBUSCLK_INTERNAL_SETDIVIDER?CYLIB
   *DEL*:           00007AH   BYTE   UNIT     CODE           ?PR?_CYBUSCLK_SETDIVIDER?CYLIB
   *DEL*:           000002H   BYTE   UNIT     XDATA          ?XD?_CYBUSCLK_SETDIVIDER?CYLIB
   *DEL*:           00000EH   BYTE   UNIT     CODE           ?PR?_CYCPUCLK_SETDIVIDER?CYLIB
   *DEL*:           00000DH   BYTE   UNIT     CODE           ?PR?_CYUSBCLK_SETSOURCE?CYLIB
   *DEL*:           000008H   BYTE   UNIT     CODE           ?PR?CYILO_START1K?CYLIB
   *DEL*:           000008H   BYTE   UNIT     CODE           ?PR?CYILO_STOP1K?CYLIB
   *DEL*:           000008H   BYTE   UNIT     CODE           ?PR?CYILO_START100K?CYLIB
   *DEL*:           000008H   BYTE   UNIT     CODE           ?PR?CYILO_STOP100K?CYLIB
   *DEL*:           000008H   BYTE   UNIT     CODE           ?PR?CYILO_ENABLE33K?CYLIB
   *DEL*:           000008H   BYTE   UNIT     CODE           ?PR?CYILO_DISABLE33K?CYLIB
   *DEL*:           000011H   BYTE   UNIT     CODE           ?PR?_CYILO_SETSOURCE?CYLIB
   *DEL*:           000029H   BYTE   UNIT     CODE           ?PR?_CYILO_SETPOWERMODE?CYLIB
   *DEL*:           00005EH   BYTE   UNIT     CODE           ?PR?CYXTAL_32KHZ_START?CYLIB
   *DEL*:           000002H   BYTE   UNIT     XDATA          ?XD?CYXTAL_32KHZ_START?CYLIB
   *DEL*:           000020H   BYTE   UNIT     CODE           ?PR?CYXTAL_32KHZ_STOP?CYLIB
   *DEL*:           000008H   BYTE   UNIT     CODE           ?PR?CYXTAL_32KHZ_READSTATUS?CYLIB
   *DEL*:           000066H   BYTE   UNIT     CODE           ?PR?_CYXTAL_32KHZ_SETPOWERMODE?CYLIB
   *DEL*:           000001H   BYTE   UNIT     XDATA          ?XD?_CYXTAL_32KHZ_SETPOWERMODE?CYLIB
   *DEL*:           0000A0H   BYTE   UNIT     CODE           ?PR?_CYXTAL_START?CYLIB
   *DEL*:           000006H   BYTE   UNIT     XDATA          ?XD?_CYXTAL_START?CYLIB
   *DEL*:           000008H   BYTE   UNIT     CODE           ?PR?CYXTAL_STOP?CYLIB
   *DEL*:           000008H   BYTE   UNIT     CODE           ?PR?CYXTAL_ENABLEERRSTATUS?CYLIB
   *DEL*:           000008H   BYTE   UNIT     CODE           ?PR?CYXTAL_DISABLEERRSTATUS?CYLIB
   *DEL*:           00000FH   BYTE   UNIT     CODE           ?PR?CYXTAL_READSTATUS?CYLIB
   *DEL*:           000008H   BYTE   UNIT     CODE           ?PR?CYXTAL_ENABLEFAULTRECOVERY?CYLIB
   *DEL*:           000008H   BYTE   UNIT     CODE           ?PR?CYXTAL_DISABLEFAULTRECOVERY?CYLIB
   *DEL*:           00000DH   BYTE   UNIT     CODE           ?PR?_CYXTAL_SETSTARTUP?CYLIB
   *DEL*:           00000DH   BYTE   UNIT     CODE           ?PR?_CYXTAL_SETFBVOLTAGE?CYLIB
   *DEL*:           00000EH   BYTE   UNIT     CODE           ?PR?_CYXTAL_SETWDVOLTAGE?CYLIB
   *DEL*:           000015H   BYTE   UNIT     CODE           ?PR?_?CYHALT?CYLIB
   *DEL*:           0000B8H   BYTE   UNIT     CODE           ?PR?_?CYDELAYFREQ?CYLIB
   *DEL*:           000026H   BYTE   UNIT     CODE           ?PR?_CYWDTSTART?CYLIB
   *DEL*:           000007H   BYTE   UNIT     CODE           ?PR?CYWDTCLEAR?CYLIB
   *DEL*:           000084H   BYTE   UNIT     CODE           ?PR?_CYVDLVDIGITENABLE?CYLIB
   *DEL*:           000007H   BYTE   UNIT     XDATA          ?XD?_CYVDLVDIGITENABLE?CYLIB
   *DEL*:           000083H   BYTE   UNIT     CODE           ?PR?_CYVDLVANALOGENABLE?CYLIB
   *DEL*:           000007H   BYTE   UNIT     XDATA          ?XD?_CYVDLVANALOGENABLE?CYLIB
   *DEL*:           00001DH   BYTE   UNIT     CODE           ?PR?CYVDLVDIGITDISABLE?CYLIB
   *DEL*:           000018H   BYTE   UNIT     CODE           ?PR?CYVDLVANALOGDISABLE?CYLIB
   *DEL*:           000056H   BYTE   UNIT     CODE           ?PR?CYVDHVANALOGENABLE?CYLIB
   *DEL*:           000005H   BYTE   UNIT     XDATA          ?XD?CYVDHVANALOGENABLE?CYLIB
   *DEL*:           000011H   BYTE   UNIT     CODE           ?PR?CYVDHVANALOGDISABLE?CYLIB
   *DEL*:           000039H   BYTE   UNIT     CODE           ?PR?_CYVDSTICKYSTATUS?CYLIB
   *DEL*:           000002H   BYTE   UNIT     XDATA          ?XD?_CYVDSTICKYSTATUS?CYLIB
   *DEL*:           000018H   BYTE   UNIT     CODE           ?PR?CYVDREALTIMESTATUS?CYLIB
   *DEL*:           000001H   BYTE   UNIT     XDATA          ?XD?CYVDREALTIMESTATUS?CYLIB
   *DEL*:           0000D0H   BYTE   UNIT     CODE           ?PR?CYDISABLEINTS?CYLIB
LX51 LINKER/LOCATER V4.64.0.0                                                         01/31/2019  11:47:34  PAGE 11


   *DEL*:           000005H   BYTE   UNIT     XDATA          ?XD?CYDISABLEINTS?CYLIB
   *DEL*:           000067H   BYTE   UNIT     CODE           ?PR?_CYENABLEINTS?CYLIB
   *DEL*:           000004H   BYTE   UNIT     XDATA          ?XD?_CYENABLEINTS?CYLIB
   *DEL*:           000018H   BYTE   UNIT     CODE           ?PR?_CYINTGETVECTOR?CYLIB
   *DEL*:           000014H   BYTE   UNIT     CODE           ?PR?_CYINTGETPRIORITY?CYLIB
   *DEL*:           000036H   BYTE   UNIT     CODE           ?PR?_CYINTGETSTATE?CYLIB
   *DEL*:           000248H   BYTE   UNIT     CODE           ?PR?_CYGETUNIQUEID?CYLIB
   *DEL*:           000003H   BYTE   UNIT     XDATA          ?XD?_CYGETUNIQUEID?CYLIB
   *DEL*:           00001EH   BYTE   UNIT     CODE           ?PR?SPI_IMU_STOP?SPI_IMU
   *DEL*:           000001H   BYTE   UNIT     CODE           ?PR?SPI_IMU_DISABLETXINT?SPI_IMU
   *DEL*:           000001H   BYTE   UNIT     CODE           ?PR?SPI_IMU_DISABLERXINT?SPI_IMU
   *DEL*:           000006H   BYTE   UNIT     CODE           ?PR?_SPI_IMU_SETTXINTERRUPTMODE?SPI_IMU
   *DEL*:           000006H   BYTE   UNIT     CODE           ?PR?_SPI_IMU_SETRXINTERRUPTMODE?SPI_IMU
   *DEL*:           00000EH   BYTE   UNIT     CODE           ?PR?SPI_IMU_GETRXBUFFERSIZE?SPI_IMU
   *DEL*:           000017H   BYTE   UNIT     CODE           ?PR?SPI_IMU_GETTXBUFFERSIZE?SPI_IMU
   *DEL*:           00002EH   BYTE   UNIT     CODE           ?PR?_SPI_IMU_PUTARRAY?SPI_IMU
   *DEL*:           000003H   BYTE   UNIT     XDATA          ?XD?_SPI_IMU_PUTARRAY?SPI_IMU
   *DEL*:           000007H   BYTE   UNIT     CODE           ?PR?SPI_IMU_ENABLEINT?SPI_IMU
   *DEL*:           000007H   BYTE   UNIT     CODE           ?PR?SPI_IMU_DISABLEINT?SPI_IMU
   *DEL*:           00000DH   BYTE   UNIT     CODE           ?PR?_SPI_IMU_SETINTERRUPTMODE?SPI_IMU
   *DEL*:           00000DH   BYTE   UNIT     CODE           ?PR?_OPTO_PIN_SETDRIVEMODE?OPTO_PIN
   *DEL*:           000013H   BYTE   UNIT     CODE           ?PR?OPTO_PIN_READ?OPTO_PIN
   *DEL*:           000013H   BYTE   UNIT     CODE           ?PR?OPTO_PIN_READDATAREG?OPTO_PIN
   *DEL*:           000006H   BYTE   UNIT     CODE           ?PR?CHIP_SELECT_A_READ?CHIP_SELECT_A
   *DEL*:           000006H   BYTE   UNIT     CODE           ?PR?CHIP_SELECT_B_READ?CHIP_SELECT_B
   *DEL*:           000004H   BYTE   UNIT     CODE           ?PR?_CyDelay?CYBOOTASMKEIL
   *DEL*:           000019H   BYTE   UNIT     CODE           ?PR?CYMEMZERO?CYMEM
   *DEL*:           00002DH   BYTE   UNIT     CODE           ?PR?CFG_WRITE_BYTES?CYMEM
   *DEL*:           00002EH   BYTE   UNIT     CODE           ?PR?CY_WRITE_BYTES_CODE?CYMEM
   *DEL*:           000015H   BYTE   UNIT     CODE           ?PR?CYREAD32?CYMEM
   *DEL*:           000015H   BYTE   UNIT     CODE           ?PR?CYWRITE32?CYMEM
   *DEL*:           000021H   BYTE   UNIT     CODE           ?PR?_ADC_AMUX_FASTSELECT?ADC_AMUX
   *DEL*:           000001H   BYTE   UNIT     XDATA          ?XD?_ADC_AMUX_FASTSELECT?ADC_AMUX
   *DEL*:           00000FH   BYTE   UNIT     CODE           ?PR?ADC_EXT_CP_CLK_START?ADC_EXT_CP_CLK
   *DEL*:           00000FH   BYTE   UNIT     CODE           ?PR?ADC_EXT_CP_CLK_STOP?ADC_EXT_CP_CLK
   *DEL*:           00006EH   BYTE   UNIT     CODE           ?PR?ADC_EXT_CP_CLK_STOPBLOCK?ADC_EXT_CP_CLK
   *DEL*:           000002H   BYTE   UNIT     XDATA          ?XD?ADC_EXT_CP_CLK_STOPBLOCK?ADC_EXT_CP_CLK
   *DEL*:           000013H   BYTE   UNIT     CODE           ?PR?_ADC_EXT_CP_CLK_STANDBYPOWER?ADC_EXT_CP_CLK
   *DEL*:           00000EH   BYTE   UNIT     CODE           ?PR?_ADC_EXT_CP_CLK_CLEARMODEREGISTER?ADC_EXT_CP_CLK
   *DEL*:           000008H   BYTE   UNIT     CODE           ?PR?ADC_EXT_CP_CLK_GETMODEREGISTER?ADC_EXT_CP_CLK
   *DEL*:           000062H   BYTE   UNIT     CODE           ?PR?_ADC_EXT_CP_CLK_SETSOURCEREGISTER?ADC_EXT_CP_CLK
   *DEL*:           000003H   BYTE   UNIT     XDATA          ?XD?_ADC_EXT_CP_CLK_SETSOURCEREGISTER?ADC_EXT_CP_CLK
   *DEL*:           00000FH   BYTE   UNIT     CODE           ?PR?ADC_THEACLK_START?ADC_THEACLK
   *DEL*:           00000FH   BYTE   UNIT     CODE           ?PR?ADC_THEACLK_STOP?ADC_THEACLK
   *DEL*:           00006CH   BYTE   UNIT     CODE           ?PR?ADC_THEACLK_STOPBLOCK?ADC_THEACLK
   *DEL*:           000002H   BYTE   UNIT     XDATA          ?XD?ADC_THEACLK_STOPBLOCK?ADC_THEACLK
   *DEL*:           000013H   BYTE   UNIT     CODE           ?PR?_ADC_THEACLK_STANDBYPOWER?ADC_THEACLK
   *DEL*:           00000EH   BYTE   UNIT     CODE           ?PR?_ADC_THEACLK_CLEARMODEREGISTER?ADC_THEACLK
   *DEL*:           000008H   BYTE   UNIT     CODE           ?PR?ADC_THEACLK_GETMODEREGISTER?ADC_THEACLK
   *DEL*:           000062H   BYTE   UNIT     CODE           ?PR?_ADC_THEACLK_SETSOURCEREGISTER?ADC_THEACLK
   *DEL*:           000003H   BYTE   UNIT     XDATA          ?XD?_ADC_THEACLK_SETSOURCEREGISTER?ADC_THEACLK
   *DEL*:           000008H   BYTE   UNIT     CODE           ?PR?_ADC_THEACLK_SETPHASEREGISTER?ADC_THEACLK
   *DEL*:           000008H   BYTE   UNIT     CODE           ?PR?ADC_THEACLK_GETPHASEREGISTER?ADC_THEACLK
   *DEL*:           0001A9H   BYTE   UNIT     CODE           ?PR?CYPMSAVECLOCKS?CYPM
   *DEL*:           00024CH   BYTE   UNIT     CODE           ?PR?CYPMRESTORECLOCKS?CYPM
   *DEL*:           000003H   BYTE   UNIT     XDATA          ?XD?CYPMRESTORECLOCKS?CYPM
   *DEL*:           0000E0H   BYTE   UNIT     CODE           ?PR?_CYPMALTACT?CYPM
   *DEL*:           000004H   BYTE   UNIT     XDATA          ?XD?_CYPMALTACT?CYPM
   *DEL*:           000160H   BYTE   UNIT     CODE           ?PR?_CYPMSLEEP?CYPM
   *DEL*:           000004H   BYTE   UNIT     XDATA          ?XD?_CYPMSLEEP?CYPM
   *DEL*:           000008H   BYTE   UNIT     CODE           ?PR?CYPMHIBERNATE?CYPM
   *DEL*:           0000D6H   BYTE   UNIT     CODE           ?PR?_CYPMHIBERNATEEX?CYPM
   *DEL*:           000003H   BYTE   UNIT     XDATA          ?XD?_CYPMHIBERNATEEX?CYPM
   *DEL*:           000039H   BYTE   UNIT     CODE           ?PR?_CYPMREADSTATUS?CYPM
   *DEL*:           000002H   BYTE   UNIT     XDATA          ?XD?_CYPMREADSTATUS?CYPM
LX51 LINKER/LOCATER V4.64.0.0                                                         01/31/2019  11:47:34  PAGE 12


   *DEL*:           000076H   BYTE   UNIT     CODE           ?PR?CYPMHIBSAVESET?CYPM
   *DEL*:           000040H   BYTE   UNIT     CODE           ?PR?CYPMHIBRESTORE?CYPM
   *DEL*:           000049H   BYTE   UNIT     CODE           ?PR?_CYPMCTWSETINTERVAL?CYPM
   *DEL*:           000001H   BYTE   UNIT     XDATA          ?XD?_CYPMCTWSETINTERVAL?CYPM
   *DEL*:           000017H   BYTE   UNIT     CODE           ?PR?CYPMOPPSSET?CYPM
   *DEL*:           00004DH   BYTE   UNIT     CODE           ?PR?_CYPMFTWSETINTERVAL?CYPM
   *DEL*:           000001H   BYTE   UNIT     XDATA          ?XD?_CYPMFTWSETINTERVAL?CYPM
   *DEL*:           00018CH   BYTE   UNIT     CODE           ?PR?CYPMHIBSLPSAVESET?CYPM
   *DEL*:           00010DH   BYTE   UNIT     CODE           ?PR?CYPMHIBSLPRESTORE?CYPM
   *DEL*:           000082H   BYTE   UNIT     CODE           ?PR?CYPMHVILVISAVEDISABLE?CYPM
   *DEL*:           000033H   BYTE   UNIT     CODE           ?PR?CYPMHVILVIRESTORE?CYPM
   *DEL*:           00000EH   BYTE   UNIT     CONST          ?CO?CYPM
   *DEL*:           000015H   BYTE   UNIT     CODE           ?PR?CYSPCSTOP?CYSPC
   *DEL*:           0000A7H   BYTE   UNIT     CODE           ?PR?_CYSPCLOADMULTIBYTE?CYSPC
   *DEL*:           000007H   BYTE   UNIT     XDATA          ?XD?_CYSPCLOADMULTIBYTE?CYSPC
   *DEL*:           000143H   BYTE   UNIT     CODE           ?PR?_CYSPCLOADROWFULL?CYSPC
   *DEL*:           00000FH   BYTE   UNIT     XDATA          ?XD?_CYSPCLOADROWFULL?CYSPC
   *DEL*:           000030H   BYTE   UNIT     CODE           ?PR?_CYSPCERASESECTOR?CYSPC
   *DEL*:           00000FH   BYTE   UNIT     CODE           ?PR?SPI_IMU_INTCLOCK_STOP?SPI_IMU_INTCLOCK
   *DEL*:           00006EH   BYTE   UNIT     CODE           ?PR?SPI_IMU_INTCLOCK_STOPBLOCK?SPI_IMU_INTCLOCK
   *DEL*:           000002H   BYTE   UNIT     XDATA          ?XD?SPI_IMU_INTCLOCK_STOPBLOCK?SPI_IMU_INTCLOCK
   *DEL*:           000013H   BYTE   UNIT     CODE           ?PR?_SPI_IMU_INTCLOCK_STANDBYPOWER?SPI_IMU_INTCLOCK
   *DEL*:           000131H   BYTE   UNIT     CODE           ?PR?_SPI_IMU_INTCLOCK_SETDIVIDERREGISTER?SPI_IMU_INTCLOCK
   *DEL*:           000007H   BYTE   UNIT     XDATA          ?XD?_SPI_IMU_INTCLOCK_SETDIVIDERREGISTER?SPI_IMU_INTCLOCK
   *DEL*:           00000AH   BYTE   UNIT     CODE           ?PR?SPI_IMU_INTCLOCK_GETDIVIDERREGISTER?SPI_IMU_INTCLOCK
   *DEL*:           00000DH   BYTE   UNIT     CODE           ?PR?_SPI_IMU_INTCLOCK_SETMODEREGISTER?SPI_IMU_INTCLOCK
   *DEL*:           00000EH   BYTE   UNIT     CODE           ?PR?_SPI_IMU_INTCLOCK_CLEARMODEREGISTER?SPI_IMU_INTCLOCK
   *DEL*:           000008H   BYTE   UNIT     CODE           ?PR?SPI_IMU_INTCLOCK_GETMODEREGISTER?SPI_IMU_INTCLOCK
   *DEL*:           000062H   BYTE   UNIT     CODE           ?PR?_SPI_IMU_INTCLOCK_SETSOURCEREGISTER?SPI_IMU_INTCLOCK
   *DEL*:           000003H   BYTE   UNIT     XDATA          ?XD?_SPI_IMU_INTCLOCK_SETSOURCEREGISTER?SPI_IMU_INTCLOCK
   *DEL*:           000008H   BYTE   UNIT     CODE           ?PR?SPI_IMU_INTCLOCK_GETSOURCEREGISTER?SPI_IMU_INTCLOCK



OVERLAY MAP OF MODULE:   .\DP8051_Keil_951\Release\firmware.omf (COMMAND_PROCESSING)


FUNCTION/MODULE                                BIT_GROUP   DATA_GROUP   XDATA_GROUP
--> CALLED FUNCTION/MODULE                    START  STOP  START  STOP  START  STOP
===================================================================================
ISR_RS485_RX_EXINTERRUPT/INTERRUPTIONS        ----- -----  ----- -----  ----- -----

*** NEW ROOT ********************************

ISR_RS485_RX_INTERRUPT/ISR_RS485_RX           ----- -----  ----- -----  ----- -----

*** NEW ROOT ********************************

?C_C51STARTUP                                 ----- -----  ----- -----  ----- -----
  +--> ?CO?KEILSTART?3
  +--> CYFITTER_CFG/CYFITTER_CFG
  +--> CYDMACCONFIGURE/CYDMAC
  +--> MAIN/MAIN
  +--> ?C_INITSEG

?CO?KEILSTART?3                               ----- -----  ----- -----  ----- -----

CYFITTER_CFG/CYFITTER_CFG                     ----- -----  ----- -----  ----- -----
  +--> CYREAD8/CYMEM
  +--> CYWRITE8/CYMEM
  +--> CFG_DMA_INIT/CYFITTER_CFG
  +--> ?CO?CYFITTER_CFG
  +--> CYCONFIGCPYCODE/CYMEM
  +--> _CYCONFIGCPY/CYMEM
  +--> CLOCKSETUP/CYFITTER_CFG
LX51 LINKER/LOCATER V4.64.0.0                                                         01/31/2019  11:47:34  PAGE 13


  +--> ANALOGSETDEFAULT/CYFITTER_CFG

CYREAD8/CYMEM                                 ----- -----  ----- -----  ----- -----

CYWRITE8/CYMEM                                ----- -----  ----- -----  ----- -----

CFG_DMA_INIT/CYFITTER_CFG                     ----- -----  ----- -----  ----- -----
  +--> CYWRITE16/CYMEM
  +--> ?CO?CYFITTER_CFG
  +--> _CYCONFIGCPY/CYMEM

CYWRITE16/CYMEM                               ----- -----  ----- -----  ----- -----

?CO?CYFITTER_CFG                              ----- -----  ----- -----  ----- -----

_CYCONFIGCPY/CYMEM                            ----- -----  ----- -----  0000H 0007H

CYCONFIGCPYCODE/CYMEM                         ----- -----  ----- -----  ----- -----

CLOCKSETUP/CYFITTER_CFG                       ----- -----  ----- -----  0000H 0004H
  +--> CYWRITE16/CYMEM
  +--> ?CO?CYFITTER_CFG
  +--> CYCONFIGCPYCODE/CYMEM
  +--> CYREAD8/CYMEM
  +--> CYDELAYCYCLES/CYBOOTASMKEIL
  +--> _CYCLOCKSTARTUPERROR/CYFITTER_CFG

CYDELAYCYCLES/CYBOOTASMKEIL                   ----- -----  ----- -----  ----- -----

_CYCLOCKSTARTUPERROR/CYFITTER_CFG             ----- -----  ----- -----  ----- -----

ANALOGSETDEFAULT/CYFITTER_CFG                 ----- -----  ----- -----  ----- -----
  +--> CYREAD8/CYMEM

CYDMACCONFIGURE/CYDMAC                        ----- -----  ----- -----  ----- -----

MAIN/MAIN                                     ----- -----  ----- -----  0000H 0001H
  +--> EEPROM_START/EEPROM
  +--> MEMRECALL/COMMAND_PROCESSING
  +--> _?CYDELAY/CYLIB
  +--> _FTDI_ENABLE_REG_WRITE/FTDI_ENABLE_REG
  +--> UART_RS485_STOP/UART_RS485
  +--> UART_RS485_START/UART_RS485
  +--> UART_RS485_INIT/UART_RS485
  +--> UART_RS485_CLEARRXBUFFER/UART_RS485
  +--> UART_RS485_CLEARTXBUFFER/UART_RS485
  +--> _ISR_RS485_RX_STARTEX/ISR_RS485_RX
  +--> _RS485_CTS_WRITE/RS485_CTS
  +--> MY_TIMER_START/MY_TIMER
  +--> PACER_TIMER_START/PACER_TIMER
  +--> SPI_IMU_START/SPI_IMU
  +--> SPI_IMU_INIT/SPI_IMU
  +--> SPI_IMU_ENABLE/SPI_IMU
  +--> SPI_IMU_CLEARRXBUFFER/SPI_IMU
  +--> SPI_IMU_CLEARTXBUFFER/SPI_IMU
  +--> SPI_IMU_CLEARFIFO/SPI_IMU
  +--> ADC_START/ADC
  +--> _ADC_SOC_WRITE/ADC_SOC
  +--> _DMA_DMAINITIALIZE/DMA_DMA
  +--> CYDMATDALLOCATE/CYDMAC
  +--> _CYDMATDSETCONFIGURATION/CYDMAC
  +--> _CYDMATDSETADDRESS/CYDMAC
  +--> _CYDMACHSETINITIALTD/CYDMAC
  +--> _CYDMACHENABLE/CYDMAC
  +--> _OPTO_PIN_WRITE/OPTO_PIN
LX51 LINKER/LOCATER V4.64.0.0                                                         01/31/2019  11:47:34  PAGE 14


  +--> INITIMUGENERAL/IMU_FUNCTIONS
  +--> _RESET_FF_WRITE/RESET_FF
  +--> FUNCTION_SCHEDULER/INTERRUPTIONS
  +--> FF_STATUS_READ/FF_STATUS
  +--> INTERRUPT_MANAGER/INTERRUPTIONS
  +--> UART_RS485_READRXSTATUS/UART_RS485

EEPROM_START/EEPROM                           ----- -----  ----- -----  ----- -----
  +--> EEPROM_ENABLE/EEPROM

EEPROM_ENABLE/EEPROM                          ----- -----  ----- -----  ----- -----
  +--> CYSETTEMP/CYFLASH
  +--> CYEEPROM_START/CYFLASH

CYSETTEMP/CYFLASH                             ----- -----  ----- -----  0009H 0009H
  +--> CYFLASHGETSPCALGORITHM/CYFLASH
  +--> CYSETTEMPINT/CYFLASH

CYFLASHGETSPCALGORITHM/CYFLASH                ----- -----  ----- -----  000AH 000AH
  +--> CYSPCSTART/CYSPC
  +--> CYSPCLOCK/CYSPC
  +--> CYSPCGETALGORITHM/CYSPC
  +--> CYDELAYUS/CYBOOTASMKEIL
  +--> CYSPCUNLOCK/CYSPC

CYSPCSTART/CYSPC                              ----- -----  ----- -----  ----- -----
  +--> CYENTERCRITICALSECTION/CYBOOTASMKEIL
  +--> CYEXITCRITICALSECTION/CYBOOTASMKEIL

CYENTERCRITICALSECTION/CYBOOTASMKEIL          ----- -----  ----- -----  ----- -----

CYEXITCRITICALSECTION/CYBOOTASMKEIL           ----- -----  ----- -----  ----- -----

CYSPCLOCK/CYSPC                               ----- -----  ----- -----  000EH 000EH
  +--> CYENTERCRITICALSECTION/CYBOOTASMKEIL
  +--> CYEXITCRITICALSECTION/CYBOOTASMKEIL

CYSPCGETALGORITHM/CYSPC                       ----- -----  ----- -----  ----- -----

CYDELAYUS/CYBOOTASMKEIL                       ----- -----  ----- -----  ----- -----
  +--> CYDELAYCYCLES/CYBOOTASMKEIL

CYSPCUNLOCK/CYSPC                             ----- -----  ----- -----  ----- -----
  +--> CYENTERCRITICALSECTION/CYBOOTASMKEIL
  +--> CYEXITCRITICALSECTION/CYBOOTASMKEIL

CYSETTEMPINT/CYFLASH                          ----- -----  ----- -----  000AH 000AH
  +--> CYSPCSTART/CYSPC
  +--> CYSPCLOCK/CYSPC
  +--> _CYSPCGETTEMP/CYSPC
  +--> _CYSPCREADDATA/CYSPC
  +--> CYDELAYUS/CYBOOTASMKEIL
  +--> CYSPCUNLOCK/CYSPC

_CYSPCGETTEMP/CYSPC                           ----- -----  ----- -----  ----- -----

_CYSPCREADDATA/CYSPC                          ----- -----  ----- -----  000BH 000FH
  +--> CYDELAYUS/CYBOOTASMKEIL

CYEEPROM_START/CYFLASH                        ----- -----  ----- -----  ----- -----
  +--> CYENTERCRITICALSECTION/CYBOOTASMKEIL
  +--> CYEXITCRITICALSECTION/CYBOOTASMKEIL

MEMRECALL/COMMAND_PROCESSING                  ----- -----  ----- -----  ----- -----
  +--> MEMRESTORE/COMMAND_PROCESSING
LX51 LINKER/LOCATER V4.64.0.0                                                         01/31/2019  11:47:34  PAGE 15



MEMRESTORE/COMMAND_PROCESSING                 ----- -----  ----- -----  ----- -----
  +--> MEMINIT/COMMAND_PROCESSING
  +--> _MEMSTORE/COMMAND_PROCESSING

MEMINIT/COMMAND_PROCESSING                    ----- -----  ----- -----  ----- -----
  +--> _MEMSTORE/COMMAND_PROCESSING

_MEMSTORE/COMMAND_PROCESSING                  ----- -----  ----- -----  0002H 0008H
  +--> ISR_RS485_RX_DISABLE/ISR_RS485_RX
  +--> CYSETTEMP/CYFLASH
  +--> _EEPROM_WRITE/EEPROM
  +--> ISR_RS485_RX_ENABLE/ISR_RS485_RX

ISR_RS485_RX_DISABLE/ISR_RS485_RX             ----- -----  ----- -----  ----- -----

_EEPROM_WRITE/EEPROM                          ----- -----  ----- -----  0009H 000DH
  +--> CYSPCSTART/CYSPC
  +--> CYSPCLOCK/CYSPC
  +--> _CYSPCLOADROW/CYSPC
  +--> _CYSPCWRITEROW/CYSPC
  +--> CYSPCUNLOCK/CYSPC

_CYSPCLOADROW/CYSPC                           ----- -----  ----- -----  000EH 0014H

_CYSPCWRITEROW/CYSPC                          ----- -----  ----- -----  000EH 0012H

ISR_RS485_RX_ENABLE/ISR_RS485_RX              ----- -----  ----- -----  ----- -----

_?CYDELAY/CYLIB                               ----- -----  ----- -----  ----- -----
  +--> CYDELAYCYCLES/CYBOOTASMKEIL

_FTDI_ENABLE_REG_WRITE/FTDI_ENABLE_REG        ----- -----  ----- -----  ----- -----

UART_RS485_STOP/UART_RS485                    ----- -----  ----- -----  ----- -----
  +--> CYENTERCRITICALSECTION/CYBOOTASMKEIL
  +--> CYEXITCRITICALSECTION/CYBOOTASMKEIL

UART_RS485_START/UART_RS485                   ----- -----  ----- -----  ----- -----
  +--> UART_RS485_INIT/UART_RS485
  +--> UART_RS485_ENABLE/UART_RS485

UART_RS485_INIT/UART_RS485                    ----- -----  ----- -----  ----- -----
  +--> _CYINTSETVECTOR/CYLIB
  +--> _CYINTSETPRIORITY/CYLIB

_CYINTSETVECTOR/CYLIB                         ----- -----  ----- -----  0002H 0006H
  +--> CYREAD16/CYMEM
  +--> CYWRITE16/CYMEM

CYREAD16/CYMEM                                ----- -----  ----- -----  ----- -----

_CYINTSETPRIORITY/CYLIB                       ----- -----  ----- -----  ----- -----

UART_RS485_ENABLE/UART_RS485                  ----- -----  ----- -----  ----- -----
  +--> CYENTERCRITICALSECTION/CYBOOTASMKEIL
  +--> CYEXITCRITICALSECTION/CYBOOTASMKEIL

UART_RS485_CLEARRXBUFFER/UART_RS485           ----- -----  ----- -----  ----- -----
  +--> CYENTERCRITICALSECTION/CYBOOTASMKEIL
  +--> CYEXITCRITICALSECTION/CYBOOTASMKEIL

UART_RS485_CLEARTXBUFFER/UART_RS485           ----- -----  ----- -----  ----- -----
  +--> CYENTERCRITICALSECTION/CYBOOTASMKEIL
  +--> CYEXITCRITICALSECTION/CYBOOTASMKEIL
LX51 LINKER/LOCATER V4.64.0.0                                                         01/31/2019  11:47:34  PAGE 16



_ISR_RS485_RX_STARTEX/ISR_RS485_RX            ----- -----  ----- -----  0002H 0003H
  +--> ISR_RS485_RX_DISABLE/ISR_RS485_RX
  +--> _ISR_RS485_RX_SETVECTOR/ISR_RS485_RX
  +--> _ISR_RS485_RX_SETPRIORITY/ISR_RS485_RX
  +--> ISR_RS485_RX_ENABLE/ISR_RS485_RX

_ISR_RS485_RX_SETVECTOR/ISR_RS485_RX          ----- -----  ----- -----  ----- -----
  +--> CYWRITE16/CYMEM

_ISR_RS485_RX_SETPRIORITY/ISR_RS485_RX        ----- -----  ----- -----  ----- -----

_RS485_CTS_WRITE/RS485_CTS                    ----- -----  ----- -----  ----- -----

MY_TIMER_START/MY_TIMER                       ----- -----  ----- -----  ----- -----
  +--> MY_TIMER_INIT/MY_TIMER
  +--> MY_TIMER_ENABLE/MY_TIMER

MY_TIMER_INIT/MY_TIMER                        ----- -----  ----- -----  ----- -----
  +--> _MY_TIMER_WRITEPERIOD/MY_TIMER
  +--> _MY_TIMER_WRITECOUNTER/MY_TIMER
  +--> CYENTERCRITICALSECTION/CYBOOTASMKEIL
  +--> CYEXITCRITICALSECTION/CYBOOTASMKEIL
  +--> MY_TIMER_CLEARFIFO/MY_TIMER
  +--> _MY_TIMER_SETINTERRUPTMODE/MY_TIMER

_MY_TIMER_WRITEPERIOD/MY_TIMER                ----- -----  ----- -----  ----- -----
  +--> CYWRITE24/CYMEM

CYWRITE24/CYMEM                               ----- -----  ----- -----  ----- -----

_MY_TIMER_WRITECOUNTER/MY_TIMER               ----- -----  ----- -----  ----- -----
  +--> CYWRITE24/CYMEM

MY_TIMER_CLEARFIFO/MY_TIMER                   ----- -----  ----- -----  ----- -----
  +--> MY_TIMER_READSTATUSREGISTER/MY_TIMER
  +--> MY_TIMER_READCAPTURE/MY_TIMER

MY_TIMER_READSTATUSREGISTER/MY_TIMER          ----- -----  ----- -----  ----- -----

MY_TIMER_READCAPTURE/MY_TIMER                 ----- -----  ----- -----  ----- -----
  +--> CYREAD24/CYMEM

CYREAD24/CYMEM                                ----- -----  ----- -----  ----- -----

_MY_TIMER_SETINTERRUPTMODE/MY_TIMER           ----- -----  ----- -----  ----- -----

MY_TIMER_ENABLE/MY_TIMER                      ----- -----  ----- -----  ----- -----

PACER_TIMER_START/PACER_TIMER                 ----- -----  ----- -----  ----- -----
  +--> PACER_TIMER_INIT/PACER_TIMER
  +--> PACER_TIMER_ENABLE/PACER_TIMER

PACER_TIMER_INIT/PACER_TIMER                  ----- -----  ----- -----  ----- -----
  +--> _PACER_TIMER_WRITEPERIOD/PACER_TIMER
  +--> _PACER_TIMER_WRITECOUNTER/PACER_TIMER
  +--> _PACER_TIMER_SETINTERRUPTMODE/PACER_TIMER

_PACER_TIMER_WRITEPERIOD/PACER_TIMER          ----- -----  ----- -----  ----- -----
  +--> CYWRITE16/CYMEM

_PACER_TIMER_WRITECOUNTER/PACER_TIMER         ----- -----  ----- -----  ----- -----
  +--> CYWRITE16/CYMEM

_PACER_TIMER_SETINTERRUPTMODE/PACER_TIME+     ----- -----  ----- -----  ----- -----
LX51 LINKER/LOCATER V4.64.0.0                                                         01/31/2019  11:47:34  PAGE 17


... R

PACER_TIMER_ENABLE/PACER_TIMER                ----- -----  ----- -----  ----- -----

SPI_IMU_START/SPI_IMU                         ----- -----  ----- -----  ----- -----
  +--> SPI_IMU_INIT/SPI_IMU
  +--> SPI_IMU_ENABLE/SPI_IMU

SPI_IMU_INIT/SPI_IMU                          ----- -----  ----- -----  ----- -----
  +--> SPI_IMU_CLEARFIFO/SPI_IMU
  +--> SPI_IMU_READTXSTATUS/SPI_IMU
  +--> SPI_IMU_READRXSTATUS/SPI_IMU

SPI_IMU_CLEARFIFO/SPI_IMU                     ----- -----  ----- -----  ----- -----
  +--> CYENTERCRITICALSECTION/CYBOOTASMKEIL
  +--> CYEXITCRITICALSECTION/CYBOOTASMKEIL

SPI_IMU_READTXSTATUS/SPI_IMU                  ----- -----  ----- -----  ----- -----

SPI_IMU_READRXSTATUS/SPI_IMU                  ----- -----  ----- -----  ----- -----

SPI_IMU_ENABLE/SPI_IMU                        ----- -----  ----- -----  ----- -----
  +--> CYENTERCRITICALSECTION/CYBOOTASMKEIL
  +--> CYEXITCRITICALSECTION/CYBOOTASMKEIL
  +--> SPI_IMU_INTCLOCK_START/SPI_IMU_INTCLOCK
  +--> SPI_IMU_ENABLETXINT/SPI_IMU
  +--> SPI_IMU_ENABLERXINT/SPI_IMU

SPI_IMU_INTCLOCK_START/SPI_IMU_INTCLOCK       ----- -----  ----- -----  ----- -----

SPI_IMU_ENABLETXINT/SPI_IMU                   ----- -----  ----- -----  ----- -----

SPI_IMU_ENABLERXINT/SPI_IMU                   ----- -----  ----- -----  ----- -----

SPI_IMU_CLEARRXBUFFER/SPI_IMU                 ----- -----  ----- -----  ----- -----

SPI_IMU_CLEARTXBUFFER/SPI_IMU                 ----- -----  ----- -----  ----- -----
  +--> CYENTERCRITICALSECTION/CYBOOTASMKEIL
  +--> CYEXITCRITICALSECTION/CYBOOTASMKEIL

ADC_START/ADC                                 ----- -----  ----- -----  ----- -----
  +--> ADC_INIT/ADC
  +--> ADC_ENABLE/ADC

ADC_INIT/ADC                                  ----- -----  ----- -----  ----- -----
  +--> _ADC_EXT_CP_CLK_SETMODEREGISTER/ADC_EXT_CP_CLK
  +--> _ADC_THEACLK_SETMODEREGISTER/ADC_THEACLK
  +--> _CYINTSETPRIORITY/CYLIB
  +--> _ADC_GAINCOMPENSATION/ADC
  +--> CYWRITE16/CYMEM
  +--> _ADC_INITCONFIG/ADC

_ADC_EXT_CP_CLK_SETMODEREGISTER/ADC_EXT_+     ----- -----  ----- -----  ----- -----
... CP_CLK

_ADC_THEACLK_SETMODEREGISTER/ADC_THEACLK      ----- -----  ----- -----  ----- -----

_ADC_GAINCOMPENSATION/ADC                     ----- -----  ----- -----  0002H 0009H
  +--> CYREAD8/CYMEM

_ADC_INITCONFIG/ADC                           ----- -----  ----- -----  ----- -----
  +--> _ADC_SETDSMREF0REG/ADC
  +--> _ADC_AMUX_SELECT/ADC_AMUX
  +--> _ADC_EXT_CP_CLK_SETDIVIDERREGISTER/ADC_EXT_CP_CLK
  +--> _ADC_THEACLK_SETDIVIDERREGISTER/ADC_THEACLK
LX51 LINKER/LOCATER V4.64.0.0                                                         01/31/2019  11:47:34  PAGE 18


  +--> _CYINTSETVECTOR/CYLIB

_ADC_SETDSMREF0REG/ADC                        ----- -----  ----- -----  0002H 0003H
  +--> CYENTERCRITICALSECTION/CYBOOTASMKEIL
  +--> CYDELAYUS/CYBOOTASMKEIL
  +--> CYEXITCRITICALSECTION/CYBOOTASMKEIL

_ADC_AMUX_SELECT/ADC_AMUX                     ----- -----  ----- -----  0002H 0002H
  +--> ADC_AMUX_START/ADC_AMUX
  +--> _ADC_AMUX_SET/CYFITTER_CFG

ADC_AMUX_START/ADC_AMUX                       ----- -----  ----- -----  0003H 0003H
  +--> _ADC_AMUX_UNSET/CYFITTER_CFG

_ADC_AMUX_UNSET/CYFITTER_CFG                  ----- -----  ----- -----  ----- -----
  +--> ?CO?CYFITTER_CFG

_ADC_AMUX_SET/CYFITTER_CFG                    ----- -----  ----- -----  ----- -----
  +--> ?CO?CYFITTER_CFG

_ADC_EXT_CP_CLK_SETDIVIDERREGISTER/ADC_E+     ----- -----  ----- -----  0002H 0008H
... XT_CP_CLK
  +--> ADC_EXT_CP_CLK_GETSOURCEREGISTER/ADC_EXT_CP_CLK
  +--> ADC_EXT_CP_CLK_GETDIVIDERREGISTER/ADC_EXT_CP_CLK
  +--> CYWRITE16/CYMEM

ADC_EXT_CP_CLK_GETSOURCEREGISTER/ADC_EXT+     ----- -----  ----- -----  ----- -----
... _CP_CLK

ADC_EXT_CP_CLK_GETDIVIDERREGISTER/ADC_EX+     ----- -----  ----- -----  ----- -----
... T_CP_CLK
  +--> CYREAD16/CYMEM

_ADC_THEACLK_SETDIVIDERREGISTER/ADC_THEA+     ----- -----  ----- -----  0002H 0008H
... CLK
  +--> ADC_THEACLK_GETSOURCEREGISTER/ADC_THEACLK
  +--> ADC_THEACLK_GETDIVIDERREGISTER/ADC_THEACLK
  +--> CYWRITE16/CYMEM

ADC_THEACLK_GETSOURCEREGISTER/ADC_THEACL+     ----- -----  ----- -----  ----- -----
... K

ADC_THEACLK_GETDIVIDERREGISTER/ADC_THEAC+     ----- -----  ----- -----  ----- -----
... LK
  +--> CYREAD16/CYMEM

ADC_ENABLE/ADC                                ----- -----  ----- -----  0002H 0003H
  +--> CYENTERCRITICALSECTION/CYBOOTASMKEIL
  +--> CYDELAYUS/CYBOOTASMKEIL
  +--> CYEXITCRITICALSECTION/CYBOOTASMKEIL

_ADC_SOC_WRITE/ADC_SOC                        ----- -----  ----- -----  ----- -----

_DMA_DMAINITIALIZE/DMA_DMA                    ----- -----  ----- -----  0002H 0007H
  +--> _CYDMACHSETCONFIGURATION/CYDMAC
  +--> _CYDMACHSETEXTENDEDADDRESS/CYDMAC
  +--> _CYDMACHPRIORITY/CYDMAC

_CYDMACHSETCONFIGURATION/CYDMAC               ----- -----  ----- -----  0008H 000DH

_CYDMACHSETEXTENDEDADDRESS/CYDMAC             ----- -----  ----- -----  0008H 000FH
  +--> CYWRITE16/CYMEM

_CYDMACHPRIORITY/CYDMAC                       ----- -----  ----- -----  ----- -----

LX51 LINKER/LOCATER V4.64.0.0                                                         01/31/2019  11:47:34  PAGE 19


CYDMATDALLOCATE/CYDMAC                        ----- -----  ----- -----  0002H 0002H
  +--> CYENTERCRITICALSECTION/CYBOOTASMKEIL
  +--> CYEXITCRITICALSECTION/CYBOOTASMKEIL

_CYDMATDSETCONFIGURATION/CYDMAC               ----- -----  ----- -----  0002H 0009H
  +--> CYWRITE16/CYMEM

_CYDMATDSETADDRESS/CYDMAC                     ----- -----  ----- -----  0002H 0009H
  +--> CYWRITE16/CYMEM

_CYDMACHSETINITIALTD/CYDMAC                   ----- -----  ----- -----  ----- -----

_CYDMACHENABLE/CYDMAC                         ----- -----  ----- -----  ----- -----

_OPTO_PIN_WRITE/OPTO_PIN                      ----- -----  ----- -----  ----- -----

INITIMUGENERAL/IMU_FUNCTIONS                  ----- -----  ----- -----  0002H 0027H
  +--> _CHIPSELECTOR/IMU_FUNCTIONS
  +--> _?CYDELAY/CYLIB
  +--> INITIMUMAGCAL/IMU_FUNCTIONS
  +--> _READMAGCAL/IMU_FUNCTIONS
  +--> _READCONTROLREGISTER/IMU_FUNCTIONS
  +--> _OPTO_PIN_WRITE/OPTO_PIN
  +--> INITIMU/IMU_FUNCTIONS

_CHIPSELECTOR/IMU_FUNCTIONS                   ----- -----  ----- -----  0028H 0029H
  +--> _CHIP_SELECT_A_WRITE/CHIP_SELECT_A
  +--> _CHIP_SELECT_B_WRITE/CHIP_SELECT_B

_CHIP_SELECT_A_WRITE/CHIP_SELECT_A            ----- -----  ----- -----  ----- -----

_CHIP_SELECT_B_WRITE/CHIP_SELECT_B            ----- -----  ----- -----  ----- -----

INITIMUMAGCAL/IMU_FUNCTIONS                   ----- -----  ----- -----  ----- -----
  +--> _WRITECONTROLREGISTER/IMU_FUNCTIONS
  +--> _?CYDELAY/CYLIB

_WRITECONTROLREGISTER/IMU_FUNCTIONS           ----- -----  ----- -----  0028H 0029H
  +--> SPI_IMU_CLEARRXBUFFER/SPI_IMU
  +--> SPI_IMU_CLEARTXBUFFER/SPI_IMU
  +--> SPI_IMU_CLEARFIFO/SPI_IMU
  +--> _SPI_IMU_WRITETXDATA/SPI_IMU
  +--> SPI_IMU_READSTATUS/SPI_IMU

_SPI_IMU_WRITETXDATA/SPI_IMU                  ----- -----  ----- -----  ----- -----

SPI_IMU_READSTATUS/SPI_IMU                    ----- -----  ----- -----  ----- -----

_READMAGCAL/IMU_FUNCTIONS                     ----- -----  ----- -----  0028H 002AH
  +--> _READCONTROLREGISTER/IMU_FUNCTIONS

_READCONTROLREGISTER/IMU_FUNCTIONS            ----- -----  ----- -----  ----- -----
  +--> _SPI_IMU_WRITETXDATA/SPI_IMU
  +--> SPI_IMU_READSTATUS/SPI_IMU
  +--> SPI_IMU_READRXDATA/SPI_IMU

SPI_IMU_READRXDATA/SPI_IMU                    ----- -----  ----- -----  ----- -----

INITIMU/IMU_FUNCTIONS                         ----- -----  ----- -----  ----- -----
  +--> _WRITECONTROLREGISTER/IMU_FUNCTIONS
  +--> _?CYDELAY/CYLIB

_RESET_FF_WRITE/RESET_FF                      ----- -----  ----- -----  ----- -----

FUNCTION_SCHEDULER/INTERRUPTIONS              ----- -----  ----- -----  ----- -----
LX51 LINKER/LOCATER V4.64.0.0                                                         01/31/2019  11:47:34  PAGE 20


  +--> MY_TIMER_READCOUNTER/MY_TIMER
  +--> _ADC_SOC_WRITE/ADC_SOC
  +--> INTERRUPT_MANAGER/INTERRUPTIONS
  +--> READALLIMUS/IMU_FUNCTIONS
  +--> ANALOG_READ_END/INTERRUPTIONS
  +--> _MY_TIMER_WRITECOUNTER/MY_TIMER

MY_TIMER_READCOUNTER/MY_TIMER                 ----- -----  ----- -----  ----- -----
  +--> CYREAD24/CYMEM

INTERRUPT_MANAGER/INTERRUPTIONS               20H.0 20H.0  0008H 0009H  ----- -----
  +--> UART_RS485_GETRXBUFFERSIZE/UART_RS485
  +--> UART_RS485_GETCHAR/UART_RS485
  +--> _INFOGET/COMMAND_PROCESSING
  +--> COMMPROCESS/COMMAND_PROCESSING
  +--> _RS485_CTS_WRITE/RS485_CTS

UART_RS485_GETRXBUFFERSIZE/UART_RS485         ----- -----  ----- -----  ----- -----

UART_RS485_GETCHAR/UART_RS485                 ----- -----  ----- -----  ----- -----

_INFOGET/COMMAND_PROCESSING                   ----- -----  ----- -----  ----- -----
  +--> _INFOPREPARE/COMMAND_PROCESSING
  +--> _UART_RS485_PUTSTRING/UART_RS485
  +--> _INFOREADING/COMMAND_PROCESSING

_INFOPREPARE/COMMAND_PROCESSING               ----- -----  ----- -----  0002H 006AH
  +--> ?CO?COMMAND_PROCESSING
  +--> _STRCAT/STRCAT
  +--> PRINTF/PRINTF

?CO?COMMAND_PROCESSING                        ----- -----  ----- -----  ----- -----

_STRCAT/STRCAT                                ----- -----  ----- -----  08B0H 08B8H

PRINTF/PRINTF                                 20H.1 21H.1  001AH 001EH  08B0H 08DFH
  +--> PUTCHAR/PUTCHAR

PUTCHAR/PUTCHAR                               ----- -----  ----- -----  ----- -----

_UART_RS485_PUTSTRING/UART_RS485              ----- -----  ----- -----  0002H 0004H
  +--> _UART_RS485_PUTCHAR/UART_RS485

_UART_RS485_PUTCHAR/UART_RS485                ----- -----  ----- -----  ----- -----

_INFOREADING/COMMAND_PROCESSING               ----- -----  ----- -----  0002H 006AH
  +--> ?CO?COMMAND_PROCESSING
  +--> _STRCAT/STRCAT
  +--> PRINTF/PRINTF

COMMPROCESS/COMMAND_PROCESSING                ----- -----  000AH 000AH  ----- -----
  +--> _LCRCHECKSUM/COMMAND_PROCESSING
  +--> CMD_SET_BAUDRATE/COMMAND_PROCESSING
  +--> _INFOGET/COMMAND_PROCESSING
  +--> _GET_PARAM_LIST/COMMAND_PROCESSING
  +--> CMD_PING/COMMAND_PROCESSING
  +--> CMD_STORE_PARAMS/COMMAND_PROCESSING
  +--> _MEMSTORE/COMMAND_PROCESSING
  +--> _SENDACKNOWLEDGMENT/COMMAND_PROCESSING
  +--> MEMRESTORE/COMMAND_PROCESSING
  +--> MEMINIT/COMMAND_PROCESSING
  +--> _?CYDELAY/CYLIB
  +--> _FTDI_ENABLE_REG_WRITE/FTDI_ENABLE_REG
  +--> BOOTLOADABLE_LOAD/BOOTLOADABLE
  +--> CMD_GET_IMU_READINGS/COMMAND_PROCESSING
LX51 LINKER/LOCATER V4.64.0.0                                                         01/31/2019  11:47:34  PAGE 21


  +--> CMD_GET_SENSORS/COMMAND_PROCESSING

_LCRCHECKSUM/COMMAND_PROCESSING               ----- -----  001AH 001BH  08B0H 08B2H

CMD_SET_BAUDRATE/COMMAND_PROCESSING           ----- -----  ----- -----  ----- -----
  +--> _CLOCK_UART_SETDIVIDERREGISTER/CLOCK_UART

_CLOCK_UART_SETDIVIDERREGISTER/CLOCK_UAR+     ----- -----  ----- -----  0002H 0008H
... T
  +--> CLOCK_UART_GETSOURCEREGISTER/CLOCK_UART
  +--> CLOCK_UART_GETDIVIDERREGISTER/CLOCK_UART
  +--> CYWRITE16/CYMEM

CLOCK_UART_GETSOURCEREGISTER/CLOCK_UART       ----- -----  ----- -----  ----- -----

CLOCK_UART_GETDIVIDERREGISTER/CLOCK_UART      ----- -----  ----- -----  ----- -----
  +--> CYREAD16/CYMEM

_GET_PARAM_LIST/COMMAND_PROCESSING            ----- -----  000BH 0019H  0002H 08AFH
  +--> ?CO?COMMAND_PROCESSING
  +--> _STRLEN/STRLEN
  +--> PRINTF/PRINTF
  +--> _STRCAT/STRCAT
  +--> _LCRCHECKSUM/COMMAND_PROCESSING
  +--> _COMMWRITE/COMMAND_PROCESSING
  +--> UART_RS485_CLEARTXBUFFER/UART_RS485

_STRLEN/STRLEN                                ----- -----  ----- -----  ----- -----

_COMMWRITE/COMMAND_PROCESSING                 ----- -----  001AH 001BH  08B0H 08B4H
  +--> _UART_RS485_PUTCHAR/UART_RS485
  +--> UART_RS485_READTXSTATUS/UART_RS485
  +--> _RS485_CTS_WRITE/RS485_CTS

UART_RS485_READTXSTATUS/UART_RS485            ----- -----  ----- -----  ----- -----

CMD_PING/COMMAND_PROCESSING                   ----- -----  ----- -----  0002H 0003H
  +--> _COMMWRITE/COMMAND_PROCESSING

CMD_STORE_PARAMS/COMMAND_PROCESSING           ----- -----  ----- -----  ----- -----
  +--> _MEMSTORE/COMMAND_PROCESSING
  +--> _SENDACKNOWLEDGMENT/COMMAND_PROCESSING

_SENDACKNOWLEDGMENT/COMMAND_PROCESSING        ----- -----  ----- -----  0002H 0003H
  +--> _COMMWRITE/COMMAND_PROCESSING

BOOTLOADABLE_LOAD/BOOTLOADABLE                ----- -----  ----- -----  ----- -----
  +--> CYSOFTWARERESET/CYLIB

CYSOFTWARERESET/CYLIB                         ----- -----  ----- -----  ----- -----

CMD_GET_IMU_READINGS/COMMAND_PROCESSING       ----- -----  ----- -----  0002H 0179H
  +--> _LCRCHECKSUM/COMMAND_PROCESSING
  +--> _COMMWRITE/COMMAND_PROCESSING

CMD_GET_SENSORS/COMMAND_PROCESSING            ----- -----  ----- -----  0002H 0007H
  +--> _LCRCHECKSUM/COMMAND_PROCESSING
  +--> _COMMWRITE/COMMAND_PROCESSING

READALLIMUS/IMU_FUNCTIONS                     ----- -----  ----- -----  0002H 0009H
  +--> _CHIPSELECTOR/IMU_FUNCTIONS
  +--> _READIMU/IMU_FUNCTIONS

_READIMU/IMU_FUNCTIONS                        ----- -----  ----- -----  000AH 000BH
  +--> _READACC/IMU_FUNCTIONS
LX51 LINKER/LOCATER V4.64.0.0                                                         01/31/2019  11:47:34  PAGE 22


  +--> _READGYRO/IMU_FUNCTIONS
  +--> _READMAG/IMU_FUNCTIONS
  +--> _READQUAT/IMU_FUNCTIONS
  +--> _READTEMP/IMU_FUNCTIONS

_READACC/IMU_FUNCTIONS                        ----- -----  ----- -----  0061H 0064H
  +--> _READCONTROLREGISTER/IMU_FUNCTIONS
  +--> SPI_DELAY/IMU_FUNCTIONS

SPI_DELAY/IMU_FUNCTIONS                       ----- -----  ----- -----  ----- -----
  +--> CYDELAYUS/CYBOOTASMKEIL

_READGYRO/IMU_FUNCTIONS                       ----- -----  ----- -----  0061H 0064H
  +--> _READCONTROLREGISTER/IMU_FUNCTIONS
  +--> SPI_DELAY/IMU_FUNCTIONS

_READMAG/IMU_FUNCTIONS                        ----- -----  ----- -----  000CH 000FH
  +--> _READCONTROLREGISTER/IMU_FUNCTIONS
  +--> SPI_DELAY/IMU_FUNCTIONS

_READQUAT/IMU_FUNCTIONS                       ----- -----  ----- -----  000CH 0060H
  +--> _READACC/IMU_FUNCTIONS
  +--> _READGYRO/IMU_FUNCTIONS
  +--> _FABS/FABS
  +--> _V3_NORMALIZE/UTILS
  +--> _V4_NORMALIZE/UTILS

_FABS/FABS                                    ----- -----  ----- -----  ----- -----

_V3_NORMALIZE/UTILS                           ----- -----  ----- -----  0061H 0067H
  +--> _INVSQRT/UTILS

_INVSQRT/UTILS                                ----- -----  ----- -----  0068H 0077H

_V4_NORMALIZE/UTILS                           ----- -----  ----- -----  0061H 0067H
  +--> _INVSQRT/UTILS

_READTEMP/IMU_FUNCTIONS                       ----- -----  ----- -----  000CH 000FH
  +--> _READCONTROLREGISTER/IMU_FUNCTIONS
  +--> SPI_DELAY/IMU_FUNCTIONS

ANALOG_READ_END/INTERRUPTIONS                 ----- -----  ----- -----  ----- -----
  +--> ADC_STATUS_READ/ADC_STATUS
  +--> INTERRUPT_MANAGER/INTERRUPTIONS

ADC_STATUS_READ/ADC_STATUS                    ----- -----  ----- -----  ----- -----

FF_STATUS_READ/FF_STATUS                      ----- -----  ----- -----  ----- -----

UART_RS485_READRXSTATUS/UART_RS485            ----- -----  ----- -----  ----- -----

?C_INITSEG                                    ----- -----  ----- -----  ----- -----

*** NEW ROOT ********************************

UART_RS485_RXISR/UART_RS485_INT               ----- -----  ----- -----  ----- -----

*** NEW ROOT ********************************

ADC_ISR1/ADC_INT                              ----- -----  ----- -----  ----- -----

*** NEW ROOT ********************************

ADC_ISR2/ADC_INT                              ----- -----  ----- -----  ----- -----

LX51 LINKER/LOCATER V4.64.0.0                                                         01/31/2019  11:47:34  PAGE 23


*** NEW ROOT ********************************

ADC_ISR3/ADC_INT                              ----- -----  ----- -----  ----- -----

*** NEW ROOT ********************************

ADC_ISR4/ADC_INT                              ----- -----  ----- -----  ----- -----



PUBLIC SYMBOLS OF MODULE:  .\DP8051_Keil_951\Release\firmware.omf (COMMAND_PROCESSING)


      VALUE       CLASS    TYPE      PUBLIC SYMBOL NAME
      =================================================
*DEL*:00000000H   XDATA    BYTE      ?_Bootloadable_SetFlashByte?BYTE
      02000000H   XDATA    BYTE      ?_cyconfigcpy?BYTE
      02000008H   XDATA    BYTE      ?_CyDmaChSetConfiguration?BYTE
*DEL*:00000000H   XDATA    BYTE      ?_CyDmaChStatus?BYTE
*DEL*:00000000H   XDATA    BYTE      ?_CyDmaTdGetAddress?BYTE
*DEL*:00000000H   XDATA    BYTE      ?_CyDmaTdGetConfiguration?BYTE
      02000002H   XDATA    BYTE      ?_CyDmaTdSetConfiguration?BYTE
*DEL*:00000000H   XDATA    BYTE      ?_CySpcLoadMultiByte?BYTE
      0200000EH   XDATA    BYTE      ?_CySpcLoadRow?BYTE
*DEL*:00000000H   XDATA    BYTE      ?_CySpcLoadRowFull?BYTE
      0200000EH   XDATA    BYTE      ?_CySpcWriteRow?BYTE
*DEL*:00000000H   XDATA    BYTE      ?_CyWriteRowFull?BYTE
      02000002H   XDATA    BYTE      ?_DMA_DmaInitialize?BYTE
      020008B0H   XDATA    ---       ?_PRINTF?BYTE
      020008B0H   XDATA    ---       ?_SPRINTF?BYTE
      020008B0H   XDATA    ---       ?_strcat?BYTE
      010055CFH   CODE     ---       ?C?ADDXBP
      010050E7H   CODE     ---       ?C?CASTF
      010055A9H   CODE     ---       ?C?CCASE
      01005333H   CODE     ---       ?C?CLDOPTR
      0100531AH   CODE     ---       ?C?CLDPTR
      00000000H   NUMBER   ---       ?C?CODESEG
      01005708H   CODE     ---       ?C?COPYAMD
      01005360H   CODE     ---       ?C?CSTPTR
      010050B3H   CODE     ---       ?C?FCASTC
      010050AEH   CODE     ---       ?C?FCASTI
      010050A9H   CODE     ---       ?C?FCASTL
      01004D88H   CODE     ---       ?C?FPADD
      01005021H   CODE     ---       ?C?FPCMP
      0100501FH   CODE     ---       ?C?FPCMP3
      010051A5H   CODE     ---       ?C?FPCONVERT
      01004F82H   CODE     ---       ?C?FPDIV
      0100511EH   CODE     ---       ?C?FPGETOPN2
      01004E79H   CODE     ---       ?C?FPMUL
      01005153H   CODE     ---       ?C?FPNANRESULT
      01005098H   CODE     ---       ?C?FPNEG
      0100515DH   CODE     ---       ?C?FPOVERFLOW
      01005135H   CODE     ---       ?C?FPRESULT
      01005149H   CODE     ---       ?C?FPRESULT2
      01005168H   CODE     ---       ?C?FPROUND
      01004D84H   CODE     ---       ?C?FPSUB
      0100515AH   CODE     ---       ?C?FPUNDERFLOW
      010052DAH   CODE     ---       ?C?FTNPWR
      01005803H   CODE     ---       ?C?IILDX
      01005819H   CODE     ---       ?C?ILDIX
      01005372H   CODE     ---       ?C?IMUL
      01005384H   CODE     ---       ?C?ISTPTR
      010055F3H   CODE     ---       ?C?LIMUL
      01005853H   CODE     ---       ?C?LLDCODE
      0100582FH   CODE     ---       ?C?LLDIDATA
LX51 LINKER/LOCATER V4.64.0.0                                                         01/31/2019  11:47:34  PAGE 24


      01005847H   CODE     ---       ?C?LLDPDATA
      01005526H   CODE     ---       ?C?LLDPTR
      0100583BH   CODE     ---       ?C?LLDXDATA
      010053A3H   CODE     ---       ?C?LMUL
      010054CDH   CODE     ---       ?C?LNEG
      010054C0H   CODE     ---       ?C?LNOT
      01005513H   CODE     ---       ?C?LSHL
      01005863H   CODE     ---       ?C?LSTIDATA
      0100586FH   CODE     ---       ?C?LSTPDATA
      01005546H   CODE     ---       ?C?LSTPTR
      01005560H   CODE     ---       ?C?LSTXDATA
      01005620H   CODE     ---       ?C?MEMSET
      0100556CH   CODE     ---       ?C?OFFX256
      0100557DH   CODE     ---       ?C?OFFXADD
      01005589H   CODE     ---       ?C?PLDIXDATA
      010055A0H   CODE     ---       ?C?PSTXDATA
      01009585H   CODE     ---       ?C?SLDIV
      010054FFH   CODE     ---       ?C?SLSHR
      010057E6H   CODE     ---       ?C?STRCPYAMD
      010054DBH   CODE     ---       ?C?ULCMP
      0100542EH   CODE     ---       ?C?ULDIV
      010054ECH   CODE     ---       ?C?ULSHR
      00000000H   NUMBER   ---       ?C?XDATASEG
      00000000H   NUMBER   ---       ?C?XPAGE1RST
      00000093H   DATA     BYTE      ?C?XPAGE1SFR
      01007D7CH   CODE     ---       ?C_START
      01002600H   CODE     NEAR LAB  ?C_STARTUP
      00000028H   DATA     ---       ?C_XBP
      01008CADH   CODE     ---       _?CyDelay
*DEL*:00000000H   CODE     ---       _?CyDelayFreq
*DEL*:00000000H   CODE     ---       _?CyHalt
*DEL*:00000000H   CODE     ---       _ADC_AMux_FastSelect
      01009C4AH   CODE     ---       _ADC_AMux_Select
      01009995H   CODE     ---       _ADC_AMux_Set
      010098D3H   CODE     ---       _ADC_AMux_Unset
*DEL*:00000000H   CODE     ---       _ADC_CountsTo_mVolts
*DEL*:00000000H   CODE     ---       _ADC_CountsTo_uVolts
*DEL*:00000000H   CODE     ---       _ADC_CountsTo_Volts
*DEL*:00000000H   CODE     ---       _ADC_Ext_CP_Clk_ClearModeRegister
      010075A0H   CODE     ---       _ADC_Ext_CP_Clk_SetDividerRegister
      01009EA1H   CODE     ---       _ADC_Ext_CP_Clk_SetModeRegister
*DEL*:00000000H   CODE     ---       _ADC_Ext_CP_Clk_SetSourceRegister
*DEL*:00000000H   CODE     ---       _ADC_Ext_CP_Clk_StandbyPower
*DEL*:00000000H   CODE     ---       _ADC_IsEndConversion
*DEL*:00000000H   CODE     ---       _ADC_SelectConfiguration
*DEL*:00000000H   CODE     ---       _ADC_SetBufferGain
*DEL*:00000000H   CODE     ---       _ADC_SetCoherency
*DEL*:00000000H   CODE     ---       _ADC_SetGain
*DEL*:00000000H   CODE     ---       _ADC_SetGCOR
*DEL*:00000000H   CODE     ---       _ADC_SetOffset
      01009FAFH   CODE     ---       _ADC_SOC_Write
*DEL*:00000000H   CODE     ---       _ADC_STATUS_WriteMask
*DEL*:00000000H   CODE     ---       _ADC_theACLK_ClearModeRegister
      01007801H   CODE     ---       _ADC_theACLK_SetDividerRegister
      01009EAEH   CODE     ---       _ADC_theACLK_SetModeRegister
*DEL*:00000000H   CODE     ---       _ADC_theACLK_SetPhaseRegister
*DEL*:00000000H   CODE     ---       _ADC_theACLK_SetSourceRegister
*DEL*:00000000H   CODE     ---       _ADC_theACLK_StandbyPower
*DEL*:00000000H   CODE     ---       _Bootloadable_SetFlashByte
*DEL*:00000000H   CODE     NEAR LAB  _cfg_write_bytes
*DEL*:00000000H   CODE     NEAR LAB  _cfg_write_bytes_code
      01009FC7H   CODE     ---       _Chip_Select_A_Write
      01009FCDH   CODE     ---       _Chip_Select_B_Write
      010094F4H   CODE     ---       _ChipSelector
*DEL*:00000000H   CODE     ---       _CLOCK_UART_ClearModeRegister
LX51 LINKER/LOCATER V4.64.0.0                                                         01/31/2019  11:47:34  PAGE 25


      010076D1H   CODE     ---       _CLOCK_UART_SetDividerRegister
*DEL*:00000000H   CODE     ---       _CLOCK_UART_SetModeRegister
*DEL*:00000000H   CODE     ---       _CLOCK_UART_SetSourceRegister
*DEL*:00000000H   CODE     ---       _CLOCK_UART_StandbyPower
      01008B98H   CODE     ---       _commWrite
*DEL*:00000000H   CODE     ---       _CyBusClk_SetDivider
      010097A2H   CODE     NEAR LAB  _cyconfigcpy
      01009A7DH   CODE     NEAR LAB  _cyconfigcpycode
*DEL*:00000000H   CODE     ---       _CyCpuClk_SetDivider
*DEL*:00000000H   CODE     NEAR LAB  _CyDelay
      01009800H   CODE     NEAR LAB  _CyDelayCycles
      01009A24H   CODE     NEAR LAB  _CyDelayUs
*DEL*:00000000H   CODE     ---       _CyDmacClearError
*DEL*:00000000H   CODE     ---       _CyDmaChDisable
      0100945FH   CODE     ---       _CyDmaChEnable
*DEL*:00000000H   CODE     ---       _CyDmaChFree
*DEL*:00000000H   CODE     ---       _CyDmaChGetRequest
      0100960AH   CODE     ---       _CyDmaChPriority
*DEL*:00000000H   CODE     ---       _CyDmaChRoundRobin
      01008EC1H   CODE     ---       _CyDmaChSetConfiguration
      01008F3AH   CODE     ---       _CyDmaChSetExtendedAddress
      01009BABH   CODE     ---       _CyDmaChSetInitialTd
*DEL*:00000000H   CODE     ---       _CyDmaChSetRequest
*DEL*:00000000H   CODE     ---       _CyDmaChStatus
*DEL*:00000000H   CODE     ---       _CyDmaClearPendingDrq
*DEL*:00000000H   CODE     ---       _CyDmaTdFree
*DEL*:00000000H   CODE     ---       _CyDmaTdGetAddress
*DEL*:00000000H   CODE     ---       _CyDmaTdGetConfiguration
      01008FB2H   CODE     ---       _CyDmaTdSetAddress
      01008D35H   CODE     ---       _CyDmaTdSetConfiguration
*DEL*:00000000H   CODE     ---       _CyEnableInts
      01009C7BH   CODE     NEAR LAB  _CyExitCriticalSection
*DEL*:00000000H   CODE     ---       _CyFlash_SetWaitCycles
*DEL*:00000000H   CODE     ---       _CyGetUniqueId
*DEL*:00000000H   CODE     ---       _CyILO_SetPowerMode
*DEL*:00000000H   CODE     ---       _CyILO_SetSource
*DEL*:00000000H   CODE     ---       _CyIMO_SetFreq
*DEL*:00000000H   CODE     ---       _CyIMO_SetSource
*DEL*:00000000H   CODE     ---       _CyIMO_Start
*DEL*:00000000H   CODE     ---       _CyIntGetPriority
*DEL*:00000000H   CODE     ---       _CyIntGetState
*DEL*:00000000H   CODE     ---       _CyIntGetVector
      01009C18H   CODE     ---       _CyIntSetPriority
      010092CBH   CODE     ---       _CyIntSetVector
*DEL*:00000000H   CODE     ---       _CyMasterClk_SetDivider
*DEL*:00000000H   CODE     ---       _CyMasterClk_SetSource
*DEL*:00000000H   CODE     NEAR LAB  _cymemzero
*DEL*:00000000H   CODE     ---       _CyPLL_OUT_SetPQ
*DEL*:00000000H   CODE     ---       _CyPLL_OUT_SetSource
*DEL*:00000000H   CODE     ---       _CyPLL_OUT_Start
*DEL*:00000000H   CODE     ---       _CyPmAltAct
*DEL*:00000000H   CODE     ---       _CyPmCtwSetInterval
*DEL*:00000000H   CODE     ---       _CyPmFtwSetInterval
*DEL*:00000000H   CODE     ---       _CyPmHibernateEx
*DEL*:00000000H   CODE     ---       _CyPmReadStatus
*DEL*:00000000H   CODE     ---       _CyPmSleep
      01009E23H   CODE     NEAR LAB  _cyread16
      01009E25H   CODE     NEAR LAB  _cyread16_nodpx
      01009D9DH   CODE     NEAR LAB  _cyread24
      01009D9FH   CODE     NEAR LAB  _cyread24_nodpx
*DEL*:00000000H   CODE     NEAR LAB  _cyread32
*DEL*:00000002H   CODE     NEAR LAB  _cyread32_nodpx
      01009EC8H   CODE     NEAR LAB  _cyread8
      01009ECAH   CODE     NEAR LAB  _cyread8_nodpx
*DEL*:00000000H   CODE     ---       _CySetFlashEEBuffer
LX51 LINKER/LOCATER V4.64.0.0                                                         01/31/2019  11:47:34  PAGE 26


*DEL*:00000000H   CODE     ---       _CySpcEraseSector
      010099F4H   CODE     ---       _CySpcGetTemp
*DEL*:00000000H   CODE     ---       _CySpcLoadMultiByte
      0100902AH   CODE     ---       _CySpcLoadRow
*DEL*:00000000H   CODE     ---       _CySpcLoadRowFull
      01009108H   CODE     ---       _CySpcReadData
      0100931FH   CODE     ---       _CySpcWriteRow
*DEL*:00000000H   CODE     ---       _CyUsbClk_SetSource
*DEL*:00000000H   CODE     ---       _CyVdLvAnalogEnable
*DEL*:00000000H   CODE     ---       _CyVdLvDigitEnable
*DEL*:00000000H   CODE     ---       _CyVdStickyStatus
*DEL*:00000000H   CODE     ---       _CyWdtStart
      01009E32H   CODE     NEAR LAB  _cywrite16
      01009E34H   CODE     NEAR LAB  _cywrite16_nodpx
      01009DD4H   CODE     NEAR LAB  _cywrite24
      01009DD6H   CODE     NEAR LAB  _cywrite24_nodpx
*DEL*:00000000H   CODE     NEAR LAB  _cywrite32
*DEL*:00000002H   CODE     NEAR LAB  _cywrite32_nodpx
      01009ED4H   CODE     NEAR LAB  _cywrite8
      01009ED6H   CODE     NEAR LAB  _cywrite8_nodpx
*DEL*:00000000H   CODE     ---       _CyWriteRowData
*DEL*:00000000H   CODE     ---       _CyWriteRowFull
*DEL*:00000000H   CODE     ---       _CyXTAL_32KHZ_SetPowerMode
*DEL*:00000000H   CODE     ---       _CyXTAL_SetFbVoltage
*DEL*:00000000H   CODE     ---       _CyXTAL_SetStartup
*DEL*:00000000H   CODE     ---       _CyXTAL_SetWdVoltage
*DEL*:00000000H   CODE     ---       _CyXTAL_Start
      010094AAH   CODE     ---       _DMA_DmaInitialize
      01002604H   CODE     NEAR LAB  _dma_wait
*DEL*:00000000H   CODE     ---       _EEPROM_ByteWritePos
*DEL*:00000000H   CODE     ---       _EEPROM_EraseSector
*DEL*:00000000H   CODE     ---       _EEPROM_ReadByte
*DEL*:00000000H   CODE     ---       _EEPROM_StartErase
*DEL*:00000000H   CODE     ---       _EEPROM_StartWrite
      010086C0H   CODE     ---       _EEPROM_Write
*DEL*:00000000H   CODE     ---       _EEPROM_WriteByte
      01009EBBH   CODE     ---       _FABS
*DEL*:00000000H   CODE     ---       _FF_STATUS_WriteMask
      01009F8BH   CODE     ---       _FTDI_ENABLE_REG_Write
      0100261AH   CODE     ---       _get_param_list
      01009935H   CODE     ---       _infoGet
      0100587BH   CODE     ---       _infoPrepare
      01006293H   CODE     ---       _infoReading
      010084E8H   CODE     ---       _invSqrt
      01009EECH   CODE     ---       _ISR_RS485_RX_SetPriority
      01009E50H   CODE     ---       _ISR_RS485_RX_SetVector
      01009B6DH   CODE     ---       _ISR_RS485_RX_StartEx
      010098A1H   CODE     ---       _LCRChecksum
      01008901H   CODE     ---       _memStore
      01009F9DH   CODE     ---       _MY_TIMER_SetInterruptMode
*DEL*:00000000H   CODE     ---       _MY_TIMER_WriteControlRegister
      01009F1EH   CODE     ---       _MY_TIMER_WriteCounter
      01009F0AH   CODE     ---       _MY_TIMER_WritePeriod
*DEL*:00000000H   CODE     ---       _Opto_Pin_SetDriveMode
      01009DE6H   CODE     ---       _Opto_Pin_Write
      01009F7FH   CODE     ---       _PACER_TIMER_SetInterruptMode
*DEL*:00000000H   CODE     ---       _PACER_TIMER_WriteControlRegister
      01009E6CH   CODE     ---       _PACER_TIMER_WriteCounter
      01009E5EH   CODE     ---       _PACER_TIMER_WritePeriod
      01005E7BH   CODE     ---       _PRINTF
      010097D6H   CODE     ---       _PUTCHAR
      01007DC1H   CODE     ---       _ReadAcc
      01009C93H   CODE     ---       _ReadControlRegister
      01007EDDH   CODE     ---       _ReadGyro
      01008A5DH   CODE     ---       _ReadIMU
LX51 LINKER/LOCATER V4.64.0.0                                                         01/31/2019  11:47:34  PAGE 27


      01007FF9H   CODE     ---       _ReadMag
      01008DBCH   CODE     ---       _ReadMagCal
      010034DDH   CODE     ---       _ReadQuat
      01009168H   CODE     ---       _ReadTemp
      01009F91H   CODE     ---       _RESET_FF_Write
      01009F85H   CODE     ---       _RS485_CTS_Write
      01009CC0H   CODE     ---       _sendAcknowledgment
*DEL*:00000000H   CODE     ---       _SetAnalogRoutingPumps
*DEL*:00000000H   CODE     ---       _SPI_IMU_IntClock_ClearModeRegister
*DEL*:00000000H   CODE     ---       _SPI_IMU_IntClock_SetDividerRegister
*DEL*:00000000H   CODE     ---       _SPI_IMU_IntClock_SetModeRegister
*DEL*:00000000H   CODE     ---       _SPI_IMU_IntClock_SetSourceRegister
*DEL*:00000000H   CODE     ---       _SPI_IMU_IntClock_StandbyPower
*DEL*:00000000H   CODE     ---       _SPI_IMU_PutArray
*DEL*:00000000H   CODE     ---       _SPI_IMU_SetInterruptMode
*DEL*:00000000H   CODE     ---       _SPI_IMU_SetRxInterruptMode
*DEL*:00000000H   CODE     ---       _SPI_IMU_SetTxInterruptMode
      01009E94H   CODE     ---       _SPI_IMU_WriteTxData
      01005E75H   CODE     ---       _SPRINTF
      0100909DH   CODE     ---       _strcat
      01009D14H   CODE     ---       _STRLEN
*DEL*:00000000H   CODE     ---       _UART_RS485_PutArray
      01009E7AH   CODE     ---       _UART_RS485_PutChar
*DEL*:00000000H   CODE     ---       _UART_RS485_PutCRLF
      0100976EH   CODE     ---       _UART_RS485_PutString
*DEL*:00000000H   CODE     ---       _UART_RS485_SendBreak
*DEL*:00000000H   CODE     ---       _UART_RS485_SetRxAddress1
*DEL*:00000000H   CODE     ---       _UART_RS485_SetRxAddress2
*DEL*:00000000H   CODE     ---       _UART_RS485_SetRxAddressMode
*DEL*:00000000H   CODE     ---       _UART_RS485_SetRxInterruptMode
*DEL*:00000000H   CODE     ---       _UART_RS485_SetTxAddressMode
*DEL*:00000000H   CODE     ---       _UART_RS485_SetTxInterruptMode
*DEL*:00000000H   CODE     ---       _UART_RS485_WriteControlRegister
*DEL*:00000000H   CODE     ---       _UART_RS485_WriteTxData
      01007B82H   CODE     ---       _v3_normalize
      010072BDH   CODE     ---       _v4_normalize
      01009965H   CODE     ---       _WriteControlRegister
*SFR* 000000D0H.6 DATA     BIT       AC
*SFR* 000000E0H   DATA     BYTE      ACC
      02001072H   XDATA    ---       Accel
      0100A650H   CONST    ---       ADC_AMux__addrTable
      0100A654H   CONST    ---       ADC_AMux__maskTable
      01009B0CH   CODE     ---       ADC_AMux_Start
      020010DAH   XDATA    ---       ADC_buf
      0200161AH   XDATA    BYTE      ADC_Config
      02001625H   XDATA    BYTE      ADC_convDone
      02001626H   XDATA    LONG      ADC_CountsPerVolt
      01008C25H   CODE     ---       ADC_Enable
      01009F28H   CODE     ---       ADC_Ext_CP_Clk_GetDividerRegister
*DEL*:00000000H   CODE     ---       ADC_Ext_CP_Clk_GetModeRegister
      01009F54H   CODE     ---       ADC_Ext_CP_Clk_GetSourceRegister
*DEL*:00000000H   CODE     ---       ADC_Ext_CP_Clk_Start
*DEL*:00000000H   CODE     ---       ADC_Ext_CP_Clk_Stop
*DEL*:00000000H   CODE     ---       ADC_Ext_CP_Clk_StopBlock
*DEL*:00000000H   CODE     ---       ADC_GetResult16
*DEL*:00000000H   CODE     ---       ADC_GetResult32
*DEL*:00000000H   CODE     ---       ADC_GetResult8
      0100879FH   CODE     ---       ADC_Init
      0200161BH   XDATA    BYTE      ADC_initVar
      01009FDBH   CODE     ---       ADC_ISR1
      01009FDCH   CODE     ---       ADC_ISR2
      01009FDDH   CODE     ---       ADC_ISR3
      01009FDEH   CODE     ---       ADC_ISR4
      0200161CH   XDATA    LONG      ADC_Offset
*DEL*:00000000H   CODE     ---       ADC_Read16
LX51 LINKER/LOCATER V4.64.0.0                                                         01/31/2019  11:47:34  PAGE 28


*DEL*:00000000H   CODE     ---       ADC_Read32
*DEL*:00000000H   CODE     ---       ADC_Read8
*DEL*:00000000H   CODE     ---       ADC_ReadGCOR
*DEL*:00000000H   CODE     ---       ADC_SOC_Read
      01009BFFH   CODE     ---       ADC_Start
*DEL*:00000000H   CODE     ---       ADC_StartConvert
      02001621H   XDATA    BYTE      ADC_started
*DEL*:00000000H   CODE     ---       ADC_STATUS_InterruptDisable
*DEL*:00000000H   CODE     ---       ADC_STATUS_InterruptEnable
      01009FA9H   CODE     ---       ADC_STATUS_Read
*DEL*:00000000H   CODE     ---       ADC_STATUS_ReadMask
*DEL*:00000000H   CODE     ---       ADC_Stop
      02001620H   XDATA    BYTE      ADC_stopConversion
*DEL*:00000000H   CODE     ---       ADC_StopConvert
      01009F32H   CODE     ---       ADC_theACLK_GetDividerRegister
*DEL*:00000000H   CODE     ---       ADC_theACLK_GetModeRegister
*DEL*:00000000H   CODE     ---       ADC_theACLK_GetPhaseRegister
      01009F5CH   CODE     ---       ADC_theACLK_GetSourceRegister
*DEL*:00000000H   CODE     ---       ADC_theACLK_Start
*DEL*:00000000H   CODE     ---       ADC_theACLK_Stop
*DEL*:00000000H   CODE     ---       ADC_theACLK_StopBlock
      01009701H   CODE     ---       analog_read_end
*SFR* 000000F0H   DATA     BYTE      B
      01009F00H   CODE     ---       Bootloadable_Load
      020008E0H   XDATA    ---       c_mem
*DEL*:00000000H   CODE     ---       Chip_Select_A_Read
*DEL*:00000000H   CODE     ---       Chip_Select_B_Read
      01009EF6H   CODE     ---       CLOCK_UART_GetDividerRegister
*DEL*:00000000H   CODE     ---       CLOCK_UART_GetModeRegister
      01009F3CH   CODE     ---       CLOCK_UART_GetSourceRegister
*DEL*:00000000H   CODE     ---       CLOCK_UART_Start
*DEL*:00000000H   CODE     ---       CLOCK_UART_Stop
*DEL*:00000000H   CODE     ---       CLOCK_UART_StopBlock
      0100670EH   CODE     ---       cmd_get_imu_readings
      010095C9H   CODE     ---       cmd_get_sensors
      01009D29H   CODE     ---       cmd_ping
      01009B2DH   CODE     ---       cmd_set_baudrate
      01009CD5H   CODE     ---       cmd_store_params
      0100820EH   CODE     ---       commProcess
*SFR* 000000D0H.7 DATA     BIT       CY
      02001635H   XDATA    DWORD     cydelay_32k_ms
      02001630H   XDATA    DWORD     cydelay_freq_hz
      0200162BH   XDATA    DWORD     cydelay_freq_khz
      0200162FH   XDATA    BYTE      cydelay_freq_mhz
*DEL*:00000000H   CODE     ---       CyDisableInts
      01009738H   CODE     ---       CyDmacConfigure
*DEL*:00000000H   CODE     ---       CyDmacError
*DEL*:00000000H   CODE     ---       CyDmacErrorAddress
*DEL*:00000000H   CODE     ---       CyDmaChAlloc
      0100964AH   CODE     ---       CyDmaTdAllocate
*DEL*:00000000H   CODE     ---       CyDmaTdFreeCount
*DEL*:00000000H   CODE     ---       CyEEPROM_ReadRelease
*DEL*:00000000H   CODE     ---       CyEEPROM_ReadReserve
      01009904H   CODE     ---       CyEEPROM_Start
*DEL*:00000000H   CODE     ---       CyEEPROM_Stop
      01009CEAH   CODE     NEAR LAB  CyEnterCriticalSection
      01007930H   CODE     ---       cyfitter_cfg
*DEL*:00000000H   CODE     ---       CyFlash_Start
*DEL*:00000000H   CODE     ---       CyFlash_Stop
*DEL*:00000000H   CODE     ---       CyILO_Disable33K
*DEL*:00000000H   CODE     ---       CyILO_Enable33K
*DEL*:00000000H   CODE     ---       CyILO_Start100K
*DEL*:00000000H   CODE     ---       CyILO_Start1K
*DEL*:00000000H   CODE     ---       CyILO_Stop100K
*DEL*:00000000H   CODE     ---       CyILO_Stop1K
LX51 LINKER/LOCATER V4.64.0.0                                                         01/31/2019  11:47:34  PAGE 29


*DEL*:00000000H   CODE     ---       CyIMO_DisableDoubler
*DEL*:00000000H   CODE     ---       CyIMO_EnableDoubler
*DEL*:00000000H   CODE     ---       CyIMO_Stop
*DEL*:00000000H   CODE     ---       CyPLL_OUT_Stop
*DEL*:00000000H   CODE     ---       CyPmHibernate
*DEL*:00000000H   CODE     ---       CyPmOppsSet
*DEL*:00000000H   CODE     ---       CyPmRestoreClocks
*DEL*:00000000H   CODE     ---       CyPmSaveClocks
      02001634H   XDATA    BYTE      CyResetStatus
      01009C63H   CODE     ---       CySetTemp
      01009F4CH   CODE     ---       CySoftwareReset
      01009BE4H   CODE     ---       CySpcGetAlgorithm
      01009B8CH   CODE     ---       CySpcLock
      01009CFFH   CODE     ---       CySpcStart
*DEL*:00000000H   CODE     ---       CySpcStop
      01009EE0H   CODE     ---       CySpcUnlock
*DEL*:00000000H   CODE     ---       CyVdHvAnalogDisable
*DEL*:00000000H   CODE     ---       CyVdHvAnalogEnable
*DEL*:00000000H   CODE     ---       CyVdLvAnalogDisable
*DEL*:00000000H   CODE     ---       CyVdLvDigitDisable
*DEL*:00000000H   CODE     ---       CyVdRealTimeStatus
*DEL*:00000000H   CODE     ---       CyWdtClear
*DEL*:00000000H   CODE     ---       CyXTAL_32KHZ_ReadStatus
*DEL*:00000000H   CODE     ---       CyXTAL_32KHZ_Start
*DEL*:00000000H   CODE     ---       CyXTAL_32KHZ_Stop
*DEL*:00000000H   CODE     ---       CyXTAL_DisableErrStatus
*DEL*:00000000H   CODE     ---       CyXTAL_DisableFaultRecovery
*DEL*:00000000H   CODE     ---       CyXTAL_EnableErrStatus
*DEL*:00000000H   CODE     ---       CyXTAL_EnableFaultRecovery
*DEL*:00000000H   CODE     ---       CyXTAL_ReadStatus
*DEL*:00000000H   CODE     ---       CyXTAL_Stop
      02001642H   XDATA    ---       dieTemperature
      0200164EH   XDATA    BYTE      DMA_DmaHandle
*DEL*:00000000H   CODE     ---       DMA_DmaRelease
*SFR* 00000083H   DATA     BYTE      DPH
*SFR* 00000085H   DATA     BYTE      DPH1
*SFR* 00000082H   DATA     BYTE      DPL
*SFR* 00000084H   DATA     BYTE      DPL1
*SFR* 00000086H   DATA     BYTE      DPS
*SFR* 00000093H   DATA     BYTE      DPX
*SFR* 00000095H   DATA     BYTE      DPX1
*SFR* 000000A8H.7 DATA     BIT       EA
      0200152EH   XDATA    ---       EEPROM_ADDR
      01009F72H   CODE     ---       EEPROM_Enable
*DEL*:00000000H   CODE     ---       EEPROM_Query
      01009FD3H   CODE     ---       EEPROM_Start
*DEL*:00000000H   CODE     ---       EEPROM_Stop
*DEL*:00000000H   CODE     ---       EEPROM_UpdateTemperature
*SFR* 000000D0H.5 DATA     BIT       F0
*SFR* 000000D0H.1 DATA     BIT       F1
*DEL*:00000000H   CODE     ---       FF_STATUS_InterruptDisable
*DEL*:00000000H   CODE     ---       FF_STATUS_InterruptEnable
      01009F97H   CODE     ---       FF_STATUS_Read
*DEL*:00000000H   CODE     ---       FF_STATUS_ReadMask
*DEL*:00000000H   CODE     ---       FTDI_ENABLE_REG_Read
      01009277H   CODE     ---       function_scheduler
      020009A3H   XDATA    ---       g_imu
      02000DD7H   XDATA    ---       g_imuNew
      0200094AH   XDATA    ---       g_mem
      02000D52H   XDATA    ---       g_rx
      02000CB1H   XDATA    ---       Gyro
*SFR* 000000A8H   DATA     BYTE      IE
      02000939H   XDATA    ---       IMU_connected
      020010D8H   XDATA    INT       imus_data_size
*DEL*:00000000H   CODE     ---       ImusReset
LX51 LINKER/LOCATER V4.64.0.0                                                         01/31/2019  11:47:34  PAGE 30


*DEL*:00000000H   CODE     ---       infoSend
      01008306H   CODE     ---       InitIMU
      01006E3EH   CODE     ---       InitIMUgeneral
      010083F7H   CODE     ---       InitIMUMagCal
      00000021H.2 BIT      BIT       interrupt_flag
      01007A5BH   CODE     ---       interrupt_manager
*DEL*:00000000H   CODE     ---       ISR_RS485_RX_ClearPending
      01009F6BH   CODE     ---       ISR_RS485_RX_Disable
      01009F64H   CODE     ---       ISR_RS485_RX_Enable
      010097FDH   CODE     ---       ISR_RS485_RX_ExInterrupt
*DEL*:00000000H   CODE     ---       ISR_RS485_RX_GetPriority
*DEL*:00000000H   CODE     ---       ISR_RS485_RX_GetState
*DEL*:00000000H   CODE     ---       ISR_RS485_RX_GetVector
      01009A22H   CODE     ---       ISR_RS485_RX_Interrupt
*DEL*:00000000H   CODE     ---       ISR_RS485_RX_SetPending
*DEL*:00000000H   CODE     ---       ISR_RS485_RX_Start
*DEL*:00000000H   CODE     ---       ISR_RS485_RX_Stop
      02000C19H   XDATA    ---       Mag
      02000D1BH   XDATA    ---       MagCal
      01008110H   CODE     ---       main
      01008E40H   CODE     ---       memInit
      01009412H   CODE     ---       memRecall
      0100953DH   CODE     ---       memRestore
*SFR* 000000EAH   DATA     BYTE      MXAX
      01009E87H   CODE     ---       MY_TIMER_ClearFIFO
      01009F44H   CODE     ---       MY_TIMER_Enable
      01009A51H   CODE     ---       MY_TIMER_Init
      0200164DH   XDATA    BYTE      MY_TIMER_initVar
      01009F14H   CODE     ---       MY_TIMER_ReadCapture
*DEL*:00000000H   CODE     ---       MY_TIMER_ReadControlRegister
      01009DF6H   CODE     ---       MY_TIMER_ReadCounter
*DEL*:00000000H   CODE     ---       MY_TIMER_ReadPeriod
      01009FA3H   CODE     ---       MY_TIMER_ReadStatusRegister
*DEL*:00000000H   CODE     ---       MY_TIMER_SoftwareCapture
      01009D77H   CODE     ---       MY_TIMER_Start
*DEL*:00000000H   CODE     ---       MY_TIMER_Stop
      02000C18H   XDATA    BYTE      N_IMU_Connected
*DEL*:00000000H   CODE     ---       Opto_Pin_Read
*DEL*:00000000H   CODE     ---       Opto_Pin_ReadDataReg
*SFR* 000000D0H.2 DATA     BIT       OV
*SFR* 000000D0H   DATA     BIT       P
*SFR* 000000A0H   DATA     BYTE      P2AX
      01009CAAH   CODE     ---       PACER_TIMER_Enable
      010096C5H   CODE     ---       PACER_TIMER_Init
      0200164CH   XDATA    BYTE      PACER_TIMER_initVar
*DEL*:00000000H   CODE     ---       PACER_TIMER_ReadCapture
*DEL*:00000000H   CODE     ---       PACER_TIMER_ReadControlRegister
*DEL*:00000000H   CODE     ---       PACER_TIMER_ReadCounter
*DEL*:00000000H   CODE     ---       PACER_TIMER_ReadPeriod
*DEL*:00000000H   CODE     ---       PACER_TIMER_ReadStatusRegister
*DEL*:00000000H   CODE     ---       PACER_TIMER_SoftwareCapture
      01009D64H   CODE     ---       PACER_TIMER_Start
*DEL*:00000000H   CODE     ---       PACER_TIMER_Stop
*SFR* 000000D0H   DATA     BYTE      PSW
      02000CA1H   XDATA    ---       Quat
      01006B03H   CODE     ---       ReadAllIMUs
*DEL*:00000000H   CODE     ---       RESET_FF_Read
*SFR* 000000D0H.3 DATA     BIT       RS0
*SFR* 000000D0H.4 DATA     BIT       RS1
*DEL*:00000000H   CODE     ---       RS485_CTS_Read
      02000D4EH   XDATA    WORD      sensor_value_1
      02000D50H   XDATA    WORD      sensor_value_2
*SFR* 00000080H   DATA     BYTE      SFRPRT0DR
*SFR* 00000089H   DATA     BYTE      SFRPRT0PS
*SFR* 0000008AH   DATA     BYTE      SFRPRT0SEL
LX51 LINKER/LOCATER V4.64.0.0                                                         01/31/2019  11:47:34  PAGE 31


*SFR* 000000E8H   DATA     BYTE      SFRPRT12DR
*SFR* 000000E9H   DATA     BYTE      SFRPRT12PS
*SFR* 000000F2H   DATA     BYTE      SFRPRT12SEL
*SFR* 000000F8H   DATA     BYTE      SFRPRT15DR
*SFR* 000000F9H   DATA     BYTE      SFRPRT15PS
*SFR* 000000FAH   DATA     BYTE      SFRPRT15SEL
*SFR* 00000090H   DATA     BYTE      SFRPRT1DR
*SFR* 00000091H   DATA     BYTE      SFRPRT1PS
*SFR* 000000A2H   DATA     BYTE      SFRPRT1SEL
*SFR* 00000098H   DATA     BYTE      SFRPRT2DR
*SFR* 00000099H   DATA     BYTE      SFRPRT2PS
*SFR* 0000009AH   DATA     BYTE      SFRPRT2SEL
*SFR* 000000B0H   DATA     BYTE      SFRPRT3DR
*SFR* 000000B1H   DATA     BYTE      SFRPRT3PS
*SFR* 000000B2H   DATA     BYTE      SFRPRT3SEL
*SFR* 000000C0H   DATA     BYTE      SFRPRT4DR
*SFR* 000000C1H   DATA     BYTE      SFRPRT4PS
*SFR* 000000C2H   DATA     BYTE      SFRPRT4SEL
*SFR* 000000C8H   DATA     BYTE      SFRPRT5DR
*SFR* 000000C9H   DATA     BYTE      SFRPRT5PS
*SFR* 000000CAH   DATA     BYTE      SFRPRT5SEL
*SFR* 000000D8H   DATA     BYTE      SFRPRT6DR
*SFR* 000000D9H   DATA     BYTE      SFRPRT6PS
*SFR* 000000DAH   DATA     BYTE      SFRPRT6SEL
      0200104CH   XDATA    ---       single_imu_size
*SFR* 00000081H   DATA     BYTE      SP
      02001650H   XDATA    BYTE      SpcLockState
      01009BC9H   CODE     ---       SPI_delay
      01009B4DH   CODE     ---       SPI_IMU_ClearFIFO
      01009E05H   CODE     ---       SPI_IMU_ClearRxBuffer
      01009DC2H   CODE     ---       SPI_IMU_ClearTxBuffer
*DEL*:00000000H   CODE     ---       SPI_IMU_DisableInt
*DEL*:00000000H   CODE     ---       SPI_IMU_DisableRxInt
*DEL*:00000000H   CODE     ---       SPI_IMU_DisableTxInt
      01009AA3H   CODE     ---       SPI_IMU_Enable
*DEL*:00000000H   CODE     ---       SPI_IMU_EnableInt
      01009FDAH   CODE     ---       SPI_IMU_EnableRxInt
      01009A23H   CODE     ---       SPI_IMU_EnableTxInt
*DEL*:00000000H   CODE     ---       SPI_IMU_GetRxBufferSize
*DEL*:00000000H   CODE     ---       SPI_IMU_GetTxBufferSize
      01009C31H   CODE     ---       SPI_IMU_Init
      0200164AH   XDATA    BYTE      SPI_IMU_initVar
*DEL*:00000000H   CODE     ---       SPI_IMU_IntClock_GetDividerRegister
*DEL*:00000000H   CODE     ---       SPI_IMU_IntClock_GetModeRegister
*DEL*:00000000H   CODE     ---       SPI_IMU_IntClock_GetSourceRegister
      01009E41H   CODE     ---       SPI_IMU_IntClock_Start
*DEL*:00000000H   CODE     ---       SPI_IMU_IntClock_Stop
*DEL*:00000000H   CODE     ---       SPI_IMU_IntClock_StopBlock
      01009FC1H   CODE     ---       SPI_IMU_ReadRxData
      01009FBBH   CODE     ---       SPI_IMU_ReadRxStatus
      01009E14H   CODE     ---       SPI_IMU_ReadStatus
      01009FB5H   CODE     ---       SPI_IMU_ReadTxStatus
      01009D8AH   CODE     ---       SPI_IMU_Start
*DEL*:00000000H   CODE     ---       SPI_IMU_Stop
      02001648H   XDATA    BYTE      SPI_IMU_swStatusRx
      02001649H   XDATA    BYTE      SPI_IMU_swStatusTx
      01007CA4H   CODE     NEAR LAB  STARTUP1
      02000C7FH   XDATA    ---       Temp
      02000D17H   XDATA    DWORD     timer_value
      0200106EH   XDATA    DWORD     timer_value0
      010099C5H   CODE     ---       UART_RS485_ClearRxBuffer
      01009DB0H   CODE     ---       UART_RS485_ClearTxBuffer
      01009AC8H   CODE     ---       UART_RS485_Enable
      02001619H   XDATA    BYTE      UART_RS485_errorStatus
*DEL*:00000000H   CODE     ---       UART_RS485_GetByte
LX51 LINKER/LOCATER V4.64.0.0                                                         01/31/2019  11:47:34  PAGE 32


      010091C6H   CODE     ---       UART_RS485_GetChar
      010093C3H   CODE     ---       UART_RS485_GetRxBufferSize
*DEL*:00000000H   CODE     ---       UART_RS485_GetTxBufferSize
      0100986EH   CODE     ---       UART_RS485_Init
      02001617H   XDATA    BYTE      UART_RS485_initVar
*DEL*:00000000H   CODE     ---       UART_RS485_ReadControlRegister
*DEL*:00000000H   CODE     ---       UART_RS485_ReadRxData
      01009D3DH   CODE     ---       UART_RS485_ReadRxStatus
      01009F79H   CODE     ---       UART_RS485_ReadTxStatus
      020015F6H   XDATA    ---       UART_RS485_rxBuffer
      020015F4H   XDATA    BYTE      UART_RS485_rxBufferLoopDetect
      02001618H   XDATA    BYTE      UART_RS485_rxBufferOverflow
      020015F5H   XDATA    BYTE      UART_RS485_rxBufferRead
      02001616H   XDATA    BYTE      UART_RS485_rxBufferWrite
      01008850H   CODE     ---       UART_RS485_RXISR
      01009D51H   CODE     ---       UART_RS485_Start
      01009AEAH   CODE     ---       UART_RS485_Stop



SYMBOL TABLE OF MODULE:  .\DP8051_Keil_951\Release\firmware.omf (COMMAND_PROCESSING)

      VALUE       REP       CLASS    TYPE      SYMBOL NAME
      ====================================================
      ---         MODULE    ---      ---       COMMAND_PROCESSING
      0200152EH   PUBLIC    XDATA    ---       EEPROM_ADDR
      010095C9H   PUBLIC    CODE     ---       cmd_get_sensors
      0100670EH   PUBLIC    CODE     ---       cmd_get_imu_readings
      01009CD5H   PUBLIC    CODE     ---       cmd_store_params
      01009D29H   PUBLIC    CODE     ---       cmd_ping
      01009B2DH   PUBLIC    CODE     ---       cmd_set_baudrate
      01008E40H   PUBLIC    CODE     ---       memInit
      0100953DH   PUBLIC    CODE     ---       memRestore
      01009412H   PUBLIC    CODE     ---       memRecall
      01008901H   PUBLIC    CODE     ---       _memStore
      01009CC0H   PUBLIC    CODE     ---       _sendAcknowledgment
      010098A1H   PUBLIC    CODE     ---       _LCRChecksum
      01008B98H   PUBLIC    CODE     ---       _commWrite
      01006293H   PUBLIC    CODE     ---       _infoReading
      0100587BH   PUBLIC    CODE     ---       _infoPrepare
      0100261AH   PUBLIC    CODE     ---       _get_param_list
      01009935H   PUBLIC    CODE     ---       _infoGet
      0100820EH   PUBLIC    CODE     ---       commProcess
      000000CAH   SFRSYM    DATA     BYTE      SFRPRT5SEL
      000000DAH   SFRSYM    DATA     BYTE      SFRPRT6SEL
      000000D0H.6 SFRSYM    DATA     BIT       AC
      000000A8H.7 SFRSYM    DATA     BIT       EA
      000000A8H   SFRSYM    DATA     BYTE      IE
      00000085H   SFRSYM    DATA     BYTE      DPH1
      00000084H   SFRSYM    DATA     BYTE      DPL1
      000000D0H.7 SFRSYM    DATA     BIT       CY
      000000A0H   SFRSYM    DATA     BYTE      P2AX
      00000095H   SFRSYM    DATA     BYTE      DPX1
      00000081H   SFRSYM    DATA     BYTE      SP
      000000D0H.2 SFRSYM    DATA     BIT       OV
      00000080H   SFRSYM    DATA     BYTE      SFRPRT0DR
      00000090H   SFRSYM    DATA     BYTE      SFRPRT1DR
      000000F2H   SFRSYM    DATA     BYTE      SFRPRT12SEL
      00000098H   SFRSYM    DATA     BYTE      SFRPRT2DR
      000000B0H   SFRSYM    DATA     BYTE      SFRPRT3DR
      000000C0H   SFRSYM    DATA     BYTE      SFRPRT4DR
      000000FAH   SFRSYM    DATA     BYTE      SFRPRT15SEL
      000000C8H   SFRSYM    DATA     BYTE      SFRPRT5DR
      000000D8H   SFRSYM    DATA     BYTE      SFRPRT6DR
      00000089H   SFRSYM    DATA     BYTE      SFRPRT0PS
LX51 LINKER/LOCATER V4.64.0.0                                                         01/31/2019  11:47:34  PAGE 33


      00000091H   SFRSYM    DATA     BYTE      SFRPRT1PS
      00000099H   SFRSYM    DATA     BYTE      SFRPRT2PS
      000000B1H   SFRSYM    DATA     BYTE      SFRPRT3PS
      000000C1H   SFRSYM    DATA     BYTE      SFRPRT4PS
      000000C9H   SFRSYM    DATA     BYTE      SFRPRT5PS
      000000D9H   SFRSYM    DATA     BYTE      SFRPRT6PS
      000000EAH   SFRSYM    DATA     BYTE      MXAX
      000000F0H   SFRSYM    DATA     BYTE      B
      000000E0H   SFRSYM    DATA     BYTE      ACC
      000000D0H   SFRSYM    DATA     BIT       P
      000000D0H.3 SFRSYM    DATA     BIT       RS0
      000000D0H.4 SFRSYM    DATA     BIT       RS1
      00000083H   SFRSYM    DATA     BYTE      DPH
      000000E8H   SFRSYM    DATA     BYTE      SFRPRT12DR
      00000082H   SFRSYM    DATA     BYTE      DPL
      000000F8H   SFRSYM    DATA     BYTE      SFRPRT15DR
      00000086H   SFRSYM    DATA     BYTE      DPS
      000000E9H   SFRSYM    DATA     BYTE      SFRPRT12PS
      00000093H   SFRSYM    DATA     BYTE      DPX
      000000F9H   SFRSYM    DATA     BYTE      SFRPRT15PS
      000000D0H.5 SFRSYM    DATA     BIT       F0
      000000D0H.1 SFRSYM    DATA     BIT       F1
      0000008AH   SFRSYM    DATA     BYTE      SFRPRT0SEL
      000000D0H   SFRSYM    DATA     BYTE      PSW
      000000A2H   SFRSYM    DATA     BYTE      SFRPRT1SEL
      0000009AH   SFRSYM    DATA     BYTE      SFRPRT2SEL
      000000B2H   SFRSYM    DATA     BYTE      SFRPRT3SEL
      000000C2H   SFRSYM    DATA     BYTE      SFRPRT4SEL
      010044DFH   SYMBOL    CODE     ---       _?ix1000
      01004C7EH   SYMBOL    CODE     ---       _?ix1001
      01004C98H   SYMBOL    CODE     ---       _?ix1002
      01004CA3H   SYMBOL    CODE     ---       _?ix1003
      01004CB7H   SYMBOL    CODE     ---       _?ix1004
      01004CC7H   SYMBOL    CODE     ---       _?ix1005
      01004CF1H   SYMBOL    CODE     ---       _?ix1006
      01004D0BH   SYMBOL    CODE     ---       _?ix1007

      0100820EH   BLOCK     CODE     ---       LVL=0
      0100820EH   BLOCK     CODE     NEAR LAB  LVL=1
      0000000AH   SYMBOL    DATA     BYTE      rx_cmd
      ---         BLOCKEND  ---      ---       LVL=1
      0100820EH   LINE      CODE     ---       #67
      0100820EH   LINE      CODE     ---       #71
      01008214H   LINE      CODE     ---       #75
      0100823FH   LINE      CODE     ---       #77
      01008245H   LINE      CODE     ---       #79
      01008245H   LINE      CODE     ---       #82
      01008272H   LINE      CODE     ---       #86
      01008272H   LINE      CODE     ---       #87
      01008275H   LINE      CODE     ---       #88
      01008276H   LINE      CODE     ---       #92
      01008276H   LINE      CODE     ---       #93
      01008281H   LINE      CODE     ---       #94
      01008282H   LINE      CODE     ---       #98
      01008282H   LINE      CODE     ---       #99
      0100828DH   LINE      CODE     ---       #100
      0100828EH   LINE      CODE     ---       #104
      0100828EH   LINE      CODE     ---       #105
      01008291H   LINE      CODE     ---       #106
      01008292H   LINE      CODE     ---       #110
      01008292H   LINE      CODE     ---       #111
      01008295H   LINE      CODE     ---       #112
      01008296H   LINE      CODE     ---       #116
      01008296H   LINE      CODE     ---       #117
      010082A0H   LINE      CODE     ---       #118
LX51 LINKER/LOCATER V4.64.0.0                                                         01/31/2019  11:47:34  PAGE 34


      010082A6H   LINE      CODE     ---       #120
      010082ABH   LINE      CODE     ---       #121
      010082ACH   LINE      CODE     ---       #125
      010082ACH   LINE      CODE     ---       #126
      010082B2H   LINE      CODE     ---       #127
      010082B8H   LINE      CODE     ---       #129
      010082BDH   LINE      CODE     ---       #130
      010082BEH   LINE      CODE     ---       #134
      010082BEH   LINE      CODE     ---       #135
      010082C4H   LINE      CODE     ---       #136
      010082CAH   LINE      CODE     ---       #138
      010082CFH   LINE      CODE     ---       #139
      010082D0H   LINE      CODE     ---       #143
      010082D0H   LINE      CODE     ---       #145
      010082D5H   LINE      CODE     ---       #146
      010082DFH   LINE      CODE     ---       #147
      010082E4H   LINE      CODE     ---       #148
      010082EEH   LINE      CODE     ---       #149
      010082F1H   LINE      CODE     ---       #150
      010082F2H   LINE      CODE     ---       #154
      010082F2H   LINE      CODE     ---       #155
      010082F5H   LINE      CODE     ---       #156
      010082F6H   LINE      CODE     ---       #160
      010082F6H   LINE      CODE     ---       #161
      01008301H   LINE      CODE     ---       #162
      01008302H   LINE      CODE     ---       #166
      01008302H   LINE      CODE     ---       #167
      01008305H   LINE      CODE     ---       #168
      01008305H   LINE      CODE     ---       #171
      01008305H   LINE      CODE     ---       #172
      01008305H   LINE      CODE     ---       #174
      01008305H   LINE      CODE     ---       #175
      ---         BLOCKEND  ---      ---       LVL=0

      01009935H   BLOCK     CODE     ---       LVL=0
      00000006H   SYMBOL    DATA     WORD      info_type
      01009935H   BLOCK     CODE     NEAR LAB  LVL=1
      020010E2H   SYMBOL    XDATA    ---       packet_string
      ---         BLOCKEND  ---      ---       LVL=1
      01009935H   LINE      CODE     ---       #193
      01009935H   LINE      CODE     ---       #198
      0100993FH   LINE      CODE     ---       #199
      0100993FH   LINE      CODE     ---       #200
      01009948H   LINE      CODE     ---       #201
      01009951H   LINE      CODE     ---       #202
      01009952H   LINE      CODE     ---       #203
      01009952H   LINE      CODE     ---       #204
      0100995BH   LINE      CODE     ---       #205
      01009964H   LINE      CODE     ---       #206
      01009964H   LINE      CODE     ---       #207
      01009964H   LINE      CODE     ---       #208
      01009964H   LINE      CODE     ---       #209
      01009964H   LINE      CODE     ---       #210
      ---         BLOCKEND  ---      ---       LVL=0

      0100261AH   BLOCK     CODE     ---       LVL=0
      02000002H   SYMBOL    XDATA    WORD      index
      01002622H   BLOCK     CODE     NEAR LAB  LVL=1
      02000004H   SYMBOL    XDATA    ---       packet_data
      020007A3H   SYMBOL    XDATA    WORD      num_imus_id_params
      020007A5H   SYMBOL    XDATA    WORD      num_mag_cal_params
      020007A7H   SYMBOL    XDATA    WORD      first_imu_parameter
      020007A9H   SYMBOL    XDATA    WORD      packet_length
      0000000BH   SYMBOL    DATA     WORD      i
      0000000DH   SYMBOL    DATA     WORD      j
LX51 LINKER/LOCATER V4.64.0.0                                                         01/31/2019  11:47:34  PAGE 35


      0000000FH   SYMBOL    DATA     WORD      k
      00000011H   SYMBOL    DATA     WORD      h
      020007ABH   SYMBOL    XDATA    WORD      start_byte
      020007ADH   SYMBOL    XDATA    ---       n_imu_str
      020007C7H   SYMBOL    XDATA    ---       ids_str
      020007D2H   SYMBOL    XDATA    ---       mag_param_str
      020007E6H   SYMBOL    XDATA    ---       id_str
      020007F6H   SYMBOL    XDATA    ---       imu_table_str
      02000820H   SYMBOL    XDATA    ---       spi_read_delay_str
      00000013H   SYMBOL    DATA     BYTE      id_str_len
      00000014H   SYMBOL    DATA     BYTE      n_imu_str_len
      00000015H   SYMBOL    DATA     BYTE      ids_str_len
      00000016H   SYMBOL    DATA     BYTE      mag_param_str_len
      00000017H   SYMBOL    DATA     BYTE      imu_table_str_len
      00000018H   SYMBOL    DATA     BYTE      spi_read_delay_str_len
      0200083AH   SYMBOL    XDATA    ---       spi_delay_menu
      00000019H   SYMBOL    DATA     BYTE      spi_delay_menu_len
      ---         BLOCKEND  ---      ---       LVL=1
      0100261AH   LINE      CODE     ---       #216
      01002622H   LINE      CODE     ---       #217
      01002622H   LINE      CODE     ---       #225
      01002635H   LINE      CODE     ---       #226
      0100263EH   LINE      CODE     ---       #227
      01002643H   LINE      CODE     ---       #228
      01002649H   LINE      CODE     ---       #229
      01002680H   LINE      CODE     ---       #238
      01002685H   LINE      CODE     ---       #241
      01002697H   LINE      CODE     ---       #242
      010026AAH   LINE      CODE     ---       #243
      010026BDH   LINE      CODE     ---       #244
      010026D0H   LINE      CODE     ---       #245
      010026E3H   LINE      CODE     ---       #246
      010026F6H   LINE      CODE     ---       #249
      01002701H   LINE      CODE     ---       #250
      0100270CH   LINE      CODE     ---       #251
      01002717H   LINE      CODE     ---       #252
      01002722H   LINE      CODE     ---       #253
      0100272DH   LINE      CODE     ---       #254
      01002738H   LINE      CODE     ---       #256
      0100274BH   LINE      CODE     ---       #259
      01002770H   LINE      CODE     ---       #260
      0100277BH   LINE      CODE     ---       #264
      0100278BH   LINE      CODE     ---       #265
      010027B3H   LINE      CODE     ---       #271
      010027F3H   LINE      CODE     ---       #274
      01002815H   LINE      CODE     ---       #275
      0100281BH   LINE      CODE     ---       #276
      01002824H   LINE      CODE     ---       #278
      01002837H   LINE      CODE     ---       #279
      01002837H   LINE      CODE     ---       #281
      0100283EH   LINE      CODE     ---       #282
      01002844H   LINE      CODE     ---       #283
      01002847H   LINE      CODE     ---       #284
      0100284FH   LINE      CODE     ---       #285
      0100285BH   LINE      CODE     ---       #286
      01002887H   LINE      CODE     ---       #289
      01002895H   LINE      CODE     ---       #290
      0100289AH   LINE      CODE     ---       #291
      010028B0H   LINE      CODE     ---       #292
      010028CFH   LINE      CODE     ---       #293
      010028D5H   LINE      CODE     ---       #294
      010028E0H   LINE      CODE     ---       #295
      0100290CH   LINE      CODE     ---       #296
      01002930H   LINE      CODE     ---       #298
      0100295CH   LINE      CODE     ---       #299
LX51 LINKER/LOCATER V4.64.0.0                                                         01/31/2019  11:47:34  PAGE 36


      01002971H   LINE      CODE     ---       #300
      010029A2H   LINE      CODE     ---       #301
      010029AAH   LINE      CODE     ---       #302
      010029ACH   LINE      CODE     ---       #303
      010029ACH   LINE      CODE     ---       #304
      010029DEH   LINE      CODE     ---       #305
      010029DEH   LINE      CODE     ---       #306
      010029E6H   LINE      CODE     ---       #307
      010029F1H   LINE      CODE     ---       #310
      010029FDH   LINE      CODE     ---       #311
      01002A52H   LINE      CODE     ---       #312
      01002A5DH   LINE      CODE     ---       #315
      01002A78H   LINE      CODE     ---       #316
      01002A8FH   LINE      CODE     ---       #317
      01002ABBH   LINE      CODE     ---       #319
      01002ADFH   LINE      CODE     ---       #320
      01002B2DH   LINE      CODE     ---       #321
      01002B73H   LINE      CODE     ---       #322
      01002BB9H   LINE      CODE     ---       #325
      01002BD3H   LINE      CODE     ---       #327
      01002BE2H   LINE      CODE     ---       #328
      01002C37H   LINE      CODE     ---       #329
      01002C37H   LINE      CODE     ---       #330
      01002C37H   LINE      CODE     ---       #332
      01002C63H   LINE      CODE     ---       #333
      01002CB1H   LINE      CODE     ---       #334
      01002CF7H   LINE      CODE     ---       #335
      01002D3DH   LINE      CODE     ---       #337
      01002D49H   LINE      CODE     ---       #338
      01002D9EH   LINE      CODE     ---       #339
      01002D9EH   LINE      CODE     ---       #340
      01002DA9H   LINE      CODE     ---       #344
      01002DC4H   LINE      CODE     ---       #345
      01002DEFH   LINE      CODE     ---       #346
      01002DFAH   LINE      CODE     ---       #347
      01002E0EH   LINE      CODE     ---       #348
      01002E1BH   LINE      CODE     ---       #349
      01002E32H   LINE      CODE     ---       #350
      01002E3EH   LINE      CODE     ---       #351
      01002E84H   LINE      CODE     ---       #355
      01002E92H   LINE      CODE     ---       #356
      01002EA9H   LINE      CODE     ---       #357
      01002EEAH   LINE      CODE     ---       #358
      01002EF5H   LINE      CODE     ---       #360
      01002F21H   LINE      CODE     ---       #361
      01002F45H   LINE      CODE     ---       #363
      01002F8CH   LINE      CODE     ---       #364
      01002FCBH   LINE      CODE     ---       #365
      0100300AH   LINE      CODE     ---       #366
      01003049H   LINE      CODE     ---       #367
      01003088H   LINE      CODE     ---       #369
      01003094H   LINE      CODE     ---       #370
      010030E9H   LINE      CODE     ---       #371
      010030F4H   LINE      CODE     ---       #376
      0100310BH   LINE      CODE     ---       #377
      0100313BH   LINE      CODE     ---       #378
      0100314EH   LINE      CODE     ---       #379
      0100315BH   LINE      CODE     ---       #380
      01003172H   LINE      CODE     ---       #381
      0100317DH   LINE      CODE     ---       #382
      0100317DH   LINE      CODE     ---       #383
      01003194H   LINE      CODE     ---       #384
      01003197H   LINE      CODE     ---       #385
      01003199H   LINE      CODE     ---       #386
      01003199H   LINE      CODE     ---       #387
LX51 LINKER/LOCATER V4.64.0.0                                                         01/31/2019  11:47:34  PAGE 37


      010031B0H   LINE      CODE     ---       #388
      010031B3H   LINE      CODE     ---       #389
      010031B5H   LINE      CODE     ---       #390
      010031B5H   LINE      CODE     ---       #391
      010031CCH   LINE      CODE     ---       #392
      010031CFH   LINE      CODE     ---       #393
      010031CFH   LINE      CODE     ---       #394
      010031CFH   LINE      CODE     ---       #395
      010031CFH   LINE      CODE     ---       #396
      010031CFH   LINE      CODE     ---       #397
      010031DBH   LINE      CODE     ---       #398
      01003221H   LINE      CODE     ---       #400
      0100323DH   LINE      CODE     ---       #404
      0100324BH   LINE      CODE     ---       #405
      01003257H   LINE      CODE     ---       #406
      0100329DH   LINE      CODE     ---       #408
      010032C1H   LINE      CODE     ---       #409
      010032CAH   LINE      CODE     ---       #410
      010032CDH   LINE      CODE     ---       #411
      010032CEH   LINE      CODE     ---       #414
      010032CEH   LINE      CODE     ---       #416
      010032EDH   LINE      CODE     ---       #417
      010032EDH   LINE      CODE     ---       #419
      01003309H   LINE      CODE     ---       #420
      01003311H   LINE      CODE     ---       #421
      01003312H   LINE      CODE     ---       #422
      01003312H   LINE      CODE     ---       #424
      01003329H   LINE      CODE     ---       #425
      01003331H   LINE      CODE     ---       #426
      01003332H   LINE      CODE     ---       #427
      01003332H   LINE      CODE     ---       #430
      01003360H   LINE      CODE     ---       #431
      0100337FH   LINE      CODE     ---       #432
      0100339EH   LINE      CODE     ---       #433
      010033BDH   LINE      CODE     ---       #434
      010033DCH   LINE      CODE     ---       #437
      010033E4H   LINE      CODE     ---       #438
      010033FBH   LINE      CODE     ---       #439
      010033FBH   LINE      CODE     ---       #440
      0100349AH   LINE      CODE     ---       #441
      010034C3H   LINE      CODE     ---       #442
      010034CEH   LINE      CODE     ---       #443
      010034DCH   LINE      CODE     ---       #445
      010034DCH   LINE      CODE     ---       #447
      010034DCH   LINE      CODE     ---       #448
      010034DCH   LINE      CODE     ---       #449
      ---         BLOCKEND  ---      ---       LVL=0

      0100587BH   BLOCK     CODE     ---       LVL=0
      02000002H   SYMBOL    XDATA    ---       info_string
      01005886H   BLOCK     CODE     NEAR LAB  LVL=1
      02000005H   SYMBOL    XDATA    INT       i
      02000007H   SYMBOL    XDATA    ---       str
      ---         BLOCKEND  ---      ---       LVL=1
      0100587BH   LINE      CODE     ---       #456
      01005886H   LINE      CODE     ---       #457
      01005886H   LINE      CODE     ---       #460
      01005891H   LINE      CODE     ---       #461
      010058A9H   LINE      CODE     ---       #462
      010058C5H   LINE      CODE     ---       #463
      010058E1H   LINE      CODE     ---       #467
      010058FDH   LINE      CODE     ---       #469
      01005919H   LINE      CODE     ---       #471
      01005935H   LINE      CODE     ---       #472
      01005959H   LINE      CODE     ---       #473
LX51 LINKER/LOCATER V4.64.0.0                                                         01/31/2019  11:47:34  PAGE 38


      01005975H   LINE      CODE     ---       #478
      01005991H   LINE      CODE     ---       #481
      010059B5H   LINE      CODE     ---       #482
      010059D1H   LINE      CODE     ---       #484
      010059EDH   LINE      CODE     ---       #486
      01005A09H   LINE      CODE     ---       #487
      01005A2AH   LINE      CODE     ---       #488
      01005A64H   LINE      CODE     ---       #489
      01005A80H   LINE      CODE     ---       #491
      01005A97H   LINE      CODE     ---       #492
      01005AB8H   LINE      CODE     ---       #493
      01005AD1H   LINE      CODE     ---       #495
      01005AE8H   LINE      CODE     ---       #496
      01005AFFH   LINE      CODE     ---       #497
      01005B20H   LINE      CODE     ---       #498
      01005B39H   LINE      CODE     ---       #500
      01005B50H   LINE      CODE     ---       #501
      01005B67H   LINE      CODE     ---       #502
      01005B88H   LINE      CODE     ---       #503
      01005BA1H   LINE      CODE     ---       #505
      01005BB8H   LINE      CODE     ---       #506
      01005BCFH   LINE      CODE     ---       #507
      01005BF0H   LINE      CODE     ---       #508
      01005C09H   LINE      CODE     ---       #510
      01005C20H   LINE      CODE     ---       #511
      01005C37H   LINE      CODE     ---       #512
      01005C58H   LINE      CODE     ---       #513
      01005C71H   LINE      CODE     ---       #515
      01005C88H   LINE      CODE     ---       #517
      01005CA4H   LINE      CODE     ---       #518
      01005CB5H   LINE      CODE     ---       #520
      01005CD1H   LINE      CODE     ---       #522
      01005D23H   LINE      CODE     ---       #523
      01005D3FH   LINE      CODE     ---       #524
      01005D5BH   LINE      CODE     ---       #525
      01005D77H   LINE      CODE     ---       #527
      01005DBBH   LINE      CODE     ---       #528
      01005DD7H   LINE      CODE     ---       #529
      01005DF3H   LINE      CODE     ---       #530
      01005E0FH   LINE      CODE     ---       #531
      01005E0FH   LINE      CODE     ---       #532
      ---         BLOCKEND  ---      ---       LVL=0

      01006293H   BLOCK     CODE     ---       LVL=0
      02000002H   SYMBOL    XDATA    ---       info_string
      0100629EH   BLOCK     CODE     NEAR LAB  LVL=1
      02000005H   SYMBOL    XDATA    INT       i
      02000007H   SYMBOL    XDATA    ---       str
      ---         BLOCKEND  ---      ---       LVL=1
      01006293H   LINE      CODE     ---       #535
      0100629EH   LINE      CODE     ---       #536
      0100629EH   LINE      CODE     ---       #540
      010062B6H   LINE      CODE     ---       #541
      010062D2H   LINE      CODE     ---       #542
      010062EEH   LINE      CODE     ---       #543
      0100630FH   LINE      CODE     ---       #544
      01006349H   LINE      CODE     ---       #545
      01006365H   LINE      CODE     ---       #547
      0100638AH   LINE      CODE     ---       #548
      01006403H   LINE      CODE     ---       #549
      0100641FH   LINE      CODE     ---       #550
      0100641FH   LINE      CODE     ---       #552
      01006444H   LINE      CODE     ---       #553
      010064BDH   LINE      CODE     ---       #554
      010064D9H   LINE      CODE     ---       #555
LX51 LINKER/LOCATER V4.64.0.0                                                         01/31/2019  11:47:34  PAGE 39


      010064D9H   LINE      CODE     ---       #557
      010064FEH   LINE      CODE     ---       #558
      01006577H   LINE      CODE     ---       #559
      01006593H   LINE      CODE     ---       #560
      01006593H   LINE      CODE     ---       #562
      010065B7H   LINE      CODE     ---       #563
      0100666CH   LINE      CODE     ---       #564
      01006688H   LINE      CODE     ---       #565
      01006688H   LINE      CODE     ---       #567
      010066AAH   LINE      CODE     ---       #568
      010066E0H   LINE      CODE     ---       #569
      010066FCH   LINE      CODE     ---       #570
      010066FCH   LINE      CODE     ---       #571
      0100670DH   LINE      CODE     ---       #572
      ---         BLOCKEND  ---      ---       LVL=0

      01008B98H   BLOCK     CODE     ---       LVL=0
      020008B0H   SYMBOL    XDATA    ---       packet_data
      020008B3H   SYMBOL    XDATA    WORD      packet_lenght
      01008BA9H   BLOCK     CODE     NEAR LAB  LVL=1
      0000001AH   SYMBOL    DATA     WORD      index
      ---         BLOCKEND  ---      ---       LVL=1
      01008B98H   LINE      CODE     ---       #577
      01008BA9H   LINE      CODE     ---       #578
      01008BA9H   LINE      CODE     ---       #582
      01008BAEH   LINE      CODE     ---       #583
      01008BB3H   LINE      CODE     ---       #586
      01008BBBH   LINE      CODE     ---       #589
      01008BC5H   LINE      CODE     ---       #592
      01008BD9H   LINE      CODE     ---       #593
      01008BFBH   LINE      CODE     ---       #595
      01008C00H   LINE      CODE     ---       #597
      01008C1AH   LINE      CODE     ---       #599
      01008C1FH   LINE      CODE     ---       #600
      01008C24H   LINE      CODE     ---       #601
      ---         BLOCKEND  ---      ---       LVL=0

      010098A1H   BLOCK     CODE     ---       LVL=0
      020008B0H   SYMBOL    XDATA    ---       data_array
      00000005H   SYMBOL    DATA     BYTE      data_length
      010098ACH   BLOCK     CODE     NEAR LAB  LVL=1
      0000001AH   SYMBOL    DATA     BYTE      i
      0000001BH   SYMBOL    DATA     BYTE      checksum
      ---         BLOCKEND  ---      ---       LVL=1
      010098A1H   LINE      CODE     ---       #610
      010098ACH   LINE      CODE     ---       #613
      010098AFH   LINE      CODE     ---       #615
      010098B7H   LINE      CODE     ---       #616
      010098D0H   LINE      CODE     ---       #618
      010098D2H   LINE      CODE     ---       #619
      ---         BLOCKEND  ---      ---       LVL=0

      01009CC0H   BLOCK     CODE     ---       LVL=0
      00000007H   SYMBOL    DATA     BYTE      value
      01009CC0H   BLOCK     CODE     NEAR LAB  LVL=1
      00000004H   SYMBOL    DATA     INT       packet_lenght
      02000002H   SYMBOL    XDATA    ---       packet_data
      ---         BLOCKEND  ---      ---       LVL=1
      01009CC0H   LINE      CODE     ---       #625
      01009CC0H   LINE      CODE     ---       #626
      01009CC4H   LINE      CODE     ---       #629
      01009CC9H   LINE      CODE     ---       #630
      01009CCBH   LINE      CODE     ---       #632
      01009CD4H   LINE      CODE     ---       #633
      ---         BLOCKEND  ---      ---       LVL=0
LX51 LINKER/LOCATER V4.64.0.0                                                         01/31/2019  11:47:34  PAGE 40



      01008901H   BLOCK     CODE     ---       LVL=0
      02000002H   SYMBOL    XDATA    INT       displacement
      01008909H   BLOCK     CODE     NEAR LAB  LVL=1
      02000004H   SYMBOL    XDATA    INT       i
      00000007H   SYMBOL    DATA     BYTE      writeStatus
      02000006H   SYMBOL    XDATA    INT       pages
      02000008H   SYMBOL    XDATA    BYTE      ret_val
      ---         BLOCKEND  ---      ---       LVL=1
      01008901H   LINE      CODE     ---       #644
      01008909H   LINE      CODE     ---       #645
      01008909H   LINE      CODE     ---       #649
      0100890FH   LINE      CODE     ---       #652
      01008912H   LINE      CODE     ---       #656
      01008915H   LINE      CODE     ---       #658
      01008928H   LINE      CODE     ---       #660
      01008931H   LINE      CODE     ---       #662
      01008954H   LINE      CODE     ---       #663
      01008979H   LINE      CODE     ---       #664
      0100897CH   LINE      CODE     ---       #665
      01008981H   LINE      CODE     ---       #666
      01008983H   LINE      CODE     ---       #667
      01008983H   LINE      CODE     ---       #668
      01008993H   LINE      CODE     ---       #670
      010089A6H   LINE      CODE     ---       #673
      010089A9H   LINE      CODE     ---       #675
      010089AEH   LINE      CODE     ---       #676
      ---         BLOCKEND  ---      ---       LVL=0

      01009412H   BLOCK     CODE     ---       LVL=0
      01009412H   BLOCK     CODE     NEAR LAB  LVL=1
      00000006H   SYMBOL    DATA     WORD      i
      ---         BLOCKEND  ---      ---       LVL=1
      01009412H   LINE      CODE     ---       #687
      01009412H   LINE      CODE     ---       #688
      01009412H   LINE      CODE     ---       #691
      0100941EH   LINE      CODE     ---       #692
      0100943AH   LINE      CODE     ---       #693
      01009441H   LINE      CODE     ---       #696
      01009447H   LINE      CODE     ---       #697
      0100944AH   LINE      CODE     ---       #698
      0100944BH   LINE      CODE     ---       #699
      0100945EH   LINE      CODE     ---       #700
      0100945EH   LINE      CODE     ---       #701
      ---         BLOCKEND  ---      ---       LVL=0

      0100953DH   BLOCK     CODE     ---       LVL=0
      0100953DH   BLOCK     CODE     NEAR LAB  LVL=1
      00000006H   SYMBOL    DATA     WORD      i
      ---         BLOCKEND  ---      ---       LVL=1
      0100953DH   LINE      CODE     ---       #712
      0100953DH   LINE      CODE     ---       #715
      01009549H   LINE      CODE     ---       #716
      0100956DH   LINE      CODE     ---       #717
      01009574H   LINE      CODE     ---       #720
      0100957AH   LINE      CODE     ---       #721
      0100957EH   LINE      CODE     ---       #722
      0100957EH   LINE      CODE     ---       #723
      01009584H   LINE      CODE     ---       #724
      01009584H   LINE      CODE     ---       #725
      ---         BLOCKEND  ---      ---       LVL=0

      01008E40H   BLOCK     CODE     ---       LVL=0
      01008E40H   BLOCK     CODE     NEAR LAB  LVL=1
      00000007H   SYMBOL    DATA     BYTE      i
LX51 LINKER/LOCATER V4.64.0.0                                                         01/31/2019  11:47:34  PAGE 41


      ---         BLOCKEND  ---      ---       LVL=1
      01008E40H   LINE      CODE     ---       #735
      01008E40H   LINE      CODE     ---       #736
      01008E40H   LINE      CODE     ---       #741
      01008E46H   LINE      CODE     ---       #745
      01008E4AH   LINE      CODE     ---       #748
      01008E52H   LINE      CODE     ---       #749
      01008E63H   LINE      CODE     ---       #750
      01008E74H   LINE      CODE     ---       #751
      01008E84H   LINE      CODE     ---       #752
      01008E94H   LINE      CODE     ---       #753
      01008EA4H   LINE      CODE     ---       #757
      01008EA7H   LINE      CODE     ---       #760
      01008EC0H   LINE      CODE     ---       #761
      ---         BLOCKEND  ---      ---       LVL=0

      01009B2DH   BLOCK     CODE     ---       LVL=0
      01009B2DH   LINE      CODE     ---       #770
      01009B2DH   LINE      CODE     ---       #773
      01009B35H   LINE      CODE     ---       #775
      01009B39H   LINE      CODE     ---       #776
      01009B39H   LINE      CODE     ---       #777
      01009B42H   LINE      CODE     ---       #778
      01009B43H   LINE      CODE     ---       #779
      01009B43H   LINE      CODE     ---       #780
      01009B4CH   LINE      CODE     ---       #781
      01009B4CH   LINE      CODE     ---       #782
      ---         BLOCKEND  ---      ---       LVL=0

      01009D29H   BLOCK     CODE     ---       LVL=0
      01009D29H   BLOCK     CODE     NEAR LAB  LVL=1
      02000002H   SYMBOL    XDATA    ---       packet_data
      ---         BLOCKEND  ---      ---       LVL=1
      01009D29H   LINE      CODE     ---       #784
      01009D29H   LINE      CODE     ---       #789
      01009D2EH   LINE      CODE     ---       #792
      01009D30H   LINE      CODE     ---       #795
      01009D3CH   LINE      CODE     ---       #796
      ---         BLOCKEND  ---      ---       LVL=0

      01009CD5H   BLOCK     CODE     ---       LVL=0
      01009CD5H   LINE      CODE     ---       #798
      01009CD5H   LINE      CODE     ---       #800
      01009CDEH   LINE      CODE     ---       #801
      01009CE4H   LINE      CODE     ---       #803
      01009CE9H   LINE      CODE     ---       #804
      ---         BLOCKEND  ---      ---       LVL=0

      0100670EH   BLOCK     CODE     ---       LVL=0
      0100670EH   BLOCK     CODE     NEAR LAB  LVL=1
      02000002H   SYMBOL    XDATA    BYTE      k_imu
      02000003H   SYMBOL    XDATA    BYTE      c
      02000004H   SYMBOL    XDATA    BYTE      k
      02000005H   SYMBOL    XDATA    BYTE      gl_c
      02000006H   SYMBOL    XDATA    ---       packet_data
      02000164H   SYMBOL    XDATA    ---       single_packet
      ---         BLOCKEND  ---      ---       LVL=1
      0100670EH   LINE      CODE     ---       #806
      0100670EH   LINE      CODE     ---       #810
      01006714H   LINE      CODE     ---       #811
      01006717H   LINE      CODE     ---       #812
      0100671AH   LINE      CODE     ---       #819
      0100671EH   LINE      CODE     ---       #821
      01006734H   LINE      CODE     ---       #822
      01006734H   LINE      CODE     ---       #824
LX51 LINKER/LOCATER V4.64.0.0                                                         01/31/2019  11:47:34  PAGE 42


      0100673AH   LINE      CODE     ---       #825
      01006755H   LINE      CODE     ---       #826
      01006780H   LINE      CODE     ---       #827
      010067A3H   LINE      CODE     ---       #828
      010067C9H   LINE      CODE     ---       #829
      010067D0H   LINE      CODE     ---       #830
      010067D0H   LINE      CODE     ---       #831
      010067EFH   LINE      CODE     ---       #832
      0100681AH   LINE      CODE     ---       #833
      0100683DH   LINE      CODE     ---       #834
      01006860H   LINE      CODE     ---       #835
      01006867H   LINE      CODE     ---       #836
      01006867H   LINE      CODE     ---       #837
      01006886H   LINE      CODE     ---       #838
      010068B1H   LINE      CODE     ---       #839
      010068D4H   LINE      CODE     ---       #840
      010068F7H   LINE      CODE     ---       #841
      010068FEH   LINE      CODE     ---       #842
      010068FEH   LINE      CODE     ---       #843
      0100691FH   LINE      CODE     ---       #844
      0100694EH   LINE      CODE     ---       #845
      01006975H   LINE      CODE     ---       #846
      010069A0H   LINE      CODE     ---       #847
      010069C7H   LINE      CODE     ---       #848
      010069CEH   LINE      CODE     ---       #849
      010069CEH   LINE      CODE     ---       #850
      010069EDH   LINE      CODE     ---       #851
      01006A13H   LINE      CODE     ---       #852
      01006A1AH   LINE      CODE     ---       #853
      01006A1AH   LINE      CODE     ---       #854
      01006A43H   LINE      CODE     ---       #855
      01006A49H   LINE      CODE     ---       #857
      01006A7CH   LINE      CODE     ---       #858
      01006A9FH   LINE      CODE     ---       #859
      01006AA7H   LINE      CODE     ---       #860
      01006ABDH   LINE      CODE     ---       #862
      01006ACCH   LINE      CODE     ---       #864
      01006AD5H   LINE      CODE     ---       #867
      01006AF9H   LINE      CODE     ---       #868
      01006B02H   LINE      CODE     ---       #869
      ---         BLOCKEND  ---      ---       LVL=0

      010095C9H   BLOCK     CODE     ---       LVL=0
      010095C9H   BLOCK     CODE     NEAR LAB  LVL=1
      02000002H   SYMBOL    XDATA    ---       packet_data
      ---         BLOCKEND  ---      ---       LVL=1
      010095C9H   LINE      CODE     ---       #871
      010095C9H   LINE      CODE     ---       #876
      010095CFH   LINE      CODE     ---       #878
      010095DEH   LINE      CODE     ---       #879
      010095EDH   LINE      CODE     ---       #881
      010095FDH   LINE      CODE     ---       #883
      01009609H   LINE      CODE     ---       #885
      ---         BLOCKEND  ---      ---       LVL=0

      ---         MODULE    ---      ---       GLOBALS
      00000021H.2 PUBLIC    BIT      BIT       interrupt_flag
      020010DAH   PUBLIC    XDATA    ---       ADC_buf
      020010D8H   PUBLIC    XDATA    INT       imus_data_size
      02001072H   PUBLIC    XDATA    ---       Accel
      0200106EH   PUBLIC    XDATA    DWORD     timer_value0
      0200104CH   PUBLIC    XDATA    ---       single_imu_size
      02000DD7H   PUBLIC    XDATA    ---       g_imuNew
      02000D52H   PUBLIC    XDATA    ---       g_rx
      02000D50H   PUBLIC    XDATA    WORD      sensor_value_2
LX51 LINKER/LOCATER V4.64.0.0                                                         01/31/2019  11:47:34  PAGE 43


      02000D4EH   PUBLIC    XDATA    WORD      sensor_value_1
      02000D1BH   PUBLIC    XDATA    ---       MagCal
      02000D17H   PUBLIC    XDATA    DWORD     timer_value
      02000CB1H   PUBLIC    XDATA    ---       Gyro
      02000CA1H   PUBLIC    XDATA    ---       Quat
      02000C7FH   PUBLIC    XDATA    ---       Temp
      02000C19H   PUBLIC    XDATA    ---       Mag
      02000C18H   PUBLIC    XDATA    BYTE      N_IMU_Connected
      020009A3H   PUBLIC    XDATA    ---       g_imu
      0200094AH   PUBLIC    XDATA    ---       g_mem
      02000939H   PUBLIC    XDATA    ---       IMU_connected
      020008E0H   PUBLIC    XDATA    ---       c_mem
      000000CAH   SFRSYM    DATA     BYTE      SFRPRT5SEL
      000000DAH   SFRSYM    DATA     BYTE      SFRPRT6SEL
      000000D0H.6 SFRSYM    DATA     BIT       AC
      000000A8H.7 SFRSYM    DATA     BIT       EA
      000000A8H   SFRSYM    DATA     BYTE      IE
      00000085H   SFRSYM    DATA     BYTE      DPH1
      00000084H   SFRSYM    DATA     BYTE      DPL1
      000000D0H.7 SFRSYM    DATA     BIT       CY
      000000A0H   SFRSYM    DATA     BYTE      P2AX
      00000095H   SFRSYM    DATA     BYTE      DPX1
      00000081H   SFRSYM    DATA     BYTE      SP
      000000D0H.2 SFRSYM    DATA     BIT       OV
      00000080H   SFRSYM    DATA     BYTE      SFRPRT0DR
      00000090H   SFRSYM    DATA     BYTE      SFRPRT1DR
      000000F2H   SFRSYM    DATA     BYTE      SFRPRT12SEL
      00000098H   SFRSYM    DATA     BYTE      SFRPRT2DR
      000000B0H   SFRSYM    DATA     BYTE      SFRPRT3DR
      000000C0H   SFRSYM    DATA     BYTE      SFRPRT4DR
      000000FAH   SFRSYM    DATA     BYTE      SFRPRT15SEL
      000000C8H   SFRSYM    DATA     BYTE      SFRPRT5DR
      000000D8H   SFRSYM    DATA     BYTE      SFRPRT6DR
      00000089H   SFRSYM    DATA     BYTE      SFRPRT0PS
      00000091H   SFRSYM    DATA     BYTE      SFRPRT1PS
      00000099H   SFRSYM    DATA     BYTE      SFRPRT2PS
      000000B1H   SFRSYM    DATA     BYTE      SFRPRT3PS
      000000C1H   SFRSYM    DATA     BYTE      SFRPRT4PS
      000000C9H   SFRSYM    DATA     BYTE      SFRPRT5PS
      000000D9H   SFRSYM    DATA     BYTE      SFRPRT6PS
      000000EAH   SFRSYM    DATA     BYTE      MXAX
      000000F0H   SFRSYM    DATA     BYTE      B
      000000E0H   SFRSYM    DATA     BYTE      ACC
      000000D0H   SFRSYM    DATA     BIT       P
      000000D0H.3 SFRSYM    DATA     BIT       RS0
      000000D0H.4 SFRSYM    DATA     BIT       RS1
      00000083H   SFRSYM    DATA     BYTE      DPH
      000000E8H   SFRSYM    DATA     BYTE      SFRPRT12DR
      00000082H   SFRSYM    DATA     BYTE      DPL
      000000F8H   SFRSYM    DATA     BYTE      SFRPRT15DR
      00000086H   SFRSYM    DATA     BYTE      DPS
      000000E9H   SFRSYM    DATA     BYTE      SFRPRT12PS
      00000093H   SFRSYM    DATA     BYTE      DPX
      000000F9H   SFRSYM    DATA     BYTE      SFRPRT15PS
      000000D0H.5 SFRSYM    DATA     BIT       F0
      000000D0H.1 SFRSYM    DATA     BIT       F1
      0000008AH   SFRSYM    DATA     BYTE      SFRPRT0SEL
      000000D0H   SFRSYM    DATA     BYTE      PSW
      000000A2H   SFRSYM    DATA     BYTE      SFRPRT1SEL
      0000009AH   SFRSYM    DATA     BYTE      SFRPRT2SEL
      000000B2H   SFRSYM    DATA     BYTE      SFRPRT3SEL
      000000C2H   SFRSYM    DATA     BYTE      SFRPRT4SEL

      ---         MODULE    ---      ---       INTERRUPTIONS
      01009701H   PUBLIC    CODE     ---       analog_read_end
LX51 LINKER/LOCATER V4.64.0.0                                                         01/31/2019  11:47:34  PAGE 44


      01009277H   PUBLIC    CODE     ---       function_scheduler
      01007A5BH   PUBLIC    CODE     ---       interrupt_manager
      010097FDH   PUBLIC    CODE     ---       ISR_RS485_RX_ExInterrupt
      000000CAH   SFRSYM    DATA     BYTE      SFRPRT5SEL
      000000DAH   SFRSYM    DATA     BYTE      SFRPRT6SEL
      000000D0H.6 SFRSYM    DATA     BIT       AC
      000000A8H.7 SFRSYM    DATA     BIT       EA
      000000A8H   SFRSYM    DATA     BYTE      IE
      00000085H   SFRSYM    DATA     BYTE      DPH1
      00000084H   SFRSYM    DATA     BYTE      DPL1
      000000D0H.7 SFRSYM    DATA     BIT       CY
      000000A0H   SFRSYM    DATA     BYTE      P2AX
      00000095H   SFRSYM    DATA     BYTE      DPX1
      00000081H   SFRSYM    DATA     BYTE      SP
      000000D0H.2 SFRSYM    DATA     BIT       OV
      00000080H   SFRSYM    DATA     BYTE      SFRPRT0DR
      00000090H   SFRSYM    DATA     BYTE      SFRPRT1DR
      000000F2H   SFRSYM    DATA     BYTE      SFRPRT12SEL
      00000098H   SFRSYM    DATA     BYTE      SFRPRT2DR
      000000B0H   SFRSYM    DATA     BYTE      SFRPRT3DR
      000000C0H   SFRSYM    DATA     BYTE      SFRPRT4DR
      000000FAH   SFRSYM    DATA     BYTE      SFRPRT15SEL
      000000C8H   SFRSYM    DATA     BYTE      SFRPRT5DR
      000000D8H   SFRSYM    DATA     BYTE      SFRPRT6DR
      00000089H   SFRSYM    DATA     BYTE      SFRPRT0PS
      00000091H   SFRSYM    DATA     BYTE      SFRPRT1PS
      00000099H   SFRSYM    DATA     BYTE      SFRPRT2PS
      000000B1H   SFRSYM    DATA     BYTE      SFRPRT3PS
      000000C1H   SFRSYM    DATA     BYTE      SFRPRT4PS
      000000C9H   SFRSYM    DATA     BYTE      SFRPRT5PS
      000000D9H   SFRSYM    DATA     BYTE      SFRPRT6PS
      000000EAH   SFRSYM    DATA     BYTE      MXAX
      000000F0H   SFRSYM    DATA     BYTE      B
      000000E0H   SFRSYM    DATA     BYTE      ACC
      000000D0H   SFRSYM    DATA     BIT       P
      000000D0H.3 SFRSYM    DATA     BIT       RS0
      000000D0H.4 SFRSYM    DATA     BIT       RS1
      00000083H   SFRSYM    DATA     BYTE      DPH
      000000E8H   SFRSYM    DATA     BYTE      SFRPRT12DR
      00000082H   SFRSYM    DATA     BYTE      DPL
      000000F8H   SFRSYM    DATA     BYTE      SFRPRT15DR
      00000086H   SFRSYM    DATA     BYTE      DPS
      000000E9H   SFRSYM    DATA     BYTE      SFRPRT12PS
      00000093H   SFRSYM    DATA     BYTE      DPX
      000000F9H   SFRSYM    DATA     BYTE      SFRPRT15PS
      000000D0H.5 SFRSYM    DATA     BIT       F0
      000000D0H.1 SFRSYM    DATA     BIT       F1
      0000008AH   SFRSYM    DATA     BYTE      SFRPRT0SEL
      000000D0H   SFRSYM    DATA     BYTE      PSW
      000000A2H   SFRSYM    DATA     BYTE      SFRPRT1SEL
      0000009AH   SFRSYM    DATA     BYTE      SFRPRT2SEL
      000000B2H   SFRSYM    DATA     BYTE      SFRPRT3SEL
      000000C2H   SFRSYM    DATA     BYTE      SFRPRT4SEL

      010097FDH   BLOCK     CODE     ---       LVL=0
      010097FDH   LINE      CODE     ---       #70
      010097FDH   LINE      CODE     ---       #74
      010097FFH   LINE      CODE     ---       #76
      ---         BLOCKEND  ---      ---       LVL=0

      01007A5BH   BLOCK     CODE     ---       LVL=0
      01007A5BH   BLOCK     CODE     NEAR LAB  LVL=1
      00000022H   SYMBOL    DATA     BYTE      state
      00000023H   SYMBOL    DATA     BYTE      data_packet_index
      00000024H   SYMBOL    DATA     BYTE      data_packet_length
LX51 LINKER/LOCATER V4.64.0.0                                                         01/31/2019  11:47:34  PAGE 45


      02001530H   SYMBOL    XDATA    ---       data_packet_buffer
      00000025H   SYMBOL    DATA     ---       rx_queue
      00000008H   SYMBOL    DATA     BYTE      rx_data
      00000020H.0 SYMBOL    BIT      BIT       rx_data_type
      00000009H   SYMBOL    DATA     BYTE      package_count
      ---         BLOCKEND  ---      ---       LVL=1
      01007A5BH   LINE      CODE     ---       #93
      01007A5BH   LINE      CODE     ---       #109
      01007A5EH   LINE      CODE     ---       #115
      01007A71H   LINE      CODE     ---       #119
      01007A76H   LINE      CODE     ---       #121
      01007A8EH   LINE      CODE     ---       #123
      01007A8EH   LINE      CODE     ---       #125
      01007A91H   LINE      CODE     ---       #126
      01007A94H   LINE      CODE     ---       #127
      01007A97H   LINE      CODE     ---       #130
      01007AA1H   LINE      CODE     ---       #131
      01007AA4H   LINE      CODE     ---       #132
      01007AA6H   LINE      CODE     ---       #133
      01007AA8H   LINE      CODE     ---       #134
      01007AABH   LINE      CODE     ---       #135
      01007AADH   LINE      CODE     ---       #136
      01007ABDH   LINE      CODE     ---       #139
      01007AC2H   LINE      CODE     ---       #140
      01007AC4H   LINE      CODE     ---       #143
      01007AC4H   LINE      CODE     ---       #146
      01007AD0H   LINE      CODE     ---       #147
      01007AD4H   LINE      CODE     ---       #149
      01007AD6H   LINE      CODE     ---       #151
      01007AD9H   LINE      CODE     ---       #152
      01007ADCH   LINE      CODE     ---       #153
      01007ADEH   LINE      CODE     ---       #156
      01007ADEH   LINE      CODE     ---       #159
      01007AE1H   LINE      CODE     ---       #161
      01007AE8H   LINE      CODE     ---       #162
      01007AEBH   LINE      CODE     ---       #163
      01007AEDH   LINE      CODE     ---       #164
      01007AF7H   LINE      CODE     ---       #165
      01007AFAH   LINE      CODE     ---       #166
      01007AFCH   LINE      CODE     ---       #167
      01007AFFH   LINE      CODE     ---       #168
      01007B02H   LINE      CODE     ---       #170
      01007B05H   LINE      CODE     ---       #171
      01007B0BH   LINE      CODE     ---       #173
      01007B0EH   LINE      CODE     ---       #174
      01007B0EH   LINE      CODE     ---       #175
      01007B11H   LINE      CODE     ---       #178
      01007B11H   LINE      CODE     ---       #180
      01007B1FH   LINE      CODE     ---       #181
      01007B21H   LINE      CODE     ---       #184
      01007B2BH   LINE      CODE     ---       #186
      01007B2EH   LINE      CODE     ---       #188
      01007B41H   LINE      CODE     ---       #189
      01007B4AH   LINE      CODE     ---       #190
      01007B50H   LINE      CODE     ---       #191
      01007B53H   LINE      CODE     ---       #192
      01007B53H   LINE      CODE     ---       #194
      01007B56H   LINE      CODE     ---       #195
      01007B58H   LINE      CODE     ---       #196
      01007B5AH   LINE      CODE     ---       #197
      01007B5CH   LINE      CODE     ---       #199
      01007B5CH   LINE      CODE     ---       #200
      01007B5FH   LINE      CODE     ---       #203
      01007B5FH   LINE      CODE     ---       #204
      01007B68H   LINE      CODE     ---       #205
LX51 LINKER/LOCATER V4.64.0.0                                                         01/31/2019  11:47:34  PAGE 46


      01007B6AH   LINE      CODE     ---       #206
      01007B6CH   LINE      CODE     ---       #207
      01007B71H   LINE      CODE     ---       #208
      01007B76H   LINE      CODE     ---       #209
      01007B79H   LINE      CODE     ---       #210
      01007B7BH   LINE      CODE     ---       #211
      01007B7BH   LINE      CODE     ---       #212
      01007B7EH   LINE      CODE     ---       #213
      01007B7EH   LINE      CODE     ---       #214
      01007B81H   LINE      CODE     ---       #215
      ---         BLOCKEND  ---      ---       LVL=0

      01009277H   BLOCK     CODE     ---       LVL=0
      01009277H   LINE      CODE     ---       #224
      01009277H   LINE      CODE     ---       #226
      01009280H   LINE      CODE     ---       #229
      01009285H   LINE      CODE     ---       #233
      01009288H   LINE      CODE     ---       #234
      0100928AH   LINE      CODE     ---       #235
      0100928DH   LINE      CODE     ---       #236
      0100928DH   LINE      CODE     ---       #238
      01009290H   LINE      CODE     ---       #240
      01009293H   LINE      CODE     ---       #242
      01009296H   LINE      CODE     ---       #243
      01009298H   LINE      CODE     ---       #244
      0100929BH   LINE      CODE     ---       #245
      0100929BH   LINE      CODE     ---       #248
      010092AEH   LINE      CODE     ---       #250
      010092B1H   LINE      CODE     ---       #251
      010092B3H   LINE      CODE     ---       #252
      010092B6H   LINE      CODE     ---       #253
      010092B6H   LINE      CODE     ---       #255
      010092BFH   LINE      CODE     ---       #256
      010092CAH   LINE      CODE     ---       #258
      ---         BLOCKEND  ---      ---       LVL=0

      01009701H   BLOCK     CODE     ---       LVL=0
      01009701H   LINE      CODE     ---       #264
      01009701H   LINE      CODE     ---       #266
      01009707H   LINE      CODE     ---       #267
      0100970AH   LINE      CODE     ---       #268
      0100970CH   LINE      CODE     ---       #269
      0100970FH   LINE      CODE     ---       #270
      0100970FH   LINE      CODE     ---       #271
      01009711H   LINE      CODE     ---       #273
      01009720H   LINE      CODE     ---       #274
      0100972FH   LINE      CODE     ---       #276
      01009732H   LINE      CODE     ---       #277
      01009734H   LINE      CODE     ---       #278
      01009737H   LINE      CODE     ---       #279
      01009737H   LINE      CODE     ---       #281
      ---         BLOCKEND  ---      ---       LVL=0

      ---         MODULE    ---      ---       MAIN
      01008110H   PUBLIC    CODE     ---       main
      000000CAH   SFRSYM    DATA     BYTE      SFRPRT5SEL
      000000DAH   SFRSYM    DATA     BYTE      SFRPRT6SEL
      000000D0H.6 SFRSYM    DATA     BIT       AC
      000000A8H.7 SFRSYM    DATA     BIT       EA
      000000A8H   SFRSYM    DATA     BYTE      IE
      00000085H   SFRSYM    DATA     BYTE      DPH1
      00000084H   SFRSYM    DATA     BYTE      DPL1
      000000D0H.7 SFRSYM    DATA     BIT       CY
      000000A0H   SFRSYM    DATA     BYTE      P2AX
      00000095H   SFRSYM    DATA     BYTE      DPX1
LX51 LINKER/LOCATER V4.64.0.0                                                         01/31/2019  11:47:34  PAGE 47


      00000081H   SFRSYM    DATA     BYTE      SP
      000000D0H.2 SFRSYM    DATA     BIT       OV
      00000080H   SFRSYM    DATA     BYTE      SFRPRT0DR
      00000090H   SFRSYM    DATA     BYTE      SFRPRT1DR
      000000F2H   SFRSYM    DATA     BYTE      SFRPRT12SEL
      00000098H   SFRSYM    DATA     BYTE      SFRPRT2DR
      000000B0H   SFRSYM    DATA     BYTE      SFRPRT3DR
      000000C0H   SFRSYM    DATA     BYTE      SFRPRT4DR
      000000FAH   SFRSYM    DATA     BYTE      SFRPRT15SEL
      000000C8H   SFRSYM    DATA     BYTE      SFRPRT5DR
      000000D8H   SFRSYM    DATA     BYTE      SFRPRT6DR
      00000089H   SFRSYM    DATA     BYTE      SFRPRT0PS
      00000091H   SFRSYM    DATA     BYTE      SFRPRT1PS
      00000099H   SFRSYM    DATA     BYTE      SFRPRT2PS
      000000B1H   SFRSYM    DATA     BYTE      SFRPRT3PS
      000000C1H   SFRSYM    DATA     BYTE      SFRPRT4PS
      000000C9H   SFRSYM    DATA     BYTE      SFRPRT5PS
      000000D9H   SFRSYM    DATA     BYTE      SFRPRT6PS
      000000EAH   SFRSYM    DATA     BYTE      MXAX
      000000F0H   SFRSYM    DATA     BYTE      B
      000000E0H   SFRSYM    DATA     BYTE      ACC
      000000D0H   SFRSYM    DATA     BIT       P
      000000D0H.3 SFRSYM    DATA     BIT       RS0
      000000D0H.4 SFRSYM    DATA     BIT       RS1
      00000083H   SFRSYM    DATA     BYTE      DPH
      000000E8H   SFRSYM    DATA     BYTE      SFRPRT12DR
      00000082H   SFRSYM    DATA     BYTE      DPL
      000000F8H   SFRSYM    DATA     BYTE      SFRPRT15DR
      00000086H   SFRSYM    DATA     BYTE      DPS
      000000E9H   SFRSYM    DATA     BYTE      SFRPRT12PS
      00000093H   SFRSYM    DATA     BYTE      DPX
      000000F9H   SFRSYM    DATA     BYTE      SFRPRT15PS
      000000D0H.5 SFRSYM    DATA     BIT       F0
      000000D0H.1 SFRSYM    DATA     BIT       F1
      0000008AH   SFRSYM    DATA     BYTE      SFRPRT0SEL
      000000D0H   SFRSYM    DATA     BYTE      PSW
      000000A2H   SFRSYM    DATA     BYTE      SFRPRT1SEL
      0000009AH   SFRSYM    DATA     BYTE      SFRPRT2SEL
      000000B2H   SFRSYM    DATA     BYTE      SFRPRT3SEL
      000000C2H   SFRSYM    DATA     BYTE      SFRPRT4SEL

      01008110H   BLOCK     CODE     ---       LVL=0
      01008110H   BLOCK     CODE     NEAR LAB  LVL=1
      02000000H   SYMBOL    XDATA    BYTE      DMA_Chan
      02000001H   SYMBOL    XDATA    ---       DMA_TD
      ---         BLOCKEND  ---      ---       LVL=1
      01008110H   LINE      CODE     ---       #71
      01008110H   LINE      CODE     ---       #72
      01008110H   LINE      CODE     ---       #81
      01008113H   LINE      CODE     ---       #82
      01008116H   LINE      CODE     ---       #86
      0100811FH   LINE      CODE     ---       #87
      01008124H   LINE      CODE     ---       #91
      01008127H   LINE      CODE     ---       #92
      0100812AH   LINE      CODE     ---       #93
      0100812DH   LINE      CODE     ---       #95
      01008130H   LINE      CODE     ---       #96
      01008133H   LINE      CODE     ---       #98
      0100813AH   LINE      CODE     ---       #100
      0100813FH   LINE      CODE     ---       #104
      01008142H   LINE      CODE     ---       #105
      01008145H   LINE      CODE     ---       #107
      0100814DH   LINE      CODE     ---       #110
      01008150H   LINE      CODE     ---       #111
      01008153H   LINE      CODE     ---       #112
LX51 LINKER/LOCATER V4.64.0.0                                                         01/31/2019  11:47:34  PAGE 48


      01008156H   LINE      CODE     ---       #113
      01008159H   LINE      CODE     ---       #114
      0100815CH   LINE      CODE     ---       #115
      0100815FH   LINE      CODE     ---       #116
      01008168H   LINE      CODE     ---       #119
      0100816BH   LINE      CODE     ---       #120
      01008170H   LINE      CODE     ---       #123
      01008185H   LINE      CODE     ---       #124
      0100818DH   LINE      CODE     ---       #125
      0100819DH   LINE      CODE     ---       #126
      010081B4H   LINE      CODE     ---       #127
      010081BFH   LINE      CODE     ---       #128
      010081C9H   LINE      CODE     ---       #130
      010081CEH   LINE      CODE     ---       #133
      010081D1H   LINE      CODE     ---       #139
      010081D8H   LINE      CODE     ---       #140
      010081DCH   LINE      CODE     ---       #144
      010081DCH   LINE      CODE     ---       #145
      010081DCH   LINE      CODE     ---       #147
      010081E1H   LINE      CODE     ---       #150
      010081E4H   LINE      CODE     ---       #153
      010081EAH   LINE      CODE     ---       #155
      010081EDH   LINE      CODE     ---       #157
      010081EFH   LINE      CODE     ---       #160
      010081F2H   LINE      CODE     ---       #161
      010081F2H   LINE      CODE     ---       #162
      010081F4H   LINE      CODE     ---       #165
      010081F9H   LINE      CODE     ---       #168
      01008201H   LINE      CODE     ---       #170
      01008208H   LINE      CODE     ---       #171
      0100820BH   LINE      CODE     ---       #172
      0100820DH   LINE      CODE     ---       #173
      0100820DH   LINE      CODE     ---       #174
      ---         BLOCKEND  ---      ---       LVL=0

      ---         MODULE    ---      ---       UTILS
      010072BDH   PUBLIC    CODE     ---       _v4_normalize
      01007B82H   PUBLIC    CODE     ---       _v3_normalize
      010084E8H   PUBLIC    CODE     ---       _invSqrt
      000000CAH   SFRSYM    DATA     BYTE      SFRPRT5SEL
      000000DAH   SFRSYM    DATA     BYTE      SFRPRT6SEL
      000000D0H.6 SFRSYM    DATA     BIT       AC
      000000A8H.7 SFRSYM    DATA     BIT       EA
      000000A8H   SFRSYM    DATA     BYTE      IE
      00000085H   SFRSYM    DATA     BYTE      DPH1
      00000084H   SFRSYM    DATA     BYTE      DPL1
      000000D0H.7 SFRSYM    DATA     BIT       CY
      000000A0H   SFRSYM    DATA     BYTE      P2AX
      00000095H   SFRSYM    DATA     BYTE      DPX1
      00000081H   SFRSYM    DATA     BYTE      SP
      000000D0H.2 SFRSYM    DATA     BIT       OV
      00000080H   SFRSYM    DATA     BYTE      SFRPRT0DR
      00000090H   SFRSYM    DATA     BYTE      SFRPRT1DR
      000000F2H   SFRSYM    DATA     BYTE      SFRPRT12SEL
      00000098H   SFRSYM    DATA     BYTE      SFRPRT2DR
      000000B0H   SFRSYM    DATA     BYTE      SFRPRT3DR
      000000C0H   SFRSYM    DATA     BYTE      SFRPRT4DR
      000000FAH   SFRSYM    DATA     BYTE      SFRPRT15SEL
      000000C8H   SFRSYM    DATA     BYTE      SFRPRT5DR
      000000D8H   SFRSYM    DATA     BYTE      SFRPRT6DR
      00000089H   SFRSYM    DATA     BYTE      SFRPRT0PS
      00000091H   SFRSYM    DATA     BYTE      SFRPRT1PS
      00000099H   SFRSYM    DATA     BYTE      SFRPRT2PS
      000000B1H   SFRSYM    DATA     BYTE      SFRPRT3PS
      000000C1H   SFRSYM    DATA     BYTE      SFRPRT4PS
LX51 LINKER/LOCATER V4.64.0.0                                                         01/31/2019  11:47:34  PAGE 49


      000000C9H   SFRSYM    DATA     BYTE      SFRPRT5PS
      000000D9H   SFRSYM    DATA     BYTE      SFRPRT6PS
      000000EAH   SFRSYM    DATA     BYTE      MXAX
      000000F0H   SFRSYM    DATA     BYTE      B
      000000E0H   SFRSYM    DATA     BYTE      ACC
      000000D0H   SFRSYM    DATA     BIT       P
      000000D0H.3 SFRSYM    DATA     BIT       RS0
      000000D0H.4 SFRSYM    DATA     BIT       RS1
      00000083H   SFRSYM    DATA     BYTE      DPH
      000000E8H   SFRSYM    DATA     BYTE      SFRPRT12DR
      00000082H   SFRSYM    DATA     BYTE      DPL
      000000F8H   SFRSYM    DATA     BYTE      SFRPRT15DR
      00000086H   SFRSYM    DATA     BYTE      DPS
      000000E9H   SFRSYM    DATA     BYTE      SFRPRT12PS
      00000093H   SFRSYM    DATA     BYTE      DPX
      000000F9H   SFRSYM    DATA     BYTE      SFRPRT15PS
      000000D0H.5 SFRSYM    DATA     BIT       F0
      000000D0H.1 SFRSYM    DATA     BIT       F1
      0000008AH   SFRSYM    DATA     BYTE      SFRPRT0SEL
      000000D0H   SFRSYM    DATA     BYTE      PSW
      000000A2H   SFRSYM    DATA     BYTE      SFRPRT1SEL
      0000009AH   SFRSYM    DATA     BYTE      SFRPRT2SEL
      000000B2H   SFRSYM    DATA     BYTE      SFRPRT3SEL
      000000C2H   SFRSYM    DATA     BYTE      SFRPRT4SEL

      010084E8H   BLOCK     CODE     ---       LVL=0
      02000068H   SYMBOL    XDATA    FLOAT     x
      010084EEH   BLOCK     CODE     NEAR LAB  LVL=1
      0200006CH   SYMBOL    XDATA    FLOAT     halfx
      02000070H   SYMBOL    XDATA    FLOAT     y
      02000074H   SYMBOL    XDATA    LONG      i
      ---         BLOCKEND  ---      ---       LVL=1
      010084E8H   LINE      CODE     ---       #53
      010084EEH   LINE      CODE     ---       #54
      0100850BH   LINE      CODE     ---       #55
      0100851FH   LINE      CODE     ---       #56
      01008531H   LINE      CODE     ---       #57
      0100855BH   LINE      CODE     ---       #58
      0100856FH   LINE      CODE     ---       #59
      010085C8H   LINE      CODE     ---       #60
      010085D6H   LINE      CODE     ---       #61
      ---         BLOCKEND  ---      ---       LVL=0

      01007B82H   BLOCK     CODE     ---       LVL=0
      02000061H   SYMBOL    XDATA    ---       v3_in
      01007B8DH   BLOCK     CODE     NEAR LAB  LVL=1
      02000064H   SYMBOL    XDATA    FLOAT     norm
      ---         BLOCKEND  ---      ---       LVL=1
      01007B82H   LINE      CODE     ---       #66
      01007B8DH   LINE      CODE     ---       #68
      01007C07H   LINE      CODE     ---       #70
      01007C35H   LINE      CODE     ---       #71
      01007C6CH   LINE      CODE     ---       #72
      01007CA3H   LINE      CODE     ---       #73
      ---         BLOCKEND  ---      ---       LVL=0

      010072BDH   BLOCK     CODE     ---       LVL=0
      02000061H   SYMBOL    XDATA    ---       v4_in
      010072C8H   BLOCK     CODE     NEAR LAB  LVL=1
      02000064H   SYMBOL    XDATA    FLOAT     norm
      ---         BLOCKEND  ---      ---       LVL=1
      010072BDH   LINE      CODE     ---       #78
      010072C8H   LINE      CODE     ---       #80
      01007373H   LINE      CODE     ---       #82
      010073A1H   LINE      CODE     ---       #83
LX51 LINKER/LOCATER V4.64.0.0                                                         01/31/2019  11:47:34  PAGE 50


      010073D8H   LINE      CODE     ---       #84
      0100740FH   LINE      CODE     ---       #85
      01007446H   LINE      CODE     ---       #86
      ---         BLOCKEND  ---      ---       LVL=0

      ---         MODULE    ---      ---       IMU_FUNCTIONS
      01009BC9H   PUBLIC    CODE     ---       SPI_delay
      01009C93H   PUBLIC    CODE     ---       _ReadControlRegister
      01009965H   PUBLIC    CODE     ---       _WriteControlRegister
      01009168H   PUBLIC    CODE     ---       _ReadTemp
      01006B03H   PUBLIC    CODE     ---       ReadAllIMUs
      010034DDH   PUBLIC    CODE     ---       _ReadQuat
      01008DBCH   PUBLIC    CODE     ---       _ReadMagCal
      01007FF9H   PUBLIC    CODE     ---       _ReadMag
      01007EDDH   PUBLIC    CODE     ---       _ReadGyro
      01007DC1H   PUBLIC    CODE     ---       _ReadAcc
      01008A5DH   PUBLIC    CODE     ---       _ReadIMU
      01006E3EH   PUBLIC    CODE     ---       InitIMUgeneral
      010094F4H   PUBLIC    CODE     ---       _ChipSelector
      010083F7H   PUBLIC    CODE     ---       InitIMUMagCal
      01008306H   PUBLIC    CODE     ---       InitIMU
      000000CAH   SFRSYM    DATA     BYTE      SFRPRT5SEL
      000000DAH   SFRSYM    DATA     BYTE      SFRPRT6SEL
      000000D0H.6 SFRSYM    DATA     BIT       AC
      000000A8H.7 SFRSYM    DATA     BIT       EA
      000000A8H   SFRSYM    DATA     BYTE      IE
      00000085H   SFRSYM    DATA     BYTE      DPH1
      00000084H   SFRSYM    DATA     BYTE      DPL1
      000000D0H.7 SFRSYM    DATA     BIT       CY
      000000A0H   SFRSYM    DATA     BYTE      P2AX
      00000095H   SFRSYM    DATA     BYTE      DPX1
      00000081H   SFRSYM    DATA     BYTE      SP
      000000D0H.2 SFRSYM    DATA     BIT       OV
      00000080H   SFRSYM    DATA     BYTE      SFRPRT0DR
      00000090H   SFRSYM    DATA     BYTE      SFRPRT1DR
      000000F2H   SFRSYM    DATA     BYTE      SFRPRT12SEL
      00000098H   SFRSYM    DATA     BYTE      SFRPRT2DR
      000000B0H   SFRSYM    DATA     BYTE      SFRPRT3DR
      000000C0H   SFRSYM    DATA     BYTE      SFRPRT4DR
      000000FAH   SFRSYM    DATA     BYTE      SFRPRT15SEL
      000000C8H   SFRSYM    DATA     BYTE      SFRPRT5DR
      000000D8H   SFRSYM    DATA     BYTE      SFRPRT6DR
      00000089H   SFRSYM    DATA     BYTE      SFRPRT0PS
      00000091H   SFRSYM    DATA     BYTE      SFRPRT1PS
      00000099H   SFRSYM    DATA     BYTE      SFRPRT2PS
      000000B1H   SFRSYM    DATA     BYTE      SFRPRT3PS
      000000C1H   SFRSYM    DATA     BYTE      SFRPRT4PS
      000000C9H   SFRSYM    DATA     BYTE      SFRPRT5PS
      000000D9H   SFRSYM    DATA     BYTE      SFRPRT6PS
      000000EAH   SFRSYM    DATA     BYTE      MXAX
      000000F0H   SFRSYM    DATA     BYTE      B
      000000E0H   SFRSYM    DATA     BYTE      ACC
      000000D0H   SFRSYM    DATA     BIT       P
      000000D0H.3 SFRSYM    DATA     BIT       RS0
      000000D0H.4 SFRSYM    DATA     BIT       RS1
      00000083H   SFRSYM    DATA     BYTE      DPH
      000000E8H   SFRSYM    DATA     BYTE      SFRPRT12DR
      00000082H   SFRSYM    DATA     BYTE      DPL
      000000F8H   SFRSYM    DATA     BYTE      SFRPRT15DR
      00000086H   SFRSYM    DATA     BYTE      DPS
      000000E9H   SFRSYM    DATA     BYTE      SFRPRT12PS
      00000093H   SFRSYM    DATA     BYTE      DPX
      000000F9H   SFRSYM    DATA     BYTE      SFRPRT15PS
      000000D0H.5 SFRSYM    DATA     BIT       F0
      000000D0H.1 SFRSYM    DATA     BIT       F1
LX51 LINKER/LOCATER V4.64.0.0                                                         01/31/2019  11:47:34  PAGE 51


      0000008AH   SFRSYM    DATA     BYTE      SFRPRT0SEL
      000000D0H   SFRSYM    DATA     BYTE      PSW
      000000A2H   SFRSYM    DATA     BYTE      SFRPRT1SEL
      0000009AH   SFRSYM    DATA     BYTE      SFRPRT2SEL
      000000B2H   SFRSYM    DATA     BYTE      SFRPRT3SEL
      000000C2H   SFRSYM    DATA     BYTE      SFRPRT4SEL

      01008306H   BLOCK     CODE     ---       LVL=0
      01008306H   LINE      CODE     ---       #70
      01008306H   LINE      CODE     ---       #72
      0100830DH   LINE      CODE     ---       #73
      01008316H   LINE      CODE     ---       #74
      0100831DH   LINE      CODE     ---       #75
      01008326H   LINE      CODE     ---       #76
      0100832DH   LINE      CODE     ---       #77
      01008336H   LINE      CODE     ---       #78
      0100833DH   LINE      CODE     ---       #79
      01008346H   LINE      CODE     ---       #80
      0100834DH   LINE      CODE     ---       #81
      01008356H   LINE      CODE     ---       #85
      0100835DH   LINE      CODE     ---       #87
      01008366H   LINE      CODE     ---       #89
      0100836DH   LINE      CODE     ---       #90
      01008376H   LINE      CODE     ---       #92
      0100837DH   LINE      CODE     ---       #93
      01008386H   LINE      CODE     ---       #94
      0100838DH   LINE      CODE     ---       #95
      01008396H   LINE      CODE     ---       #97
      0100839DH   LINE      CODE     ---       #98
      010083A6H   LINE      CODE     ---       #99
      010083ADH   LINE      CODE     ---       #100
      010083B6H   LINE      CODE     ---       #102
      010083BDH   LINE      CODE     ---       #103
      010083C6H   LINE      CODE     ---       #105
      010083CDH   LINE      CODE     ---       #106
      010083D6H   LINE      CODE     ---       #108
      010083DDH   LINE      CODE     ---       #109
      010083E6H   LINE      CODE     ---       #110
      010083EDH   LINE      CODE     ---       #111
      010083F6H   LINE      CODE     ---       #112
      ---         BLOCKEND  ---      ---       LVL=0

      010083F7H   BLOCK     CODE     ---       LVL=0
      010083F7H   LINE      CODE     ---       #117
      010083F7H   LINE      CODE     ---       #119
      010083FEH   LINE      CODE     ---       #120
      01008407H   LINE      CODE     ---       #121
      0100840EH   LINE      CODE     ---       #122
      01008417H   LINE      CODE     ---       #123
      0100841EH   LINE      CODE     ---       #124
      01008427H   LINE      CODE     ---       #125
      0100842EH   LINE      CODE     ---       #126
      01008437H   LINE      CODE     ---       #127
      0100843EH   LINE      CODE     ---       #128
      01008447H   LINE      CODE     ---       #129
      0100844EH   LINE      CODE     ---       #130
      01008457H   LINE      CODE     ---       #132
      0100845EH   LINE      CODE     ---       #133
      01008467H   LINE      CODE     ---       #135
      0100846EH   LINE      CODE     ---       #136
      01008477H   LINE      CODE     ---       #137
      0100847EH   LINE      CODE     ---       #138
      01008487H   LINE      CODE     ---       #139
      0100848EH   LINE      CODE     ---       #140
      01008497H   LINE      CODE     ---       #141
LX51 LINKER/LOCATER V4.64.0.0                                                         01/31/2019  11:47:34  PAGE 52


      0100849EH   LINE      CODE     ---       #142
      010084A7H   LINE      CODE     ---       #144
      010084AEH   LINE      CODE     ---       #145
      010084B7H   LINE      CODE     ---       #146
      010084BEH   LINE      CODE     ---       #147
      010084C7H   LINE      CODE     ---       #148
      010084CEH   LINE      CODE     ---       #149
      010084D7H   LINE      CODE     ---       #150
      010084DEH   LINE      CODE     ---       #151
      010084E7H   LINE      CODE     ---       #152
      ---         BLOCKEND  ---      ---       LVL=0

      010094F4H   BLOCK     CODE     ---       LVL=0
      02000028H   SYMBOL    XDATA    INT       n
      010094F4H   LINE      CODE     ---       #157
      010094FCH   LINE      CODE     ---       #158
      010094FCH   LINE      CODE     ---       #159
      01009501H   LINE      CODE     ---       #160
      01009506H   LINE      CODE     ---       #162
      01009518H   LINE      CODE     ---       #163
      0100951BH   LINE      CODE     ---       #164
      01009527H   LINE      CODE     ---       #165
      0100952BH   LINE      CODE     ---       #166
      01009537H   LINE      CODE     ---       #167
      0100953CH   LINE      CODE     ---       #168
      ---         BLOCKEND  ---      ---       LVL=0

      01006E3EH   BLOCK     CODE     ---       LVL=0
      01006E3EH   BLOCK     CODE     NEAR LAB  LVL=1
      02000002H   SYMBOL    XDATA    BYTE      k_imu
      02000003H   SYMBOL    XDATA    BYTE      count
      02000004H   SYMBOL    XDATA    INT       IMU_ack
      02000006H   SYMBOL    XDATA    ---       tmp
      ---         BLOCKEND  ---      ---       LVL=1
      01006E3EH   LINE      CODE     ---       #173
      01006E3EH   LINE      CODE     ---       #174
      01006E3EH   LINE      CODE     ---       #176
      01006E43H   LINE      CODE     ---       #181
      01006E50H   LINE      CODE     ---       #182
      01006E5FH   LINE      CODE     ---       #185
      01006E6EH   LINE      CODE     ---       #186
      01006E6EH   LINE      CODE     ---       #187
      01006E73H   LINE      CODE     ---       #188
      01006E7CH   LINE      CODE     ---       #189
      01006E7FH   LINE      CODE     ---       #190
      01006E88H   LINE      CODE     ---       #191
      01006E90H   LINE      CODE     ---       #194
      01006E99H   LINE      CODE     ---       #195
      01006EA8H   LINE      CODE     ---       #196
      01006EADH   LINE      CODE     ---       #197
      01006EB7H   LINE      CODE     ---       #198
      01006EBFH   LINE      CODE     ---       #201
      01006ECEH   LINE      CODE     ---       #202
      01006ECEH   LINE      CODE     ---       #203
      01006ED3H   LINE      CODE     ---       #204
      01006EDCH   LINE      CODE     ---       #205
      01006EE1H   LINE      CODE     ---       #206
      01006EE9H   LINE      CODE     ---       #209
      01006EEFH   LINE      CODE     ---       #210
      01006EF8H   LINE      CODE     ---       #211
      01006F05H   LINE      CODE     ---       #212
      01006F0CH   LINE      CODE     ---       #213
      01006F10H   LINE      CODE     ---       #214
      01006F1EH   LINE      CODE     ---       #215
      01006F1EH   LINE      CODE     ---       #216
LX51 LINKER/LOCATER V4.64.0.0                                                         01/31/2019  11:47:34  PAGE 53


      01006F23H   LINE      CODE     ---       #217
      01006F2CH   LINE      CODE     ---       #218
      01006F3BH   LINE      CODE     ---       #219
      01006F3FH   LINE      CODE     ---       #220
      01006F3FH   LINE      CODE     ---       #221
      01006F45H   LINE      CODE     ---       #222
      01006F4CH   LINE      CODE     ---       #223
      01006F60H   LINE      CODE     ---       #224
      01006F62H   LINE      CODE     ---       #226
      01006F75H   LINE      CODE     ---       #227
      01006F7DH   LINE      CODE     ---       #229
      01006F8CH   LINE      CODE     ---       #230
      01006F8CH   LINE      CODE     ---       #231
      01006FA1H   LINE      CODE     ---       #232
      01006FA1H   LINE      CODE     ---       #233
      01006FB2H   LINE      CODE     ---       #234
      01006FB8H   LINE      CODE     ---       #235
      01006FB8H   LINE      CODE     ---       #236
      01006FC0H   LINE      CODE     ---       #239
      01006FC5H   LINE      CODE     ---       #240
      01006FCEH   LINE      CODE     ---       #241
      01006FD3H   LINE      CODE     ---       #242
      01006FDCH   LINE      CODE     ---       #243
      01006FEBH   LINE      CODE     ---       #244
      01006FEBH   LINE      CODE     ---       #245
      01006FF0H   LINE      CODE     ---       #246
      01006FF9H   LINE      CODE     ---       #247
      01006FFCH   LINE      CODE     ---       #248
      01007005H   LINE      CODE     ---       #249
      0100700DH   LINE      CODE     ---       #250
      01007016H   LINE      CODE     ---       #253
      01007025H   LINE      CODE     ---       #254
      0100702DH   LINE      CODE     ---       #255
      01007043H   LINE      CODE     ---       #256
      01007043H   LINE      CODE     ---       #257
      010070DDH   LINE      CODE     ---       #258
      01007104H   LINE      CODE     ---       #259
      0100710DH   LINE      CODE     ---       #260
      0100711BH   LINE      CODE     ---       #261
      ---         BLOCKEND  ---      ---       LVL=0

      01008A5DH   BLOCK     CODE     ---       LVL=0
      0200000AH   SYMBOL    XDATA    INT       n
      01008A5DH   LINE      CODE     ---       #266
      01008A65H   LINE      CODE     ---       #267
      01008A65H   LINE      CODE     ---       #268
      01008A85H   LINE      CODE     ---       #269
      01008AA5H   LINE      CODE     ---       #270
      01008AC5H   LINE      CODE     ---       #271
      01008AE5H   LINE      CODE     ---       #272
      01008B05H   LINE      CODE     ---       #273
      ---         BLOCKEND  ---      ---       LVL=0

      01007DC1H   BLOCK     CODE     ---       LVL=0
      00000006H   SYMBOL    DATA     INT       n
      01007DC1H   BLOCK     CODE     NEAR LAB  LVL=1
      02000061H   SYMBOL    XDATA    BYTE      low
      02000062H   SYMBOL    XDATA    BYTE      high
      02000063H   SYMBOL    XDATA    INT       row
      ---         BLOCKEND  ---      ---       LVL=1
      01007DC1H   LINE      CODE     ---       #278
      01007DC1H   LINE      CODE     ---       #279
      01007DC1H   LINE      CODE     ---       #280
      01007DC8H   LINE      CODE     ---       #282
      01007DCEH   LINE      CODE     ---       #285
LX51 LINKER/LOCATER V4.64.0.0                                                         01/31/2019  11:47:34  PAGE 54


      01007DD8H   LINE      CODE     ---       #286
      01007DDBH   LINE      CODE     ---       #287
      01007DE5H   LINE      CODE     ---       #288
      01007DE8H   LINE      CODE     ---       #290
      01007E07H   LINE      CODE     ---       #291
      01007E21H   LINE      CODE     ---       #292
      01007E28H   LINE      CODE     ---       #295
      01007E32H   LINE      CODE     ---       #296
      01007E35H   LINE      CODE     ---       #297
      01007E3FH   LINE      CODE     ---       #298
      01007E42H   LINE      CODE     ---       #300
      01007E61H   LINE      CODE     ---       #301
      01007E7BH   LINE      CODE     ---       #302
      01007E82H   LINE      CODE     ---       #305
      01007E8CH   LINE      CODE     ---       #306
      01007E8FH   LINE      CODE     ---       #307
      01007E99H   LINE      CODE     ---       #308
      01007E9CH   LINE      CODE     ---       #310
      01007EBBH   LINE      CODE     ---       #311
      01007ED5H   LINE      CODE     ---       #312
      01007EDCH   LINE      CODE     ---       #313
      ---         BLOCKEND  ---      ---       LVL=0

      01007EDDH   BLOCK     CODE     ---       LVL=0
      00000006H   SYMBOL    DATA     INT       n
      01007EDDH   BLOCK     CODE     NEAR LAB  LVL=1
      02000061H   SYMBOL    XDATA    BYTE      low
      02000062H   SYMBOL    XDATA    BYTE      high
      02000063H   SYMBOL    XDATA    INT       row
      ---         BLOCKEND  ---      ---       LVL=1
      01007EDDH   LINE      CODE     ---       #318
      01007EDDH   LINE      CODE     ---       #319
      01007EE4H   LINE      CODE     ---       #321
      01007EEAH   LINE      CODE     ---       #324
      01007EF4H   LINE      CODE     ---       #325
      01007EF7H   LINE      CODE     ---       #326
      01007F01H   LINE      CODE     ---       #327
      01007F04H   LINE      CODE     ---       #329
      01007F23H   LINE      CODE     ---       #330
      01007F3DH   LINE      CODE     ---       #331
      01007F44H   LINE      CODE     ---       #334
      01007F4EH   LINE      CODE     ---       #335
      01007F51H   LINE      CODE     ---       #336
      01007F5BH   LINE      CODE     ---       #337
      01007F5EH   LINE      CODE     ---       #339
      01007F7DH   LINE      CODE     ---       #340
      01007F97H   LINE      CODE     ---       #341
      01007F9EH   LINE      CODE     ---       #344
      01007FA8H   LINE      CODE     ---       #345
      01007FABH   LINE      CODE     ---       #346
      01007FB5H   LINE      CODE     ---       #347
      01007FB8H   LINE      CODE     ---       #349
      01007FD7H   LINE      CODE     ---       #350
      01007FF1H   LINE      CODE     ---       #352
      01007FF8H   LINE      CODE     ---       #353
      ---         BLOCKEND  ---      ---       LVL=0

      01007FF9H   BLOCK     CODE     ---       LVL=0
      00000006H   SYMBOL    DATA     INT       n
      01007FF9H   BLOCK     CODE     NEAR LAB  LVL=1
      0200000CH   SYMBOL    XDATA    BYTE      low
      0200000DH   SYMBOL    XDATA    BYTE      high
      0200000EH   SYMBOL    XDATA    INT       row
      ---         BLOCKEND  ---      ---       LVL=1
      01007FF9H   LINE      CODE     ---       #358
LX51 LINKER/LOCATER V4.64.0.0                                                         01/31/2019  11:47:34  PAGE 55


      01007FF9H   LINE      CODE     ---       #361
      01008001H   LINE      CODE     ---       #363
      0100800BH   LINE      CODE     ---       #364
      0100800EH   LINE      CODE     ---       #365
      01008018H   LINE      CODE     ---       #366
      0100801BH   LINE      CODE     ---       #368
      0100803AH   LINE      CODE     ---       #369
      01008054H   LINE      CODE     ---       #370
      0100805BH   LINE      CODE     ---       #373
      01008065H   LINE      CODE     ---       #374
      01008068H   LINE      CODE     ---       #375
      01008072H   LINE      CODE     ---       #376
      01008075H   LINE      CODE     ---       #378
      01008094H   LINE      CODE     ---       #379
      010080AEH   LINE      CODE     ---       #380
      010080B5H   LINE      CODE     ---       #383
      010080BFH   LINE      CODE     ---       #384
      010080C2H   LINE      CODE     ---       #385
      010080CCH   LINE      CODE     ---       #386
      010080CFH   LINE      CODE     ---       #388
      010080EEH   LINE      CODE     ---       #389
      01008108H   LINE      CODE     ---       #390
      0100810FH   LINE      CODE     ---       #391
      ---         BLOCKEND  ---      ---       LVL=0

      01008DBCH   BLOCK     CODE     ---       LVL=0
      00000006H   SYMBOL    DATA     INT       n
      01008DBCH   BLOCK     CODE     NEAR LAB  LVL=1
      02000028H   SYMBOL    XDATA    BYTE      read
      02000029H   SYMBOL    XDATA    INT       row
      ---         BLOCKEND  ---      ---       LVL=1
      01008DBCH   LINE      CODE     ---       #396
      01008DBCH   LINE      CODE     ---       #398
      01008DC1H   LINE      CODE     ---       #399
      01008DC7H   LINE      CODE     ---       #401
      01008DD1H   LINE      CODE     ---       #402
      01008DEAH   LINE      CODE     ---       #403
      01008DEFH   LINE      CODE     ---       #406
      01008DF9H   LINE      CODE     ---       #407
      01008E12H   LINE      CODE     ---       #408
      01008E17H   LINE      CODE     ---       #411
      01008E21H   LINE      CODE     ---       #412
      01008E3AH   LINE      CODE     ---       #413
      01008E3FH   LINE      CODE     ---       #415
      ---         BLOCKEND  ---      ---       LVL=0

      010034DDH   BLOCK     CODE     ---       LVL=0
      0200000CH   SYMBOL    XDATA    INT       n
      010034E5H   BLOCK     CODE     NEAR LAB  LVL=1
      0200000EH   SYMBOL    XDATA    BYTE      i
      0200000FH   SYMBOL    XDATA    INT       var_h
      02000011H   SYMBOL    XDATA    FLOAT     qd0
      02000015H   SYMBOL    XDATA    FLOAT     qd1
      02000019H   SYMBOL    XDATA    FLOAT     qd2
      0200001DH   SYMBOL    XDATA    FLOAT     qd3
      02000021H   SYMBOL    XDATA    ---       aP
      0200002DH   SYMBOL    XDATA    ---       Napla
      0200003DH   SYMBOL    XDATA    ---       g
      0200004DH   SYMBOL    XDATA    ---       qL
      0200005DH   SYMBOL    XDATA    FLOAT     time
      ---         BLOCKEND  ---      ---       LVL=1
      010034DDH   LINE      CODE     ---       #420
      010034E5H   LINE      CODE     ---       #421
      010034E5H   LINE      CODE     ---       #422
      010034E8H   LINE      CODE     ---       #427
LX51 LINKER/LOCATER V4.64.0.0                                                         01/31/2019  11:47:34  PAGE 56


      010034F2H   LINE      CODE     ---       #429
      010034FDH   LINE      CODE     ---       #432
      0100351DH   LINE      CODE     ---       #433
      0100353DH   LINE      CODE     ---       #437
      01003579H   LINE      CODE     ---       #442
      0100359DH   LINE      CODE     ---       #443
      010035C2H   LINE      CODE     ---       #444
      010035E6H   LINE      CODE     ---       #445
      0100360BH   LINE      CODE     ---       #446
      0100362FH   LINE      CODE     ---       #447
      01003654H   LINE      CODE     ---       #449
      0100365FH   LINE      CODE     ---       #450
      01003683H   LINE      CODE     ---       #451
      010036B3H   LINE      CODE     ---       #452
      010036DEH   LINE      CODE     ---       #453
      01003702H   LINE      CODE     ---       #454
      01003732H   LINE      CODE     ---       #455
      0100375DH   LINE      CODE     ---       #456
      01003781H   LINE      CODE     ---       #457
      010037B1H   LINE      CODE     ---       #458
      010037DCH   LINE      CODE     ---       #461
      010037E5H   LINE      CODE     ---       #464
      010037F9H   LINE      CODE     ---       #465
      0100380DH   LINE      CODE     ---       #466
      01003821H   LINE      CODE     ---       #467
      01003835H   LINE      CODE     ---       #470
      01003964H   LINE      CODE     ---       #471
      01003B49H   LINE      CODE     ---       #472
      01003D41H   LINE      CODE     ---       #473
      01003E5DH   LINE      CODE     ---       #475
      01003F03H   LINE      CODE     ---       #476
      01003FA6H   LINE      CODE     ---       #477
      01004049H   LINE      CODE     ---       #478
      010040EAH   LINE      CODE     ---       #480
      01004130H   LINE      CODE     ---       #481
      01004176H   LINE      CODE     ---       #482
      010041BCH   LINE      CODE     ---       #483
      01004200H   LINE      CODE     ---       #484
      01004209H   LINE      CODE     ---       #487
      0100421DH   LINE      CODE     ---       #488
      01004231H   LINE      CODE     ---       #489
      01004245H   LINE      CODE     ---       #490
      01004259H   LINE      CODE     ---       #491
      01004259H   LINE      CODE     ---       #492
      01004259H   LINE      CODE     ---       #494
      01004259H   LINE      CODE     ---       #495
      ---         BLOCKEND  ---      ---       LVL=0

      01006B03H   BLOCK     CODE     ---       LVL=0
      01006B03H   BLOCK     CODE     NEAR LAB  LVL=1
      0200164BH   SYMBOL    XDATA    BYTE      k_imu
      02000002H   SYMBOL    XDATA    WORD      tmp
      02000004H   SYMBOL    XDATA    WORD      i
      02000006H   SYMBOL    XDATA    WORD      j
      02000008H   SYMBOL    XDATA    INT       value
      ---         BLOCKEND  ---      ---       LVL=1
      01006B03H   LINE      CODE     ---       #500
      01006B03H   LINE      CODE     ---       #502
      01006B12H   LINE      CODE     ---       #503
      01006B16H   LINE      CODE     ---       #505
      01006B2BH   LINE      CODE     ---       #507
      01006B3CH   LINE      CODE     ---       #508
      01006B50H   LINE      CODE     ---       #510
      01006B6AH   LINE      CODE     ---       #511
      01006BA2H   LINE      CODE     ---       #512
LX51 LINKER/LOCATER V4.64.0.0                                                         01/31/2019  11:47:34  PAGE 57


      01006BEDH   LINE      CODE     ---       #513
      01006BFEH   LINE      CODE     ---       #515
      01006C18H   LINE      CODE     ---       #516
      01006C50H   LINE      CODE     ---       #517
      01006C9BH   LINE      CODE     ---       #518
      01006CACH   LINE      CODE     ---       #520
      01006CC6H   LINE      CODE     ---       #521
      01006CFEH   LINE      CODE     ---       #522
      01006D49H   LINE      CODE     ---       #523
      01006D5AH   LINE      CODE     ---       #526
      01006D77H   LINE      CODE     ---       #527
      01006DD5H   LINE      CODE     ---       #528
      01006DE6H   LINE      CODE     ---       #530
      01006E0BH   LINE      CODE     ---       #531
      01006E34H   LINE      CODE     ---       #532
      01006E3DH   LINE      CODE     ---       #533
      ---         BLOCKEND  ---      ---       LVL=0

      01009168H   BLOCK     CODE     ---       LVL=0
      00000006H   SYMBOL    DATA     INT       n
      01009168H   BLOCK     CODE     NEAR LAB  LVL=1
      0200000CH   SYMBOL    XDATA    BYTE      low
      0200000DH   SYMBOL    XDATA    BYTE      high
      0200000EH   SYMBOL    XDATA    INT       row
      ---         BLOCKEND  ---      ---       LVL=1
      01009168H   LINE      CODE     ---       #538
      01009168H   LINE      CODE     ---       #539
      01009168H   LINE      CODE     ---       #540
      0100916FH   LINE      CODE     ---       #541
      01009175H   LINE      CODE     ---       #544
      0100917FH   LINE      CODE     ---       #545
      01009182H   LINE      CODE     ---       #546
      0100918CH   LINE      CODE     ---       #547
      0100918FH   LINE      CODE     ---       #549
      010091ADH   LINE      CODE     ---       #550
      010091BEH   LINE      CODE     ---       #551
      010091C5H   LINE      CODE     ---       #552
      ---         BLOCKEND  ---      ---       LVL=0

      01009965H   BLOCK     CODE     ---       LVL=0
      02000028H   SYMBOL    XDATA    BYTE      address
      02000029H   SYMBOL    XDATA    BYTE      dta
      01009965H   LINE      CODE     ---       #557
      0100996DH   LINE      CODE     ---       #559
      01009970H   LINE      CODE     ---       #560
      01009973H   LINE      CODE     ---       #561
      01009976H   LINE      CODE     ---       #562
      0100997EH   LINE      CODE     ---       #563
      01009985H   LINE      CODE     ---       #564
      0100998DH   LINE      CODE     ---       #565
      01009994H   LINE      CODE     ---       #566
      ---         BLOCKEND  ---      ---       LVL=0

      01009C93H   BLOCK     CODE     ---       LVL=0
      00000007H   SYMBOL    DATA     BYTE      address
      01009C93H   BLOCK     CODE     NEAR LAB  LVL=1
      00000007H   SYMBOL    DATA     BYTE      controlreg
      ---         BLOCKEND  ---      ---       LVL=1
      01009C93H   LINE      CODE     ---       #571
      01009C93H   LINE      CODE     ---       #574
      01009C9AH   LINE      CODE     ---       #575
      01009C9FH   LINE      CODE     ---       #576
      01009CA6H   LINE      CODE     ---       #577
      01009CA9H   LINE      CODE     ---       #578
      01009CA9H   LINE      CODE     ---       #579
LX51 LINKER/LOCATER V4.64.0.0                                                         01/31/2019  11:47:34  PAGE 58


      ---         BLOCKEND  ---      ---       LVL=0

      01009BC9H   BLOCK     CODE     ---       LVL=0
      01009BC9H   LINE      CODE     ---       #584
      01009BC9H   LINE      CODE     ---       #585
      01009BD4H   LINE      CODE     ---       #586
      01009BD4H   LINE      CODE     ---       #587
      01009BDBH   LINE      CODE     ---       #588
      01009BDCH   LINE      CODE     ---       #589
      01009BDCH   LINE      CODE     ---       #590
      01009BE3H   LINE      CODE     ---       #591
      01009BE3H   LINE      CODE     ---       #592
      01009BE3H   LINE      CODE     ---       #593
      01009BE3H   LINE      CODE     ---       #594
      01009BE3H   LINE      CODE     ---       #595
      ---         BLOCKEND  ---      ---       LVL=0

      ---         MODULE    ---      ---       CYFITTER_CFG
      0100A654H   PUBLIC    CONST    ---       ADC_AMux__maskTable
      0100A650H   PUBLIC    CONST    ---       ADC_AMux__addrTable
      01007930H   PUBLIC    CODE     ---       cyfitter_cfg
      010098D3H   PUBLIC    CODE     ---       _ADC_AMux_Unset
      01009995H   PUBLIC    CODE     ---       _ADC_AMux_Set
      000000CAH   SFRSYM    DATA     BYTE      SFRPRT5SEL
      000000DAH   SFRSYM    DATA     BYTE      SFRPRT6SEL
      000000D0H.6 SFRSYM    DATA     BIT       AC
      000000A8H.7 SFRSYM    DATA     BIT       EA
      000000A8H   SFRSYM    DATA     BYTE      IE
      00000085H   SFRSYM    DATA     BYTE      DPH1
      00000084H   SFRSYM    DATA     BYTE      DPL1
      000000D0H.7 SFRSYM    DATA     BIT       CY
      000000A0H   SFRSYM    DATA     BYTE      P2AX
      00000095H   SFRSYM    DATA     BYTE      DPX1
      00000081H   SFRSYM    DATA     BYTE      SP
      000000D0H.2 SFRSYM    DATA     BIT       OV
      00000080H   SFRSYM    DATA     BYTE      SFRPRT0DR
      00000090H   SFRSYM    DATA     BYTE      SFRPRT1DR
      000000F2H   SFRSYM    DATA     BYTE      SFRPRT12SEL
      00000098H   SFRSYM    DATA     BYTE      SFRPRT2DR
      000000B0H   SFRSYM    DATA     BYTE      SFRPRT3DR
      000000C0H   SFRSYM    DATA     BYTE      SFRPRT4DR
      000000FAH   SFRSYM    DATA     BYTE      SFRPRT15SEL
      000000C8H   SFRSYM    DATA     BYTE      SFRPRT5DR
      000000D8H   SFRSYM    DATA     BYTE      SFRPRT6DR
      00000089H   SFRSYM    DATA     BYTE      SFRPRT0PS
      00000091H   SFRSYM    DATA     BYTE      SFRPRT1PS
      00000099H   SFRSYM    DATA     BYTE      SFRPRT2PS
      000000B1H   SFRSYM    DATA     BYTE      SFRPRT3PS
      000000C1H   SFRSYM    DATA     BYTE      SFRPRT4PS
      000000C9H   SFRSYM    DATA     BYTE      SFRPRT5PS
      000000D9H   SFRSYM    DATA     BYTE      SFRPRT6PS
      000000EAH   SFRSYM    DATA     BYTE      MXAX
      000000F0H   SFRSYM    DATA     BYTE      B
      000000E0H   SFRSYM    DATA     BYTE      ACC
      000000D0H   SFRSYM    DATA     BIT       P
      000000D0H.3 SFRSYM    DATA     BIT       RS0
      000000D0H.4 SFRSYM    DATA     BIT       RS1
      00000083H   SFRSYM    DATA     BYTE      DPH
      000000E8H   SFRSYM    DATA     BYTE      SFRPRT12DR
      00000082H   SFRSYM    DATA     BYTE      DPL
      000000F8H   SFRSYM    DATA     BYTE      SFRPRT15DR
      00000086H   SFRSYM    DATA     BYTE      DPS
      000000E9H   SFRSYM    DATA     BYTE      SFRPRT12PS
      00000093H   SFRSYM    DATA     BYTE      DPX
      000000F9H   SFRSYM    DATA     BYTE      SFRPRT15PS
LX51 LINKER/LOCATER V4.64.0.0                                                         01/31/2019  11:47:34  PAGE 59


      000000D0H.5 SFRSYM    DATA     BIT       F0
      000000D0H.1 SFRSYM    DATA     BIT       F1
      0000008AH   SFRSYM    DATA     BYTE      SFRPRT0SEL
      000000D0H   SFRSYM    DATA     BYTE      PSW
      000000A2H   SFRSYM    DATA     BYTE      SFRPRT1SEL
      0000009AH   SFRSYM    DATA     BYTE      SFRPRT2SEL
      000000B2H   SFRSYM    DATA     BYTE      SFRPRT3SEL
      000000C2H   SFRSYM    DATA     BYTE      SFRPRT4SEL
      01007447H   SYMBOL    CODE     ---       ClockSetup
      01009FD7H   SYMBOL    CODE     ---       _CyClockStartupError
      0100983BH   SYMBOL    CODE     ---       AnalogSetDefault
      010085D7H   SYMBOL    CODE     ---       cfg_dma_init

      01009FD7H   BLOCK     CODE     ---       LVL=0
      02000000H   SYMBOL    XDATA    BYTE      errorCode
      01009FD7H   LINE      CODE     ---       #77
      01009FD7H   LINE      CODE     ---       #78
      01009FD7H   LINE      CODE     ---       #80
      01009FD7H   LINE      CODE     ---       #98
      ---         BLOCKEND  ---      ---       LVL=0

      010085D7H   BLOCK     CODE     ---       LVL=0
      010085D7H   BLOCK     CODE     NEAR LAB  LVL=1
      01009FDFH   SYMBOL    CONST    ---       BS_DSI3_2_HV_ROUTING_VAL
      0100A05FH   SYMBOL    CONST    ---       BS_DSISWITCH_1_3_VAL
      0100A0DFH   SYMBOL    CONST    ---       BS_DSI3_3_HV_ROUTING_VAL
      0100A15FH   SYMBOL    CONST    ---       BS_DSISWITCH_1_4_VAL
      0100A1DFH   SYMBOL    CONST    ---       BS_DSI3_4_HV_ROUTING_VAL
      0100A25FH   SYMBOL    CONST    ---       BS_DSISWITCH_1_5_VAL
      0100A2DFH   SYMBOL    CONST    ---       BS_DSI3_5_HV_ROUTING_VAL
      0100A35FH   SYMBOL    CONST    ---       CH1_ADDR_DATA0
      0100A367H   SYMBOL    CONST    ---       CH2_ADDR_DATA0
      0100A36FH   SYMBOL    CONST    ---       CH4_ADDR_DATA0
      0100A377H   SYMBOL    CONST    ---       CH5_ADDR_DATA0
      0100A37FH   SYMBOL    CONST    ---       CH6_ADDR_DATA0
      0100A387H   SYMBOL    CONST    ---       DMA_TD_START_CMD
      02001644H   SYMBOL    XDATA    DWORD     DMA_ZERO_VAL
      0100A38CH   SYMBOL    CONST    ---       CFG_TD_LIST0
      ---         BLOCKEND  ---      ---       LVL=1
      010085D7H   LINE      CODE     ---       #324
      010085D7H   LINE      CODE     ---       #325
      010085D7H   LINE      CODE     ---       #526
      010085E2H   LINE      CODE     ---       #527
      010085E8H   LINE      CODE     ---       #528
      010085EEH   LINE      CODE     ---       #529
      010085F3H   LINE      CODE     ---       #530
      010085FFH   LINE      CODE     ---       #531
      01008605H   LINE      CODE     ---       #532
      01008609H   LINE      CODE     ---       #533
      0100862BH   LINE      CODE     ---       #534
      01008638H   LINE      CODE     ---       #535
      01008645H   LINE      CODE     ---       #536
      01008651H   LINE      CODE     ---       #537
      01008657H   LINE      CODE     ---       #538
      0100865CH   LINE      CODE     ---       #539
      01008662H   LINE      CODE     ---       #540
      01008668H   LINE      CODE     ---       #541
      0100866EH   LINE      CODE     ---       #543
      0100866EH   LINE      CODE     ---       #544
      01008674H   LINE      CODE     ---       #545
      01008674H   LINE      CODE     ---       #548
      0100867CH   LINE      CODE     ---       #549
      01008684H   LINE      CODE     ---       #550
      0100868CH   LINE      CODE     ---       #551
      01008694H   LINE      CODE     ---       #552
LX51 LINKER/LOCATER V4.64.0.0                                                         01/31/2019  11:47:34  PAGE 60


      0100869CH   LINE      CODE     ---       #553
      010086A4H   LINE      CODE     ---       #556
      010086BFH   LINE      CODE     ---       #558
      ---         BLOCKEND  ---      ---       LVL=0

      01007447H   BLOCK     CODE     ---       LVL=0
      01007447H   BLOCK     CODE     NEAR LAB  LVL=1
      0100A64CH   SYMBOL    CONST    ---       BS_CYDEV_CLKDIST_ACFG0_CFG0_VAL
      02000000H   SYMBOL    XDATA    DWORD     timeout
      02000004H   SYMBOL    XDATA    BYTE      pllLock
      ---         BLOCKEND  ---      ---       LVL=1
      01007447H   LINE      CODE     ---       #576
      01007447H   LINE      CODE     ---       #577
      01007447H   LINE      CODE     ---       #587
      01007454H   LINE      CODE     ---       #588
      0100745AH   LINE      CODE     ---       #589
      01007466H   LINE      CODE     ---       #590
      0100746CH   LINE      CODE     ---       #591
      01007479H   LINE      CODE     ---       #592
      0100747FH   LINE      CODE     ---       #593
      0100748CH   LINE      CODE     ---       #594
      01007492H   LINE      CODE     ---       #597
      010074A3H   LINE      CODE     ---       #600
      010074A9H   LINE      CODE     ---       #603
      010074AFH   LINE      CODE     ---       #604
      010074BDH   LINE      CODE     ---       #607
      010074CAH   LINE      CODE     ---       #608
      010074D7H   LINE      CODE     ---       #610
      010074DCH   LINE      CODE     ---       #611
      01007501H   LINE      CODE     ---       #612
      01007501H   LINE      CODE     ---       #613
      01007512H   LINE      CODE     ---       #614
      0100751CH   LINE      CODE     ---       #615
      01007544H   LINE      CODE     ---       #617
      01007552H   LINE      CODE     ---       #618
      01007552H   LINE      CODE     ---       #619
      01007557H   LINE      CODE     ---       #620
      01007557H   LINE      CODE     ---       #623
      01007564H   LINE      CODE     ---       #624
      0100756AH   LINE      CODE     ---       #625
      0100756FH   LINE      CODE     ---       #626
      01007575H   LINE      CODE     ---       #627
      0100757AH   LINE      CODE     ---       #630
      0100757EH   LINE      CODE     ---       #631
      01007584H   LINE      CODE     ---       #632
      0100758AH   LINE      CODE     ---       #634
      01007591H   LINE      CODE     ---       #635
      01007598H   LINE      CODE     ---       #636
      0100759FH   LINE      CODE     ---       #637
      ---         BLOCKEND  ---      ---       LVL=0

      0100983BH   BLOCK     CODE     ---       LVL=0
      0100983BH   BLOCK     CODE     NEAR LAB  LVL=1
      00000007H   SYMBOL    DATA     BYTE      bg_xover_inl_trim
      ---         BLOCKEND  ---      ---       LVL=1
      0100983BH   LINE      CODE     ---       #659
      0100983BH   LINE      CODE     ---       #660
      0100983BH   LINE      CODE     ---       #661
      01009844H   LINE      CODE     ---       #662
      0100984BH   LINE      CODE     ---       #663
      01009851H   LINE      CODE     ---       #664
      01009857H   LINE      CODE     ---       #665
      0100985DH   LINE      CODE     ---       #666
      01009863H   LINE      CODE     ---       #667
      01009867H   LINE      CODE     ---       #668
LX51 LINKER/LOCATER V4.64.0.0                                                         01/31/2019  11:47:34  PAGE 61


      0100986DH   LINE      CODE     ---       #669
      ---         BLOCKEND  ---      ---       LVL=0
      00000007H   SYMBOL    DATA     BYTE      enabled
      00000006H   SYMBOL    DATA     BYTE      regValue

      01009995H   BLOCK     CODE     ---       LVL=0
      00000007H   SYMBOL    DATA     BYTE      channel
      01009995H   LINE      CODE     ---       #732
      01009995H   LINE      CODE     ---       #733
      01009995H   LINE      CODE     ---       #734
      0100999BH   LINE      CODE     ---       #735
      0100999BH   LINE      CODE     ---       #736
      010099C4H   LINE      CODE     ---       #737
      010099C4H   LINE      CODE     ---       #738
      ---         BLOCKEND  ---      ---       LVL=0

      010098D3H   BLOCK     CODE     ---       LVL=0
      00000007H   SYMBOL    DATA     BYTE      channel
      010098D3H   LINE      CODE     ---       #754
      010098D3H   LINE      CODE     ---       #755
      010098D3H   LINE      CODE     ---       #756
      010098D9H   LINE      CODE     ---       #757
      010098D9H   LINE      CODE     ---       #758
      01009903H   LINE      CODE     ---       #759
      01009903H   LINE      CODE     ---       #760
      ---         BLOCKEND  ---      ---       LVL=0

      01007930H   BLOCK     CODE     ---       LVL=0
      01007930H   BLOCK     CODE     NEAR LAB  LVL=1
      0100A656H   SYMBOL    CONST    ---       BS_IOPINS0_1_VAL
      0100A660H   SYMBOL    CONST    ---       BS_IOPINS0_2_VAL
      0100A668H   SYMBOL    CONST    ---       BS_PHUB_CFGMEM10_VAL
      ---         BLOCKEND  ---      ---       LVL=1
      01007930H   LINE      CODE     ---       #781
      01007930H   LINE      CODE     ---       #782
      01007930H   LINE      CODE     ---       #796
      01007946H   LINE      CODE     ---       #798
      01007946H   LINE      CODE     ---       #799
      01007949H   LINE      CODE     ---       #802
      0100794FH   LINE      CODE     ---       #803
      01007960H   LINE      CODE     ---       #806
      01007976H   LINE      CODE     ---       #807
      0100798CH   LINE      CODE     ---       #810
      01007993H   LINE      CODE     ---       #811
      0100799AH   LINE      CODE     ---       #812
      0100799AH   LINE      CODE     ---       #816
      010079B4H   LINE      CODE     ---       #817
      010079CEH   LINE      CODE     ---       #818
      010079E8H   LINE      CODE     ---       #819
      010079F9H   LINE      CODE     ---       #820
      01007A0AH   LINE      CODE     ---       #821
      01007A10H   LINE      CODE     ---       #823
      01007A17H   LINE      CODE     ---       #824
      01007A20H   LINE      CODE     ---       #825
      01007A20H   LINE      CODE     ---       #826
      01007A26H   LINE      CODE     ---       #827
      01007A26H   LINE      CODE     ---       #831
      01007A2CH   LINE      CODE     ---       #833
      01007A2FH   LINE      CODE     ---       #836
      01007A32H   LINE      CODE     ---       #839
      01007A53H   LINE      CODE     ---       #840
      01007A5AH   LINE      CODE     ---       #841
      ---         BLOCKEND  ---      ---       LVL=0

      ---         MODULE    ---      ---       UART_RS485
LX51 LINKER/LOCATER V4.64.0.0                                                         01/31/2019  11:47:34  PAGE 62


      02001619H   PUBLIC    XDATA    BYTE      UART_RS485_errorStatus
      02001618H   PUBLIC    XDATA    BYTE      UART_RS485_rxBufferOverflow
      02001617H   PUBLIC    XDATA    BYTE      UART_RS485_initVar
      02001616H   PUBLIC    XDATA    BYTE      UART_RS485_rxBufferWrite
      020015F6H   PUBLIC    XDATA    ---       UART_RS485_rxBuffer
      020015F5H   PUBLIC    XDATA    BYTE      UART_RS485_rxBufferRead
      020015F4H   PUBLIC    XDATA    BYTE      UART_RS485_rxBufferLoopDetect
      01009DB0H   PUBLIC    CODE     ---       UART_RS485_ClearTxBuffer
      0100976EH   PUBLIC    CODE     ---       _UART_RS485_PutString
      01009E7AH   PUBLIC    CODE     ---       _UART_RS485_PutChar
      01009F79H   PUBLIC    CODE     ---       UART_RS485_ReadTxStatus
      010099C5H   PUBLIC    CODE     ---       UART_RS485_ClearRxBuffer
      010093C3H   PUBLIC    CODE     ---       UART_RS485_GetRxBufferSize
      010091C6H   PUBLIC    CODE     ---       UART_RS485_GetChar
      01009D3DH   PUBLIC    CODE     ---       UART_RS485_ReadRxStatus
      01009AEAH   PUBLIC    CODE     ---       UART_RS485_Stop
      01009AC8H   PUBLIC    CODE     ---       UART_RS485_Enable
      0100986EH   PUBLIC    CODE     ---       UART_RS485_Init
      01009D51H   PUBLIC    CODE     ---       UART_RS485_Start
      000000CAH   SFRSYM    DATA     BYTE      SFRPRT5SEL
      000000DAH   SFRSYM    DATA     BYTE      SFRPRT6SEL
      000000D0H.6 SFRSYM    DATA     BIT       AC
      000000A8H.7 SFRSYM    DATA     BIT       EA
      000000A8H   SFRSYM    DATA     BYTE      IE
      00000085H   SFRSYM    DATA     BYTE      DPH1
      00000084H   SFRSYM    DATA     BYTE      DPL1
      000000D0H.7 SFRSYM    DATA     BIT       CY
      000000A0H   SFRSYM    DATA     BYTE      P2AX
      00000095H   SFRSYM    DATA     BYTE      DPX1
      00000081H   SFRSYM    DATA     BYTE      SP
      000000D0H.2 SFRSYM    DATA     BIT       OV
      00000080H   SFRSYM    DATA     BYTE      SFRPRT0DR
      00000090H   SFRSYM    DATA     BYTE      SFRPRT1DR
      000000F2H   SFRSYM    DATA     BYTE      SFRPRT12SEL
      00000098H   SFRSYM    DATA     BYTE      SFRPRT2DR
      000000B0H   SFRSYM    DATA     BYTE      SFRPRT3DR
      000000C0H   SFRSYM    DATA     BYTE      SFRPRT4DR
      000000FAH   SFRSYM    DATA     BYTE      SFRPRT15SEL
      000000C8H   SFRSYM    DATA     BYTE      SFRPRT5DR
      000000D8H   SFRSYM    DATA     BYTE      SFRPRT6DR
      00000089H   SFRSYM    DATA     BYTE      SFRPRT0PS
      00000091H   SFRSYM    DATA     BYTE      SFRPRT1PS
      00000099H   SFRSYM    DATA     BYTE      SFRPRT2PS
      000000B1H   SFRSYM    DATA     BYTE      SFRPRT3PS
      000000C1H   SFRSYM    DATA     BYTE      SFRPRT4PS
      000000C9H   SFRSYM    DATA     BYTE      SFRPRT5PS
      000000D9H   SFRSYM    DATA     BYTE      SFRPRT6PS
      000000EAH   SFRSYM    DATA     BYTE      MXAX
      000000F0H   SFRSYM    DATA     BYTE      B
      000000E0H   SFRSYM    DATA     BYTE      ACC
      000000D0H   SFRSYM    DATA     BIT       P
      000000D0H.3 SFRSYM    DATA     BIT       RS0
      000000D0H.4 SFRSYM    DATA     BIT       RS1
      00000083H   SFRSYM    DATA     BYTE      DPH
      000000E8H   SFRSYM    DATA     BYTE      SFRPRT12DR
      00000082H   SFRSYM    DATA     BYTE      DPL
      000000F8H   SFRSYM    DATA     BYTE      SFRPRT15DR
      00000086H   SFRSYM    DATA     BYTE      DPS
      000000E9H   SFRSYM    DATA     BYTE      SFRPRT12PS
      00000093H   SFRSYM    DATA     BYTE      DPX
      000000F9H   SFRSYM    DATA     BYTE      SFRPRT15PS
      000000D0H.5 SFRSYM    DATA     BIT       F0
      000000D0H.1 SFRSYM    DATA     BIT       F1
      0000008AH   SFRSYM    DATA     BYTE      SFRPRT0SEL
      000000D0H   SFRSYM    DATA     BYTE      PSW
LX51 LINKER/LOCATER V4.64.0.0                                                         01/31/2019  11:47:34  PAGE 63


      000000A2H   SFRSYM    DATA     BYTE      SFRPRT1SEL
      0000009AH   SFRSYM    DATA     BYTE      SFRPRT2SEL
      000000B2H   SFRSYM    DATA     BYTE      SFRPRT3SEL
      000000C2H   SFRSYM    DATA     BYTE      SFRPRT4SEL

      01009D51H   BLOCK     CODE     ---       LVL=0
      01009D51H   LINE      CODE     ---       #76
      01009D51H   LINE      CODE     ---       #77
      01009D51H   LINE      CODE     ---       #79
      01009D57H   LINE      CODE     ---       #80
      01009D57H   LINE      CODE     ---       #81
      01009D5AH   LINE      CODE     ---       #82
      01009D60H   LINE      CODE     ---       #83
      01009D60H   LINE      CODE     ---       #85
      01009D63H   LINE      CODE     ---       #86
      ---         BLOCKEND  ---      ---       LVL=0

      0100986EH   BLOCK     CODE     ---       LVL=0
      0100986EH   LINE      CODE     ---       #106
      0100986EH   LINE      CODE     ---       #107
      0100986EH   LINE      CODE     ---       #112
      01009877H   LINE      CODE     ---       #113
      0100987EH   LINE      CODE     ---       #114
      01009883H   LINE      CODE     ---       #124
      01009889H   LINE      CODE     ---       #126
      0100988FH   LINE      CODE     ---       #138
      01009895H   LINE      CODE     ---       #139
      0100989BH   LINE      CODE     ---       #150
      010098A0H   LINE      CODE     ---       #160
      ---         BLOCKEND  ---      ---       LVL=0

      01009AC8H   BLOCK     CODE     ---       LVL=0
      01009AC8H   BLOCK     CODE     NEAR LAB  LVL=1
      00000007H   SYMBOL    DATA     BYTE      enableInterrupts
      ---         BLOCKEND  ---      ---       LVL=1
      01009AC8H   LINE      CODE     ---       #183
      01009AC8H   LINE      CODE     ---       #184
      01009AC8H   LINE      CODE     ---       #186
      01009ACBH   LINE      CODE     ---       #190
      01009AD2H   LINE      CODE     ---       #193
      01009AD9H   LINE      CODE     ---       #196
      01009ADFH   LINE      CODE     ---       #211
      01009AE6H   LINE      CODE     ---       #222
      01009AE9H   LINE      CODE     ---       #223
      ---         BLOCKEND  ---      ---       LVL=0

      01009AEAH   BLOCK     CODE     ---       LVL=0
      01009AEAH   BLOCK     CODE     NEAR LAB  LVL=1
      00000007H   SYMBOL    DATA     BYTE      enableInterrupts
      ---         BLOCKEND  ---      ---       LVL=1
      01009AEAH   LINE      CODE     ---       #240
      01009AEAH   LINE      CODE     ---       #241
      01009AEAH   LINE      CODE     ---       #243
      01009AEDH   LINE      CODE     ---       #247
      01009AF4H   LINE      CODE     ---       #262
      01009AFBH   LINE      CODE     ---       #265
      01009B01H   LINE      CODE     ---       #270
      01009B08H   LINE      CODE     ---       #277
      01009B0BH   LINE      CODE     ---       #278
      ---         BLOCKEND  ---      ---       LVL=0
      00000007H   SYMBOL    DATA     BYTE      intSrc
      00000007H   SYMBOL    DATA     BYTE      rxData
      00000006H   SYMBOL    DATA     BYTE      locRxBufferRead
      00000005H   SYMBOL    DATA     BYTE      locRxBufferWrite

LX51 LINKER/LOCATER V4.64.0.0                                                         01/31/2019  11:47:34  PAGE 64


      01009D3DH   BLOCK     CODE     ---       LVL=0
      01009D3DH   BLOCK     CODE     NEAR LAB  LVL=1
      00000007H   SYMBOL    DATA     BYTE      status
      ---         BLOCKEND  ---      ---       LVL=1
      01009D3DH   LINE      CODE     ---       #485
      01009D3DH   LINE      CODE     ---       #486
      01009D3DH   LINE      CODE     ---       #489
      01009D44H   LINE      CODE     ---       #492
      01009D4AH   LINE      CODE     ---       #493
      01009D4AH   LINE      CODE     ---       #494
      01009D4EH   LINE      CODE     ---       #495
      01009D50H   LINE      CODE     ---       #496
      01009D50H   LINE      CODE     ---       #499
      01009D50H   LINE      CODE     ---       #500
      ---         BLOCKEND  ---      ---       LVL=0

      010091C6H   BLOCK     CODE     ---       LVL=0
      010091C6H   BLOCK     CODE     NEAR LAB  LVL=1
      00000007H   SYMBOL    DATA     BYTE      rxData
      00000006H   SYMBOL    DATA     BYTE      rxStatus
      00000006H   SYMBOL    DATA     BYTE      locRxBufferRead
      00000005H   SYMBOL    DATA     BYTE      locRxBufferWrite
      ---         BLOCKEND  ---      ---       LVL=1
      010091C6H   LINE      CODE     ---       #532
      010091C6H   LINE      CODE     ---       #533
      010091C6H   LINE      CODE     ---       #534
      010091C8H   LINE      CODE     ---       #542
      010091CEH   LINE      CODE     ---       #544
      010091D3H   LINE      CODE     ---       #545
      010091D8H   LINE      CODE     ---       #547
      010091E2H   LINE      CODE     ---       #548
      010091E2H   LINE      CODE     ---       #549
      010091EEH   LINE      CODE     ---       #550
      010091EFH   LINE      CODE     ---       #551
      010091F5H   LINE      CODE     ---       #552
      010091F5H   LINE      CODE     ---       #553
      010091F7H   LINE      CODE     ---       #554
      010091F7H   LINE      CODE     ---       #556
      010091FCH   LINE      CODE     ---       #558
      01009202H   LINE      CODE     ---       #559
      01009202H   LINE      CODE     ---       #560
      01009204H   LINE      CODE     ---       #575
      01009204H   LINE      CODE     ---       #577
      01009206H   LINE      CODE     ---       #579
      0100920BH   LINE      CODE     ---       #580
      0100920EH   LINE      CODE     ---       #581
      0100920EH   LINE      CODE     ---       #582
      01009213H   LINE      CODE     ---       #585
      01009218H   LINE      CODE     ---       #586
      01009218H   LINE      CODE     ---       #587
      0100921AH   LINE      CODE     ---       #588
      0100921AH   LINE      CODE     ---       #589
      0100921AH   LINE      CODE     ---       #590
      0100921AH   LINE      CODE     ---       #592
      01009220H   LINE      CODE     ---       #611
      01009220H   LINE      CODE     ---       #612
      ---         BLOCKEND  ---      ---       LVL=0
      00000002H   SYMBOL    DATA     WORD      locErrorStatus

      010093C3H   BLOCK     CODE     ---       LVL=0
      010093C3H   BLOCK     CODE     NEAR LAB  LVL=1
      00000007H   SYMBOL    DATA     BYTE      size
      ---         BLOCKEND  ---      ---       LVL=1
      010093C3H   LINE      CODE     ---       #683
      010093C3H   LINE      CODE     ---       #685
LX51 LINKER/LOCATER V4.64.0.0                                                         01/31/2019  11:47:34  PAGE 65


      010093C3H   LINE      CODE     ---       #691
      010093C9H   LINE      CODE     ---       #693
      010093D5H   LINE      CODE     ---       #694
      010093D5H   LINE      CODE     ---       #695
      010093DBH   LINE      CODE     ---       #696
      010093DBH   LINE      CODE     ---       #697
      010093DDH   LINE      CODE     ---       #698
      010093DFH   LINE      CODE     ---       #700
      010093DFH   LINE      CODE     ---       #701
      010093E1H   LINE      CODE     ---       #702
      010093E1H   LINE      CODE     ---       #703
      010093E3H   LINE      CODE     ---       #704
      010093F0H   LINE      CODE     ---       #705
      010093F0H   LINE      CODE     ---       #706
      010093F9H   LINE      CODE     ---       #707
      010093FBH   LINE      CODE     ---       #709
      010093FBH   LINE      CODE     ---       #710
      0100940BH   LINE      CODE     ---       #711
      0100940BH   LINE      CODE     ---       #713
      01009411H   LINE      CODE     ---       #722
      01009411H   LINE      CODE     ---       #723
      ---         BLOCKEND  ---      ---       LVL=0

      010099C5H   BLOCK     CODE     ---       LVL=0
      010099C5H   BLOCK     CODE     NEAR LAB  LVL=1
      00000007H   SYMBOL    DATA     BYTE      enableInterrupts
      ---         BLOCKEND  ---      ---       LVL=1
      010099C5H   LINE      CODE     ---       #757
      010099C5H   LINE      CODE     ---       #758
      010099C5H   LINE      CODE     ---       #762
      010099C8H   LINE      CODE     ---       #763
      010099CFH   LINE      CODE     ---       #764
      010099D3H   LINE      CODE     ---       #765
      010099D6H   LINE      CODE     ---       #770
      010099DCH   LINE      CODE     ---       #772
      010099E1H   LINE      CODE     ---       #773
      010099E5H   LINE      CODE     ---       #774
      010099E9H   LINE      CODE     ---       #775
      010099EDH   LINE      CODE     ---       #777
      010099F3H   LINE      CODE     ---       #781
      ---         BLOCKEND  ---      ---       LVL=0
      00000007H   SYMBOL    DATA     BYTE      address
      00000007H   SYMBOL    DATA     BYTE      address
      00000007H   SYMBOL    DATA     BYTE      intSrc
      00000007H   SYMBOL    DATA     BYTE      txDataByte

      01009F79H   BLOCK     CODE     ---       LVL=0
      01009F79H   LINE      CODE     ---       #1003
      01009F79H   LINE      CODE     ---       #1004
      01009F79H   LINE      CODE     ---       #1005
      01009F7EH   LINE      CODE     ---       #1006
      ---         BLOCKEND  ---      ---       LVL=0

      01009E7AH   BLOCK     CODE     ---       LVL=0
      00000007H   SYMBOL    DATA     BYTE      txDataByte
      01009E7AH   LINE      CODE     ---       #1041
      01009E7AH   LINE      CODE     ---       #1042
      01009E7AH   LINE      CODE     ---       #1107
      01009E81H   LINE      CODE     ---       #1108
      01009E81H   LINE      CODE     ---       #1110
      01009E81H   LINE      CODE     ---       #1113
      01009E86H   LINE      CODE     ---       #1116
      ---         BLOCKEND  ---      ---       LVL=0

      0100976EH   BLOCK     CODE     ---       LVL=0
LX51 LINKER/LOCATER V4.64.0.0                                                         01/31/2019  11:47:34  PAGE 66


      02000002H   SYMBOL    XDATA    ---       string
      01009779H   BLOCK     CODE     NEAR LAB  LVL=1
      00000004H   SYMBOL    DATA     WORD      bufIndex
      ---         BLOCKEND  ---      ---       LVL=1
      0100976EH   LINE      CODE     ---       #1145
      01009779H   LINE      CODE     ---       #1146
      01009779H   LINE      CODE     ---       #1147
      0100977CH   LINE      CODE     ---       #1150
      01009782H   LINE      CODE     ---       #1151
      01009782H   LINE      CODE     ---       #1153
      01009797H   LINE      CODE     ---       #1154
      01009797H   LINE      CODE     ---       #1155
      0100979AH   LINE      CODE     ---       #1156
      0100979FH   LINE      CODE     ---       #1157
      010097A1H   LINE      CODE     ---       #1158
      010097A1H   LINE      CODE     ---       #1159
      ---         BLOCKEND  ---      ---       LVL=0
      00000005H   SYMBOL    DATA     BYTE      byteCount
      00000006H   SYMBOL    DATA     BYTE      bufIndex
      00000007H   SYMBOL    DATA     BYTE      txDataByte
      00000007H   SYMBOL    DATA     BYTE      size

      01009DB0H   BLOCK     CODE     ---       LVL=0
      01009DB0H   BLOCK     CODE     NEAR LAB  LVL=1
      00000007H   SYMBOL    DATA     BYTE      enableInterrupts
      ---         BLOCKEND  ---      ---       LVL=1
      01009DB0H   LINE      CODE     ---       #1354
      01009DB0H   LINE      CODE     ---       #1355
      01009DB0H   LINE      CODE     ---       #1358
      01009DB3H   LINE      CODE     ---       #1360
      01009DBAH   LINE      CODE     ---       #1361
      01009DBEH   LINE      CODE     ---       #1362
      01009DC1H   LINE      CODE     ---       #1376
      ---         BLOCKEND  ---      ---       LVL=0
      00000007H   SYMBOL    DATA     BYTE      retMode
      020015F3H   SYMBOL    XDATA    BYTE      txPeriod

      ---         MODULE    ---      ---       ISR_RS485_RX
      01009F6BH   PUBLIC    CODE     ---       ISR_RS485_RX_Disable
      01009F64H   PUBLIC    CODE     ---       ISR_RS485_RX_Enable
      01009EECH   PUBLIC    CODE     ---       _ISR_RS485_RX_SetPriority
      01009E50H   PUBLIC    CODE     ---       _ISR_RS485_RX_SetVector
      01009A22H   PUBLIC    CODE     ---       ISR_RS485_RX_Interrupt
      01009B6DH   PUBLIC    CODE     ---       _ISR_RS485_RX_StartEx
      000000CAH   SFRSYM    DATA     BYTE      SFRPRT5SEL
      000000DAH   SFRSYM    DATA     BYTE      SFRPRT6SEL
      000000D0H.6 SFRSYM    DATA     BIT       AC
      000000A8H.7 SFRSYM    DATA     BIT       EA
      000000A8H   SFRSYM    DATA     BYTE      IE
      00000085H   SFRSYM    DATA     BYTE      DPH1
      00000084H   SFRSYM    DATA     BYTE      DPL1
      000000D0H.7 SFRSYM    DATA     BIT       CY
      000000A0H   SFRSYM    DATA     BYTE      P2AX
      00000095H   SFRSYM    DATA     BYTE      DPX1
      00000081H   SFRSYM    DATA     BYTE      SP
      000000D0H.2 SFRSYM    DATA     BIT       OV
      00000080H   SFRSYM    DATA     BYTE      SFRPRT0DR
      00000090H   SFRSYM    DATA     BYTE      SFRPRT1DR
      000000F2H   SFRSYM    DATA     BYTE      SFRPRT12SEL
      00000098H   SFRSYM    DATA     BYTE      SFRPRT2DR
      000000B0H   SFRSYM    DATA     BYTE      SFRPRT3DR
      000000C0H   SFRSYM    DATA     BYTE      SFRPRT4DR
      000000FAH   SFRSYM    DATA     BYTE      SFRPRT15SEL
      000000C8H   SFRSYM    DATA     BYTE      SFRPRT5DR
      000000D8H   SFRSYM    DATA     BYTE      SFRPRT6DR
LX51 LINKER/LOCATER V4.64.0.0                                                         01/31/2019  11:47:34  PAGE 67


      00000089H   SFRSYM    DATA     BYTE      SFRPRT0PS
      00000091H   SFRSYM    DATA     BYTE      SFRPRT1PS
      00000099H   SFRSYM    DATA     BYTE      SFRPRT2PS
      000000B1H   SFRSYM    DATA     BYTE      SFRPRT3PS
      000000C1H   SFRSYM    DATA     BYTE      SFRPRT4PS
      000000C9H   SFRSYM    DATA     BYTE      SFRPRT5PS
      000000D9H   SFRSYM    DATA     BYTE      SFRPRT6PS
      000000EAH   SFRSYM    DATA     BYTE      MXAX
      000000F0H   SFRSYM    DATA     BYTE      B
      000000E0H   SFRSYM    DATA     BYTE      ACC
      000000D0H   SFRSYM    DATA     BIT       P
      000000D0H.3 SFRSYM    DATA     BIT       RS0
      000000D0H.4 SFRSYM    DATA     BIT       RS1
      00000083H   SFRSYM    DATA     BYTE      DPH
      000000E8H   SFRSYM    DATA     BYTE      SFRPRT12DR
      00000082H   SFRSYM    DATA     BYTE      DPL
      000000F8H   SFRSYM    DATA     BYTE      SFRPRT15DR
      00000086H   SFRSYM    DATA     BYTE      DPS
      000000E9H   SFRSYM    DATA     BYTE      SFRPRT12PS
      00000093H   SFRSYM    DATA     BYTE      DPX
      000000F9H   SFRSYM    DATA     BYTE      SFRPRT15PS
      000000D0H.5 SFRSYM    DATA     BIT       F0
      000000D0H.1 SFRSYM    DATA     BIT       F1
      0000008AH   SFRSYM    DATA     BYTE      SFRPRT0SEL
      000000D0H   SFRSYM    DATA     BYTE      PSW
      000000A2H   SFRSYM    DATA     BYTE      SFRPRT1SEL
      0000009AH   SFRSYM    DATA     BYTE      SFRPRT2SEL
      000000B2H   SFRSYM    DATA     BYTE      SFRPRT3SEL
      000000C2H   SFRSYM    DATA     BYTE      SFRPRT4SEL

      01009B6DH   BLOCK     CODE     ---       LVL=0
      02000002H   SYMBOL    XDATA    ---       address
      01009B6DH   LINE      CODE     ---       #94
      01009B75H   LINE      CODE     ---       #95
      01009B75H   LINE      CODE     ---       #97
      01009B78H   LINE      CODE     ---       #100
      01009B83H   LINE      CODE     ---       #103
      01009B88H   LINE      CODE     ---       #106
      01009B8BH   LINE      CODE     ---       #107
      ---         BLOCKEND  ---      ---       LVL=0

      01009A22H   BLOCK     CODE     ---       LVL=0
      01009A22H   LINE      CODE     ---       #151
      01009A22H   LINE      CODE     ---       #168
      ---         BLOCKEND  ---      ---       LVL=0

      01009E50H   BLOCK     CODE     ---       LVL=0
      00000006H   SYMBOL    DATA     ---       address
      01009E50H   LINE      CODE     ---       #198
      01009E50H   LINE      CODE     ---       #199
      01009E50H   LINE      CODE     ---       #200
      01009E5DH   LINE      CODE     ---       #201
      ---         BLOCKEND  ---      ---       LVL=0

      01009EECH   BLOCK     CODE     ---       LVL=0
      00000007H   SYMBOL    DATA     BYTE      priority
      01009EECH   LINE      CODE     ---       #248
      01009EECH   LINE      CODE     ---       #249
      01009EECH   LINE      CODE     ---       #250
      01009EF5H   LINE      CODE     ---       #251
      ---         BLOCKEND  ---      ---       LVL=0
      00000007H   SYMBOL    DATA     BYTE      priority

      01009F64H   BLOCK     CODE     ---       LVL=0
      01009F64H   LINE      CODE     ---       #297
LX51 LINKER/LOCATER V4.64.0.0                                                         01/31/2019  11:47:34  PAGE 68


      01009F64H   LINE      CODE     ---       #298
      01009F64H   LINE      CODE     ---       #300
      01009F6AH   LINE      CODE     ---       #301
      ---         BLOCKEND  ---      ---       LVL=0

      01009F6BH   BLOCK     CODE     ---       LVL=0
      01009F6BH   LINE      CODE     ---       #339
      01009F6BH   LINE      CODE     ---       #340
      01009F6BH   LINE      CODE     ---       #342
      01009F71H   LINE      CODE     ---       #343
      ---         BLOCKEND  ---      ---       LVL=0

      ---         MODULE    ---      ---       PACER_TIMER
      0200164CH   PUBLIC    XDATA    BYTE      PACER_TIMER_initVar
      01009E6CH   PUBLIC    CODE     ---       _PACER_TIMER_WriteCounter
      01009E5EH   PUBLIC    CODE     ---       _PACER_TIMER_WritePeriod
      01009F7FH   PUBLIC    CODE     ---       _PACER_TIMER_SetInterruptMode
      01009D64H   PUBLIC    CODE     ---       PACER_TIMER_Start
      01009CAAH   PUBLIC    CODE     ---       PACER_TIMER_Enable
      010096C5H   PUBLIC    CODE     ---       PACER_TIMER_Init
      000000CAH   SFRSYM    DATA     BYTE      SFRPRT5SEL
      000000DAH   SFRSYM    DATA     BYTE      SFRPRT6SEL
      000000D0H.6 SFRSYM    DATA     BIT       AC
      000000A8H.7 SFRSYM    DATA     BIT       EA
      000000A8H   SFRSYM    DATA     BYTE      IE
      00000085H   SFRSYM    DATA     BYTE      DPH1
      00000084H   SFRSYM    DATA     BYTE      DPL1
      000000D0H.7 SFRSYM    DATA     BIT       CY
      000000A0H   SFRSYM    DATA     BYTE      P2AX
      00000095H   SFRSYM    DATA     BYTE      DPX1
      00000081H   SFRSYM    DATA     BYTE      SP
      000000D0H.2 SFRSYM    DATA     BIT       OV
      00000080H   SFRSYM    DATA     BYTE      SFRPRT0DR
      00000090H   SFRSYM    DATA     BYTE      SFRPRT1DR
      000000F2H   SFRSYM    DATA     BYTE      SFRPRT12SEL
      00000098H   SFRSYM    DATA     BYTE      SFRPRT2DR
      000000B0H   SFRSYM    DATA     BYTE      SFRPRT3DR
      000000C0H   SFRSYM    DATA     BYTE      SFRPRT4DR
      000000FAH   SFRSYM    DATA     BYTE      SFRPRT15SEL
      000000C8H   SFRSYM    DATA     BYTE      SFRPRT5DR
      000000D8H   SFRSYM    DATA     BYTE      SFRPRT6DR
      00000089H   SFRSYM    DATA     BYTE      SFRPRT0PS
      00000091H   SFRSYM    DATA     BYTE      SFRPRT1PS
      00000099H   SFRSYM    DATA     BYTE      SFRPRT2PS
      000000B1H   SFRSYM    DATA     BYTE      SFRPRT3PS
      000000C1H   SFRSYM    DATA     BYTE      SFRPRT4PS
      000000C9H   SFRSYM    DATA     BYTE      SFRPRT5PS
      000000D9H   SFRSYM    DATA     BYTE      SFRPRT6PS
      000000EAH   SFRSYM    DATA     BYTE      MXAX
      000000F0H   SFRSYM    DATA     BYTE      B
      000000E0H   SFRSYM    DATA     BYTE      ACC
      000000D0H   SFRSYM    DATA     BIT       P
      000000D0H.3 SFRSYM    DATA     BIT       RS0
      000000D0H.4 SFRSYM    DATA     BIT       RS1
      00000083H   SFRSYM    DATA     BYTE      DPH
      000000E8H   SFRSYM    DATA     BYTE      SFRPRT12DR
      00000082H   SFRSYM    DATA     BYTE      DPL
      000000F8H   SFRSYM    DATA     BYTE      SFRPRT15DR
      00000086H   SFRSYM    DATA     BYTE      DPS
      000000E9H   SFRSYM    DATA     BYTE      SFRPRT12PS
      00000093H   SFRSYM    DATA     BYTE      DPX
      000000F9H   SFRSYM    DATA     BYTE      SFRPRT15PS
      000000D0H.5 SFRSYM    DATA     BIT       F0
      000000D0H.1 SFRSYM    DATA     BIT       F1
      0000008AH   SFRSYM    DATA     BYTE      SFRPRT0SEL
LX51 LINKER/LOCATER V4.64.0.0                                                         01/31/2019  11:47:34  PAGE 69


      000000D0H   SFRSYM    DATA     BYTE      PSW
      000000A2H   SFRSYM    DATA     BYTE      SFRPRT1SEL
      0000009AH   SFRSYM    DATA     BYTE      SFRPRT2SEL
      000000B2H   SFRSYM    DATA     BYTE      SFRPRT3SEL
      000000C2H   SFRSYM    DATA     BYTE      SFRPRT4SEL

      010096C5H   BLOCK     CODE     ---       LVL=0
      010096C5H   LINE      CODE     ---       #43
      010096C5H   LINE      CODE     ---       #44
      010096C5H   LINE      CODE     ---       #52
      010096CCH   LINE      CODE     ---       #60
      010096D3H   LINE      CODE     ---       #106
      010096DAH   LINE      CODE     ---       #107
      010096DEH   LINE      CODE     ---       #110
      010096E2H   LINE      CODE     ---       #111
      010096E6H   LINE      CODE     ---       #114
      010096EDH   LINE      CODE     ---       #118
      010096F4H   LINE      CODE     ---       #119
      010096FBH   LINE      CODE     ---       #162
      01009700H   LINE      CODE     ---       #163
      ---         BLOCKEND  ---      ---       LVL=0

      01009CAAH   BLOCK     CODE     ---       LVL=0
      01009CAAH   LINE      CODE     ---       #180
      01009CAAH   LINE      CODE     ---       #181
      01009CAAH   LINE      CODE     ---       #184
      01009CB1H   LINE      CODE     ---       #185
      01009CB8H   LINE      CODE     ---       #190
      01009CBFH   LINE      CODE     ---       #192
      ---         BLOCKEND  ---      ---       LVL=0

      01009D64H   BLOCK     CODE     ---       LVL=0
      01009D64H   LINE      CODE     ---       #215
      01009D64H   LINE      CODE     ---       #216
      01009D64H   LINE      CODE     ---       #217
      01009D6AH   LINE      CODE     ---       #218
      01009D6AH   LINE      CODE     ---       #219
      01009D6DH   LINE      CODE     ---       #221
      01009D73H   LINE      CODE     ---       #222
      01009D73H   LINE      CODE     ---       #225
      01009D76H   LINE      CODE     ---       #226
      ---         BLOCKEND  ---      ---       LVL=0

      01009F7FH   BLOCK     CODE     ---       LVL=0
      00000007H   SYMBOL    DATA     BYTE      interruptMode
      01009F7FH   LINE      CODE     ---       #279
      01009F7FH   LINE      CODE     ---       #280
      01009F7FH   LINE      CODE     ---       #281
      01009F84H   LINE      CODE     ---       #282
      ---         BLOCKEND  ---      ---       LVL=0
      00000007H   SYMBOL    DATA     BYTE      control

      01009E5EH   BLOCK     CODE     ---       LVL=0
      00000006H   SYMBOL    DATA     WORD      period
      01009E5EH   BLOCK     CODE     NEAR LAB  LVL=1
      00000006H   SYMBOL    DATA     WORD      period_temp
      ---         BLOCKEND  ---      ---       LVL=1
      01009E5EH   LINE      CODE     ---       #431
      01009E5EH   LINE      CODE     ---       #432
      01009E5EH   LINE      CODE     ---       #434
      01009E5EH   LINE      CODE     ---       #435
      01009E6BH   LINE      CODE     ---       #439
      ---         BLOCKEND  ---      ---       LVL=0

      01009E6CH   BLOCK     CODE     ---       LVL=0
LX51 LINKER/LOCATER V4.64.0.0                                                         01/31/2019  11:47:34  PAGE 70


      00000006H   SYMBOL    DATA     WORD      counter
      01009E6CH   LINE      CODE     ---       #480
      01009E6CH   LINE      CODE     ---       #481
      01009E6CH   LINE      CODE     ---       #486
      01009E79H   LINE      CODE     ---       #491
      ---         BLOCKEND  ---      ---       LVL=0

      ---         MODULE    ---      ---       CLOCK_UART
      01009F3CH   PUBLIC    CODE     ---       CLOCK_UART_GetSourceRegister
      01009EF6H   PUBLIC    CODE     ---       CLOCK_UART_GetDividerRegister
      010076D1H   PUBLIC    CODE     ---       _CLOCK_UART_SetDividerRegister
      00000007H   SYMBOL    DATA     BYTE      state

      010076D1H   BLOCK     CODE     ---       LVL=0
      02000002H   SYMBOL    XDATA    WORD      clkDivider
      02000004H   SYMBOL    XDATA    BYTE      restart
      010076DCH   BLOCK     CODE     NEAR LAB  LVL=1
      02000005H   SYMBOL    XDATA    BYTE      enabled
      02000006H   SYMBOL    XDATA    BYTE      currSrc
      02000007H   SYMBOL    XDATA    WORD      oldDivider
      ---         BLOCKEND  ---      ---       LVL=1
      010076D1H   LINE      CODE     ---       #193
      010076DCH   LINE      CODE     ---       #195
      010076DCH   LINE      CODE     ---       #198
      010076E4H   LINE      CODE     ---       #199
      010076EFH   LINE      CODE     ---       #201
      01007701H   LINE      CODE     ---       #202
      01007701H   LINE      CODE     ---       #203
      0100770BH   LINE      CODE     ---       #205
      0100771CH   LINE      CODE     ---       #206
      0100771CH   LINE      CODE     ---       #208
      01007720H   LINE      CODE     ---       #209
      01007720H   LINE      CODE     ---       #213
      01007729H   LINE      CODE     ---       #214
      01007730H   LINE      CODE     ---       #215
      01007731H   LINE      CODE     ---       #217
      01007731H   LINE      CODE     ---       #220
      01007738H   LINE      CODE     ---       #221
      01007749H   LINE      CODE     ---       #222
      01007749H   LINE      CODE     ---       #223
      0100774AH   LINE      CODE     ---       #225
      0100774AH   LINE      CODE     ---       #227
      01007750H   LINE      CODE     ---       #228
      01007750H   LINE      CODE     ---       #229
      01007755H   LINE      CODE     ---       #236
      0100775AH   LINE      CODE     ---       #237
      0100775FH   LINE      CODE     ---       #240
      01007766H   LINE      CODE     ---       #243
      01007778H   LINE      CODE     ---       #244
      01007778H   LINE      CODE     ---       #246
      01007789H   LINE      CODE     ---       #247
      0100778FH   LINE      CODE     ---       #250
      01007797H   LINE      CODE     ---       #253
      0100779EH   LINE      CODE     ---       #257
      010077A3H   LINE      CODE     ---       #259
      010077A3H   LINE      CODE     ---       #260
      010077A3H   LINE      CODE     ---       #263
      010077ABH   LINE      CODE     ---       #264
      010077ABH   LINE      CODE     ---       #266
      010077BCH   LINE      CODE     ---       #268
      010077CFH   LINE      CODE     ---       #269
      010077D9H   LINE      CODE     ---       #270
      010077DAH   LINE      CODE     ---       #272
      010077DAH   LINE      CODE     ---       #274
      010077EBH   LINE      CODE     ---       #275
LX51 LINKER/LOCATER V4.64.0.0                                                         01/31/2019  11:47:34  PAGE 71


      01007800H   LINE      CODE     ---       #276
      01007800H   LINE      CODE     ---       #277
      01007800H   LINE      CODE     ---       #278
      01007800H   LINE      CODE     ---       #279
      ---         BLOCKEND  ---      ---       LVL=0

      01009EF6H   BLOCK     CODE     ---       LVL=0
      01009EF6H   LINE      CODE     ---       #297
      01009EF6H   LINE      CODE     ---       #298
      01009EF6H   LINE      CODE     ---       #299
      01009EFFH   LINE      CODE     ---       #300
      ---         BLOCKEND  ---      ---       LVL=0
      00000007H   SYMBOL    DATA     BYTE      modeBitMask
      00000007H   SYMBOL    DATA     BYTE      modeBitMask
      00000007H   SYMBOL    DATA     BYTE      oldSrc

      01009F3CH   BLOCK     CODE     ---       LVL=0
      01009F3CH   LINE      CODE     ---       #464
      01009F3CH   LINE      CODE     ---       #465
      01009F3CH   LINE      CODE     ---       #466
      01009F43H   LINE      CODE     ---       #467
      ---         BLOCKEND  ---      ---       LVL=0

      ---         MODULE    ---      ---       EEPROM
      010086C0H   PUBLIC    CODE     ---       _EEPROM_Write
      01009FD3H   PUBLIC    CODE     ---       EEPROM_Start
      01009F72H   PUBLIC    CODE     ---       EEPROM_Enable
      000000CAH   SFRSYM    DATA     BYTE      SFRPRT5SEL
      000000DAH   SFRSYM    DATA     BYTE      SFRPRT6SEL
      000000D0H.6 SFRSYM    DATA     BIT       AC
      000000A8H.7 SFRSYM    DATA     BIT       EA
      000000A8H   SFRSYM    DATA     BYTE      IE
      00000085H   SFRSYM    DATA     BYTE      DPH1
      00000084H   SFRSYM    DATA     BYTE      DPL1
      000000D0H.7 SFRSYM    DATA     BIT       CY
      000000A0H   SFRSYM    DATA     BYTE      P2AX
      00000095H   SFRSYM    DATA     BYTE      DPX1
      00000081H   SFRSYM    DATA     BYTE      SP
      000000D0H.2 SFRSYM    DATA     BIT       OV
      00000080H   SFRSYM    DATA     BYTE      SFRPRT0DR
      00000090H   SFRSYM    DATA     BYTE      SFRPRT1DR
      000000F2H   SFRSYM    DATA     BYTE      SFRPRT12SEL
      00000098H   SFRSYM    DATA     BYTE      SFRPRT2DR
      000000B0H   SFRSYM    DATA     BYTE      SFRPRT3DR
      000000C0H   SFRSYM    DATA     BYTE      SFRPRT4DR
      000000FAH   SFRSYM    DATA     BYTE      SFRPRT15SEL
      000000C8H   SFRSYM    DATA     BYTE      SFRPRT5DR
      000000D8H   SFRSYM    DATA     BYTE      SFRPRT6DR
      00000089H   SFRSYM    DATA     BYTE      SFRPRT0PS
      00000091H   SFRSYM    DATA     BYTE      SFRPRT1PS
      00000099H   SFRSYM    DATA     BYTE      SFRPRT2PS
      000000B1H   SFRSYM    DATA     BYTE      SFRPRT3PS
      000000C1H   SFRSYM    DATA     BYTE      SFRPRT4PS
      000000C9H   SFRSYM    DATA     BYTE      SFRPRT5PS
      000000D9H   SFRSYM    DATA     BYTE      SFRPRT6PS
      000000EAH   SFRSYM    DATA     BYTE      MXAX
      000000F0H   SFRSYM    DATA     BYTE      B
      000000E0H   SFRSYM    DATA     BYTE      ACC
      000000D0H   SFRSYM    DATA     BIT       P
      000000D0H.3 SFRSYM    DATA     BIT       RS0
      000000D0H.4 SFRSYM    DATA     BIT       RS1
      00000083H   SFRSYM    DATA     BYTE      DPH
      000000E8H   SFRSYM    DATA     BYTE      SFRPRT12DR
      00000082H   SFRSYM    DATA     BYTE      DPL
      000000F8H   SFRSYM    DATA     BYTE      SFRPRT15DR
LX51 LINKER/LOCATER V4.64.0.0                                                         01/31/2019  11:47:34  PAGE 72


      00000086H   SFRSYM    DATA     BYTE      DPS
      000000E9H   SFRSYM    DATA     BYTE      SFRPRT12PS
      00000093H   SFRSYM    DATA     BYTE      DPX
      000000F9H   SFRSYM    DATA     BYTE      SFRPRT15PS
      000000D0H.5 SFRSYM    DATA     BIT       F0
      000000D0H.1 SFRSYM    DATA     BIT       F1
      0000008AH   SFRSYM    DATA     BYTE      SFRPRT0SEL
      000000D0H   SFRSYM    DATA     BYTE      PSW
      000000A2H   SFRSYM    DATA     BYTE      SFRPRT1SEL
      0000009AH   SFRSYM    DATA     BYTE      SFRPRT2SEL
      000000B2H   SFRSYM    DATA     BYTE      SFRPRT3SEL
      000000C2H   SFRSYM    DATA     BYTE      SFRPRT4SEL

      01009F72H   BLOCK     CODE     ---       LVL=0
      01009F72H   LINE      CODE     ---       #33
      01009F72H   LINE      CODE     ---       #34
      01009F72H   LINE      CODE     ---       #36
      01009F75H   LINE      CODE     ---       #39
      01009F78H   LINE      CODE     ---       #40
      ---         BLOCKEND  ---      ---       LVL=0

      01009FD3H   BLOCK     CODE     ---       LVL=0
      01009FD3H   LINE      CODE     ---       #57
      01009FD3H   LINE      CODE     ---       #58
      01009FD3H   LINE      CODE     ---       #59
      01009FD6H   LINE      CODE     ---       #60
      ---         BLOCKEND  ---      ---       LVL=0

      010086C0H   BLOCK     CODE     ---       LVL=0
      02000009H   SYMBOL    XDATA    ---       rowData
      0200000CH   SYMBOL    XDATA    BYTE      rowNumber
      010086CEH   BLOCK     CODE     NEAR LAB  LVL=1
      0200000DH   SYMBOL    XDATA    BYTE      status
      ---         BLOCKEND  ---      ---       LVL=1
      010086C0H   LINE      CODE     ---       #345
      010086CEH   LINE      CODE     ---       #346
      010086CEH   LINE      CODE     ---       #349
      010086D1H   LINE      CODE     ---       #351
      010086DDH   LINE      CODE     ---       #352
      010086DDH   LINE      CODE     ---       #354
      010086E6H   LINE      CODE     ---       #355
      010086E6H   LINE      CODE     ---       #357
      010086ECH   LINE      CODE     ---       #360
      0100870AH   LINE      CODE     ---       #361
      0100870AH   LINE      CODE     ---       #362
      01008712H   LINE      CODE     ---       #363
      01008712H   LINE      CODE     ---       #365
      01008712H   LINE      CODE     ---       #368
      01008728H   LINE      CODE     ---       #369
      01008728H   LINE      CODE     ---       #370
      0100872CH   LINE      CODE     ---       #371
      0100872CH   LINE      CODE     ---       #374
      01008732H   LINE      CODE     ---       #375
      01008732H   LINE      CODE     ---       #376
      0100874EH   LINE      CODE     ---       #378
      0100874EH   LINE      CODE     ---       #380
      01008754H   LINE      CODE     ---       #382
      0100875CH   LINE      CODE     ---       #383
      0100875CH   LINE      CODE     ---       #385
      0100875CH   LINE      CODE     ---       #388
      01008772H   LINE      CODE     ---       #389
      01008772H   LINE      CODE     ---       #390
      01008776H   LINE      CODE     ---       #391
      01008776H   LINE      CODE     ---       #392
      01008778H   LINE      CODE     ---       #394
LX51 LINKER/LOCATER V4.64.0.0                                                         01/31/2019  11:47:34  PAGE 73


      01008778H   LINE      CODE     ---       #395
      0100877EH   LINE      CODE     ---       #396
      0100877EH   LINE      CODE     ---       #397
      01008780H   LINE      CODE     ---       #399
      01008780H   LINE      CODE     ---       #400
      01008786H   LINE      CODE     ---       #401
      01008786H   LINE      CODE     ---       #402
      01008786H   LINE      CODE     ---       #405
      01008789H   LINE      CODE     ---       #406
      0100878BH   LINE      CODE     ---       #408
      0100878BH   LINE      CODE     ---       #409
      01008791H   LINE      CODE     ---       #410
      01008791H   LINE      CODE     ---       #411
      01008793H   LINE      CODE     ---       #413
      01008793H   LINE      CODE     ---       #414
      01008799H   LINE      CODE     ---       #415
      01008799H   LINE      CODE     ---       #417
      0100879EH   LINE      CODE     ---       #418
      ---         BLOCKEND  ---      ---       LVL=0

      ---         MODULE    ---      ---       ADC
      02001626H   PUBLIC    XDATA    LONG      ADC_CountsPerVolt
      02001625H   PUBLIC    XDATA    BYTE      ADC_convDone
      02001621H   PUBLIC    XDATA    BYTE      ADC_started
      02001620H   PUBLIC    XDATA    BYTE      ADC_stopConversion
      0200161CH   PUBLIC    XDATA    LONG      ADC_Offset
      0200161BH   PUBLIC    XDATA    BYTE      ADC_initVar
      0200161AH   PUBLIC    XDATA    BYTE      ADC_Config
      01009BFFH   PUBLIC    CODE     ---       ADC_Start
      01008C25H   PUBLIC    CODE     ---       ADC_Enable
      0100879FH   PUBLIC    CODE     ---       ADC_Init
      000000CAH   SFRSYM    DATA     BYTE      SFRPRT5SEL
      000000DAH   SFRSYM    DATA     BYTE      SFRPRT6SEL
      000000D0H.6 SFRSYM    DATA     BIT       AC
      000000A8H.7 SFRSYM    DATA     BIT       EA
      000000A8H   SFRSYM    DATA     BYTE      IE
      00000085H   SFRSYM    DATA     BYTE      DPH1
      00000084H   SFRSYM    DATA     BYTE      DPL1
      000000D0H.7 SFRSYM    DATA     BIT       CY
      000000A0H   SFRSYM    DATA     BYTE      P2AX
      00000095H   SFRSYM    DATA     BYTE      DPX1
      00000081H   SFRSYM    DATA     BYTE      SP
      000000D0H.2 SFRSYM    DATA     BIT       OV
      00000080H   SFRSYM    DATA     BYTE      SFRPRT0DR
      00000090H   SFRSYM    DATA     BYTE      SFRPRT1DR
      000000F2H   SFRSYM    DATA     BYTE      SFRPRT12SEL
      00000098H   SFRSYM    DATA     BYTE      SFRPRT2DR
      000000B0H   SFRSYM    DATA     BYTE      SFRPRT3DR
      000000C0H   SFRSYM    DATA     BYTE      SFRPRT4DR
      000000FAH   SFRSYM    DATA     BYTE      SFRPRT15SEL
      000000C8H   SFRSYM    DATA     BYTE      SFRPRT5DR
      000000D8H   SFRSYM    DATA     BYTE      SFRPRT6DR
      00000089H   SFRSYM    DATA     BYTE      SFRPRT0PS
      00000091H   SFRSYM    DATA     BYTE      SFRPRT1PS
      00000099H   SFRSYM    DATA     BYTE      SFRPRT2PS
      000000B1H   SFRSYM    DATA     BYTE      SFRPRT3PS
      000000C1H   SFRSYM    DATA     BYTE      SFRPRT4PS
      000000C9H   SFRSYM    DATA     BYTE      SFRPRT5PS
      000000D9H   SFRSYM    DATA     BYTE      SFRPRT6PS
      000000EAH   SFRSYM    DATA     BYTE      MXAX
      000000F0H   SFRSYM    DATA     BYTE      B
      000000E0H   SFRSYM    DATA     BYTE      ACC
      000000D0H   SFRSYM    DATA     BIT       P
      000000D0H.3 SFRSYM    DATA     BIT       RS0
      000000D0H.4 SFRSYM    DATA     BIT       RS1
LX51 LINKER/LOCATER V4.64.0.0                                                         01/31/2019  11:47:34  PAGE 74


      00000083H   SFRSYM    DATA     BYTE      DPH
      000000E8H   SFRSYM    DATA     BYTE      SFRPRT12DR
      00000082H   SFRSYM    DATA     BYTE      DPL
      000000F8H   SFRSYM    DATA     BYTE      SFRPRT15DR
      00000086H   SFRSYM    DATA     BYTE      DPS
      000000E9H   SFRSYM    DATA     BYTE      SFRPRT12PS
      00000093H   SFRSYM    DATA     BYTE      DPX
      000000F9H   SFRSYM    DATA     BYTE      SFRPRT15PS
      000000D0H.5 SFRSYM    DATA     BIT       F0
      000000D0H.1 SFRSYM    DATA     BIT       F1
      0000008AH   SFRSYM    DATA     BYTE      SFRPRT0SEL
      000000D0H   SFRSYM    DATA     BYTE      PSW
      000000A2H   SFRSYM    DATA     BYTE      SFRPRT1SEL
      0000009AH   SFRSYM    DATA     BYTE      SFRPRT2SEL
      000000B2H   SFRSYM    DATA     BYTE      SFRPRT3SEL
      000000C2H   SFRSYM    DATA     BYTE      SFRPRT4SEL
      010089AFH   SYMBOL    CODE     ---       _ADC_InitConfig
      0100711CH   SYMBOL    CODE     ---       _ADC_GainCompensation
      01009688H   SYMBOL    CODE     ---       _ADC_SetDSMRef0Reg
      02001622H   SYMBOL    XDATA    ---       ADC_gcor

      0100879FH   BLOCK     CODE     ---       LVL=0
      0100879FH   LINE      CODE     ---       #91
      0100879FH   LINE      CODE     ---       #92
      0100879FH   LINE      CODE     ---       #94
      010087A5H   LINE      CODE     ---       #95
      010087AAH   LINE      CODE     ---       #97
      010087AFH   LINE      CODE     ---       #101
      010087B4H   LINE      CODE     ---       #106
      010087BBH   LINE      CODE     ---       #110
      010087C1H   LINE      CODE     ---       #111
      010087C4H   LINE      CODE     ---       #112
      010087C8H   LINE      CODE     ---       #113
      010087CFH   LINE      CODE     ---       #114
      010087D4H   LINE      CODE     ---       #116
      010087D8H   LINE      CODE     ---       #117
      010087DAH   LINE      CODE     ---       #119
      010087E0H   LINE      CODE     ---       #120
      010087E3H   LINE      CODE     ---       #124
      010087E7H   LINE      CODE     ---       #126
      010087EDH   LINE      CODE     ---       #127
      010087F0H   LINE      CODE     ---       #128
      010087F5H   LINE      CODE     ---       #130
      010087FBH   LINE      CODE     ---       #133
      01008812H   LINE      CODE     ---       #161
      01008828H   LINE      CODE     ---       #162
      01008847H   LINE      CODE     ---       #165
      0100884FH   LINE      CODE     ---       #166
      ---         BLOCKEND  ---      ---       LVL=0

      01008C25H   BLOCK     CODE     ---       LVL=0
      01008C25H   BLOCK     CODE     NEAR LAB  LVL=1
      02000002H   SYMBOL    XDATA    BYTE      config
      02000003H   SYMBOL    XDATA    BYTE      enableInterrupts
      ---         BLOCKEND  ---      ---       LVL=1
      01008C25H   LINE      CODE     ---       #184
      01008C25H   LINE      CODE     ---       #185
      01008C25H   LINE      CODE     ---       #188
      01008C2DH   LINE      CODE     ---       #191
      01008C35H   LINE      CODE     ---       #194
      01008C3CH   LINE      CODE     ---       #195
      01008C40H   LINE      CODE     ---       #198
      01008C47H   LINE      CODE     ---       #199
      01008C4BH   LINE      CODE     ---       #202
      01008C52H   LINE      CODE     ---       #203
LX51 LINKER/LOCATER V4.64.0.0                                                         01/31/2019  11:47:34  PAGE 75


      01008C57H   LINE      CODE     ---       #205
      01008C5EH   LINE      CODE     ---       #265
      01008C5EH   LINE      CODE     ---       #266
      01008C5EH   LINE      CODE     ---       #268
      01008C5EH   LINE      CODE     ---       #271
      01008C65H   LINE      CODE     ---       #274
      01008C6CH   LINE      CODE     ---       #275
      01008C71H   LINE      CODE     ---       #278
      01008C78H   LINE      CODE     ---       #281
      01008C7EH   LINE      CODE     ---       #285
      01008C85H   LINE      CODE     ---       #286
      01008C8CH   LINE      CODE     ---       #290
      01008C93H   LINE      CODE     ---       #291
      01008C9AH   LINE      CODE     ---       #295
      01008CA0H   LINE      CODE     ---       #297
      01008CA4H   LINE      CODE     ---       #300
      01008CACH   LINE      CODE     ---       #302
      ---         BLOCKEND  ---      ---       LVL=0

      01009BFFH   BLOCK     CODE     ---       LVL=0
      01009BFFH   LINE      CODE     ---       #329
      01009BFFH   LINE      CODE     ---       #330
      01009BFFH   LINE      CODE     ---       #331
      01009C05H   LINE      CODE     ---       #332
      01009C05H   LINE      CODE     ---       #333
      01009C0BH   LINE      CODE     ---       #334
      01009C0BH   LINE      CODE     ---       #335
      01009C0EH   LINE      CODE     ---       #336
      01009C0EH   LINE      CODE     ---       #337
      01009C14H   LINE      CODE     ---       #338
      01009C14H   LINE      CODE     ---       #341
      01009C17H   LINE      CODE     ---       #342
      ---         BLOCKEND  ---      ---       LVL=0
      00000007H   SYMBOL    DATA     BYTE      gain
      00000006H   SYMBOL    DATA     BYTE      tmpReg
      00000007H   SYMBOL    DATA     BYTE      coherency
      00000006H   SYMBOL    DATA     BYTE      tmpReg
      00000004H   SYMBOL    DATA     WORD      gcorValue
      00000007H   SYMBOL    DATA     BYTE      retMode
      00000006H   SYMBOL    DATA     BYTE      status
      00000006H   SYMBOL    DATA     CHAR      result
      00000007H   SYMBOL    DATA     BYTE      coherency
      00000004H   SYMBOL    DATA     LONG      offset
      00000004H   SYMBOL    DATA     LONG      adcGain
      00000006H   SYMBOL    DATA     INT       mVolts
      00000004H   SYMBOL    DATA     FLOAT     Volts
      00000004H   SYMBOL    DATA     LONG      uVolts

      010089AFH   BLOCK     CODE     ---       LVL=0
      00000007H   SYMBOL    DATA     BYTE      config
      010089AFH   LINE      CODE     ---       #1242
      010089AFH   LINE      CODE     ---       #1243
      010089AFH   LINE      CODE     ---       #1244
      010089B4H   LINE      CODE     ---       #1246
      010089BCH   LINE      CODE     ---       #1247
      010089BCH   LINE      CODE     ---       #1249
      010089C2H   LINE      CODE     ---       #1250
      010089C8H   LINE      CODE     ---       #1251
      010089CCH   LINE      CODE     ---       #1252
      010089CFH   LINE      CODE     ---       #1253
      010089D1H   LINE      CODE     ---       #1254
      010089D5H   LINE      CODE     ---       #1255
      010089DAH   LINE      CODE     ---       #1256
      010089DCH   LINE      CODE     ---       #1257
      010089DEH   LINE      CODE     ---       #1258
LX51 LINKER/LOCATER V4.64.0.0                                                         01/31/2019  11:47:34  PAGE 76


      010089E3H   LINE      CODE     ---       #1260
      010089E9H   LINE      CODE     ---       #1261
      010089EDH   LINE      CODE     ---       #1262
      010089F1H   LINE      CODE     ---       #1263
      010089F4H   LINE      CODE     ---       #1264
      010089FAH   LINE      CODE     ---       #1265
      010089FEH   LINE      CODE     ---       #1266
      01008A02H   LINE      CODE     ---       #1267
      01008A07H   LINE      CODE     ---       #1268
      01008A0BH   LINE      CODE     ---       #1269
      01008A0FH   LINE      CODE     ---       #1270
      01008A13H   LINE      CODE     ---       #1272
      01008A18H   LINE      CODE     ---       #1273
      01008A1EH   LINE      CODE     ---       #1274
      01008A21H   LINE      CODE     ---       #1276
      01008A26H   LINE      CODE     ---       #1277
      01008A28H   LINE      CODE     ---       #1278
      01008A2BH   LINE      CODE     ---       #1279
      01008A2FH   LINE      CODE     ---       #1288
      01008A34H   LINE      CODE     ---       #1300
      01008A41H   LINE      CODE     ---       #1302
      01008A4AH   LINE      CODE     ---       #1306
      01008A53H   LINE      CODE     ---       #1311
      01008A5CH   LINE      CODE     ---       #1313
      01008A5CH   LINE      CODE     ---       #1526
      ---         BLOCKEND  ---      ---       LVL=0

      0100711CH   BLOCK     CODE     ---       LVL=0
      00000007H   SYMBOL    DATA     BYTE      inputRange
      02000003H   SYMBOL    XDATA    WORD      idealDecGain
      02000005H   SYMBOL    XDATA    WORD      idealOddDecGain
      02000007H   SYMBOL    XDATA    BYTE      resolution
      02000008H   SYMBOL    XDATA    BYTE      config
      0100712AH   BLOCK     CODE     NEAR LAB  LVL=1
      02000009H   SYMBOL    XDATA    CHAR      flash
      00000004H   SYMBOL    DATA     LONG      normalised
      00000004H   SYMBOL    DATA     WORD      gcorValue
      00000004H   SYMBOL    DATA     DWORD     gcorTmp
      ---         BLOCKEND  ---      ---       LVL=1
      0100711CH   LINE      CODE     ---       #1617
      0100712AH   LINE      CODE     ---       #1619
      0100712AH   LINE      CODE     ---       #1625
      01007140H   LINE      CODE     ---       #1626
      01007140H   LINE      CODE     ---       #1627
      0100715AH   LINE      CODE     ---       #1628
      0100715AH   LINE      CODE     ---       #1629
      0100715AH   LINE      CODE     ---       #1630
      0100715AH   LINE      CODE     ---       #1632
      01007163H   LINE      CODE     ---       #1633
      01007163H   LINE      CODE     ---       #1634
      01007171H   LINE      CODE     ---       #1635
      01007174H   LINE      CODE     ---       #1637
      01007174H   LINE      CODE     ---       #1638
      01007182H   LINE      CODE     ---       #1639
      01007182H   LINE      CODE     ---       #1640
      01007185H   LINE      CODE     ---       #1642
      01007185H   LINE      CODE     ---       #1644
      0100718EH   LINE      CODE     ---       #1645
      0100718EH   LINE      CODE     ---       #1646
      0100719CH   LINE      CODE     ---       #1647
      0100719EH   LINE      CODE     ---       #1649
      0100719EH   LINE      CODE     ---       #1650
      010071ACH   LINE      CODE     ---       #1651
      010071ACH   LINE      CODE     ---       #1652
      010071AEH   LINE      CODE     ---       #1654
LX51 LINKER/LOCATER V4.64.0.0                                                         01/31/2019  11:47:34  PAGE 77


      010071AEH   LINE      CODE     ---       #1656
      010071B7H   LINE      CODE     ---       #1657
      010071B7H   LINE      CODE     ---       #1658
      010071C5H   LINE      CODE     ---       #1659
      010071C7H   LINE      CODE     ---       #1661
      010071C7H   LINE      CODE     ---       #1662
      010071D5H   LINE      CODE     ---       #1663
      010071D5H   LINE      CODE     ---       #1664
      010071D7H   LINE      CODE     ---       #1666
      010071D7H   LINE      CODE     ---       #1668
      010071E0H   LINE      CODE     ---       #1669
      010071E0H   LINE      CODE     ---       #1670
      010071EEH   LINE      CODE     ---       #1671
      010071F0H   LINE      CODE     ---       #1673
      010071F0H   LINE      CODE     ---       #1674
      010071FEH   LINE      CODE     ---       #1675
      010071FEH   LINE      CODE     ---       #1676
      01007200H   LINE      CODE     ---       #1678
      01007200H   LINE      CODE     ---       #1679
      01007205H   LINE      CODE     ---       #1680
      01007205H   LINE      CODE     ---       #1681
      01007205H   LINE      CODE     ---       #1684
      01007238H   LINE      CODE     ---       #1685
      0100724BH   LINE      CODE     ---       #1686
      01007258H   LINE      CODE     ---       #1688
      01007261H   LINE      CODE     ---       #1689
      01007261H   LINE      CODE     ---       #1690
      01007278H   LINE      CODE     ---       #1691
      0100728EH   LINE      CODE     ---       #1692
      01007290H   LINE      CODE     ---       #1694
      01007290H   LINE      CODE     ---       #1696
      010072A4H   LINE      CODE     ---       #1697
      010072A4H   LINE      CODE     ---       #1700
      010072BCH   LINE      CODE     ---       #1701
      010072BCH   LINE      CODE     ---       #1703
      010072BCH   LINE      CODE     ---       #1706
      010072BCH   LINE      CODE     ---       #1707
      ---         BLOCKEND  ---      ---       LVL=0

      01009688H   BLOCK     CODE     ---       LVL=0
      02000002H   SYMBOL    XDATA    BYTE      value
      0100968DH   BLOCK     CODE     NEAR LAB  LVL=1
      02000003H   SYMBOL    XDATA    BYTE      enableInterrupts
      ---         BLOCKEND  ---      ---       LVL=1
      01009688H   LINE      CODE     ---       #1724
      0100968DH   LINE      CODE     ---       #1725
      0100968DH   LINE      CODE     ---       #1727
      01009695H   LINE      CODE     ---       #1730
      0100969CH   LINE      CODE     ---       #1731
      010096A1H   LINE      CODE     ---       #1732
      010096A9H   LINE      CODE     ---       #1735
      010096B0H   LINE      CODE     ---       #1737
      010096B7H   LINE      CODE     ---       #1738
      010096BCH   LINE      CODE     ---       #1740
      010096C4H   LINE      CODE     ---       #1741
      ---         BLOCKEND  ---      ---       LVL=0
      00000007H   SYMBOL    DATA     CHAR      result
      00000006H   SYMBOL    DATA     INT       result
      00000004H   SYMBOL    DATA     LONG      result

      ---         MODULE    ---      ---       RS485_CTS
      01009F85H   PUBLIC    CODE     ---       _RS485_CTS_Write

      01009F85H   BLOCK     CODE     ---       LVL=0
      00000007H   SYMBOL    DATA     BYTE      control
LX51 LINKER/LOCATER V4.64.0.0                                                         01/31/2019  11:47:34  PAGE 78


      01009F85H   LINE      CODE     ---       #37
      01009F85H   LINE      CODE     ---       #38
      01009F85H   LINE      CODE     ---       #39
      01009F8AH   LINE      CODE     ---       #40
      ---         BLOCKEND  ---      ---       LVL=0

      ---         MODULE    ---      ---       BOOTLOADABLE
      01009F00H   PUBLIC    CODE     ---       Bootloadable_Load
      000000CAH   SFRSYM    DATA     BYTE      SFRPRT5SEL
      000000DAH   SFRSYM    DATA     BYTE      SFRPRT6SEL
      000000D0H.6 SFRSYM    DATA     BIT       AC
      000000A8H.7 SFRSYM    DATA     BIT       EA
      000000A8H   SFRSYM    DATA     BYTE      IE
      00000085H   SFRSYM    DATA     BYTE      DPH1
      00000084H   SFRSYM    DATA     BYTE      DPL1
      000000D0H.7 SFRSYM    DATA     BIT       CY
      000000A0H   SFRSYM    DATA     BYTE      P2AX
      00000095H   SFRSYM    DATA     BYTE      DPX1
      00000081H   SFRSYM    DATA     BYTE      SP
      000000D0H.2 SFRSYM    DATA     BIT       OV
      00000080H   SFRSYM    DATA     BYTE      SFRPRT0DR
      00000090H   SFRSYM    DATA     BYTE      SFRPRT1DR
      000000F2H   SFRSYM    DATA     BYTE      SFRPRT12SEL
      00000098H   SFRSYM    DATA     BYTE      SFRPRT2DR
      000000B0H   SFRSYM    DATA     BYTE      SFRPRT3DR
      000000C0H   SFRSYM    DATA     BYTE      SFRPRT4DR
      000000FAH   SFRSYM    DATA     BYTE      SFRPRT15SEL
      000000C8H   SFRSYM    DATA     BYTE      SFRPRT5DR
      000000D8H   SFRSYM    DATA     BYTE      SFRPRT6DR
      00000089H   SFRSYM    DATA     BYTE      SFRPRT0PS
      00000091H   SFRSYM    DATA     BYTE      SFRPRT1PS
      00000099H   SFRSYM    DATA     BYTE      SFRPRT2PS
      000000B1H   SFRSYM    DATA     BYTE      SFRPRT3PS
      000000C1H   SFRSYM    DATA     BYTE      SFRPRT4PS
      000000C9H   SFRSYM    DATA     BYTE      SFRPRT5PS
      000000D9H   SFRSYM    DATA     BYTE      SFRPRT6PS
      000000EAH   SFRSYM    DATA     BYTE      MXAX
      000000F0H   SFRSYM    DATA     BYTE      B
      000000E0H   SFRSYM    DATA     BYTE      ACC
      000000D0H   SFRSYM    DATA     BIT       P
      000000D0H.3 SFRSYM    DATA     BIT       RS0
      000000D0H.4 SFRSYM    DATA     BIT       RS1
      00000083H   SFRSYM    DATA     BYTE      DPH
      000000E8H   SFRSYM    DATA     BYTE      SFRPRT12DR
      00000082H   SFRSYM    DATA     BYTE      DPL
      000000F8H   SFRSYM    DATA     BYTE      SFRPRT15DR
      00000086H   SFRSYM    DATA     BYTE      DPS
      000000E9H   SFRSYM    DATA     BYTE      SFRPRT12PS
      00000093H   SFRSYM    DATA     BYTE      DPX
      000000F9H   SFRSYM    DATA     BYTE      SFRPRT15PS
      000000D0H.5 SFRSYM    DATA     BIT       F0
      000000D0H.1 SFRSYM    DATA     BIT       F1
      0000008AH   SFRSYM    DATA     BYTE      SFRPRT0SEL
      000000D0H   SFRSYM    DATA     BYTE      PSW
      000000A2H   SFRSYM    DATA     BYTE      SFRPRT1SEL
      0000009AH   SFRSYM    DATA     BYTE      SFRPRT2SEL
      000000B2H   SFRSYM    DATA     BYTE      SFRPRT3SEL
      000000C2H   SFRSYM    DATA     BYTE      SFRPRT4SEL

      01009F00H   BLOCK     CODE     ---       LVL=0
      01009F00H   LINE      CODE     ---       #41
      01009F00H   LINE      CODE     ---       #42
      01009F00H   LINE      CODE     ---       #44
      01009F06H   LINE      CODE     ---       #46
      01009F09H   LINE      CODE     ---       #47
LX51 LINKER/LOCATER V4.64.0.0                                                         01/31/2019  11:47:34  PAGE 79


      ---         BLOCKEND  ---      ---       LVL=0
      00000002H   SYMBOL    DATA     WORD      idx

      ---         MODULE    ---      ---       FTDI_ENABLE_REG
      01009F8BH   PUBLIC    CODE     ---       _FTDI_ENABLE_REG_Write

      01009F8BH   BLOCK     CODE     ---       LVL=0
      00000007H   SYMBOL    DATA     BYTE      control
      01009F8BH   LINE      CODE     ---       #37
      01009F8BH   LINE      CODE     ---       #38
      01009F8BH   LINE      CODE     ---       #39
      01009F90H   LINE      CODE     ---       #40
      ---         BLOCKEND  ---      ---       LVL=0

      ---         MODULE    ---      ---       RESET_FF
      01009F91H   PUBLIC    CODE     ---       _RESET_FF_Write

      01009F91H   BLOCK     CODE     ---       LVL=0
      00000007H   SYMBOL    DATA     BYTE      control
      01009F91H   LINE      CODE     ---       #37
      01009F91H   LINE      CODE     ---       #38
      01009F91H   LINE      CODE     ---       #39
      01009F96H   LINE      CODE     ---       #40
      ---         BLOCKEND  ---      ---       LVL=0

      ---         MODULE    ---      ---       FF_STATUS
      01009F97H   PUBLIC    CODE     ---       FF_STATUS_Read
      000000CAH   SFRSYM    DATA     BYTE      SFRPRT5SEL
      000000DAH   SFRSYM    DATA     BYTE      SFRPRT6SEL
      000000D0H.6 SFRSYM    DATA     BIT       AC
      000000A8H.7 SFRSYM    DATA     BIT       EA
      000000A8H   SFRSYM    DATA     BYTE      IE
      00000085H   SFRSYM    DATA     BYTE      DPH1
      00000084H   SFRSYM    DATA     BYTE      DPL1
      000000D0H.7 SFRSYM    DATA     BIT       CY
      000000A0H   SFRSYM    DATA     BYTE      P2AX
      00000095H   SFRSYM    DATA     BYTE      DPX1
      00000081H   SFRSYM    DATA     BYTE      SP
      000000D0H.2 SFRSYM    DATA     BIT       OV
      00000080H   SFRSYM    DATA     BYTE      SFRPRT0DR
      00000090H   SFRSYM    DATA     BYTE      SFRPRT1DR
      000000F2H   SFRSYM    DATA     BYTE      SFRPRT12SEL
      00000098H   SFRSYM    DATA     BYTE      SFRPRT2DR
      000000B0H   SFRSYM    DATA     BYTE      SFRPRT3DR
      000000C0H   SFRSYM    DATA     BYTE      SFRPRT4DR
      000000FAH   SFRSYM    DATA     BYTE      SFRPRT15SEL
      000000C8H   SFRSYM    DATA     BYTE      SFRPRT5DR
      000000D8H   SFRSYM    DATA     BYTE      SFRPRT6DR
      00000089H   SFRSYM    DATA     BYTE      SFRPRT0PS
      00000091H   SFRSYM    DATA     BYTE      SFRPRT1PS
      00000099H   SFRSYM    DATA     BYTE      SFRPRT2PS
      000000B1H   SFRSYM    DATA     BYTE      SFRPRT3PS
      000000C1H   SFRSYM    DATA     BYTE      SFRPRT4PS
      000000C9H   SFRSYM    DATA     BYTE      SFRPRT5PS
      000000D9H   SFRSYM    DATA     BYTE      SFRPRT6PS
      000000EAH   SFRSYM    DATA     BYTE      MXAX
      000000F0H   SFRSYM    DATA     BYTE      B
      000000E0H   SFRSYM    DATA     BYTE      ACC
      000000D0H   SFRSYM    DATA     BIT       P
      000000D0H.3 SFRSYM    DATA     BIT       RS0
      000000D0H.4 SFRSYM    DATA     BIT       RS1
      00000083H   SFRSYM    DATA     BYTE      DPH
      000000E8H   SFRSYM    DATA     BYTE      SFRPRT12DR
      00000082H   SFRSYM    DATA     BYTE      DPL
      000000F8H   SFRSYM    DATA     BYTE      SFRPRT15DR
LX51 LINKER/LOCATER V4.64.0.0                                                         01/31/2019  11:47:34  PAGE 80


      00000086H   SFRSYM    DATA     BYTE      DPS
      000000E9H   SFRSYM    DATA     BYTE      SFRPRT12PS
      00000093H   SFRSYM    DATA     BYTE      DPX
      000000F9H   SFRSYM    DATA     BYTE      SFRPRT15PS
      000000D0H.5 SFRSYM    DATA     BIT       F0
      000000D0H.1 SFRSYM    DATA     BIT       F1
      0000008AH   SFRSYM    DATA     BYTE      SFRPRT0SEL
      000000D0H   SFRSYM    DATA     BYTE      PSW
      000000A2H   SFRSYM    DATA     BYTE      SFRPRT1SEL
      0000009AH   SFRSYM    DATA     BYTE      SFRPRT2SEL
      000000B2H   SFRSYM    DATA     BYTE      SFRPRT3SEL
      000000C2H   SFRSYM    DATA     BYTE      SFRPRT4SEL

      01009F97H   BLOCK     CODE     ---       LVL=0
      01009F97H   LINE      CODE     ---       #37
      01009F97H   LINE      CODE     ---       #38
      01009F97H   LINE      CODE     ---       #39
      01009F9CH   LINE      CODE     ---       #40
      ---         BLOCKEND  ---      ---       LVL=0
      00000007H   SYMBOL    DATA     BYTE      interruptState
      00000007H   SYMBOL    DATA     BYTE      interruptState
      00000007H   SYMBOL    DATA     BYTE      mask

      ---         MODULE    ---      ---       MY_TIMER
      0200164DH   PUBLIC    XDATA    BYTE      MY_TIMER_initVar
      01009E87H   PUBLIC    CODE     ---       MY_TIMER_ClearFIFO
      01009DF6H   PUBLIC    CODE     ---       MY_TIMER_ReadCounter
      01009F1EH   PUBLIC    CODE     ---       _MY_TIMER_WriteCounter
      01009F14H   PUBLIC    CODE     ---       MY_TIMER_ReadCapture
      01009F0AH   PUBLIC    CODE     ---       _MY_TIMER_WritePeriod
      01009FA3H   PUBLIC    CODE     ---       MY_TIMER_ReadStatusRegister
      01009F9DH   PUBLIC    CODE     ---       _MY_TIMER_SetInterruptMode
      01009D77H   PUBLIC    CODE     ---       MY_TIMER_Start
      01009F44H   PUBLIC    CODE     ---       MY_TIMER_Enable
      01009A51H   PUBLIC    CODE     ---       MY_TIMER_Init
      000000CAH   SFRSYM    DATA     BYTE      SFRPRT5SEL
      000000DAH   SFRSYM    DATA     BYTE      SFRPRT6SEL
      000000D0H.6 SFRSYM    DATA     BIT       AC
      000000A8H.7 SFRSYM    DATA     BIT       EA
      000000A8H   SFRSYM    DATA     BYTE      IE
      00000085H   SFRSYM    DATA     BYTE      DPH1
      00000084H   SFRSYM    DATA     BYTE      DPL1
      000000D0H.7 SFRSYM    DATA     BIT       CY
      000000A0H   SFRSYM    DATA     BYTE      P2AX
      00000095H   SFRSYM    DATA     BYTE      DPX1
      00000081H   SFRSYM    DATA     BYTE      SP
      000000D0H.2 SFRSYM    DATA     BIT       OV
      00000080H   SFRSYM    DATA     BYTE      SFRPRT0DR
      00000090H   SFRSYM    DATA     BYTE      SFRPRT1DR
      000000F2H   SFRSYM    DATA     BYTE      SFRPRT12SEL
      00000098H   SFRSYM    DATA     BYTE      SFRPRT2DR
      000000B0H   SFRSYM    DATA     BYTE      SFRPRT3DR
      000000C0H   SFRSYM    DATA     BYTE      SFRPRT4DR
      000000FAH   SFRSYM    DATA     BYTE      SFRPRT15SEL
      000000C8H   SFRSYM    DATA     BYTE      SFRPRT5DR
      000000D8H   SFRSYM    DATA     BYTE      SFRPRT6DR
      00000089H   SFRSYM    DATA     BYTE      SFRPRT0PS
      00000091H   SFRSYM    DATA     BYTE      SFRPRT1PS
      00000099H   SFRSYM    DATA     BYTE      SFRPRT2PS
      000000B1H   SFRSYM    DATA     BYTE      SFRPRT3PS
      000000C1H   SFRSYM    DATA     BYTE      SFRPRT4PS
      000000C9H   SFRSYM    DATA     BYTE      SFRPRT5PS
      000000D9H   SFRSYM    DATA     BYTE      SFRPRT6PS
      000000EAH   SFRSYM    DATA     BYTE      MXAX
      000000F0H   SFRSYM    DATA     BYTE      B
LX51 LINKER/LOCATER V4.64.0.0                                                         01/31/2019  11:47:34  PAGE 81


      000000E0H   SFRSYM    DATA     BYTE      ACC
      000000D0H   SFRSYM    DATA     BIT       P
      000000D0H.3 SFRSYM    DATA     BIT       RS0
      000000D0H.4 SFRSYM    DATA     BIT       RS1
      00000083H   SFRSYM    DATA     BYTE      DPH
      000000E8H   SFRSYM    DATA     BYTE      SFRPRT12DR
      00000082H   SFRSYM    DATA     BYTE      DPL
      000000F8H   SFRSYM    DATA     BYTE      SFRPRT15DR
      00000086H   SFRSYM    DATA     BYTE      DPS
      000000E9H   SFRSYM    DATA     BYTE      SFRPRT12PS
      00000093H   SFRSYM    DATA     BYTE      DPX
      000000F9H   SFRSYM    DATA     BYTE      SFRPRT15PS
      000000D0H.5 SFRSYM    DATA     BIT       F0
      000000D0H.1 SFRSYM    DATA     BIT       F1
      0000008AH   SFRSYM    DATA     BYTE      SFRPRT0SEL
      000000D0H   SFRSYM    DATA     BYTE      PSW
      000000A2H   SFRSYM    DATA     BYTE      SFRPRT1SEL
      0000009AH   SFRSYM    DATA     BYTE      SFRPRT2SEL
      000000B2H   SFRSYM    DATA     BYTE      SFRPRT3SEL
      000000C2H   SFRSYM    DATA     BYTE      SFRPRT4SEL

      01009A51H   BLOCK     CODE     ---       LVL=0
      01009A51H   BLOCK     CODE     NEAR LAB  LVL=1
      00000007H   SYMBOL    DATA     BYTE      MY_TIMER_interruptState
      ---         BLOCKEND  ---      ---       LVL=1
      01009A51H   LINE      CODE     ---       #43
      01009A51H   LINE      CODE     ---       #44
      01009A51H   LINE      CODE     ---       #118
      01009A5CH   LINE      CODE     ---       #119
      01009A67H   LINE      CODE     ---       #142
      01009A6AH   LINE      CODE     ---       #145
      01009A71H   LINE      CODE     ---       #148
      01009A74H   LINE      CODE     ---       #159
      01009A77H   LINE      CODE     ---       #162
      01009A7CH   LINE      CODE     ---       #163
      ---         BLOCKEND  ---      ---       LVL=0

      01009F44H   BLOCK     CODE     ---       LVL=0
      01009F44H   LINE      CODE     ---       #180
      01009F44H   LINE      CODE     ---       #181
      01009F44H   LINE      CODE     ---       #190
      01009F4BH   LINE      CODE     ---       #192
      ---         BLOCKEND  ---      ---       LVL=0

      01009D77H   BLOCK     CODE     ---       LVL=0
      01009D77H   LINE      CODE     ---       #215
      01009D77H   LINE      CODE     ---       #216
      01009D77H   LINE      CODE     ---       #217
      01009D7DH   LINE      CODE     ---       #218
      01009D7DH   LINE      CODE     ---       #219
      01009D80H   LINE      CODE     ---       #221
      01009D86H   LINE      CODE     ---       #222
      01009D86H   LINE      CODE     ---       #225
      01009D89H   LINE      CODE     ---       #226
      ---         BLOCKEND  ---      ---       LVL=0

      01009F9DH   BLOCK     CODE     ---       LVL=0
      00000007H   SYMBOL    DATA     BYTE      interruptMode
      01009F9DH   LINE      CODE     ---       #279
      01009F9DH   LINE      CODE     ---       #280
      01009F9DH   LINE      CODE     ---       #281
      01009FA2H   LINE      CODE     ---       #282
      ---         BLOCKEND  ---      ---       LVL=0

      01009FA3H   BLOCK     CODE     ---       LVL=0
LX51 LINKER/LOCATER V4.64.0.0                                                         01/31/2019  11:47:34  PAGE 82


      01009FA3H   LINE      CODE     ---       #333
      01009FA3H   LINE      CODE     ---       #334
      01009FA3H   LINE      CODE     ---       #335
      01009FA8H   LINE      CODE     ---       #336
      ---         BLOCKEND  ---      ---       LVL=0
      00000007H   SYMBOL    DATA     BYTE      control

      01009F0AH   BLOCK     CODE     ---       LVL=0
      00000004H   SYMBOL    DATA     DWORD     period
      01009F0AH   LINE      CODE     ---       #431
      01009F0AH   LINE      CODE     ---       #432
      01009F0AH   LINE      CODE     ---       #437
      01009F13H   LINE      CODE     ---       #439
      ---         BLOCKEND  ---      ---       LVL=0

      01009F14H   BLOCK     CODE     ---       LVL=0
      01009F14H   LINE      CODE     ---       #456
      01009F14H   LINE      CODE     ---       #457
      01009F14H   LINE      CODE     ---       #461
      01009F1DH   LINE      CODE     ---       #463
      ---         BLOCKEND  ---      ---       LVL=0

      01009F1EH   BLOCK     CODE     ---       LVL=0
      00000004H   SYMBOL    DATA     DWORD     counter
      01009F1EH   LINE      CODE     ---       #480
      01009F1EH   LINE      CODE     ---       #481
      01009F1EH   LINE      CODE     ---       #489
      01009F27H   LINE      CODE     ---       #491
      ---         BLOCKEND  ---      ---       LVL=0

      01009DF6H   BLOCK     CODE     ---       LVL=0
      01009DF6H   LINE      CODE     ---       #508
      01009DF6H   LINE      CODE     ---       #509
      01009DF6H   LINE      CODE     ---       #516
      01009DFBH   LINE      CODE     ---       #523
      01009E04H   LINE      CODE     ---       #525
      ---         BLOCKEND  ---      ---       LVL=0

      01009E87H   BLOCK     CODE     ---       LVL=0
      01009E87H   LINE      CODE     ---       #763
      01009E87H   LINE      CODE     ---       #764
      01009E87H   LINE      CODE     ---       #765
      01009E8EH   LINE      CODE     ---       #766
      01009E8EH   LINE      CODE     ---       #767
      01009E91H   LINE      CODE     ---       #768
      01009E93H   LINE      CODE     ---       #769
      ---         BLOCKEND  ---      ---       LVL=0

      ---         MODULE    ---      ---       ADC_STATUS
      01009FA9H   PUBLIC    CODE     ---       ADC_STATUS_Read
      000000CAH   SFRSYM    DATA     BYTE      SFRPRT5SEL
      000000DAH   SFRSYM    DATA     BYTE      SFRPRT6SEL
      000000D0H.6 SFRSYM    DATA     BIT       AC
      000000A8H.7 SFRSYM    DATA     BIT       EA
      000000A8H   SFRSYM    DATA     BYTE      IE
      00000085H   SFRSYM    DATA     BYTE      DPH1
      00000084H   SFRSYM    DATA     BYTE      DPL1
      000000D0H.7 SFRSYM    DATA     BIT       CY
      000000A0H   SFRSYM    DATA     BYTE      P2AX
      00000095H   SFRSYM    DATA     BYTE      DPX1
      00000081H   SFRSYM    DATA     BYTE      SP
      000000D0H.2 SFRSYM    DATA     BIT       OV
      00000080H   SFRSYM    DATA     BYTE      SFRPRT0DR
      00000090H   SFRSYM    DATA     BYTE      SFRPRT1DR
      000000F2H   SFRSYM    DATA     BYTE      SFRPRT12SEL
LX51 LINKER/LOCATER V4.64.0.0                                                         01/31/2019  11:47:34  PAGE 83


      00000098H   SFRSYM    DATA     BYTE      SFRPRT2DR
      000000B0H   SFRSYM    DATA     BYTE      SFRPRT3DR
      000000C0H   SFRSYM    DATA     BYTE      SFRPRT4DR
      000000FAH   SFRSYM    DATA     BYTE      SFRPRT15SEL
      000000C8H   SFRSYM    DATA     BYTE      SFRPRT5DR
      000000D8H   SFRSYM    DATA     BYTE      SFRPRT6DR
      00000089H   SFRSYM    DATA     BYTE      SFRPRT0PS
      00000091H   SFRSYM    DATA     BYTE      SFRPRT1PS
      00000099H   SFRSYM    DATA     BYTE      SFRPRT2PS
      000000B1H   SFRSYM    DATA     BYTE      SFRPRT3PS
      000000C1H   SFRSYM    DATA     BYTE      SFRPRT4PS
      000000C9H   SFRSYM    DATA     BYTE      SFRPRT5PS
      000000D9H   SFRSYM    DATA     BYTE      SFRPRT6PS
      000000EAH   SFRSYM    DATA     BYTE      MXAX
      000000F0H   SFRSYM    DATA     BYTE      B
      000000E0H   SFRSYM    DATA     BYTE      ACC
      000000D0H   SFRSYM    DATA     BIT       P
      000000D0H.3 SFRSYM    DATA     BIT       RS0
      000000D0H.4 SFRSYM    DATA     BIT       RS1
      00000083H   SFRSYM    DATA     BYTE      DPH
      000000E8H   SFRSYM    DATA     BYTE      SFRPRT12DR
      00000082H   SFRSYM    DATA     BYTE      DPL
      000000F8H   SFRSYM    DATA     BYTE      SFRPRT15DR
      00000086H   SFRSYM    DATA     BYTE      DPS
      000000E9H   SFRSYM    DATA     BYTE      SFRPRT12PS
      00000093H   SFRSYM    DATA     BYTE      DPX
      000000F9H   SFRSYM    DATA     BYTE      SFRPRT15PS
      000000D0H.5 SFRSYM    DATA     BIT       F0
      000000D0H.1 SFRSYM    DATA     BIT       F1
      0000008AH   SFRSYM    DATA     BYTE      SFRPRT0SEL
      000000D0H   SFRSYM    DATA     BYTE      PSW
      000000A2H   SFRSYM    DATA     BYTE      SFRPRT1SEL
      0000009AH   SFRSYM    DATA     BYTE      SFRPRT2SEL
      000000B2H   SFRSYM    DATA     BYTE      SFRPRT3SEL
      000000C2H   SFRSYM    DATA     BYTE      SFRPRT4SEL

      01009FA9H   BLOCK     CODE     ---       LVL=0
      01009FA9H   LINE      CODE     ---       #37
      01009FA9H   LINE      CODE     ---       #38
      01009FA9H   LINE      CODE     ---       #39
      01009FAEH   LINE      CODE     ---       #40
      ---         BLOCKEND  ---      ---       LVL=0
      00000007H   SYMBOL    DATA     BYTE      interruptState
      00000007H   SYMBOL    DATA     BYTE      interruptState
      00000007H   SYMBOL    DATA     BYTE      mask

      ---         MODULE    ---      ---       DMA_DMA
      0200164EH   PUBLIC    XDATA    BYTE      DMA_DmaHandle
      02000002H   PUBLIC    XDATA    BYTE      ?_DMA_DmaInitialize?BYTE
      010094AAH   PUBLIC    CODE     ---       _DMA_DmaInitialize
      000000CAH   SFRSYM    DATA     BYTE      SFRPRT5SEL
      000000DAH   SFRSYM    DATA     BYTE      SFRPRT6SEL
      000000D0H.6 SFRSYM    DATA     BIT       AC
      000000A8H.7 SFRSYM    DATA     BIT       EA
      000000A8H   SFRSYM    DATA     BYTE      IE
      00000085H   SFRSYM    DATA     BYTE      DPH1
      00000084H   SFRSYM    DATA     BYTE      DPL1
      000000D0H.7 SFRSYM    DATA     BIT       CY
      000000A0H   SFRSYM    DATA     BYTE      P2AX
      00000095H   SFRSYM    DATA     BYTE      DPX1
      00000081H   SFRSYM    DATA     BYTE      SP
      000000D0H.2 SFRSYM    DATA     BIT       OV
      00000080H   SFRSYM    DATA     BYTE      SFRPRT0DR
      00000090H   SFRSYM    DATA     BYTE      SFRPRT1DR
      000000F2H   SFRSYM    DATA     BYTE      SFRPRT12SEL
LX51 LINKER/LOCATER V4.64.0.0                                                         01/31/2019  11:47:34  PAGE 84


      00000098H   SFRSYM    DATA     BYTE      SFRPRT2DR
      000000B0H   SFRSYM    DATA     BYTE      SFRPRT3DR
      000000C0H   SFRSYM    DATA     BYTE      SFRPRT4DR
      000000FAH   SFRSYM    DATA     BYTE      SFRPRT15SEL
      000000C8H   SFRSYM    DATA     BYTE      SFRPRT5DR
      000000D8H   SFRSYM    DATA     BYTE      SFRPRT6DR
      00000089H   SFRSYM    DATA     BYTE      SFRPRT0PS
      00000091H   SFRSYM    DATA     BYTE      SFRPRT1PS
      00000099H   SFRSYM    DATA     BYTE      SFRPRT2PS
      000000B1H   SFRSYM    DATA     BYTE      SFRPRT3PS
      000000C1H   SFRSYM    DATA     BYTE      SFRPRT4PS
      000000C9H   SFRSYM    DATA     BYTE      SFRPRT5PS
      000000D9H   SFRSYM    DATA     BYTE      SFRPRT6PS
      000000EAH   SFRSYM    DATA     BYTE      MXAX
      000000F0H   SFRSYM    DATA     BYTE      B
      000000E0H   SFRSYM    DATA     BYTE      ACC
      000000D0H   SFRSYM    DATA     BIT       P
      000000D0H.3 SFRSYM    DATA     BIT       RS0
      000000D0H.4 SFRSYM    DATA     BIT       RS1
      00000083H   SFRSYM    DATA     BYTE      DPH
      000000E8H   SFRSYM    DATA     BYTE      SFRPRT12DR
      00000082H   SFRSYM    DATA     BYTE      DPL
      000000F8H   SFRSYM    DATA     BYTE      SFRPRT15DR
      00000086H   SFRSYM    DATA     BYTE      DPS
      000000E9H   SFRSYM    DATA     BYTE      SFRPRT12PS
      00000093H   SFRSYM    DATA     BYTE      DPX
      000000F9H   SFRSYM    DATA     BYTE      SFRPRT15PS
      000000D0H.5 SFRSYM    DATA     BIT       F0
      000000D0H.1 SFRSYM    DATA     BIT       F1
      0000008AH   SFRSYM    DATA     BYTE      SFRPRT0SEL
      000000D0H   SFRSYM    DATA     BYTE      PSW
      000000A2H   SFRSYM    DATA     BYTE      SFRPRT1SEL
      0000009AH   SFRSYM    DATA     BYTE      SFRPRT2SEL
      000000B2H   SFRSYM    DATA     BYTE      SFRPRT3SEL
      000000C2H   SFRSYM    DATA     BYTE      SFRPRT4SEL

      010094AAH   BLOCK     CODE     ---       LVL=0
      00000007H   SYMBOL    DATA     BYTE      BurstCount
      00000006H   SYMBOL    DATA     BYTE      ReqestPerBurst
      02000004H   SYMBOL    XDATA    WORD      UpperSrcAddress
      02000006H   SYMBOL    XDATA    WORD      UpperDestAddress
      010094AAH   LINE      CODE     ---       #97
      010094B4H   LINE      CODE     ---       #98
      010094B4H   LINE      CODE     ---       #101
      010094BAH   LINE      CODE     ---       #109
      010094CEH   LINE      CODE     ---       #112
      010094E4H   LINE      CODE     ---       #115
      010094EEH   LINE      CODE     ---       #117
      010094F3H   LINE      CODE     ---       #118
      ---         BLOCKEND  ---      ---       LVL=0

      ---         MODULE    ---      ---       ADC_SOC
      01009FAFH   PUBLIC    CODE     ---       _ADC_SOC_Write

      01009FAFH   BLOCK     CODE     ---       LVL=0
      00000007H   SYMBOL    DATA     BYTE      control
      01009FAFH   LINE      CODE     ---       #37
      01009FAFH   LINE      CODE     ---       #38
      01009FAFH   LINE      CODE     ---       #39
      01009FB4H   LINE      CODE     ---       #40
      ---         BLOCKEND  ---      ---       LVL=0

      ---         MODULE    ---      ---       CYDMAC
      01008FB2H   PUBLIC    CODE     ---       _CyDmaTdSetAddress
      02000002H   PUBLIC    XDATA    BYTE      ?_CyDmaTdSetConfiguration?BYTE
LX51 LINKER/LOCATER V4.64.0.0                                                         01/31/2019  11:47:34  PAGE 85


      01008D35H   PUBLIC    CODE     ---       _CyDmaTdSetConfiguration
      0100964AH   PUBLIC    CODE     ---       CyDmaTdAllocate
      02000008H   PUBLIC    XDATA    BYTE      ?_CyDmaChSetConfiguration?BYTE
      01008EC1H   PUBLIC    CODE     ---       _CyDmaChSetConfiguration
      01009BABH   PUBLIC    CODE     ---       _CyDmaChSetInitialTd
      01008F3AH   PUBLIC    CODE     ---       _CyDmaChSetExtendedAddress
      0100960AH   PUBLIC    CODE     ---       _CyDmaChPriority
      0100945FH   PUBLIC    CODE     ---       _CyDmaChEnable
      01009738H   PUBLIC    CODE     ---       CyDmacConfigure
      000000CAH   SFRSYM    DATA     BYTE      SFRPRT5SEL
      000000DAH   SFRSYM    DATA     BYTE      SFRPRT6SEL
      000000D0H.6 SFRSYM    DATA     BIT       AC
      000000A8H.7 SFRSYM    DATA     BIT       EA
      000000A8H   SFRSYM    DATA     BYTE      IE
      00000085H   SFRSYM    DATA     BYTE      DPH1
      00000084H   SFRSYM    DATA     BYTE      DPL1
      000000D0H.7 SFRSYM    DATA     BIT       CY
      000000A0H   SFRSYM    DATA     BYTE      P2AX
      00000095H   SFRSYM    DATA     BYTE      DPX1
      00000081H   SFRSYM    DATA     BYTE      SP
      000000D0H.2 SFRSYM    DATA     BIT       OV
      00000080H   SFRSYM    DATA     BYTE      SFRPRT0DR
      00000090H   SFRSYM    DATA     BYTE      SFRPRT1DR
      000000F2H   SFRSYM    DATA     BYTE      SFRPRT12SEL
      00000098H   SFRSYM    DATA     BYTE      SFRPRT2DR
      000000B0H   SFRSYM    DATA     BYTE      SFRPRT3DR
      000000C0H   SFRSYM    DATA     BYTE      SFRPRT4DR
      000000FAH   SFRSYM    DATA     BYTE      SFRPRT15SEL
      000000C8H   SFRSYM    DATA     BYTE      SFRPRT5DR
      000000D8H   SFRSYM    DATA     BYTE      SFRPRT6DR
      00000089H   SFRSYM    DATA     BYTE      SFRPRT0PS
      00000091H   SFRSYM    DATA     BYTE      SFRPRT1PS
      00000099H   SFRSYM    DATA     BYTE      SFRPRT2PS
      000000B1H   SFRSYM    DATA     BYTE      SFRPRT3PS
      000000C1H   SFRSYM    DATA     BYTE      SFRPRT4PS
      000000C9H   SFRSYM    DATA     BYTE      SFRPRT5PS
      000000D9H   SFRSYM    DATA     BYTE      SFRPRT6PS
      000000EAH   SFRSYM    DATA     BYTE      MXAX
      000000F0H   SFRSYM    DATA     BYTE      B
      000000E0H   SFRSYM    DATA     BYTE      ACC
      000000D0H   SFRSYM    DATA     BIT       P
      000000D0H.3 SFRSYM    DATA     BIT       RS0
      000000D0H.4 SFRSYM    DATA     BIT       RS1
      00000083H   SFRSYM    DATA     BYTE      DPH
      000000E8H   SFRSYM    DATA     BYTE      SFRPRT12DR
      00000082H   SFRSYM    DATA     BYTE      DPL
      000000F8H   SFRSYM    DATA     BYTE      SFRPRT15DR
      00000086H   SFRSYM    DATA     BYTE      DPS
      000000E9H   SFRSYM    DATA     BYTE      SFRPRT12PS
      00000093H   SFRSYM    DATA     BYTE      DPX
      000000F9H   SFRSYM    DATA     BYTE      SFRPRT15PS
      000000D0H.5 SFRSYM    DATA     BIT       F0
      000000D0H.1 SFRSYM    DATA     BIT       F1
      0000008AH   SFRSYM    DATA     BYTE      SFRPRT0SEL
      000000D0H   SFRSYM    DATA     BYTE      PSW
      000000A2H   SFRSYM    DATA     BYTE      SFRPRT1SEL
      0000009AH   SFRSYM    DATA     BYTE      SFRPRT2SEL
      000000B2H   SFRSYM    DATA     BYTE      SFRPRT3SEL
      000000C2H   SFRSYM    DATA     BYTE      SFRPRT4SEL
      02001639H   SYMBOL    XDATA    DWORD     CyDmaChannels
      0200163DH   SYMBOL    XDATA    BYTE      CyDmaTdFreeIndex
      0200163EH   SYMBOL    XDATA    BYTE      CyDmaTdCurrentNumber

      01009738H   BLOCK     CODE     ---       LVL=0
      01009738H   BLOCK     CODE     NEAR LAB  LVL=1
LX51 LINKER/LOCATER V4.64.0.0                                                         01/31/2019  11:47:34  PAGE 86


      00000007H   SYMBOL    DATA     BYTE      dmaIndex
      ---         BLOCKEND  ---      ---       LVL=1
      01009738H   LINE      CODE     ---       #61
      01009738H   LINE      CODE     ---       #62
      01009738H   LINE      CODE     ---       #66
      0100973EH   LINE      CODE     ---       #67
      01009741H   LINE      CODE     ---       #70
      01009746H   LINE      CODE     ---       #71
      01009746H   LINE      CODE     ---       #72
      01009759H   LINE      CODE     ---       #73
      0100975CH   LINE      CODE     ---       #76
      0100976DH   LINE      CODE     ---       #77
      ---         BLOCKEND  ---      ---       LVL=0
      00000007H   SYMBOL    DATA     BYTE      error

      0100945FH   BLOCK     CODE     ---       LVL=0
      00000007H   SYMBOL    DATA     BYTE      chHandle
      00000005H   SYMBOL    DATA     BYTE      preserveTds
      0100945FH   BLOCK     CODE     NEAR LAB  LVL=1
      00000006H   SYMBOL    DATA     BYTE      status
      ---         BLOCKEND  ---      ---       LVL=1
      0100945FH   LINE      CODE     ---       #304
      0100945FH   LINE      CODE     ---       #305
      0100945FH   LINE      CODE     ---       #306
      01009461H   LINE      CODE     ---       #308
      01009467H   LINE      CODE     ---       #309
      01009467H   LINE      CODE     ---       #310
      0100946AH   LINE      CODE     ---       #311
      0100946AH   LINE      CODE     ---       #315
      0100947DH   LINE      CODE     ---       #316
      0100947FH   LINE      CODE     ---       #318
      0100947FH   LINE      CODE     ---       #320
      01009492H   LINE      CODE     ---       #321
      01009492H   LINE      CODE     ---       #324
      010094A5H   LINE      CODE     ---       #326
      010094A7H   LINE      CODE     ---       #327
      010094A7H   LINE      CODE     ---       #329
      010094A9H   LINE      CODE     ---       #330
      ---         BLOCKEND  ---      ---       LVL=0
      00000007H   SYMBOL    DATA     BYTE      chHandle
      00000006H   SYMBOL    DATA     BYTE      status
      00000007H   SYMBOL    DATA     BYTE      chHandle
      00000006H   SYMBOL    DATA     BYTE      status

      0100960AH   BLOCK     CODE     ---       LVL=0
      00000004H   SYMBOL    DATA     BYTE      chHandle
      00000005H   SYMBOL    DATA     BYTE      priority
      0100960CH   BLOCK     CODE     NEAR LAB  LVL=1
      00000002H   SYMBOL    DATA     BYTE      value
      00000003H   SYMBOL    DATA     BYTE      status
      ---         BLOCKEND  ---      ---       LVL=1
      0100960AH   LINE      CODE     ---       #429
      0100960CH   LINE      CODE     ---       #430
      0100960CH   LINE      CODE     ---       #432
      0100960EH   LINE      CODE     ---       #434
      01009614H   LINE      CODE     ---       #435
      01009614H   LINE      CODE     ---       #436
      01009627H   LINE      CODE     ---       #438
      01009645H   LINE      CODE     ---       #440
      01009647H   LINE      CODE     ---       #441
      01009647H   LINE      CODE     ---       #443
      01009649H   LINE      CODE     ---       #444
      ---         BLOCKEND  ---      ---       LVL=0

      01008F3AH   BLOCK     CODE     ---       LVL=0
LX51 LINKER/LOCATER V4.64.0.0                                                         01/31/2019  11:47:34  PAGE 87


      02000008H   SYMBOL    XDATA    BYTE      chHandle
      02000009H   SYMBOL    XDATA    WORD      source
      0200000BH   SYMBOL    XDATA    WORD      destination
      01008F4DH   BLOCK     CODE     NEAR LAB  LVL=1
      0200000DH   SYMBOL    XDATA    BYTE      status
      0200000EH   SYMBOL    XDATA    ---       convert
      ---         BLOCKEND  ---      ---       LVL=1
      01008F3AH   LINE      CODE     ---       #470
      01008F4DH   LINE      CODE     ---       #472
      01008F4DH   LINE      CODE     ---       #473
      01008F53H   LINE      CODE     ---       #492
      01008F59H   LINE      CODE     ---       #493
      01008F59H   LINE      CODE     ---       #495
      01008F70H   LINE      CODE     ---       #496
      01008F80H   LINE      CODE     ---       #499
      01008F97H   LINE      CODE     ---       #500
      01008FA7H   LINE      CODE     ---       #501
      01008FACH   LINE      CODE     ---       #502
      01008FACH   LINE      CODE     ---       #504
      01008FB1H   LINE      CODE     ---       #505
      ---         BLOCKEND  ---      ---       LVL=0

      01009BABH   BLOCK     CODE     ---       LVL=0
      00000007H   SYMBOL    DATA     BYTE      chHandle
      00000005H   SYMBOL    DATA     BYTE      startTd
      01009BABH   BLOCK     CODE     NEAR LAB  LVL=1
      00000006H   SYMBOL    DATA     BYTE      status
      ---         BLOCKEND  ---      ---       LVL=1
      01009BABH   LINE      CODE     ---       #529
      01009BABH   LINE      CODE     ---       #530
      01009BABH   LINE      CODE     ---       #531
      01009BADH   LINE      CODE     ---       #533
      01009BB3H   LINE      CODE     ---       #534
      01009BB3H   LINE      CODE     ---       #535
      01009BC4H   LINE      CODE     ---       #536
      01009BC6H   LINE      CODE     ---       #537
      01009BC6H   LINE      CODE     ---       #539
      01009BC8H   LINE      CODE     ---       #540
      ---         BLOCKEND  ---      ---       LVL=0
      00000007H   SYMBOL    DATA     BYTE      chHandle
      00000005H   SYMBOL    DATA     BYTE      request
      00000006H   SYMBOL    DATA     BYTE      status
      00000007H   SYMBOL    DATA     BYTE      chHandle
      00000003H   SYMBOL    DATA     BYTE      status
      00000007H   SYMBOL    DATA     BYTE      chHandle
      00000006H   SYMBOL    DATA     BYTE      status

      01008EC1H   BLOCK     CODE     ---       LVL=0
      00000004H   SYMBOL    DATA     BYTE      chHandle
      00000005H   SYMBOL    DATA     BYTE      burstCount
      00000003H   SYMBOL    DATA     BYTE      requestPerBurst
      0200000BH   SYMBOL    XDATA    BYTE      tdDone0
      0200000CH   SYMBOL    XDATA    BYTE      tdDone1
      0200000DH   SYMBOL    XDATA    BYTE      tdStop
      01008EC3H   BLOCK     CODE     NEAR LAB  LVL=1
      00000002H   SYMBOL    DATA     BYTE      status
      ---         BLOCKEND  ---      ---       LVL=1
      01008EC1H   LINE      CODE     ---       #716
      01008EC3H   LINE      CODE     ---       #718
      01008EC3H   LINE      CODE     ---       #719
      01008EC5H   LINE      CODE     ---       #721
      01008ECBH   LINE      CODE     ---       #722
      01008ECBH   LINE      CODE     ---       #723
      01008EE9H   LINE      CODE     ---       #724
      01008F0DH   LINE      CODE     ---       #725
LX51 LINKER/LOCATER V4.64.0.0                                                         01/31/2019  11:47:34  PAGE 88


      01008F25H   LINE      CODE     ---       #726
      01008F36H   LINE      CODE     ---       #728
      01008F37H   LINE      CODE     ---       #729
      01008F37H   LINE      CODE     ---       #731
      01008F39H   LINE      CODE     ---       #732
      ---         BLOCKEND  ---      ---       LVL=0

      0100964AH   BLOCK     CODE     ---       LVL=0
      0100964AH   BLOCK     CODE     NEAR LAB  LVL=1
      00000007H   SYMBOL    DATA     BYTE      interruptState
      02000002H   SYMBOL    XDATA    BYTE      element
      ---         BLOCKEND  ---      ---       LVL=1
      0100964AH   LINE      CODE     ---       #752
      0100964AH   LINE      CODE     ---       #753
      0100964AH   LINE      CODE     ---       #755
      01009650H   LINE      CODE     ---       #758
      01009653H   LINE      CODE     ---       #760
      0100965CH   LINE      CODE     ---       #761
      0100965CH   LINE      CODE     ---       #763
      01009665H   LINE      CODE     ---       #766
      0100966BH   LINE      CODE     ---       #769
      0100967FH   LINE      CODE     ---       #770
      0100967FH   LINE      CODE     ---       #773
      01009682H   LINE      CODE     ---       #775
      01009687H   LINE      CODE     ---       #776
      ---         BLOCKEND  ---      ---       LVL=0

      01008D35H   BLOCK     CODE     ---       LVL=0
      02000002H   SYMBOL    XDATA    BYTE      tdHandle
      02000003H   SYMBOL    XDATA    WORD      transferCount
      02000005H   SYMBOL    XDATA    BYTE      nextTd
      02000006H   SYMBOL    XDATA    BYTE      configuration
      01008D45H   BLOCK     CODE     NEAR LAB  LVL=1
      02000007H   SYMBOL    XDATA    BYTE      status
      01008D5AH   BLOCK     CODE     NEAR LAB  LVL=2
      02000008H   SYMBOL    XDATA    ---       convert
      ---         BLOCKEND  ---      ---       LVL=2
      ---         BLOCKEND  ---      ---       LVL=1
      01008D35H   LINE      CODE     ---       #891
      01008D45H   LINE      CODE     ---       #893
      01008D45H   LINE      CODE     ---       #894
      01008D4BH   LINE      CODE     ---       #896
      01008D5AH   LINE      CODE     ---       #897
      01008D5AH   LINE      CODE     ---       #899
      01008D71H   LINE      CODE     ---       #900
      01008D81H   LINE      CODE     ---       #903
      01008D9BH   LINE      CODE     ---       #906
      01008DB1H   LINE      CODE     ---       #908
      01008DB6H   LINE      CODE     ---       #909
      01008DB6H   LINE      CODE     ---       #911
      01008DBBH   LINE      CODE     ---       #912
      ---         BLOCKEND  ---      ---       LVL=0

      01008FB2H   BLOCK     CODE     ---       LVL=0
      02000002H   SYMBOL    XDATA    BYTE      tdHandle
      02000003H   SYMBOL    XDATA    WORD      source
      02000005H   SYMBOL    XDATA    WORD      destination
      01008FC5H   BLOCK     CODE     NEAR LAB  LVL=1
      02000007H   SYMBOL    XDATA    BYTE      status
      02000008H   SYMBOL    XDATA    ---       convert
      ---         BLOCKEND  ---      ---       LVL=1
      01008FB2H   LINE      CODE     ---       #1010
      01008FC5H   LINE      CODE     ---       #1011
      01008FC5H   LINE      CODE     ---       #1012
      01008FCBH   LINE      CODE     ---       #1015
LX51 LINKER/LOCATER V4.64.0.0                                                         01/31/2019  11:47:34  PAGE 89


      01008FD1H   LINE      CODE     ---       #1016
      01008FD1H   LINE      CODE     ---       #1018
      01008FE8H   LINE      CODE     ---       #1019
      01008FF8H   LINE      CODE     ---       #1022
      0100900FH   LINE      CODE     ---       #1023
      0100901FH   LINE      CODE     ---       #1025
      01009024H   LINE      CODE     ---       #1026
      01009024H   LINE      CODE     ---       #1028
      01009029H   LINE      CODE     ---       #1029
      ---         BLOCKEND  ---      ---       LVL=0
      00000007H   SYMBOL    DATA     BYTE      chHandle
      00000005H   SYMBOL    DATA     BYTE      enableRR
      00000006H   SYMBOL    DATA     BYTE      status

      ---         MODULE    ---      ---       CYFLASH
      02001642H   PUBLIC    XDATA    ---       dieTemperature
      01009904H   PUBLIC    CODE     ---       CyEEPROM_Start
      01009C63H   PUBLIC    CODE     ---       CySetTemp
      000000CAH   SFRSYM    DATA     BYTE      SFRPRT5SEL
      000000DAH   SFRSYM    DATA     BYTE      SFRPRT6SEL
      000000D0H.6 SFRSYM    DATA     BIT       AC
      000000A8H.7 SFRSYM    DATA     BIT       EA
      000000A8H   SFRSYM    DATA     BYTE      IE
      00000085H   SFRSYM    DATA     BYTE      DPH1
      00000084H   SFRSYM    DATA     BYTE      DPL1
      000000D0H.7 SFRSYM    DATA     BIT       CY
      000000A0H   SFRSYM    DATA     BYTE      P2AX
      00000095H   SFRSYM    DATA     BYTE      DPX1
      00000081H   SFRSYM    DATA     BYTE      SP
      000000D0H.2 SFRSYM    DATA     BIT       OV
      00000080H   SFRSYM    DATA     BYTE      SFRPRT0DR
      00000090H   SFRSYM    DATA     BYTE      SFRPRT1DR
      000000F2H   SFRSYM    DATA     BYTE      SFRPRT12SEL
      00000098H   SFRSYM    DATA     BYTE      SFRPRT2DR
      000000B0H   SFRSYM    DATA     BYTE      SFRPRT3DR
      000000C0H   SFRSYM    DATA     BYTE      SFRPRT4DR
      000000FAH   SFRSYM    DATA     BYTE      SFRPRT15SEL
      000000C8H   SFRSYM    DATA     BYTE      SFRPRT5DR
      000000D8H   SFRSYM    DATA     BYTE      SFRPRT6DR
      00000089H   SFRSYM    DATA     BYTE      SFRPRT0PS
      00000091H   SFRSYM    DATA     BYTE      SFRPRT1PS
      00000099H   SFRSYM    DATA     BYTE      SFRPRT2PS
      000000B1H   SFRSYM    DATA     BYTE      SFRPRT3PS
      000000C1H   SFRSYM    DATA     BYTE      SFRPRT4PS
      000000C9H   SFRSYM    DATA     BYTE      SFRPRT5PS
      000000D9H   SFRSYM    DATA     BYTE      SFRPRT6PS
      000000EAH   SFRSYM    DATA     BYTE      MXAX
      000000F0H   SFRSYM    DATA     BYTE      B
      000000E0H   SFRSYM    DATA     BYTE      ACC
      000000D0H   SFRSYM    DATA     BIT       P
      000000D0H.3 SFRSYM    DATA     BIT       RS0
      000000D0H.4 SFRSYM    DATA     BIT       RS1
      00000083H   SFRSYM    DATA     BYTE      DPH
      000000E8H   SFRSYM    DATA     BYTE      SFRPRT12DR
      00000082H   SFRSYM    DATA     BYTE      DPL
      000000F8H   SFRSYM    DATA     BYTE      SFRPRT15DR
      00000086H   SFRSYM    DATA     BYTE      DPS
      000000E9H   SFRSYM    DATA     BYTE      SFRPRT12PS
      00000093H   SFRSYM    DATA     BYTE      DPX
      000000F9H   SFRSYM    DATA     BYTE      SFRPRT15PS
      000000D0H.5 SFRSYM    DATA     BIT       F0
      000000D0H.1 SFRSYM    DATA     BIT       F1
      0000008AH   SFRSYM    DATA     BYTE      SFRPRT0SEL
      000000D0H   SFRSYM    DATA     BYTE      PSW
      000000A2H   SFRSYM    DATA     BYTE      SFRPRT1SEL
LX51 LINKER/LOCATER V4.64.0.0                                                         01/31/2019  11:47:34  PAGE 90


      0000009AH   SFRSYM    DATA     BYTE      SFRPRT2SEL
      000000B2H   SFRSYM    DATA     BYTE      SFRPRT3SEL
      000000C2H   SFRSYM    DATA     BYTE      SFRPRT4SEL
      01009373H   SYMBOL    CODE     ---       CyFlashGetSpcAlgorithm
      01009221H   SYMBOL    CODE     ---       CySetTempInt
      0200163FH   SYMBOL    XDATA    ---       rowBuffer
      00000007H   SYMBOL    DATA     BYTE      interruptState
      00000007H   SYMBOL    DATA     BYTE      interruptState

      01009221H   BLOCK     CODE     ---       LVL=0
      01009221H   BLOCK     CODE     NEAR LAB  LVL=1
      0200000AH   SYMBOL    XDATA    BYTE      status
      ---         BLOCKEND  ---      ---       LVL=1
      01009221H   LINE      CODE     ---       #155
      01009221H   LINE      CODE     ---       #156
      01009221H   LINE      CODE     ---       #160
      01009224H   LINE      CODE     ---       #163
      0100922AH   LINE      CODE     ---       #165
      01009230H   LINE      CODE     ---       #166
      01009230H   LINE      CODE     ---       #168
      0100923AH   LINE      CODE     ---       #169
      0100923AH   LINE      CODE     ---       #171
      0100923AH   LINE      CODE     ---       #172
      01009249H   LINE      CODE     ---       #173
      01009249H   LINE      CODE     ---       #174
      0100924EH   LINE      CODE     ---       #176
      01009256H   LINE      CODE     ---       #177
      01009256H   LINE      CODE     ---       #179
      0100925CH   LINE      CODE     ---       #180
      0100925EH   LINE      CODE     ---       #181
      0100925EH   LINE      CODE     ---       #182
      0100925EH   LINE      CODE     ---       #184
      01009266H   LINE      CODE     ---       #185
      01009266H   LINE      CODE     ---       #187
      01009269H   LINE      CODE     ---       #188
      0100926BH   LINE      CODE     ---       #190
      0100926BH   LINE      CODE     ---       #191
      01009271H   LINE      CODE     ---       #192
      01009271H   LINE      CODE     ---       #194
      01009276H   LINE      CODE     ---       #195
      ---         BLOCKEND  ---      ---       LVL=0

      01009373H   BLOCK     CODE     ---       LVL=0
      01009373H   BLOCK     CODE     NEAR LAB  LVL=1
      0200000AH   SYMBOL    XDATA    BYTE      status
      ---         BLOCKEND  ---      ---       LVL=1
      01009373H   LINE      CODE     ---       #215
      01009373H   LINE      CODE     ---       #216
      01009373H   LINE      CODE     ---       #220
      01009376H   LINE      CODE     ---       #222
      0100937CH   LINE      CODE     ---       #223
      0100937CH   LINE      CODE     ---       #224
      01009384H   LINE      CODE     ---       #226
      01009388H   LINE      CODE     ---       #227
      01009388H   LINE      CODE     ---       #228
      01009390H   LINE      CODE     ---       #229
      01009390H   LINE      CODE     ---       #231
      01009396H   LINE      CODE     ---       #232
      01009398H   LINE      CODE     ---       #234
      010093AEH   LINE      CODE     ---       #235
      010093AEH   LINE      CODE     ---       #236
      010093B2H   LINE      CODE     ---       #237
      010093B2H   LINE      CODE     ---       #238
      010093B2H   LINE      CODE     ---       #239
      010093B5H   LINE      CODE     ---       #240
LX51 LINKER/LOCATER V4.64.0.0                                                         01/31/2019  11:47:34  PAGE 91


      010093B7H   LINE      CODE     ---       #242
      010093B7H   LINE      CODE     ---       #243
      010093BDH   LINE      CODE     ---       #244
      010093BDH   LINE      CODE     ---       #246
      010093C2H   LINE      CODE     ---       #247
      ---         BLOCKEND  ---      ---       LVL=0

      01009C63H   BLOCK     CODE     ---       LVL=0
      01009C63H   BLOCK     CODE     NEAR LAB  LVL=1
      02000009H   SYMBOL    XDATA    BYTE      status
      ---         BLOCKEND  ---      ---       LVL=1
      01009C63H   LINE      CODE     ---       #273
      01009C63H   LINE      CODE     ---       #274
      01009C63H   LINE      CODE     ---       #275
      01009C6BH   LINE      CODE     ---       #277
      01009C6DH   LINE      CODE     ---       #278
      01009C6DH   LINE      CODE     ---       #279
      01009C75H   LINE      CODE     ---       #280
      01009C75H   LINE      CODE     ---       #282
      01009C7AH   LINE      CODE     ---       #283
      ---         BLOCKEND  ---      ---       LVL=0
      00000004H   SYMBOL    DATA     WORD      rowAddress
      00000001H   SYMBOL    DATA     ---       rowData
      00000007H   SYMBOL    DATA     BYTE      status
      00000007H   SYMBOL    DATA     BYTE      interruptState

      01009904H   BLOCK     CODE     ---       LVL=0
      01009904H   BLOCK     CODE     NEAR LAB  LVL=1
      00000007H   SYMBOL    DATA     BYTE      interruptState
      ---         BLOCKEND  ---      ---       LVL=1
      01009904H   LINE      CODE     ---       #636
      01009904H   LINE      CODE     ---       #637
      01009904H   LINE      CODE     ---       #640
      01009907H   LINE      CODE     ---       #647
      0100990EH   LINE      CODE     ---       #648
      01009915H   LINE      CODE     ---       #661
      0100991BH   LINE      CODE     ---       #668
      01009922H   LINE      CODE     ---       #669
      01009929H   LINE      CODE     ---       #671
      01009931H   LINE      CODE     ---       #672
      01009931H   LINE      CODE     ---       #674
      01009931H   LINE      CODE     ---       #676
      01009934H   LINE      CODE     ---       #677
      ---         BLOCKEND  ---      ---       LVL=0
      00000007H   SYMBOL    DATA     BYTE      interruptState

      ---         MODULE    ---      ---       CYLIB
      02001635H   PUBLIC    XDATA    DWORD     cydelay_32k_ms
      02001634H   PUBLIC    XDATA    BYTE      CyResetStatus
      02001630H   PUBLIC    XDATA    DWORD     cydelay_freq_hz
      0200162FH   PUBLIC    XDATA    BYTE      cydelay_freq_mhz
      0200162BH   PUBLIC    XDATA    DWORD     cydelay_freq_khz
      01009C18H   PUBLIC    CODE     ---       _CyIntSetPriority
      010092CBH   PUBLIC    CODE     ---       _CyIntSetVector
      01008CADH   PUBLIC    CODE     ---       _?CyDelay
      01009F4CH   PUBLIC    CODE     ---       CySoftwareReset
      000000CAH   SFRSYM    DATA     BYTE      SFRPRT5SEL
      000000DAH   SFRSYM    DATA     BYTE      SFRPRT6SEL
      000000D0H.6 SFRSYM    DATA     BIT       AC
      000000A8H.7 SFRSYM    DATA     BIT       EA
      000000A8H   SFRSYM    DATA     BYTE      IE
      00000085H   SFRSYM    DATA     BYTE      DPH1
      00000084H   SFRSYM    DATA     BYTE      DPL1
      000000D0H.7 SFRSYM    DATA     BIT       CY
      000000A0H   SFRSYM    DATA     BYTE      P2AX
LX51 LINKER/LOCATER V4.64.0.0                                                         01/31/2019  11:47:34  PAGE 92


      00000095H   SFRSYM    DATA     BYTE      DPX1
      00000081H   SFRSYM    DATA     BYTE      SP
      000000D0H.2 SFRSYM    DATA     BIT       OV
      00000080H   SFRSYM    DATA     BYTE      SFRPRT0DR
      00000090H   SFRSYM    DATA     BYTE      SFRPRT1DR
      000000F2H   SFRSYM    DATA     BYTE      SFRPRT12SEL
      00000098H   SFRSYM    DATA     BYTE      SFRPRT2DR
      000000B0H   SFRSYM    DATA     BYTE      SFRPRT3DR
      000000C0H   SFRSYM    DATA     BYTE      SFRPRT4DR
      000000FAH   SFRSYM    DATA     BYTE      SFRPRT15SEL
      000000C8H   SFRSYM    DATA     BYTE      SFRPRT5DR
      000000D8H   SFRSYM    DATA     BYTE      SFRPRT6DR
      00000089H   SFRSYM    DATA     BYTE      SFRPRT0PS
      00000091H   SFRSYM    DATA     BYTE      SFRPRT1PS
      00000099H   SFRSYM    DATA     BYTE      SFRPRT2PS
      000000B1H   SFRSYM    DATA     BYTE      SFRPRT3PS
      000000C1H   SFRSYM    DATA     BYTE      SFRPRT4PS
      000000C9H   SFRSYM    DATA     BYTE      SFRPRT5PS
      000000D9H   SFRSYM    DATA     BYTE      SFRPRT6PS
      000000EAH   SFRSYM    DATA     BYTE      MXAX
      000000F0H   SFRSYM    DATA     BYTE      B
      000000E0H   SFRSYM    DATA     BYTE      ACC
      000000D0H   SFRSYM    DATA     BIT       P
      000000D0H.3 SFRSYM    DATA     BIT       RS0
      000000D0H.4 SFRSYM    DATA     BIT       RS1
      00000083H   SFRSYM    DATA     BYTE      DPH
      000000E8H   SFRSYM    DATA     BYTE      SFRPRT12DR
      00000082H   SFRSYM    DATA     BYTE      DPL
      000000F8H   SFRSYM    DATA     BYTE      SFRPRT15DR
      00000086H   SFRSYM    DATA     BYTE      DPS
      000000E9H   SFRSYM    DATA     BYTE      SFRPRT12PS
      00000093H   SFRSYM    DATA     BYTE      DPX
      000000F9H   SFRSYM    DATA     BYTE      SFRPRT15PS
      000000D0H.5 SFRSYM    DATA     BIT       F0
      000000D0H.1 SFRSYM    DATA     BIT       F1
      0000008AH   SFRSYM    DATA     BYTE      SFRPRT0SEL
      000000D0H   SFRSYM    DATA     BYTE      PSW
      000000A2H   SFRSYM    DATA     BYTE      SFRPRT1SEL
      0000009AH   SFRSYM    DATA     BYTE      SFRPRT2SEL
      000000B2H   SFRSYM    DATA     BYTE      SFRPRT3SEL
      000000C2H   SFRSYM    DATA     BYTE      SFRPRT4SEL
      00000007H   SYMBOL    DATA     BYTE      wait
      00000007H   SYMBOL    DATA     BYTE      pDiv
      00000005H   SYMBOL    DATA     BYTE      qDiv
      00000003H   SYMBOL    DATA     BYTE      current
      00000007H   SYMBOL    DATA     BYTE      source
      00000007H   SYMBOL    DATA     BYTE      wait
      00000007H   SYMBOL    DATA     BYTE      poweredOn
      00000006H   SYMBOL    DATA     BYTE      freq
      00000007H   SYMBOL    DATA     BYTE      source
      00000007H   SYMBOL    DATA     BYTE      source
      00000007H   SYMBOL    DATA     BYTE      divider
      00000006H   SYMBOL    DATA     WORD      divider
      00000005H   SYMBOL    DATA     BYTE      masterClkDiv
      00000006H   SYMBOL    DATA     WORD      busClkDiv
      00000001H   SYMBOL    DATA     BYTE      interruptState
      00000007H   SYMBOL    DATA     BYTE      divider
      00000007H   SYMBOL    DATA     BYTE      source
      00000007H   SYMBOL    DATA     BYTE      source
      00000007H   SYMBOL    DATA     BYTE      mode
      00000006H   SYMBOL    DATA     BYTE      state
      00000007H   SYMBOL    DATA     BYTE      mode
      00000007H   SYMBOL    DATA     BYTE      wait
      00000007H   SYMBOL    DATA     BYTE      setting
      00000007H   SYMBOL    DATA     BYTE      setting
LX51 LINKER/LOCATER V4.64.0.0                                                         01/31/2019  11:47:34  PAGE 93


      00000007H   SYMBOL    DATA     BYTE      setting
      00000000H   SYMBOL    XSTK     BYTE      reason

      01009F4CH   BLOCK     CODE     ---       LVL=0
      01009F4CH   LINE      CODE     ---       #1666
      01009F4CH   LINE      CODE     ---       #1667
      01009F4CH   LINE      CODE     ---       #1668
      01009F53H   LINE      CODE     ---       #1669
      ---         BLOCKEND  ---      ---       LVL=0

      01008CADH   BLOCK     CODE     ---       LVL=0
      00000000H   SYMBOL    XSTK     DWORD     milliseconds
      01008CADH   LINE      CODE     ---       #1692
      01008CB6H   LINE      CODE     ---       #1694
      01008CCCH   LINE      CODE     ---       #1695
      01008CCCH   LINE      CODE     ---       #1700
      01008CDDH   LINE      CODE     ---       #1701
      01008D07H   LINE      CODE     ---       #1702
      01008D09H   LINE      CODE     ---       #1704
      01008D2EH   LINE      CODE     ---       #1705
      ---         BLOCKEND  ---      ---       LVL=0
      00000000H   SYMBOL    XSTK     DWORD     freq
      00000007H   SYMBOL    DATA     BYTE      ticks
      00000005H   SYMBOL    DATA     BYTE      lpMode
      0200162AH   SYMBOL    XDATA    BYTE      interruptStatus
      00000005H   SYMBOL    DATA     BYTE      interruptState
      00000005H   SYMBOL    DATA     BYTE      interruptState
      00000003H   SYMBOL    DATA     BYTE      interruptState

      010092CBH   BLOCK     CODE     ---       LVL=0
      02000002H   SYMBOL    XDATA    BYTE      number
      02000003H   SYMBOL    XDATA    ---       address
      010092D8H   BLOCK     CODE     NEAR LAB  LVL=1
      02000005H   SYMBOL    XDATA    ---       oldIsr
      ---         BLOCKEND  ---      ---       LVL=1
      010092CBH   LINE      CODE     ---       #2641
      010092D8H   LINE      CODE     ---       #2642
      010092D8H   LINE      CODE     ---       #2648
      010092F6H   LINE      CODE     ---       #2652
      01009316H   LINE      CODE     ---       #2654
      0100931EH   LINE      CODE     ---       #2655
      ---         BLOCKEND  ---      ---       LVL=0
      00000007H   SYMBOL    DATA     BYTE      number

      01009C18H   BLOCK     CODE     ---       LVL=0
      00000004H   SYMBOL    DATA     BYTE      number
      00000005H   SYMBOL    DATA     BYTE      priority
      01009C18H   LINE      CODE     ---       #2696
      01009C1AH   LINE      CODE     ---       #2697
      01009C1AH   LINE      CODE     ---       #2702
      01009C30H   LINE      CODE     ---       #2704
      ---         BLOCKEND  ---      ---       LVL=0
      00000007H   SYMBOL    DATA     BYTE      number
      00000007H   SYMBOL    DATA     BYTE      priority
      00000005H   SYMBOL    DATA     BYTE      number
      00000006H   SYMBOL    DATA     ---       stateReg

      ---         MODULE    ---      ---       SPI_IMU
      0200164AH   PUBLIC    XDATA    BYTE      SPI_IMU_initVar
      02001649H   PUBLIC    XDATA    BYTE      SPI_IMU_swStatusTx
      02001648H   PUBLIC    XDATA    BYTE      SPI_IMU_swStatusRx
      01009E14H   PUBLIC    CODE     ---       SPI_IMU_ReadStatus
      01009B4DH   PUBLIC    CODE     ---       SPI_IMU_ClearFIFO
      01009DC2H   PUBLIC    CODE     ---       SPI_IMU_ClearTxBuffer
      01009E05H   PUBLIC    CODE     ---       SPI_IMU_ClearRxBuffer
LX51 LINKER/LOCATER V4.64.0.0                                                         01/31/2019  11:47:34  PAGE 94


      01009FC1H   PUBLIC    CODE     ---       SPI_IMU_ReadRxData
      01009E94H   PUBLIC    CODE     ---       _SPI_IMU_WriteTxData
      01009FBBH   PUBLIC    CODE     ---       SPI_IMU_ReadRxStatus
      01009FB5H   PUBLIC    CODE     ---       SPI_IMU_ReadTxStatus
      01009FDAH   PUBLIC    CODE     ---       SPI_IMU_EnableRxInt
      01009A23H   PUBLIC    CODE     ---       SPI_IMU_EnableTxInt
      01009D8AH   PUBLIC    CODE     ---       SPI_IMU_Start
      01009AA3H   PUBLIC    CODE     ---       SPI_IMU_Enable
      01009C31H   PUBLIC    CODE     ---       SPI_IMU_Init
      000000CAH   SFRSYM    DATA     BYTE      SFRPRT5SEL
      000000DAH   SFRSYM    DATA     BYTE      SFRPRT6SEL
      000000D0H.6 SFRSYM    DATA     BIT       AC
      000000A8H.7 SFRSYM    DATA     BIT       EA
      000000A8H   SFRSYM    DATA     BYTE      IE
      00000085H   SFRSYM    DATA     BYTE      DPH1
      00000084H   SFRSYM    DATA     BYTE      DPL1
      000000D0H.7 SFRSYM    DATA     BIT       CY
      000000A0H   SFRSYM    DATA     BYTE      P2AX
      00000095H   SFRSYM    DATA     BYTE      DPX1
      00000081H   SFRSYM    DATA     BYTE      SP
      000000D0H.2 SFRSYM    DATA     BIT       OV
      00000080H   SFRSYM    DATA     BYTE      SFRPRT0DR
      00000090H   SFRSYM    DATA     BYTE      SFRPRT1DR
      000000F2H   SFRSYM    DATA     BYTE      SFRPRT12SEL
      00000098H   SFRSYM    DATA     BYTE      SFRPRT2DR
      000000B0H   SFRSYM    DATA     BYTE      SFRPRT3DR
      000000C0H   SFRSYM    DATA     BYTE      SFRPRT4DR
      000000FAH   SFRSYM    DATA     BYTE      SFRPRT15SEL
      000000C8H   SFRSYM    DATA     BYTE      SFRPRT5DR
      000000D8H   SFRSYM    DATA     BYTE      SFRPRT6DR
      00000089H   SFRSYM    DATA     BYTE      SFRPRT0PS
      00000091H   SFRSYM    DATA     BYTE      SFRPRT1PS
      00000099H   SFRSYM    DATA     BYTE      SFRPRT2PS
      000000B1H   SFRSYM    DATA     BYTE      SFRPRT3PS
      000000C1H   SFRSYM    DATA     BYTE      SFRPRT4PS
      000000C9H   SFRSYM    DATA     BYTE      SFRPRT5PS
      000000D9H   SFRSYM    DATA     BYTE      SFRPRT6PS
      000000EAH   SFRSYM    DATA     BYTE      MXAX
      000000F0H   SFRSYM    DATA     BYTE      B
      000000E0H   SFRSYM    DATA     BYTE      ACC
      000000D0H   SFRSYM    DATA     BIT       P
      000000D0H.3 SFRSYM    DATA     BIT       RS0
      000000D0H.4 SFRSYM    DATA     BIT       RS1
      00000083H   SFRSYM    DATA     BYTE      DPH
      000000E8H   SFRSYM    DATA     BYTE      SFRPRT12DR
      00000082H   SFRSYM    DATA     BYTE      DPL
      000000F8H   SFRSYM    DATA     BYTE      SFRPRT15DR
      00000086H   SFRSYM    DATA     BYTE      DPS
      000000E9H   SFRSYM    DATA     BYTE      SFRPRT12PS
      00000093H   SFRSYM    DATA     BYTE      DPX
      000000F9H   SFRSYM    DATA     BYTE      SFRPRT15PS
      000000D0H.5 SFRSYM    DATA     BIT       F0
      000000D0H.1 SFRSYM    DATA     BIT       F1
      0000008AH   SFRSYM    DATA     BYTE      SFRPRT0SEL
      000000D0H   SFRSYM    DATA     BYTE      PSW
      000000A2H   SFRSYM    DATA     BYTE      SFRPRT1SEL
      0000009AH   SFRSYM    DATA     BYTE      SFRPRT2SEL
      000000B2H   SFRSYM    DATA     BYTE      SFRPRT3SEL
      000000C2H   SFRSYM    DATA     BYTE      SFRPRT4SEL

      01009C31H   BLOCK     CODE     ---       LVL=0
      01009C31H   LINE      CODE     ---       #63
      01009C31H   LINE      CODE     ---       #64
      01009C31H   LINE      CODE     ---       #66
      01009C37H   LINE      CODE     ---       #83
LX51 LINKER/LOCATER V4.64.0.0                                                         01/31/2019  11:47:34  PAGE 95


      01009C3AH   LINE      CODE     ---       #97
      01009C3DH   LINE      CODE     ---       #98
      01009C40H   LINE      CODE     ---       #101
      01009C45H   LINE      CODE     ---       #102
      01009C49H   LINE      CODE     ---       #103
      ---         BLOCKEND  ---      ---       LVL=0

      01009AA3H   BLOCK     CODE     ---       LVL=0
      01009AA3H   BLOCK     CODE     NEAR LAB  LVL=1
      00000007H   SYMBOL    DATA     BYTE      enableInterrupts
      ---         BLOCKEND  ---      ---       LVL=1
      01009AA3H   LINE      CODE     ---       #120
      01009AA3H   LINE      CODE     ---       #121
      01009AA3H   LINE      CODE     ---       #124
      01009AA6H   LINE      CODE     ---       #125
      01009AADH   LINE      CODE     ---       #126
      01009AB4H   LINE      CODE     ---       #127
      01009ABBH   LINE      CODE     ---       #128
      01009ABEH   LINE      CODE     ---       #131
      01009AC1H   LINE      CODE     ---       #134
      01009AC4H   LINE      CODE     ---       #135
      01009AC7H   LINE      CODE     ---       #136
      ---         BLOCKEND  ---      ---       LVL=0

      01009D8AH   BLOCK     CODE     ---       LVL=0
      01009D8AH   LINE      CODE     ---       #163
      01009D8AH   LINE      CODE     ---       #164
      01009D8AH   LINE      CODE     ---       #165
      01009D90H   LINE      CODE     ---       #166
      01009D90H   LINE      CODE     ---       #167
      01009D93H   LINE      CODE     ---       #168
      01009D99H   LINE      CODE     ---       #169
      01009D99H   LINE      CODE     ---       #171
      01009D9CH   LINE      CODE     ---       #172
      ---         BLOCKEND  ---      ---       LVL=0
      00000007H   SYMBOL    DATA     BYTE      enableInterrupts

      01009A23H   BLOCK     CODE     ---       LVL=0
      01009A23H   LINE      CODE     ---       #227
      01009A23H   LINE      CODE     ---       #228
      01009A23H   LINE      CODE     ---       #232
      ---         BLOCKEND  ---      ---       LVL=0

      01009FDAH   BLOCK     CODE     ---       LVL=0
      01009FDAH   LINE      CODE     ---       #252
      01009FDAH   LINE      CODE     ---       #253
      01009FDAH   LINE      CODE     ---       #257
      ---         BLOCKEND  ---      ---       LVL=0
      00000007H   SYMBOL    DATA     BYTE      intSrc
      00000007H   SYMBOL    DATA     BYTE      intSrc

      01009FB5H   BLOCK     CODE     ---       LVL=0
      01009FB5H   BLOCK     CODE     NEAR LAB  LVL=1
      00000007H   SYMBOL    DATA     BYTE      tmpStatus
      ---         BLOCKEND  ---      ---       LVL=1
      01009FB5H   LINE      CODE     ---       #386
      01009FB5H   LINE      CODE     ---       #387
      01009FB5H   LINE      CODE     ---       #401
      01009FBAH   LINE      CODE     ---       #405
      01009FBAH   LINE      CODE     ---       #406
      ---         BLOCKEND  ---      ---       LVL=0

      01009FBBH   BLOCK     CODE     ---       LVL=0
      01009FBBH   BLOCK     CODE     NEAR LAB  LVL=1
      00000007H   SYMBOL    DATA     BYTE      tmpStatus
LX51 LINKER/LOCATER V4.64.0.0                                                         01/31/2019  11:47:34  PAGE 96


      ---         BLOCKEND  ---      ---       LVL=1
      01009FBBH   LINE      CODE     ---       #437
      01009FBBH   LINE      CODE     ---       #438
      01009FBBH   LINE      CODE     ---       #452
      01009FC0H   LINE      CODE     ---       #456
      01009FC0H   LINE      CODE     ---       #457
      ---         BLOCKEND  ---      ---       LVL=0

      01009E94H   BLOCK     CODE     ---       LVL=0
      00000007H   SYMBOL    DATA     BYTE      txData
      01009E94H   LINE      CODE     ---       #494
      01009E94H   LINE      CODE     ---       #495
      01009E94H   LINE      CODE     ---       #557
      01009E9BH   LINE      CODE     ---       #558
      01009E9BH   LINE      CODE     ---       #559
      01009E9BH   LINE      CODE     ---       #562
      01009EA0H   LINE      CODE     ---       #565
      ---         BLOCKEND  ---      ---       LVL=0

      01009FC1H   BLOCK     CODE     ---       LVL=0
      01009FC1H   BLOCK     CODE     NEAR LAB  LVL=1
      00000007H   SYMBOL    DATA     BYTE      rxData
      ---         BLOCKEND  ---      ---       LVL=1
      01009FC1H   LINE      CODE     ---       #602
      01009FC1H   LINE      CODE     ---       #603
      01009FC1H   LINE      CODE     ---       #633
      01009FC6H   LINE      CODE     ---       #637
      01009FC6H   LINE      CODE     ---       #638
      ---         BLOCKEND  ---      ---       LVL=0
      00000007H   SYMBOL    DATA     BYTE      size
      00000007H   SYMBOL    DATA     BYTE      size

      01009E05H   BLOCK     CODE     ---       LVL=0
      01009E05H   LINE      CODE     ---       #806
      01009E05H   LINE      CODE     ---       #807
      01009E05H   LINE      CODE     ---       #809
      01009E0CH   LINE      CODE     ---       #810
      01009E0CH   LINE      CODE     ---       #811
      01009E11H   LINE      CODE     ---       #812
      01009E13H   LINE      CODE     ---       #824
      ---         BLOCKEND  ---      ---       LVL=0

      01009DC2H   BLOCK     CODE     ---       LVL=0
      01009DC2H   BLOCK     CODE     NEAR LAB  LVL=1
      00000007H   SYMBOL    DATA     BYTE      enableInterrupts
      ---         BLOCKEND  ---      ---       LVL=1
      01009DC2H   LINE      CODE     ---       #861
      01009DC2H   LINE      CODE     ---       #862
      01009DC2H   LINE      CODE     ---       #865
      01009DC5H   LINE      CODE     ---       #867
      01009DCCH   LINE      CODE     ---       #868
      01009DD0H   LINE      CODE     ---       #875
      01009DD3H   LINE      CODE     ---       #890
      ---         BLOCKEND  ---      ---       LVL=0
      00000005H   SYMBOL    DATA     BYTE      byteCount
      00000006H   SYMBOL    DATA     BYTE      bufIndex

      01009B4DH   BLOCK     CODE     ---       LVL=0
      01009B4DH   BLOCK     CODE     NEAR LAB  LVL=1
      00000007H   SYMBOL    DATA     BYTE      enableInterrupts
      ---         BLOCKEND  ---      ---       LVL=1
      01009B4DH   LINE      CODE     ---       #995
      01009B4DH   LINE      CODE     ---       #996
      01009B4DH   LINE      CODE     ---       #1000
      01009B54H   LINE      CODE     ---       #1001
LX51 LINKER/LOCATER V4.64.0.0                                                         01/31/2019  11:47:34  PAGE 97


      01009B54H   LINE      CODE     ---       #1002
      01009B59H   LINE      CODE     ---       #1003
      01009B5BH   LINE      CODE     ---       #1005
      01009B5EH   LINE      CODE     ---       #1007
      01009B65H   LINE      CODE     ---       #1008
      01009B69H   LINE      CODE     ---       #1015
      01009B6CH   LINE      CODE     ---       #1016
      ---         BLOCKEND  ---      ---       LVL=0
      00000007H   SYMBOL    DATA     BYTE      intSrc

      01009E14H   BLOCK     CODE     ---       LVL=0
      01009E14H   BLOCK     CODE     NEAR LAB  LVL=1
      00000007H   SYMBOL    DATA     BYTE      tmpStatus
      ---         BLOCKEND  ---      ---       LVL=1
      01009E14H   LINE      CODE     ---       #1125
      01009E14H   LINE      CODE     ---       #1126
      01009E14H   LINE      CODE     ---       #1144
      01009E19H   LINE      CODE     ---       #1145
      01009E1FH   LINE      CODE     ---       #1146
      01009E22H   LINE      CODE     ---       #1150
      01009E22H   LINE      CODE     ---       #1151
      ---         BLOCKEND  ---      ---       LVL=0

      ---         MODULE    ---      ---       OPTO_PIN
      01009DE6H   PUBLIC    CODE     ---       _Opto_Pin_Write

      01009DE6H   BLOCK     CODE     ---       LVL=0
      00000007H   SYMBOL    DATA     BYTE      value
      01009DE6H   BLOCK     CODE     NEAR LAB  LVL=1
      00000006H   SYMBOL    DATA     BYTE      staticBits
      ---         BLOCKEND  ---      ---       LVL=1
      01009DE6H   LINE      CODE     ---       #53
      01009DE6H   LINE      CODE     ---       #54
      01009DE6H   LINE      CODE     ---       #55
      01009DEDH   LINE      CODE     ---       #56
      01009DF5H   LINE      CODE     ---       #57
      ---         BLOCKEND  ---      ---       LVL=0
      00000007H   SYMBOL    DATA     BYTE      mode

      ---         MODULE    ---      ---       CHIP_SELECT_A
      01009FC7H   PUBLIC    CODE     ---       _Chip_Select_A_Write

      01009FC7H   BLOCK     CODE     ---       LVL=0
      00000007H   SYMBOL    DATA     BYTE      control
      01009FC7H   LINE      CODE     ---       #37
      01009FC7H   LINE      CODE     ---       #38
      01009FC7H   LINE      CODE     ---       #39
      01009FCCH   LINE      CODE     ---       #40
      ---         BLOCKEND  ---      ---       LVL=0

      ---         MODULE    ---      ---       CHIP_SELECT_B
      01009FCDH   PUBLIC    CODE     ---       _Chip_Select_B_Write

      01009FCDH   BLOCK     CODE     ---       LVL=0
      00000007H   SYMBOL    DATA     BYTE      control
      01009FCDH   LINE      CODE     ---       #37
      01009FCDH   LINE      CODE     ---       #38
      01009FCDH   LINE      CODE     ---       #39
      01009FD2H   LINE      CODE     ---       #40
      ---         BLOCKEND  ---      ---       LVL=0

      ---         MODULE    ---      ---       CYBOOTASMKEIL
      01009CEAH   PUBLIC    CODE     NEAR LAB  CyEnterCriticalSection
      01009800H   PUBLIC    CODE     NEAR LAB  _CyDelayCycles
      01009A24H   PUBLIC    CODE     NEAR LAB  _CyDelayUs
LX51 LINKER/LOCATER V4.64.0.0                                                         01/31/2019  11:47:34  PAGE 98


      01009C7BH   PUBLIC    CODE     NEAR LAB  _CyExitCriticalSection

      ---         MODULE    ---      ---       CYMEM
      02000000H   PUBLIC    XDATA    BYTE      ?_cyconfigcpy?BYTE
      010097A2H   PUBLIC    CODE     NEAR LAB  _cyconfigcpy
      01009A7DH   PUBLIC    CODE     NEAR LAB  _cyconfigcpycode
      01009E23H   PUBLIC    CODE     NEAR LAB  _cyread16
      01009E25H   PUBLIC    CODE     NEAR LAB  _cyread16_nodpx
      01009D9DH   PUBLIC    CODE     NEAR LAB  _cyread24
      01009D9FH   PUBLIC    CODE     NEAR LAB  _cyread24_nodpx
      01009EC8H   PUBLIC    CODE     NEAR LAB  _cyread8
      01009ECAH   PUBLIC    CODE     NEAR LAB  _cyread8_nodpx
      01009E32H   PUBLIC    CODE     NEAR LAB  _cywrite16
      01009E34H   PUBLIC    CODE     NEAR LAB  _cywrite16_nodpx
      01009DD4H   PUBLIC    CODE     NEAR LAB  _cywrite24
      01009DD6H   PUBLIC    CODE     NEAR LAB  _cywrite24_nodpx
      01009ED4H   PUBLIC    CODE     NEAR LAB  _cywrite8
      01009ED6H   PUBLIC    CODE     NEAR LAB  _cywrite8_nodpx

      ---         MODULE    ---      ---       ?C_STARTUP
      00000000H   PUBLIC    NUMBER   ---       ?C?XPAGE1RST
      00000093H   PUBLIC    DATA     BYTE      ?C?XPAGE1SFR
      01002600H   PUBLIC    CODE     NEAR LAB  ?C_STARTUP
      01007CA4H   PUBLIC    CODE     NEAR LAB  STARTUP1
      01002604H   PUBLIC    CODE     NEAR LAB  _dma_wait

      ---         MODULE    ---      ---       UART_RS485_INT
      01008850H   PUBLIC    CODE     ---       UART_RS485_RXISR
      000000CAH   SFRSYM    DATA     BYTE      SFRPRT5SEL
      000000DAH   SFRSYM    DATA     BYTE      SFRPRT6SEL
      000000D0H.6 SFRSYM    DATA     BIT       AC
      000000A8H.7 SFRSYM    DATA     BIT       EA
      000000A8H   SFRSYM    DATA     BYTE      IE
      00000085H   SFRSYM    DATA     BYTE      DPH1
      00000084H   SFRSYM    DATA     BYTE      DPL1
      000000D0H.7 SFRSYM    DATA     BIT       CY
      000000A0H   SFRSYM    DATA     BYTE      P2AX
      00000095H   SFRSYM    DATA     BYTE      DPX1
      00000081H   SFRSYM    DATA     BYTE      SP
      000000D0H.2 SFRSYM    DATA     BIT       OV
      00000080H   SFRSYM    DATA     BYTE      SFRPRT0DR
      00000090H   SFRSYM    DATA     BYTE      SFRPRT1DR
      000000F2H   SFRSYM    DATA     BYTE      SFRPRT12SEL
      00000098H   SFRSYM    DATA     BYTE      SFRPRT2DR
      000000B0H   SFRSYM    DATA     BYTE      SFRPRT3DR
      000000C0H   SFRSYM    DATA     BYTE      SFRPRT4DR
      000000FAH   SFRSYM    DATA     BYTE      SFRPRT15SEL
      000000C8H   SFRSYM    DATA     BYTE      SFRPRT5DR
      000000D8H   SFRSYM    DATA     BYTE      SFRPRT6DR
      00000089H   SFRSYM    DATA     BYTE      SFRPRT0PS
      00000091H   SFRSYM    DATA     BYTE      SFRPRT1PS
      00000099H   SFRSYM    DATA     BYTE      SFRPRT2PS
      000000B1H   SFRSYM    DATA     BYTE      SFRPRT3PS
      000000C1H   SFRSYM    DATA     BYTE      SFRPRT4PS
      000000C9H   SFRSYM    DATA     BYTE      SFRPRT5PS
      000000D9H   SFRSYM    DATA     BYTE      SFRPRT6PS
      000000EAH   SFRSYM    DATA     BYTE      MXAX
      000000F0H   SFRSYM    DATA     BYTE      B
      000000E0H   SFRSYM    DATA     BYTE      ACC
      000000D0H   SFRSYM    DATA     BIT       P
      000000D0H.3 SFRSYM    DATA     BIT       RS0
      000000D0H.4 SFRSYM    DATA     BIT       RS1
      00000083H   SFRSYM    DATA     BYTE      DPH
      000000E8H   SFRSYM    DATA     BYTE      SFRPRT12DR
      00000082H   SFRSYM    DATA     BYTE      DPL
LX51 LINKER/LOCATER V4.64.0.0                                                         01/31/2019  11:47:34  PAGE 99


      000000F8H   SFRSYM    DATA     BYTE      SFRPRT15DR
      00000086H   SFRSYM    DATA     BYTE      DPS
      000000E9H   SFRSYM    DATA     BYTE      SFRPRT12PS
      00000093H   SFRSYM    DATA     BYTE      DPX
      000000F9H   SFRSYM    DATA     BYTE      SFRPRT15PS
      000000D0H.5 SFRSYM    DATA     BIT       F0
      000000D0H.1 SFRSYM    DATA     BIT       F1
      0000008AH   SFRSYM    DATA     BYTE      SFRPRT0SEL
      000000D0H   SFRSYM    DATA     BYTE      PSW
      000000A2H   SFRSYM    DATA     BYTE      SFRPRT1SEL
      0000009AH   SFRSYM    DATA     BYTE      SFRPRT2SEL
      000000B2H   SFRSYM    DATA     BYTE      SFRPRT3SEL
      000000C2H   SFRSYM    DATA     BYTE      SFRPRT4SEL

      01008850H   BLOCK     CODE     ---       LVL=0
      01008873H   BLOCK     CODE     NEAR LAB  LVL=1
      00000006H   SYMBOL    DATA     BYTE      readData
      00000007H   SYMBOL    DATA     BYTE      readStatus
      00000003H   SYMBOL    DATA     BYTE      increment_pointer
      00000002H   SYMBOL    DATA     BYTE      int_en
      ---         BLOCKEND  ---      ---       LVL=1
      01008850H   LINE      CODE     ---       #59
      01008873H   LINE      CODE     ---       #63
      01008875H   LINE      CODE     ---       #79
      01008879H   LINE      CODE     ---       #80
      01008881H   LINE      CODE     ---       #84
      01008881H   LINE      CODE     ---       #86
      01008886H   LINE      CODE     ---       #90
      01008887H   LINE      CODE     ---       #95
      0100888CH   LINE      CODE     ---       #96
      0100888CH   LINE      CODE     ---       #101
      01008892H   LINE      CODE     ---       #109
      01008892H   LINE      CODE     ---       #111
      01008896H   LINE      CODE     ---       #112
      01008896H   LINE      CODE     ---       #114
      0100889BH   LINE      CODE     ---       #141
      010088AAH   LINE      CODE     ---       #142
      010088ACH   LINE      CODE     ---       #146
      010088AFH   LINE      CODE     ---       #147
      010088AFH   LINE      CODE     ---       #148
      010088B5H   LINE      CODE     ---       #149
      010088B5H   LINE      CODE     ---       #150
      010088BBH   LINE      CODE     ---       #151
      010088BBH   LINE      CODE     ---       #153
      010088C1H   LINE      CODE     ---       #156
      010088C7H   LINE      CODE     ---       #157
      010088C7H   LINE      CODE     ---       #158
      010088C9H   LINE      CODE     ---       #159
      010088C9H   LINE      CODE     ---       #162
      010088D5H   LINE      CODE     ---       #163
      010088D5H   LINE      CODE     ---       #164
      010088DBH   LINE      CODE     ---       #172
      010088DBH   LINE      CODE     ---       #173
      010088DBH   LINE      CODE     ---       #174
      010088DBH   LINE      CODE     ---       #175
      010088DFH   LINE      CODE     ---       #187
      010088E6H   LINE      CODE     ---       #189
      ---         BLOCKEND  ---      ---       LVL=0

      ---         MODULE    ---      ---       ADC_INT
      01009FDEH   PUBLIC    CODE     ---       ADC_ISR4
      01009FDDH   PUBLIC    CODE     ---       ADC_ISR3
      01009FDCH   PUBLIC    CODE     ---       ADC_ISR2
      01009FDBH   PUBLIC    CODE     ---       ADC_ISR1
      000000CAH   SFRSYM    DATA     BYTE      SFRPRT5SEL
LX51 LINKER/LOCATER V4.64.0.0                                                         01/31/2019  11:47:34  PAGE 100


      000000DAH   SFRSYM    DATA     BYTE      SFRPRT6SEL
      000000D0H.6 SFRSYM    DATA     BIT       AC
      000000A8H.7 SFRSYM    DATA     BIT       EA
      000000A8H   SFRSYM    DATA     BYTE      IE
      00000085H   SFRSYM    DATA     BYTE      DPH1
      00000084H   SFRSYM    DATA     BYTE      DPL1
      000000D0H.7 SFRSYM    DATA     BIT       CY
      000000A0H   SFRSYM    DATA     BYTE      P2AX
      00000095H   SFRSYM    DATA     BYTE      DPX1
      00000081H   SFRSYM    DATA     BYTE      SP
      000000D0H.2 SFRSYM    DATA     BIT       OV
      00000080H   SFRSYM    DATA     BYTE      SFRPRT0DR
      00000090H   SFRSYM    DATA     BYTE      SFRPRT1DR
      000000F2H   SFRSYM    DATA     BYTE      SFRPRT12SEL
      00000098H   SFRSYM    DATA     BYTE      SFRPRT2DR
      000000B0H   SFRSYM    DATA     BYTE      SFRPRT3DR
      000000C0H   SFRSYM    DATA     BYTE      SFRPRT4DR
      000000FAH   SFRSYM    DATA     BYTE      SFRPRT15SEL
      000000C8H   SFRSYM    DATA     BYTE      SFRPRT5DR
      000000D8H   SFRSYM    DATA     BYTE      SFRPRT6DR
      00000089H   SFRSYM    DATA     BYTE      SFRPRT0PS
      00000091H   SFRSYM    DATA     BYTE      SFRPRT1PS
      00000099H   SFRSYM    DATA     BYTE      SFRPRT2PS
      000000B1H   SFRSYM    DATA     BYTE      SFRPRT3PS
      000000C1H   SFRSYM    DATA     BYTE      SFRPRT4PS
      000000C9H   SFRSYM    DATA     BYTE      SFRPRT5PS
      000000D9H   SFRSYM    DATA     BYTE      SFRPRT6PS
      000000EAH   SFRSYM    DATA     BYTE      MXAX
      000000F0H   SFRSYM    DATA     BYTE      B
      000000E0H   SFRSYM    DATA     BYTE      ACC
      000000D0H   SFRSYM    DATA     BIT       P
      000000D0H.3 SFRSYM    DATA     BIT       RS0
      000000D0H.4 SFRSYM    DATA     BIT       RS1
      00000083H   SFRSYM    DATA     BYTE      DPH
      000000E8H   SFRSYM    DATA     BYTE      SFRPRT12DR
      00000082H   SFRSYM    DATA     BYTE      DPL
      000000F8H   SFRSYM    DATA     BYTE      SFRPRT15DR
      00000086H   SFRSYM    DATA     BYTE      DPS
      000000E9H   SFRSYM    DATA     BYTE      SFRPRT12PS
      00000093H   SFRSYM    DATA     BYTE      DPX
      000000F9H   SFRSYM    DATA     BYTE      SFRPRT15PS
      000000D0H.5 SFRSYM    DATA     BIT       F0
      000000D0H.1 SFRSYM    DATA     BIT       F1
      0000008AH   SFRSYM    DATA     BYTE      SFRPRT0SEL
      000000D0H   SFRSYM    DATA     BYTE      PSW
      000000A2H   SFRSYM    DATA     BYTE      SFRPRT1SEL
      0000009AH   SFRSYM    DATA     BYTE      SFRPRT2SEL
      000000B2H   SFRSYM    DATA     BYTE      SFRPRT3SEL
      000000C2H   SFRSYM    DATA     BYTE      SFRPRT4SEL

      01009FDBH   BLOCK     CODE     ---       LVL=0
      01009FDBH   LINE      CODE     ---       #51
      01009FDBH   LINE      CODE     ---       #81
      ---         BLOCKEND  ---      ---       LVL=0

      01009FDCH   BLOCK     CODE     ---       LVL=0
      01009FDCH   LINE      CODE     ---       #101
      01009FDCH   LINE      CODE     ---       #131
      ---         BLOCKEND  ---      ---       LVL=0

      01009FDDH   BLOCK     CODE     ---       LVL=0
      01009FDDH   LINE      CODE     ---       #151
      01009FDDH   LINE      CODE     ---       #181
      ---         BLOCKEND  ---      ---       LVL=0

LX51 LINKER/LOCATER V4.64.0.0                                                         01/31/2019  11:47:34  PAGE 101


      01009FDEH   BLOCK     CODE     ---       LVL=0
      01009FDEH   LINE      CODE     ---       #201
      01009FDEH   LINE      CODE     ---       #231
      ---         BLOCKEND  ---      ---       LVL=0

      ---         MODULE    ---      ---       ADC_AMUX
      01009C4AH   PUBLIC    CODE     ---       _ADC_AMux_Select
      01009B0CH   PUBLIC    CODE     ---       ADC_AMux_Start
      0200164FH   SYMBOL    XDATA    BYTE      ADC_AMux_lastChannel

      01009B0CH   BLOCK     CODE     ---       LVL=0
      01009B0CH   BLOCK     CODE     NEAR LAB  LVL=1
      02000003H   SYMBOL    XDATA    BYTE      chan
      ---         BLOCKEND  ---      ---       LVL=1
      01009B0CH   LINE      CODE     ---       #36
      01009B0CH   LINE      CODE     ---       #37
      01009B0CH   LINE      CODE     ---       #40
      01009B1BH   LINE      CODE     ---       #41
      01009B1BH   LINE      CODE     ---       #43
      01009B1EH   LINE      CODE     ---       #48
      01009B26H   LINE      CODE     ---       #50
      01009B2CH   LINE      CODE     ---       #51
      ---         BLOCKEND  ---      ---       LVL=0

      01009C4AH   BLOCK     CODE     ---       LVL=0
      02000002H   SYMBOL    XDATA    BYTE      channel
      01009C4AH   LINE      CODE     ---       #69
      01009C4FH   LINE      CODE     ---       #70
      01009C4FH   LINE      CODE     ---       #71
      01009C52H   LINE      CODE     ---       #72
      01009C5AH   LINE      CODE     ---       #73
      01009C62H   LINE      CODE     ---       #74
      ---         BLOCKEND  ---      ---       LVL=0

      ---         MODULE    ---      ---       ADC_EXT_CP_CLK
      01009F54H   PUBLIC    CODE     ---       ADC_Ext_CP_Clk_GetSourceRegister
      01009EA1H   PUBLIC    CODE     ---       _ADC_Ext_CP_Clk_SetModeRegister
      01009F28H   PUBLIC    CODE     ---       ADC_Ext_CP_Clk_GetDividerRegister
      010075A0H   PUBLIC    CODE     ---       _ADC_Ext_CP_Clk_SetDividerRegister
      00000007H   SYMBOL    DATA     BYTE      state

      010075A0H   BLOCK     CODE     ---       LVL=0
      02000002H   SYMBOL    XDATA    WORD      clkDivider
      02000004H   SYMBOL    XDATA    BYTE      restart
      010075ABH   BLOCK     CODE     NEAR LAB  LVL=1
      02000005H   SYMBOL    XDATA    BYTE      enabled
      02000006H   SYMBOL    XDATA    BYTE      currSrc
      02000007H   SYMBOL    XDATA    WORD      oldDivider
      ---         BLOCKEND  ---      ---       LVL=1
      010075A0H   LINE      CODE     ---       #193
      010075ABH   LINE      CODE     ---       #195
      010075ABH   LINE      CODE     ---       #198
      010075B3H   LINE      CODE     ---       #199
      010075BEH   LINE      CODE     ---       #201
      010075D0H   LINE      CODE     ---       #202
      010075D0H   LINE      CODE     ---       #203
      010075DAH   LINE      CODE     ---       #205
      010075EBH   LINE      CODE     ---       #206
      010075EBH   LINE      CODE     ---       #208
      010075EFH   LINE      CODE     ---       #209
      010075EFH   LINE      CODE     ---       #213
      010075F8H   LINE      CODE     ---       #214
      010075FFH   LINE      CODE     ---       #215
      01007600H   LINE      CODE     ---       #217
      01007600H   LINE      CODE     ---       #220
LX51 LINKER/LOCATER V4.64.0.0                                                         01/31/2019  11:47:34  PAGE 102


      01007607H   LINE      CODE     ---       #221
      01007618H   LINE      CODE     ---       #222
      01007618H   LINE      CODE     ---       #223
      01007619H   LINE      CODE     ---       #225
      01007619H   LINE      CODE     ---       #227
      0100761FH   LINE      CODE     ---       #228
      0100761FH   LINE      CODE     ---       #229
      01007624H   LINE      CODE     ---       #236
      0100762AH   LINE      CODE     ---       #237
      0100762FH   LINE      CODE     ---       #240
      01007636H   LINE      CODE     ---       #243
      01007648H   LINE      CODE     ---       #244
      01007648H   LINE      CODE     ---       #246
      01007659H   LINE      CODE     ---       #247
      0100765FH   LINE      CODE     ---       #250
      01007667H   LINE      CODE     ---       #253
      0100766EH   LINE      CODE     ---       #257
      01007673H   LINE      CODE     ---       #259
      01007673H   LINE      CODE     ---       #260
      01007673H   LINE      CODE     ---       #263
      0100767BH   LINE      CODE     ---       #264
      0100767BH   LINE      CODE     ---       #266
      0100768CH   LINE      CODE     ---       #268
      0100769FH   LINE      CODE     ---       #269
      010076A9H   LINE      CODE     ---       #270
      010076AAH   LINE      CODE     ---       #272
      010076AAH   LINE      CODE     ---       #274
      010076BBH   LINE      CODE     ---       #275
      010076D0H   LINE      CODE     ---       #276
      010076D0H   LINE      CODE     ---       #277
      010076D0H   LINE      CODE     ---       #278
      010076D0H   LINE      CODE     ---       #279
      ---         BLOCKEND  ---      ---       LVL=0

      01009F28H   BLOCK     CODE     ---       LVL=0
      01009F28H   LINE      CODE     ---       #297
      01009F28H   LINE      CODE     ---       #298
      01009F28H   LINE      CODE     ---       #299
      01009F31H   LINE      CODE     ---       #300
      ---         BLOCKEND  ---      ---       LVL=0

      01009EA1H   BLOCK     CODE     ---       LVL=0
      00000007H   SYMBOL    DATA     BYTE      modeBitMask
      01009EA1H   LINE      CODE     ---       #332
      01009EA1H   LINE      CODE     ---       #333
      01009EA1H   LINE      CODE     ---       #334
      01009EADH   LINE      CODE     ---       #335
      ---         BLOCKEND  ---      ---       LVL=0
      00000007H   SYMBOL    DATA     BYTE      modeBitMask
      00000007H   SYMBOL    DATA     BYTE      oldSrc

      01009F54H   BLOCK     CODE     ---       LVL=0
      01009F54H   LINE      CODE     ---       #464
      01009F54H   LINE      CODE     ---       #465
      01009F54H   LINE      CODE     ---       #466
      01009F5BH   LINE      CODE     ---       #467
      ---         BLOCKEND  ---      ---       LVL=0

      ---         MODULE    ---      ---       ADC_THEACLK
      01009F5CH   PUBLIC    CODE     ---       ADC_theACLK_GetSourceRegister
      01009EAEH   PUBLIC    CODE     ---       _ADC_theACLK_SetModeRegister
      01009F32H   PUBLIC    CODE     ---       ADC_theACLK_GetDividerRegister
      01007801H   PUBLIC    CODE     ---       _ADC_theACLK_SetDividerRegister
      00000007H   SYMBOL    DATA     BYTE      state

LX51 LINKER/LOCATER V4.64.0.0                                                         01/31/2019  11:47:34  PAGE 103


      01007801H   BLOCK     CODE     ---       LVL=0
      02000002H   SYMBOL    XDATA    WORD      clkDivider
      02000004H   SYMBOL    XDATA    BYTE      restart
      0100780CH   BLOCK     CODE     NEAR LAB  LVL=1
      02000005H   SYMBOL    XDATA    BYTE      enabled
      02000006H   SYMBOL    XDATA    BYTE      currSrc
      02000007H   SYMBOL    XDATA    WORD      oldDivider
      ---         BLOCKEND  ---      ---       LVL=1
      01007801H   LINE      CODE     ---       #193
      0100780CH   LINE      CODE     ---       #195
      0100780CH   LINE      CODE     ---       #198
      01007814H   LINE      CODE     ---       #199
      0100781FH   LINE      CODE     ---       #201
      01007831H   LINE      CODE     ---       #202
      01007831H   LINE      CODE     ---       #203
      0100783BH   LINE      CODE     ---       #205
      0100784CH   LINE      CODE     ---       #206
      0100784CH   LINE      CODE     ---       #208
      01007850H   LINE      CODE     ---       #209
      01007850H   LINE      CODE     ---       #213
      01007858H   LINE      CODE     ---       #214
      0100785FH   LINE      CODE     ---       #215
      01007860H   LINE      CODE     ---       #217
      01007860H   LINE      CODE     ---       #220
      01007867H   LINE      CODE     ---       #221
      01007878H   LINE      CODE     ---       #222
      01007878H   LINE      CODE     ---       #223
      01007879H   LINE      CODE     ---       #225
      01007879H   LINE      CODE     ---       #227
      0100787FH   LINE      CODE     ---       #228
      0100787FH   LINE      CODE     ---       #229
      01007884H   LINE      CODE     ---       #233
      01007889H   LINE      CODE     ---       #234
      0100788EH   LINE      CODE     ---       #240
      01007895H   LINE      CODE     ---       #243
      010078A7H   LINE      CODE     ---       #244
      010078A7H   LINE      CODE     ---       #246
      010078B8H   LINE      CODE     ---       #247
      010078BEH   LINE      CODE     ---       #250
      010078C6H   LINE      CODE     ---       #253
      010078CDH   LINE      CODE     ---       #257
      010078D2H   LINE      CODE     ---       #259
      010078D2H   LINE      CODE     ---       #260
      010078D2H   LINE      CODE     ---       #263
      010078DAH   LINE      CODE     ---       #264
      010078DAH   LINE      CODE     ---       #266
      010078EBH   LINE      CODE     ---       #268
      010078FEH   LINE      CODE     ---       #269
      01007908H   LINE      CODE     ---       #270
      01007909H   LINE      CODE     ---       #272
      01007909H   LINE      CODE     ---       #274
      0100791AH   LINE      CODE     ---       #275
      0100792FH   LINE      CODE     ---       #276
      0100792FH   LINE      CODE     ---       #277
      0100792FH   LINE      CODE     ---       #278
      0100792FH   LINE      CODE     ---       #279
      ---         BLOCKEND  ---      ---       LVL=0

      01009F32H   BLOCK     CODE     ---       LVL=0
      01009F32H   LINE      CODE     ---       #297
      01009F32H   LINE      CODE     ---       #298
      01009F32H   LINE      CODE     ---       #299
      01009F3BH   LINE      CODE     ---       #300
      ---         BLOCKEND  ---      ---       LVL=0

LX51 LINKER/LOCATER V4.64.0.0                                                         01/31/2019  11:47:34  PAGE 104


      01009EAEH   BLOCK     CODE     ---       LVL=0
      00000007H   SYMBOL    DATA     BYTE      modeBitMask
      01009EAEH   LINE      CODE     ---       #332
      01009EAEH   LINE      CODE     ---       #333
      01009EAEH   LINE      CODE     ---       #334
      01009EBAH   LINE      CODE     ---       #335
      ---         BLOCKEND  ---      ---       LVL=0
      00000007H   SYMBOL    DATA     BYTE      modeBitMask
      00000007H   SYMBOL    DATA     BYTE      oldSrc

      01009F5CH   BLOCK     CODE     ---       LVL=0
      01009F5CH   LINE      CODE     ---       #464
      01009F5CH   LINE      CODE     ---       #465
      01009F5CH   LINE      CODE     ---       #466
      01009F63H   LINE      CODE     ---       #467
      ---         BLOCKEND  ---      ---       LVL=0
      00000007H   SYMBOL    DATA     BYTE      clkPhase

      ---         MODULE    ---      ---       CYPM
      000000CAH   SFRSYM    DATA     BYTE      SFRPRT5SEL
      000000DAH   SFRSYM    DATA     BYTE      SFRPRT6SEL
      000000D0H.6 SFRSYM    DATA     BIT       AC
      000000A8H.7 SFRSYM    DATA     BIT       EA
      000000A8H   SFRSYM    DATA     BYTE      IE
      00000085H   SFRSYM    DATA     BYTE      DPH1
      00000084H   SFRSYM    DATA     BYTE      DPL1
      000000D0H.7 SFRSYM    DATA     BIT       CY
      000000A0H   SFRSYM    DATA     BYTE      P2AX
      00000095H   SFRSYM    DATA     BYTE      DPX1
      00000081H   SFRSYM    DATA     BYTE      SP
      000000D0H.2 SFRSYM    DATA     BIT       OV
      00000080H   SFRSYM    DATA     BYTE      SFRPRT0DR
      00000090H   SFRSYM    DATA     BYTE      SFRPRT1DR
      000000F2H   SFRSYM    DATA     BYTE      SFRPRT12SEL
      00000098H   SFRSYM    DATA     BYTE      SFRPRT2DR
      000000B0H   SFRSYM    DATA     BYTE      SFRPRT3DR
      000000C0H   SFRSYM    DATA     BYTE      SFRPRT4DR
      000000FAH   SFRSYM    DATA     BYTE      SFRPRT15SEL
      000000C8H   SFRSYM    DATA     BYTE      SFRPRT5DR
      000000D8H   SFRSYM    DATA     BYTE      SFRPRT6DR
      00000089H   SFRSYM    DATA     BYTE      SFRPRT0PS
      00000091H   SFRSYM    DATA     BYTE      SFRPRT1PS
      00000099H   SFRSYM    DATA     BYTE      SFRPRT2PS
      000000B1H   SFRSYM    DATA     BYTE      SFRPRT3PS
      000000C1H   SFRSYM    DATA     BYTE      SFRPRT4PS
      000000C9H   SFRSYM    DATA     BYTE      SFRPRT5PS
      000000D9H   SFRSYM    DATA     BYTE      SFRPRT6PS
      000000EAH   SFRSYM    DATA     BYTE      MXAX
      000000F0H   SFRSYM    DATA     BYTE      B
      000000E0H   SFRSYM    DATA     BYTE      ACC
      000000D0H   SFRSYM    DATA     BIT       P
      000000D0H.3 SFRSYM    DATA     BIT       RS0
      000000D0H.4 SFRSYM    DATA     BIT       RS1
      00000083H   SFRSYM    DATA     BYTE      DPH
      000000E8H   SFRSYM    DATA     BYTE      SFRPRT12DR
      00000082H   SFRSYM    DATA     BYTE      DPL
      000000F8H   SFRSYM    DATA     BYTE      SFRPRT15DR
      00000086H   SFRSYM    DATA     BYTE      DPS
      000000E9H   SFRSYM    DATA     BYTE      SFRPRT12PS
      00000093H   SFRSYM    DATA     BYTE      DPX
      000000F9H   SFRSYM    DATA     BYTE      SFRPRT15PS
      000000D0H.5 SFRSYM    DATA     BIT       F0
      000000D0H.1 SFRSYM    DATA     BIT       F1
      0000008AH   SFRSYM    DATA     BYTE      SFRPRT0SEL
      000000D0H   SFRSYM    DATA     BYTE      PSW
LX51 LINKER/LOCATER V4.64.0.0                                                         01/31/2019  11:47:34  PAGE 105


      000000A2H   SFRSYM    DATA     BYTE      SFRPRT1SEL
      0000009AH   SFRSYM    DATA     BYTE      SFRPRT2SEL
      000000B2H   SFRSYM    DATA     BYTE      SFRPRT3SEL
      000000C2H   SFRSYM    DATA     BYTE      SFRPRT4SEL
      020015B1H   SYMBOL    XDATA    ---       cyPmClockBackup
      020015C1H   SYMBOL    XDATA    ---       cyPmBackup
      00000006H   SYMBOL    DATA     WORD      clkBusDivTmp
      020015B0H   SYMBOL    XDATA    BYTE      interruptStatus
      00000005H   SYMBOL    DATA     BYTE      interruptState

      ---         MODULE    ---      ---       CYSPC
      02001650H   PUBLIC    XDATA    BYTE      SpcLockState
      01009BE4H   PUBLIC    CODE     ---       CySpcGetAlgorithm
      01009EE0H   PUBLIC    CODE     ---       CySpcUnlock
      01009B8CH   PUBLIC    CODE     ---       CySpcLock
      010099F4H   PUBLIC    CODE     ---       _CySpcGetTemp
      0200000EH   PUBLIC    XDATA    BYTE      ?_CySpcWriteRow?BYTE
      0100931FH   PUBLIC    CODE     ---       _CySpcWriteRow
      0200000EH   PUBLIC    XDATA    BYTE      ?_CySpcLoadRow?BYTE
      0100902AH   PUBLIC    CODE     ---       _CySpcLoadRow
      01009108H   PUBLIC    CODE     ---       _CySpcReadData
      01009CFFH   PUBLIC    CODE     ---       CySpcStart
      000000CAH   SFRSYM    DATA     BYTE      SFRPRT5SEL
      000000DAH   SFRSYM    DATA     BYTE      SFRPRT6SEL
      000000D0H.6 SFRSYM    DATA     BIT       AC
      000000A8H.7 SFRSYM    DATA     BIT       EA
      000000A8H   SFRSYM    DATA     BYTE      IE
      00000085H   SFRSYM    DATA     BYTE      DPH1
      00000084H   SFRSYM    DATA     BYTE      DPL1
      000000D0H.7 SFRSYM    DATA     BIT       CY
      000000A0H   SFRSYM    DATA     BYTE      P2AX
      00000095H   SFRSYM    DATA     BYTE      DPX1
      00000081H   SFRSYM    DATA     BYTE      SP
      000000D0H.2 SFRSYM    DATA     BIT       OV
      00000080H   SFRSYM    DATA     BYTE      SFRPRT0DR
      00000090H   SFRSYM    DATA     BYTE      SFRPRT1DR
      000000F2H   SFRSYM    DATA     BYTE      SFRPRT12SEL
      00000098H   SFRSYM    DATA     BYTE      SFRPRT2DR
      000000B0H   SFRSYM    DATA     BYTE      SFRPRT3DR
      000000C0H   SFRSYM    DATA     BYTE      SFRPRT4DR
      000000FAH   SFRSYM    DATA     BYTE      SFRPRT15SEL
      000000C8H   SFRSYM    DATA     BYTE      SFRPRT5DR
      000000D8H   SFRSYM    DATA     BYTE      SFRPRT6DR
      00000089H   SFRSYM    DATA     BYTE      SFRPRT0PS
      00000091H   SFRSYM    DATA     BYTE      SFRPRT1PS
      00000099H   SFRSYM    DATA     BYTE      SFRPRT2PS
      000000B1H   SFRSYM    DATA     BYTE      SFRPRT3PS
      000000C1H   SFRSYM    DATA     BYTE      SFRPRT4PS
      000000C9H   SFRSYM    DATA     BYTE      SFRPRT5PS
      000000D9H   SFRSYM    DATA     BYTE      SFRPRT6PS
      000000EAH   SFRSYM    DATA     BYTE      MXAX
      000000F0H   SFRSYM    DATA     BYTE      B
      000000E0H   SFRSYM    DATA     BYTE      ACC
      000000D0H   SFRSYM    DATA     BIT       P
      000000D0H.3 SFRSYM    DATA     BIT       RS0
      000000D0H.4 SFRSYM    DATA     BIT       RS1
      00000083H   SFRSYM    DATA     BYTE      DPH
      000000E8H   SFRSYM    DATA     BYTE      SFRPRT12DR
      00000082H   SFRSYM    DATA     BYTE      DPL
      000000F8H   SFRSYM    DATA     BYTE      SFRPRT15DR
      00000086H   SFRSYM    DATA     BYTE      DPS
      000000E9H   SFRSYM    DATA     BYTE      SFRPRT12PS
      00000093H   SFRSYM    DATA     BYTE      DPX
      000000F9H   SFRSYM    DATA     BYTE      SFRPRT15PS
      000000D0H.5 SFRSYM    DATA     BIT       F0
LX51 LINKER/LOCATER V4.64.0.0                                                         01/31/2019  11:47:34  PAGE 106


      000000D0H.1 SFRSYM    DATA     BIT       F1
      0000008AH   SFRSYM    DATA     BYTE      SFRPRT0SEL
      000000D0H   SFRSYM    DATA     BYTE      PSW
      000000A2H   SFRSYM    DATA     BYTE      SFRPRT1SEL
      0000009AH   SFRSYM    DATA     BYTE      SFRPRT2SEL
      000000B2H   SFRSYM    DATA     BYTE      SFRPRT3SEL
      000000C2H   SFRSYM    DATA     BYTE      SFRPRT4SEL

      01009CFFH   BLOCK     CODE     ---       LVL=0
      01009CFFH   BLOCK     CODE     NEAR LAB  LVL=1
      00000007H   SYMBOL    DATA     BYTE      interruptState
      ---         BLOCKEND  ---      ---       LVL=1
      01009CFFH   LINE      CODE     ---       #78
      01009CFFH   LINE      CODE     ---       #79
      01009CFFH   LINE      CODE     ---       #81
      01009D02H   LINE      CODE     ---       #83
      01009D09H   LINE      CODE     ---       #84
      01009D10H   LINE      CODE     ---       #87
      01009D13H   LINE      CODE     ---       #88
      ---         BLOCKEND  ---      ---       LVL=0
      00000007H   SYMBOL    DATA     BYTE      interruptState

      01009108H   BLOCK     CODE     ---       LVL=0
      0200000BH   SYMBOL    XDATA    ---       buffer
      0200000EH   SYMBOL    XDATA    BYTE      size
      01009116H   BLOCK     CODE     NEAR LAB  LVL=1
      0200000FH   SYMBOL    XDATA    BYTE      i
      ---         BLOCKEND  ---      ---       LVL=1
      01009108H   LINE      CODE     ---       #135
      01009116H   LINE      CODE     ---       #136
      01009116H   LINE      CODE     ---       #139
      01009124H   LINE      CODE     ---       #140
      01009124H   LINE      CODE     ---       #141
      01009132H   LINE      CODE     ---       #142
      01009132H   LINE      CODE     ---       #143
      01009139H   LINE      CODE     ---       #144
      0100913BH   LINE      CODE     ---       #145
      0100915AH   LINE      CODE     ---       #146
      01009162H   LINE      CODE     ---       #148
      01009167H   LINE      CODE     ---       #149
      ---         BLOCKEND  ---      ---       LVL=0
      00000005H   SYMBOL    DATA     BYTE      status
      00000007H   SYMBOL    DATA     BYTE      i

      0100902AH   BLOCK     CODE     ---       LVL=0
      00000007H   SYMBOL    DATA     BYTE      array
      0200000FH   SYMBOL    XDATA    ---       buffer
      02000012H   SYMBOL    XDATA    WORD      size
      01009035H   BLOCK     CODE     NEAR LAB  LVL=1
      02000014H   SYMBOL    XDATA    BYTE      status
      00000006H   SYMBOL    DATA     WORD      i
      ---         BLOCKEND  ---      ---       LVL=1
      0100902AH   LINE      CODE     ---       #258
      01009035H   LINE      CODE     ---       #259
      01009035H   LINE      CODE     ---       #260
      0100903BH   LINE      CODE     ---       #264
      01009043H   LINE      CODE     ---       #265
      01009043H   LINE      CODE     ---       #266
      01009049H   LINE      CODE     ---       #267
      0100904CH   LINE      CODE     ---       #268
      0100904FH   LINE      CODE     ---       #271
      01009057H   LINE      CODE     ---       #272
      01009057H   LINE      CODE     ---       #273
      0100905CH   LINE      CODE     ---       #275
      0100906CH   LINE      CODE     ---       #276
LX51 LINKER/LOCATER V4.64.0.0                                                         01/31/2019  11:47:34  PAGE 107


      0100906CH   LINE      CODE     ---       #277
      01009082H   LINE      CODE     ---       #278
      01009089H   LINE      CODE     ---       #279
      01009089H   LINE      CODE     ---       #281
      01009089H   LINE      CODE     ---       #282
      0100908FH   LINE      CODE     ---       #283
      0100908FH   LINE      CODE     ---       #284
      01009091H   LINE      CODE     ---       #286
      01009091H   LINE      CODE     ---       #287
      01009097H   LINE      CODE     ---       #288
      01009097H   LINE      CODE     ---       #290
      0100909CH   LINE      CODE     ---       #291
      ---         BLOCKEND  ---      ---       LVL=0

      0100931FH   BLOCK     CODE     ---       LVL=0
      00000004H   SYMBOL    DATA     BYTE      array
      0200000FH   SYMBOL    XDATA    WORD      address
      00000003H   SYMBOL    DATA     BYTE      tempPolarity
      02000012H   SYMBOL    XDATA    BYTE      tempMagnitude
      01009329H   BLOCK     CODE     NEAR LAB  LVL=1
      00000005H   SYMBOL    DATA     BYTE      status
      ---         BLOCKEND  ---      ---       LVL=1
      0100931FH   LINE      CODE     ---       #464
      01009329H   LINE      CODE     ---       #466
      01009329H   LINE      CODE     ---       #467
      0100932BH   LINE      CODE     ---       #470
      01009333H   LINE      CODE     ---       #471
      01009333H   LINE      CODE     ---       #472
      01009339H   LINE      CODE     ---       #473
      0100933CH   LINE      CODE     ---       #474
      0100933FH   LINE      CODE     ---       #477
      01009347H   LINE      CODE     ---       #478
      01009347H   LINE      CODE     ---       #479
      0100934CH   LINE      CODE     ---       #480
      01009354H   LINE      CODE     ---       #481
      0100935EH   LINE      CODE     ---       #482
      01009360H   LINE      CODE     ---       #483
      01009368H   LINE      CODE     ---       #484
      0100936AH   LINE      CODE     ---       #486
      0100936AH   LINE      CODE     ---       #487
      0100936CH   LINE      CODE     ---       #488
      0100936CH   LINE      CODE     ---       #489
      0100936EH   LINE      CODE     ---       #491
      0100936EH   LINE      CODE     ---       #492
      01009370H   LINE      CODE     ---       #493
      01009370H   LINE      CODE     ---       #495
      01009372H   LINE      CODE     ---       #496
      ---         BLOCKEND  ---      ---       LVL=0
      00000007H   SYMBOL    DATA     BYTE      array
      00000005H   SYMBOL    DATA     BYTE      sectorNumber
      00000006H   SYMBOL    DATA     BYTE      status

      010099F4H   BLOCK     CODE     ---       LVL=0
      00000007H   SYMBOL    DATA     BYTE      numSamples
      010099F4H   BLOCK     CODE     NEAR LAB  LVL=1
      00000006H   SYMBOL    DATA     BYTE      status
      ---         BLOCKEND  ---      ---       LVL=1
      010099F4H   LINE      CODE     ---       #573
      010099F4H   LINE      CODE     ---       #574
      010099F4H   LINE      CODE     ---       #575
      010099F6H   LINE      CODE     ---       #578
      010099FEH   LINE      CODE     ---       #579
      010099FEH   LINE      CODE     ---       #580
      01009A04H   LINE      CODE     ---       #581
      01009A07H   LINE      CODE     ---       #582
LX51 LINKER/LOCATER V4.64.0.0                                                         01/31/2019  11:47:34  PAGE 108


      01009A0AH   LINE      CODE     ---       #585
      01009A12H   LINE      CODE     ---       #586
      01009A12H   LINE      CODE     ---       #587
      01009A17H   LINE      CODE     ---       #588
      01009A19H   LINE      CODE     ---       #590
      01009A19H   LINE      CODE     ---       #591
      01009A1BH   LINE      CODE     ---       #592
      01009A1BH   LINE      CODE     ---       #593
      01009A1DH   LINE      CODE     ---       #595
      01009A1DH   LINE      CODE     ---       #596
      01009A1FH   LINE      CODE     ---       #597
      01009A1FH   LINE      CODE     ---       #599
      01009A21H   LINE      CODE     ---       #600
      ---         BLOCKEND  ---      ---       LVL=0

      01009B8CH   BLOCK     CODE     ---       LVL=0
      01009B8CH   BLOCK     CODE     NEAR LAB  LVL=1
      0200000EH   SYMBOL    XDATA    BYTE      status
      00000007H   SYMBOL    DATA     BYTE      interruptState
      ---         BLOCKEND  ---      ---       LVL=1
      01009B8CH   LINE      CODE     ---       #618
      01009B8CH   LINE      CODE     ---       #619
      01009B8CH   LINE      CODE     ---       #620
      01009B92H   LINE      CODE     ---       #624
      01009B95H   LINE      CODE     ---       #626
      01009B9BH   LINE      CODE     ---       #627
      01009B9BH   LINE      CODE     ---       #628
      01009B9DH   LINE      CODE     ---       #629
      01009BA2H   LINE      CODE     ---       #647
      01009BA2H   LINE      CODE     ---       #650
      01009BA5H   LINE      CODE     ---       #652
      01009BAAH   LINE      CODE     ---       #653
      ---         BLOCKEND  ---      ---       LVL=0

      01009EE0H   BLOCK     CODE     ---       LVL=0
      01009EE0H   BLOCK     CODE     NEAR LAB  LVL=1
      00000007H   SYMBOL    DATA     BYTE      interruptState
      ---         BLOCKEND  ---      ---       LVL=1
      01009EE0H   LINE      CODE     ---       #670
      01009EE0H   LINE      CODE     ---       #671
      01009EE0H   LINE      CODE     ---       #675
      01009EE3H   LINE      CODE     ---       #678
      01009EE8H   LINE      CODE     ---       #698
      01009EEBH   LINE      CODE     ---       #699
      ---         BLOCKEND  ---      ---       LVL=0

      01009BE4H   BLOCK     CODE     ---       LVL=0
      01009BE4H   BLOCK     CODE     NEAR LAB  LVL=1
      00000007H   SYMBOL    DATA     BYTE      status
      ---         BLOCKEND  ---      ---       LVL=1
      01009BE4H   LINE      CODE     ---       #716
      01009BE4H   LINE      CODE     ---       #717
      01009BE4H   LINE      CODE     ---       #718
      01009BE6H   LINE      CODE     ---       #721
      01009BEEH   LINE      CODE     ---       #722
      01009BEEH   LINE      CODE     ---       #723
      01009BF4H   LINE      CODE     ---       #724
      01009BF7H   LINE      CODE     ---       #725
      01009BFAH   LINE      CODE     ---       #726
      01009BFCH   LINE      CODE     ---       #728
      01009BFCH   LINE      CODE     ---       #729
      01009BFEH   LINE      CODE     ---       #730
      01009BFEH   LINE      CODE     ---       #732
      01009BFEH   LINE      CODE     ---       #733
      ---         BLOCKEND  ---      ---       LVL=0
LX51 LINKER/LOCATER V4.64.0.0                                                         01/31/2019  11:47:34  PAGE 109



      ---         MODULE    ---      ---       SPI_IMU_INTCLOCK
      01009E41H   PUBLIC    CODE     ---       SPI_IMU_IntClock_Start

      01009E41H   BLOCK     CODE     ---       LVL=0
      01009E41H   LINE      CODE     ---       #45
      01009E41H   LINE      CODE     ---       #46
      01009E41H   LINE      CODE     ---       #48
      01009E48H   LINE      CODE     ---       #49
      01009E4FH   LINE      CODE     ---       #50
      ---         BLOCKEND  ---      ---       LVL=0
      00000007H   SYMBOL    DATA     BYTE      state
      00000007H   SYMBOL    DATA     BYTE      modeBitMask
      00000007H   SYMBOL    DATA     BYTE      modeBitMask
      00000007H   SYMBOL    DATA     BYTE      oldSrc

      ---         MODULE    ---      ---       ?C?FPADD
      01004D88H   PUBLIC    CODE     ---       ?C?FPADD
      01004D84H   PUBLIC    CODE     ---       ?C?FPSUB

      ---         MODULE    ---      ---       ?C?FPMUL
      01004E79H   PUBLIC    CODE     ---       ?C?FPMUL

      ---         MODULE    ---      ---       ?C?FPDIV
      01004F82H   PUBLIC    CODE     ---       ?C?FPDIV

      ---         MODULE    ---      ---       ?C?FPCMP
      01005021H   PUBLIC    CODE     ---       ?C?FPCMP
      0100501FH   PUBLIC    CODE     ---       ?C?FPCMP3

      ---         MODULE    ---      ---       ?C?FPNEG
      01005098H   PUBLIC    CODE     ---       ?C?FPNEG

      ---         MODULE    ---      ---       ?C?FCAST
      010050B3H   PUBLIC    CODE     ---       ?C?FCASTC
      010050AEH   PUBLIC    CODE     ---       ?C?FCASTI
      010050A9H   PUBLIC    CODE     ---       ?C?FCASTL

      ---         MODULE    ---      ---       ?C?CASTF
      010050E7H   PUBLIC    CODE     ---       ?C?CASTF

      ---         MODULE    ---      ---       PRINTF
      020008B0H   PUBLIC    XDATA    ---       ?_PRINTF?BYTE
      020008B0H   PUBLIC    XDATA    ---       ?_SPRINTF?BYTE
      01005E7BH   PUBLIC    CODE     ---       _PRINTF
      01005E75H   PUBLIC    CODE     ---       _SPRINTF

      ---         MODULE    ---      ---       FABS
      01009EBBH   PUBLIC    CODE     ---       _FABS

      ---         MODULE    ---      ---       ?C?FPGETOPN
      0100511EH   PUBLIC    CODE     ---       ?C?FPGETOPN2
      01005153H   PUBLIC    CODE     ---       ?C?FPNANRESULT
      0100515DH   PUBLIC    CODE     ---       ?C?FPOVERFLOW
      01005135H   PUBLIC    CODE     ---       ?C?FPRESULT
      01005149H   PUBLIC    CODE     ---       ?C?FPRESULT2
      0100515AH   PUBLIC    CODE     ---       ?C?FPUNDERFLOW

      ---         MODULE    ---      ---       ?C?FPROUND
      01005168H   PUBLIC    CODE     ---       ?C?FPROUND

      ---         MODULE    ---      ---       ?C?FPCONVERT
      010051A5H   PUBLIC    CODE     ---       ?C?FPCONVERT

      ---         MODULE    ---      ---       ?C?FTNPWR
LX51 LINKER/LOCATER V4.64.0.0                                                         01/31/2019  11:47:34  PAGE 110


      010052DAH   PUBLIC    CODE     ---       ?C?FTNPWR

      ---         MODULE    ---      ---       ?C_INIT
      01007D7CH   PUBLIC    CODE     ---       ?C_START

      ---         MODULE    ---      ---       ?C?CLDPTR
      0100531AH   PUBLIC    CODE     ---       ?C?CLDPTR

      ---         MODULE    ---      ---       ?C?CLDOPTR
      01005333H   PUBLIC    CODE     ---       ?C?CLDOPTR

      ---         MODULE    ---      ---       ?C?CSTPTR
      01005360H   PUBLIC    CODE     ---       ?C?CSTPTR

      ---         MODULE    ---      ---       ?C?IMUL
      01005372H   PUBLIC    CODE     ---       ?C?IMUL

      ---         MODULE    ---      ---       ?C?ISTPTR
      01005384H   PUBLIC    CODE     ---       ?C?ISTPTR

      ---         MODULE    ---      ---       ?C?LMUL
      010053A3H   PUBLIC    CODE     ---       ?C?LMUL

      ---         MODULE    ---      ---       ?C?ULDIV
      0100542EH   PUBLIC    CODE     ---       ?C?ULDIV

      ---         MODULE    ---      ---       ?C?SLDIV
      01009585H   PUBLIC    CODE     ---       ?C?SLDIV

      ---         MODULE    ---      ---       ?C?LNOT
      010054C0H   PUBLIC    CODE     ---       ?C?LNOT

      ---         MODULE    ---      ---       ?C?LNEG
      010054CDH   PUBLIC    CODE     ---       ?C?LNEG

      ---         MODULE    ---      ---       ?C?ULCMP
      010054DBH   PUBLIC    CODE     ---       ?C?ULCMP

      ---         MODULE    ---      ---       ?C?ULSHR
      010054ECH   PUBLIC    CODE     ---       ?C?ULSHR

      ---         MODULE    ---      ---       ?C?SLSHR
      010054FFH   PUBLIC    CODE     ---       ?C?SLSHR

      ---         MODULE    ---      ---       ?C?LSHL
      01005513H   PUBLIC    CODE     ---       ?C?LSHL

      ---         MODULE    ---      ---       ?C?LLDPTR
      01005526H   PUBLIC    CODE     ---       ?C?LLDPTR

      ---         MODULE    ---      ---       ?C?LSTPTR
      01005546H   PUBLIC    CODE     ---       ?C?LSTPTR

      ---         MODULE    ---      ---       ?C?LSTXDATA
      01005560H   PUBLIC    CODE     ---       ?C?LSTXDATA

      ---         MODULE    ---      ---       ?C?OFFX256
      0100556CH   PUBLIC    CODE     ---       ?C?OFFX256

      ---         MODULE    ---      ---       ?C?OFFXADD
      0100557DH   PUBLIC    CODE     ---       ?C?OFFXADD

      ---         MODULE    ---      ---       ?C?PLDIXDATA
      01005589H   PUBLIC    CODE     ---       ?C?PLDIXDATA

LX51 LINKER/LOCATER V4.64.0.0                                                         01/31/2019  11:47:34  PAGE 111


      ---         MODULE    ---      ---       ?C?PSTXDATA
      010055A0H   PUBLIC    CODE     ---       ?C?PSTXDATA

      ---         MODULE    ---      ---       ?C?CCASE
      010055A9H   PUBLIC    CODE     ---       ?C?CCASE

      ---         MODULE    ---      ---       ?C_XBP
      00000028H   PUBLIC    DATA     ---       ?C_XBP

      ---         MODULE    ---      ---       ?C?ADDXBP
      010055CFH   PUBLIC    CODE     ---       ?C?ADDXBP

      ---         MODULE    ---      ---       ?C?LIMUL
      010055F3H   PUBLIC    CODE     ---       ?C?LIMUL

      ---         MODULE    ---      ---       PUTCHAR
      010097D6H   PUBLIC    CODE     ---       _PUTCHAR

      ---         MODULE    ---      ---       STRCAT
      020008B0H   PUBLIC    XDATA    ---       ?_STRCAT?BYTE
      0100909DH   PUBLIC    CODE     ---       _STRCAT

      ---         MODULE    ---      ---       STRLEN
      01009D14H   PUBLIC    CODE     ---       _STRLEN

      ---         MODULE    ---      ---       ?C?MEMSET
      01005620H   PUBLIC    CODE     ---       ?C?MEMSET

      ---         MODULE    ---      ---       ?C?COPYAMD
      01005708H   PUBLIC    CODE     ---       ?C?COPYAMD

      ---         MODULE    ---      ---       ?C?STRCPYAMD
      010057E6H   PUBLIC    CODE     ---       ?C?STRCPYAMD

      ---         MODULE    ---      ---       ?C?IILDX
      01005803H   PUBLIC    CODE     ---       ?C?IILDX

      ---         MODULE    ---      ---       ?C?ILDIX
      01005819H   PUBLIC    CODE     ---       ?C?ILDIX

      ---         MODULE    ---      ---       ?C?LLDIDATA
      0100582FH   PUBLIC    CODE     ---       ?C?LLDIDATA

      ---         MODULE    ---      ---       ?C?LLDXDATA
      0100583BH   PUBLIC    CODE     ---       ?C?LLDXDATA

      ---         MODULE    ---      ---       ?C?LLDPDATA
      01005847H   PUBLIC    CODE     ---       ?C?LLDPDATA

      ---         MODULE    ---      ---       ?C?LLDCODE
      01005853H   PUBLIC    CODE     ---       ?C?LLDCODE

      ---         MODULE    ---      ---       ?C?LSTIDATA
      01005863H   PUBLIC    CODE     ---       ?C?LSTIDATA

      ---         MODULE    ---      ---       ?C?LSTPDATA
      0100586FH   PUBLIC    CODE     ---       ?C?LSTPDATA



INTER-MODULE CROSS-REFERENCE LISTING


NAME . . . . . . . . . . . . . . . . . CLASS    MODULE NAMES
============================================================
LX51 LINKER/LOCATER V4.64.0.0                                                         01/31/2019  11:47:34  PAGE 112



?_Bootloadable_SetFlashByte?BYTE . . . XDATA    BOOTLOADABLE  
?_cyconfigcpy?BYTE . . . . . . . . . . XDATA    CYMEM  CYFITTER_CFG  
?_CyDmaChSetConfiguration?BYTE . . . . XDATA    CYDMAC  DMA_DMA  
?_CyDmaChStatus?BYTE . . . . . . . . . XDATA    CYDMAC  
?_CyDmaTdGetAddress?BYTE . . . . . . . XDATA    CYDMAC  
?_CyDmaTdGetConfiguration?BYTE . . . . XDATA    CYDMAC  
?_CyDmaTdSetConfiguration?BYTE . . . . XDATA    CYDMAC  MAIN  
?_CySpcLoadMultiByte?BYTE. . . . . . . XDATA    CYSPC  EEPROM  
?_CySpcLoadRow?BYTE. . . . . . . . . . XDATA    CYSPC  EEPROM  
?_CySpcLoadRowFull?BYTE. . . . . . . . XDATA    CYSPC  CYFLASH  
?_CySpcWriteRow?BYTE . . . . . . . . . XDATA    CYSPC  CYFLASH  EEPROM  
?_CyWriteRowFull?BYTE. . . . . . . . . XDATA    CYFLASH  
?_DMA_DmaInitialize?BYTE . . . . . . . XDATA    DMA_DMA  MAIN  
?_PRINTF?BYTE. . . . . . . . . . . . . XDATA    PRINTF  
?_SPRINTF?BYTE . . . . . . . . . . . . XDATA    PRINTF  COMMAND_PROCESSING  
?_strcat?BYTE. . . . . . . . . . . . . XDATA    STRCAT  COMMAND_PROCESSING  
?C?ADDXBP. . . . . . . . . . . . . . . CODE     ?C?ADDXBP  CYLIB  
?C?CASTF . . . . . . . . . . . . . . . CODE     ?C?CASTF  ADC  
?C?CCASE . . . . . . . . . . . . . . . CODE     ?C?CCASE  COMMAND_PROCESSING  PRINTF  
?C?CLDOPTR . . . . . . . . . . . . . . CODE     ?C?CLDOPTR  PRINTF  
?C?CLDPTR. . . . . . . . . . . . . . . CODE     ?C?CLDPTR  COMMAND_PROCESSING  CYSPC  PRINTF  SPI_IMU  STRCAT  STRLEN  U
                                                ART_RS485  
?C?CODESEG . . . . . . . . . . . . . . NUMBER   ** LX51 GENERATED **  
?C?COPYAMD . . . . . . . . . . . . . . CODE     ?C?COPYAMD  COMMAND_PROCESSING  INTERRUPTIONS  
?C?CSTPTR. . . . . . . . . . . . . . . CODE     ?C?CSTPTR  CYDMAC  CYSPC  PRINTF  STRCAT  
?C?FCASTC. . . . . . . . . . . . . . . CODE     ?C?FCAST  
?C?FCASTI. . . . . . . . . . . . . . . CODE     ?C?FCAST  ADC  IMU_FUNCTIONS  
?C?FCASTL. . . . . . . . . . . . . . . CODE     ?C?FCAST  ADC  COMMAND_PROCESSING  IMU_FUNCTIONS  
?C?FPADD . . . . . . . . . . . . . . . CODE     ?C?FPADD  ?C?FPCONVERT  IMU_FUNCTIONS  UTILS  
?C?FPCMP . . . . . . . . . . . . . . . CODE     ?C?FPCMP  
?C?FPCMP3. . . . . . . . . . . . . . . CODE     ?C?FPCMP  ADC  IMU_FUNCTIONS  
?C?FPCONVERT . . . . . . . . . . . . . CODE     ?C?FPCONVERT  PRINTF  
?C?FPDIV . . . . . . . . . . . . . . . CODE     ?C?FPDIV  ?C?FPCONVERT  ADC  COMMAND_PROCESSING  IMU_FUNCTIONS  
?C?FPGETOPN2 . . . . . . . . . . . . . CODE     ?C?FPGETOPN  ?C?FPADD  ?C?FPDIV  ?C?FPMUL  
?C?FPMUL . . . . . . . . . . . . . . . CODE     ?C?FPMUL  ?C?FPCONVERT  ?C?FTNPWR  ADC  IMU_FUNCTIONS  UTILS  
?C?FPNANRESULT . . . . . . . . . . . . CODE     ?C?FPGETOPN  ?C?FPADD  ?C?FPDIV  ?C?FPMUL  
?C?FPNEG . . . . . . . . . . . . . . . CODE     ?C?FPNEG  IMU_FUNCTIONS  
?C?FPOVERFLOW. . . . . . . . . . . . . CODE     ?C?FPGETOPN  ?C?FPADD  ?C?FPDIV  ?C?FPMUL  
?C?FPRESULT. . . . . . . . . . . . . . CODE     ?C?FPGETOPN  ?C?FPADD  ?C?FPDIV  ?C?FPMUL  
?C?FPRESULT2 . . . . . . . . . . . . . CODE     ?C?FPGETOPN  ?C?FPDIV  ?C?FPMUL  
?C?FPROUND . . . . . . . . . . . . . . CODE     ?C?FPROUND  PRINTF  
?C?FPSUB . . . . . . . . . . . . . . . CODE     ?C?FPADD  IMU_FUNCTIONS  UTILS  
?C?FPUNDERFLOW . . . . . . . . . . . . CODE     ?C?FPGETOPN  ?C?FPADD  ?C?FPDIV  ?C?FPMUL  
?C?FTNPWR. . . . . . . . . . . . . . . CODE     ?C?FTNPWR  ?C?FPCONVERT  
?C?IILDX . . . . . . . . . . . . . . . CODE     ?C?IILDX  STRCAT  
?C?ILDIX . . . . . . . . . . . . . . . CODE     ?C?ILDIX  STRCAT  
?C?IMUL. . . . . . . . . . . . . . . . CODE     ?C?IMUL  COMMAND_PROCESSING  
?C?ISTPTR. . . . . . . . . . . . . . . CODE     ?C?ISTPTR  CYDMAC  
?C?LIMUL . . . . . . . . . . . . . . . CODE     ?C?LIMUL  CYSPC  
?C?LLDCODE . . . . . . . . . . . . . . CODE     ?C?LLDCODE  ?C?LLDPTR  
?C?LLDIDATA. . . . . . . . . . . . . . CODE     ?C?LLDIDATA  ?C?LLDPTR  
?C?LLDPDATA. . . . . . . . . . . . . . CODE     ?C?LLDPDATA  ?C?LLDPTR  
?C?LLDPTR. . . . . . . . . . . . . . . CODE     ?C?LLDPTR  CYLIB  UTILS  
?C?LLDXDATA. . . . . . . . . . . . . . CODE     ?C?LLDXDATA  ?C?LLDPTR  
?C?LMUL. . . . . . . . . . . . . . . . CODE     ?C?LMUL  ADC  CYLIB  CYPM  
?C?LNEG. . . . . . . . . . . . . . . . CODE     ?C?LNEG  ?C?CASTF  ?C?FCAST  
?C?LNOT. . . . . . . . . . . . . . . . CODE     ?C?LNOT  CYDMAC  
?C?LSHL. . . . . . . . . . . . . . . . CODE     ?C?LSHL  ADC  CYDMAC  CYLIB  
?C?LSTIDATA. . . . . . . . . . . . . . CODE     ?C?LSTIDATA  ?C?LSTPTR  
?C?LSTPDATA. . . . . . . . . . . . . . CODE     ?C?LSTPDATA  ?C?LSTPTR  
?C?LSTPTR. . . . . . . . . . . . . . . CODE     ?C?LSTPTR  CYLIB  UTILS  
?C?LSTXDATA. . . . . . . . . . . . . . CODE     ?C?LSTXDATA  ?C?LSTPTR  ADC  BOOTLOADABLE  COMMAND_PROCESSING  CYDMAC  C
                                                YFITTER_CFG  CYLIB  CYSPC  IMU_FUNCTIONS  INTERRUPTIONS  UTILS  
?C?MEMSET. . . . . . . . . . . . . . . CODE     ?C?MEMSET  COMMAND_PROCESSING  IMU_FUNCTIONS  
LX51 LINKER/LOCATER V4.64.0.0                                                         01/31/2019  11:47:34  PAGE 113


?C?OFFX256 . . . . . . . . . . . . . . CODE     ?C?OFFX256  COMMAND_PROCESSING  
?C?OFFXADD . . . . . . . . . . . . . . CODE     ?C?OFFXADD  COMMAND_PROCESSING  IMU_FUNCTIONS  
?C?PLDIXDATA . . . . . . . . . . . . . CODE     ?C?PLDIXDATA  PRINTF  
?C?PSTXDATA. . . . . . . . . . . . . . CODE     ?C?PSTXDATA  PRINTF  
?C?SLDIV . . . . . . . . . . . . . . . CODE     ?C?SLDIV  ADC  
?C?SLSHR . . . . . . . . . . . . . . . CODE     ?C?SLSHR  UTILS  
?C?STRCPYAMD . . . . . . . . . . . . . CODE     ?C?STRCPYAMD  COMMAND_PROCESSING  
?C?ULCMP . . . . . . . . . . . . . . . CODE     ?C?ULCMP  CYDMAC  CYFLASH  
?C?ULDIV . . . . . . . . . . . . . . . CODE     ?C?ULDIV  ?C?SLDIV  ADC  BOOTLOADABLE  CYLIB  CYPM  
?C?ULSHR . . . . . . . . . . . . . . . CODE     ?C?ULSHR  CYLIB  
?C?XDATASEG. . . . . . . . . . . . . . NUMBER   ** LX51 GENERATED **  
?C?XPAGE1RST . . . . . . . . . . . . . NUMBER   ?C_STARTUP  ADC_INT  INTERRUPTIONS  ISR_RS485_RX  UART_RS485_INT  
?C?XPAGE1SFR . . . . . . . . . . . . . DATA     ?C_STARTUP  ADC_INT  INTERRUPTIONS  ISR_RS485_RX  UART_RS485_INT  
?C_START . . . . . . . . . . . . . . . CODE     ?C_INIT  ?C_STARTUP  
?C_STARTUP . . . . . . . . . . . . . . CODE     ?C_STARTUP  MAIN  
?C_XBP . . . . . . . . . . . . . . . . DATA     ?C_XBP  ?C?ADDXBP  ?C_STARTUP  CYLIB  
_?CyDelay. . . . . . . . . . . . . . . CODE     CYLIB  COMMAND_PROCESSING  CYBOOTASMKEIL  IMU_FUNCTIONS  MAIN  
_?CyDelayFreq. . . . . . . . . . . . . CODE     CYLIB  
_?CyHalt . . . . . . . . . . . . . . . CODE     CYLIB  
_ADC_AMux_FastSelect . . . . . . . . . CODE     ADC_AMUX  
_ADC_AMux_Select . . . . . . . . . . . CODE     ADC_AMUX  ADC  
_ADC_AMux_Set. . . . . . . . . . . . . CODE     CYFITTER_CFG  ADC_AMUX  
_ADC_AMux_Unset. . . . . . . . . . . . CODE     CYFITTER_CFG  ADC_AMUX  
_ADC_CountsTo_mVolts . . . . . . . . . CODE     ADC  
_ADC_CountsTo_uVolts . . . . . . . . . CODE     ADC  
_ADC_CountsTo_Volts. . . . . . . . . . CODE     ADC  
_ADC_Ext_CP_Clk_ClearModeRegister. . . CODE     ADC_EXT_CP_CLK  
_ADC_Ext_CP_Clk_SetDividerRegister . . CODE     ADC_EXT_CP_CLK  ADC  
_ADC_Ext_CP_Clk_SetModeRegister. . . . CODE     ADC_EXT_CP_CLK  ADC  
_ADC_Ext_CP_Clk_SetSourceRegister. . . CODE     ADC_EXT_CP_CLK  
_ADC_Ext_CP_Clk_StandbyPower . . . . . CODE     ADC_EXT_CP_CLK  
_ADC_IsEndConversion . . . . . . . . . CODE     ADC  
_ADC_SelectConfiguration . . . . . . . CODE     ADC  
_ADC_SetBufferGain . . . . . . . . . . CODE     ADC  
_ADC_SetCoherency. . . . . . . . . . . CODE     ADC  
_ADC_SetGain . . . . . . . . . . . . . CODE     ADC  
_ADC_SetGCOR . . . . . . . . . . . . . CODE     ADC  
_ADC_SetOffset . . . . . . . . . . . . CODE     ADC  
_ADC_SOC_Write . . . . . . . . . . . . CODE     ADC_SOC  INTERRUPTIONS  MAIN  
_ADC_STATUS_WriteMask. . . . . . . . . CODE     ADC_STATUS  
_ADC_theACLK_ClearModeRegister . . . . CODE     ADC_THEACLK  
_ADC_theACLK_SetDividerRegister. . . . CODE     ADC_THEACLK  ADC  
_ADC_theACLK_SetModeRegister . . . . . CODE     ADC_THEACLK  ADC  
_ADC_theACLK_SetPhaseRegister. . . . . CODE     ADC_THEACLK  
_ADC_theACLK_SetSourceRegister . . . . CODE     ADC_THEACLK  
_ADC_theACLK_StandbyPower. . . . . . . CODE     ADC_THEACLK  
_Bootloadable_SetFlashByte . . . . . . CODE     BOOTLOADABLE  
_cfg_write_bytes . . . . . . . . . . . CODE     CYMEM  
_cfg_write_bytes_code. . . . . . . . . CODE     CYMEM  
_Chip_Select_A_Write . . . . . . . . . CODE     CHIP_SELECT_A  IMU_FUNCTIONS  
_Chip_Select_B_Write . . . . . . . . . CODE     CHIP_SELECT_B  IMU_FUNCTIONS  
_ChipSelector. . . . . . . . . . . . . CODE     IMU_FUNCTIONS  
_CLOCK_UART_ClearModeRegister. . . . . CODE     CLOCK_UART  
_CLOCK_UART_SetDividerRegister . . . . CODE     CLOCK_UART  COMMAND_PROCESSING  
_CLOCK_UART_SetModeRegister. . . . . . CODE     CLOCK_UART  
_CLOCK_UART_SetSourceRegister. . . . . CODE     CLOCK_UART  
_CLOCK_UART_StandbyPower . . . . . . . CODE     CLOCK_UART  
_commWrite . . . . . . . . . . . . . . CODE     COMMAND_PROCESSING  
_CyBusClk_SetDivider . . . . . . . . . CODE     CYLIB  CYPM  
_cyconfigcpy . . . . . . . . . . . . . CODE     CYMEM  CYFITTER_CFG  
_cyconfigcpycode . . . . . . . . . . . CODE     CYMEM  CYFITTER_CFG  
_CyCpuClk_SetDivider . . . . . . . . . CODE     CYLIB  
_CyDelay . . . . . . . . . . . . . . . CODE     CYBOOTASMKEIL  
_CyDelayCycles . . . . . . . . . . . . CODE     CYBOOTASMKEIL  CYFITTER_CFG  CYLIB  CYPM  
_CyDelayUs . . . . . . . . . . . . . . CODE     CYBOOTASMKEIL  ADC  CYFLASH  CYLIB  CYPM  CYSPC  IMU_FUNCTIONS  
LX51 LINKER/LOCATER V4.64.0.0                                                         01/31/2019  11:47:34  PAGE 114


_CyDmacClearError. . . . . . . . . . . CODE     CYDMAC  
_CyDmaChDisable. . . . . . . . . . . . CODE     CYDMAC  DMA_DMA  
_CyDmaChEnable . . . . . . . . . . . . CODE     CYDMAC  MAIN  
_CyDmaChFree . . . . . . . . . . . . . CODE     CYDMAC  
_CyDmaChGetRequest . . . . . . . . . . CODE     CYDMAC  
_CyDmaChPriority . . . . . . . . . . . CODE     CYDMAC  DMA_DMA  
_CyDmaChRoundRobin . . . . . . . . . . CODE     CYDMAC  
_CyDmaChSetConfiguration . . . . . . . CODE     CYDMAC  DMA_DMA  
_CyDmaChSetExtendedAddress . . . . . . CODE     CYDMAC  DMA_DMA  
_CyDmaChSetInitialTd . . . . . . . . . CODE     CYDMAC  MAIN  
_CyDmaChSetRequest . . . . . . . . . . CODE     CYDMAC  
_CyDmaChStatus . . . . . . . . . . . . CODE     CYDMAC  
_CyDmaClearPendingDrq. . . . . . . . . CODE     CYDMAC  
_CyDmaTdFree . . . . . . . . . . . . . CODE     CYDMAC  
_CyDmaTdGetAddress . . . . . . . . . . CODE     CYDMAC  
_CyDmaTdGetConfiguration . . . . . . . CODE     CYDMAC  
_CyDmaTdSetAddress . . . . . . . . . . CODE     CYDMAC  MAIN  
_CyDmaTdSetConfiguration . . . . . . . CODE     CYDMAC  MAIN  
_CyEnableInts. . . . . . . . . . . . . CODE     CYLIB  
_CyExitCriticalSection . . . . . . . . CODE     CYBOOTASMKEIL  ADC  ADC_STATUS  CYDMAC  CYFLASH  CYLIB  CYPM  CYSPC  EEP
                                                ROM  FF_STATUS  MY_TIMER  SPI_IMU  UART_RS485  
_CyFlash_SetWaitCycles . . . . . . . . CODE     CYFLASH  CYPM  
_CyGetUniqueId . . . . . . . . . . . . CODE     CYLIB  
_CyILO_SetPowerMode. . . . . . . . . . CODE     CYLIB  CYPM  
_CyILO_SetSource . . . . . . . . . . . CODE     CYLIB  
_CyIMO_SetFreq . . . . . . . . . . . . CODE     CYLIB  CYPM  
_CyIMO_SetSource . . . . . . . . . . . CODE     CYLIB  CYPM  
_CyIMO_Start . . . . . . . . . . . . . CODE     CYLIB  CYPM  
_CyIntGetPriority. . . . . . . . . . . CODE     CYLIB  
_CyIntGetState . . . . . . . . . . . . CODE     CYLIB  
_CyIntGetVector. . . . . . . . . . . . CODE     CYLIB  
_CyIntSetPriority. . . . . . . . . . . CODE     CYLIB  ADC  UART_RS485  
_CyIntSetVector. . . . . . . . . . . . CODE     CYLIB  ADC  UART_RS485  
_CyMasterClk_SetDivider. . . . . . . . CODE     CYLIB  CYPM  
_CyMasterClk_SetSource . . . . . . . . CODE     CYLIB  CYPM  
_cymemzero . . . . . . . . . . . . . . CODE     CYMEM  
_CyPLL_OUT_SetPQ . . . . . . . . . . . CODE     CYLIB  
_CyPLL_OUT_SetSource . . . . . . . . . CODE     CYLIB  
_CyPLL_OUT_Start . . . . . . . . . . . CODE     CYLIB  CYPM  
_CyPmAltAct. . . . . . . . . . . . . . CODE     CYPM  
_CyPmCtwSetInterval. . . . . . . . . . CODE     CYPM  
_CyPmFtwSetInterval. . . . . . . . . . CODE     CYPM  CYLIB  
_CyPmHibernateEx . . . . . . . . . . . CODE     CYPM  
_CyPmReadStatus. . . . . . . . . . . . CODE     CYPM  CYLIB  
_CyPmSleep . . . . . . . . . . . . . . CODE     CYPM  
_cyread16. . . . . . . . . . . . . . . CODE     CYMEM  
_cyread16_nodpx. . . . . . . . . . . . CODE     CYMEM  ADC  ADC_EXT_CP_CLK  ADC_THEACLK  CLOCK_UART  CYDMAC  CYLIB  ISR_
                                                RS485_RX  PACER_TIMER  SPI_IMU_INTCLOCK  
_cyread24. . . . . . . . . . . . . . . CODE     CYMEM  
_cyread24_nodpx. . . . . . . . . . . . CODE     CYMEM  MY_TIMER  
_cyread32. . . . . . . . . . . . . . . CODE     CYMEM  
_cyread32_nodpx. . . . . . . . . . . . CODE     CYMEM  CYDMAC  
_cyread8 . . . . . . . . . . . . . . . CODE     CYMEM  ADC  CYFITTER_CFG  CYLIB  CYSPC  
_cyread8_nodpx . . . . . . . . . . . . CODE     CYMEM  
_CySetFlashEEBuffer. . . . . . . . . . CODE     CYFLASH  
_CySpcEraseSector. . . . . . . . . . . CODE     CYSPC  EEPROM  
_CySpcGetTemp. . . . . . . . . . . . . CODE     CYSPC  CYFLASH  
_CySpcLoadMultiByte. . . . . . . . . . CODE     CYSPC  EEPROM  
_CySpcLoadRow. . . . . . . . . . . . . CODE     CYSPC  EEPROM  
_CySpcLoadRowFull. . . . . . . . . . . CODE     CYSPC  CYFLASH  
_CySpcReadData . . . . . . . . . . . . CODE     CYSPC  CYFLASH  
_CySpcWriteRow . . . . . . . . . . . . CODE     CYSPC  CYFLASH  EEPROM  
_CyUsbClk_SetSource. . . . . . . . . . CODE     CYLIB  
_CyVdLvAnalogEnable. . . . . . . . . . CODE     CYLIB  CYPM  
_CyVdLvDigitEnable . . . . . . . . . . CODE     CYLIB  CYPM  
LX51 LINKER/LOCATER V4.64.0.0                                                         01/31/2019  11:47:34  PAGE 115


_CyVdStickyStatus. . . . . . . . . . . CODE     CYLIB  
_CyWdtStart. . . . . . . . . . . . . . CODE     CYLIB  
_cywrite16 . . . . . . . . . . . . . . CODE     CYMEM  CYFITTER_CFG  
_cywrite16_nodpx . . . . . . . . . . . CODE     CYMEM  ADC  ADC_EXT_CP_CLK  ADC_THEACLK  CLOCK_UART  CYDMAC  CYFITTER_CF
                                                G  CYLIB  ISR_RS485_RX  PACER_TIMER  SPI_IMU_INTCLOCK  
_cywrite24 . . . . . . . . . . . . . . CODE     CYMEM  
_cywrite24_nodpx . . . . . . . . . . . CODE     CYMEM  MY_TIMER  
_cywrite32 . . . . . . . . . . . . . . CODE     CYMEM  
_cywrite32_nodpx . . . . . . . . . . . CODE     CYMEM  
_cywrite8. . . . . . . . . . . . . . . CODE     CYMEM  CYFITTER_CFG  
_cywrite8_nodpx. . . . . . . . . . . . CODE     CYMEM  
_CyWriteRowData. . . . . . . . . . . . CODE     CYFLASH  BOOTLOADABLE  
_CyWriteRowFull. . . . . . . . . . . . CODE     CYFLASH  
_CyXTAL_32KHZ_SetPowerMode . . . . . . CODE     CYLIB  
_CyXTAL_SetFbVoltage . . . . . . . . . CODE     CYLIB  
_CyXTAL_SetStartup . . . . . . . . . . CODE     CYLIB  
_CyXTAL_SetWdVoltage . . . . . . . . . CODE     CYLIB  
_CyXTAL_Start. . . . . . . . . . . . . CODE     CYLIB  CYPM  
_DMA_DmaInitialize . . . . . . . . . . CODE     DMA_DMA  MAIN  
_dma_wait. . . . . . . . . . . . . . . CODE     ?C_STARTUP  
_EEPROM_ByteWritePos . . . . . . . . . CODE     EEPROM  
_EEPROM_EraseSector. . . . . . . . . . CODE     EEPROM  
_EEPROM_ReadByte . . . . . . . . . . . CODE     EEPROM  
_EEPROM_StartErase . . . . . . . . . . CODE     EEPROM  
_EEPROM_StartWrite . . . . . . . . . . CODE     EEPROM  
_EEPROM_Write. . . . . . . . . . . . . CODE     EEPROM  COMMAND_PROCESSING  
_EEPROM_WriteByte. . . . . . . . . . . CODE     EEPROM  
_FABS. . . . . . . . . . . . . . . . . CODE     FABS  IMU_FUNCTIONS  
_FF_STATUS_WriteMask . . . . . . . . . CODE     FF_STATUS  
_FTDI_ENABLE_REG_Write . . . . . . . . CODE     FTDI_ENABLE_REG  COMMAND_PROCESSING  MAIN  
_get_param_list. . . . . . . . . . . . CODE     COMMAND_PROCESSING  
_infoGet . . . . . . . . . . . . . . . CODE     COMMAND_PROCESSING  INTERRUPTIONS  
_infoPrepare . . . . . . . . . . . . . CODE     COMMAND_PROCESSING  
_infoReading . . . . . . . . . . . . . CODE     COMMAND_PROCESSING  
_invSqrt . . . . . . . . . . . . . . . CODE     UTILS  
_ISR_RS485_RX_SetPriority. . . . . . . CODE     ISR_RS485_RX  
_ISR_RS485_RX_SetVector. . . . . . . . CODE     ISR_RS485_RX  
_ISR_RS485_RX_StartEx. . . . . . . . . CODE     ISR_RS485_RX  MAIN  
_LCRChecksum . . . . . . . . . . . . . CODE     COMMAND_PROCESSING  
_memStore. . . . . . . . . . . . . . . CODE     COMMAND_PROCESSING  
_MY_TIMER_SetInterruptMode . . . . . . CODE     MY_TIMER  
_MY_TIMER_WriteControlRegister . . . . CODE     MY_TIMER  
_MY_TIMER_WriteCounter . . . . . . . . CODE     MY_TIMER  INTERRUPTIONS  
_MY_TIMER_WritePeriod. . . . . . . . . CODE     MY_TIMER  
_Opto_Pin_SetDriveMode . . . . . . . . CODE     OPTO_PIN  
_Opto_Pin_Write. . . . . . . . . . . . CODE     OPTO_PIN  IMU_FUNCTIONS  MAIN  
_PACER_TIMER_SetInterruptMode. . . . . CODE     PACER_TIMER  
_PACER_TIMER_WriteControlRegister. . . CODE     PACER_TIMER  
_PACER_TIMER_WriteCounter. . . . . . . CODE     PACER_TIMER  
_PACER_TIMER_WritePeriod . . . . . . . CODE     PACER_TIMER  
_PRINTF. . . . . . . . . . . . . . . . CODE     PRINTF  
_PUTCHAR . . . . . . . . . . . . . . . CODE     PUTCHAR  PRINTF  
_ReadAcc . . . . . . . . . . . . . . . CODE     IMU_FUNCTIONS  
_ReadControlRegister . . . . . . . . . CODE     IMU_FUNCTIONS  
_ReadGyro. . . . . . . . . . . . . . . CODE     IMU_FUNCTIONS  
_ReadIMU . . . . . . . . . . . . . . . CODE     IMU_FUNCTIONS  
_ReadMag . . . . . . . . . . . . . . . CODE     IMU_FUNCTIONS  
_ReadMagCal. . . . . . . . . . . . . . CODE     IMU_FUNCTIONS  
_ReadQuat. . . . . . . . . . . . . . . CODE     IMU_FUNCTIONS  
_ReadTemp. . . . . . . . . . . . . . . CODE     IMU_FUNCTIONS  
_RESET_FF_Write. . . . . . . . . . . . CODE     RESET_FF  MAIN  
_RS485_CTS_Write . . . . . . . . . . . CODE     RS485_CTS  COMMAND_PROCESSING  INTERRUPTIONS  MAIN  
_sendAcknowledgment. . . . . . . . . . CODE     COMMAND_PROCESSING  
_SetAnalogRoutingPumps . . . . . . . . CODE     CYFITTER_CFG  
_SPI_IMU_IntClock_ClearModeRegister. . CODE     SPI_IMU_INTCLOCK  
LX51 LINKER/LOCATER V4.64.0.0                                                         01/31/2019  11:47:34  PAGE 116


_SPI_IMU_IntClock_SetDividerRegister . CODE     SPI_IMU_INTCLOCK  
_SPI_IMU_IntClock_SetModeRegister. . . CODE     SPI_IMU_INTCLOCK  
_SPI_IMU_IntClock_SetSourceRegister. . CODE     SPI_IMU_INTCLOCK  
_SPI_IMU_IntClock_StandbyPower . . . . CODE     SPI_IMU_INTCLOCK  
_SPI_IMU_PutArray. . . . . . . . . . . CODE     SPI_IMU  
_SPI_IMU_SetInterruptMode. . . . . . . CODE     SPI_IMU  
_SPI_IMU_SetRxInterruptMode. . . . . . CODE     SPI_IMU  
_SPI_IMU_SetTxInterruptMode. . . . . . CODE     SPI_IMU  
_SPI_IMU_WriteTxData . . . . . . . . . CODE     SPI_IMU  IMU_FUNCTIONS  
_SPRINTF . . . . . . . . . . . . . . . CODE     PRINTF  COMMAND_PROCESSING  
_strcat. . . . . . . . . . . . . . . . CODE     STRCAT  COMMAND_PROCESSING  
_STRLEN. . . . . . . . . . . . . . . . CODE     STRLEN  COMMAND_PROCESSING  
_UART_RS485_PutArray . . . . . . . . . CODE     UART_RS485  
_UART_RS485_PutChar. . . . . . . . . . CODE     UART_RS485  COMMAND_PROCESSING  
_UART_RS485_PutCRLF. . . . . . . . . . CODE     UART_RS485  
_UART_RS485_PutString. . . . . . . . . CODE     UART_RS485  COMMAND_PROCESSING  
_UART_RS485_SendBreak. . . . . . . . . CODE     UART_RS485  
_UART_RS485_SetRxAddress1. . . . . . . CODE     UART_RS485  
_UART_RS485_SetRxAddress2. . . . . . . CODE     UART_RS485  
_UART_RS485_SetRxAddressMode . . . . . CODE     UART_RS485  
_UART_RS485_SetRxInterruptMode . . . . CODE     UART_RS485  
_UART_RS485_SetTxAddressMode . . . . . CODE     UART_RS485  
_UART_RS485_SetTxInterruptMode . . . . CODE     UART_RS485  
_UART_RS485_WriteControlRegister . . . CODE     UART_RS485  
_UART_RS485_WriteTxData. . . . . . . . CODE     UART_RS485  
_v3_normalize. . . . . . . . . . . . . CODE     UTILS  IMU_FUNCTIONS  
_v4_normalize. . . . . . . . . . . . . CODE     UTILS  IMU_FUNCTIONS  
_WriteControlRegister. . . . . . . . . CODE     IMU_FUNCTIONS  
AC . . . . . . . . . . . . . . . . . . DATA     COMMAND_PROCESSING  
ACC. . . . . . . . . . . . . . . . . . DATA     COMMAND_PROCESSING  
Accel. . . . . . . . . . . . . . . . . XDATA    GLOBALS  IMU_FUNCTIONS  
ADC_AMux__addrTable. . . . . . . . . . CONST    CYFITTER_CFG  
ADC_AMux__maskTable. . . . . . . . . . CONST    CYFITTER_CFG  
ADC_AMux_Start . . . . . . . . . . . . CODE     ADC_AMUX  
ADC_buf. . . . . . . . . . . . . . . . XDATA    GLOBALS  INTERRUPTIONS  MAIN  
ADC_Config . . . . . . . . . . . . . . XDATA    ADC  
ADC_convDone . . . . . . . . . . . . . XDATA    ADC  
ADC_CountsPerVolt. . . . . . . . . . . XDATA    ADC  
ADC_Enable . . . . . . . . . . . . . . CODE     ADC  
ADC_Ext_CP_Clk_GetDividerRegister. . . CODE     ADC_EXT_CP_CLK  
ADC_Ext_CP_Clk_GetModeRegister . . . . CODE     ADC_EXT_CP_CLK  
ADC_Ext_CP_Clk_GetSourceRegister . . . CODE     ADC_EXT_CP_CLK  
ADC_Ext_CP_Clk_Start . . . . . . . . . CODE     ADC_EXT_CP_CLK  
ADC_Ext_CP_Clk_Stop. . . . . . . . . . CODE     ADC_EXT_CP_CLK  
ADC_Ext_CP_Clk_StopBlock . . . . . . . CODE     ADC_EXT_CP_CLK  
ADC_GetResult16. . . . . . . . . . . . CODE     ADC  
ADC_GetResult32. . . . . . . . . . . . CODE     ADC  
ADC_GetResult8 . . . . . . . . . . . . CODE     ADC  
ADC_Init . . . . . . . . . . . . . . . CODE     ADC  
ADC_initVar. . . . . . . . . . . . . . XDATA    ADC  
ADC_ISR1 . . . . . . . . . . . . . . . CODE     ADC_INT  ADC  
ADC_ISR2 . . . . . . . . . . . . . . . CODE     ADC_INT  
ADC_ISR3 . . . . . . . . . . . . . . . CODE     ADC_INT  
ADC_ISR4 . . . . . . . . . . . . . . . CODE     ADC_INT  
ADC_Offset . . . . . . . . . . . . . . XDATA    ADC  
ADC_Read16 . . . . . . . . . . . . . . CODE     ADC  
ADC_Read32 . . . . . . . . . . . . . . CODE     ADC  
ADC_Read8. . . . . . . . . . . . . . . CODE     ADC  
ADC_ReadGCOR . . . . . . . . . . . . . CODE     ADC  
ADC_SOC_Read . . . . . . . . . . . . . CODE     ADC_SOC  
ADC_Start. . . . . . . . . . . . . . . CODE     ADC  MAIN  
ADC_StartConvert . . . . . . . . . . . CODE     ADC  
ADC_started. . . . . . . . . . . . . . XDATA    ADC  
ADC_STATUS_InterruptDisable. . . . . . CODE     ADC_STATUS  
ADC_STATUS_InterruptEnable . . . . . . CODE     ADC_STATUS  
LX51 LINKER/LOCATER V4.64.0.0                                                         01/31/2019  11:47:34  PAGE 117


ADC_STATUS_Read. . . . . . . . . . . . CODE     ADC_STATUS  INTERRUPTIONS  
ADC_STATUS_ReadMask. . . . . . . . . . CODE     ADC_STATUS  
ADC_Stop . . . . . . . . . . . . . . . CODE     ADC  
ADC_stopConversion . . . . . . . . . . XDATA    ADC  
ADC_StopConvert. . . . . . . . . . . . CODE     ADC  
ADC_theACLK_GetDividerRegister . . . . CODE     ADC_THEACLK  
ADC_theACLK_GetModeRegister. . . . . . CODE     ADC_THEACLK  
ADC_theACLK_GetPhaseRegister . . . . . CODE     ADC_THEACLK  
ADC_theACLK_GetSourceRegister. . . . . CODE     ADC_THEACLK  
ADC_theACLK_Start. . . . . . . . . . . CODE     ADC_THEACLK  
ADC_theACLK_Stop . . . . . . . . . . . CODE     ADC_THEACLK  
ADC_theACLK_StopBlock. . . . . . . . . CODE     ADC_THEACLK  
analog_read_end. . . . . . . . . . . . CODE     INTERRUPTIONS  
B. . . . . . . . . . . . . . . . . . . DATA     COMMAND_PROCESSING  
Bootloadable_Load. . . . . . . . . . . CODE     BOOTLOADABLE  COMMAND_PROCESSING  
c_mem. . . . . . . . . . . . . . . . . XDATA    GLOBALS  COMMAND_PROCESSING  IMU_FUNCTIONS  INTERRUPTIONS  
Chip_Select_A_Read . . . . . . . . . . CODE     CHIP_SELECT_A  
Chip_Select_B_Read . . . . . . . . . . CODE     CHIP_SELECT_B  
CLOCK_UART_GetDividerRegister. . . . . CODE     CLOCK_UART  
CLOCK_UART_GetModeRegister . . . . . . CODE     CLOCK_UART  
CLOCK_UART_GetSourceRegister . . . . . CODE     CLOCK_UART  
CLOCK_UART_Start . . . . . . . . . . . CODE     CLOCK_UART  
CLOCK_UART_Stop. . . . . . . . . . . . CODE     CLOCK_UART  
CLOCK_UART_StopBlock . . . . . . . . . CODE     CLOCK_UART  
cmd_get_imu_readings . . . . . . . . . CODE     COMMAND_PROCESSING  
cmd_get_sensors. . . . . . . . . . . . CODE     COMMAND_PROCESSING  
cmd_ping . . . . . . . . . . . . . . . CODE     COMMAND_PROCESSING  
cmd_set_baudrate . . . . . . . . . . . CODE     COMMAND_PROCESSING  
cmd_store_params . . . . . . . . . . . CODE     COMMAND_PROCESSING  
commProcess. . . . . . . . . . . . . . CODE     COMMAND_PROCESSING  INTERRUPTIONS  
CY . . . . . . . . . . . . . . . . . . DATA     COMMAND_PROCESSING  
cydelay_32k_ms . . . . . . . . . . . . XDATA    CYLIB  
cydelay_freq_hz. . . . . . . . . . . . XDATA    CYLIB  
cydelay_freq_khz . . . . . . . . . . . XDATA    CYLIB  
cydelay_freq_mhz . . . . . . . . . . . XDATA    CYLIB  CYBOOTASMKEIL  
CyDisableInts. . . . . . . . . . . . . CODE     CYLIB  
CyDmacConfigure. . . . . . . . . . . . CODE     CYDMAC  ?C_STARTUP  
CyDmacError. . . . . . . . . . . . . . CODE     CYDMAC  
CyDmacErrorAddress . . . . . . . . . . CODE     CYDMAC  
CyDmaChAlloc . . . . . . . . . . . . . CODE     CYDMAC  
CyDmaTdAllocate. . . . . . . . . . . . CODE     CYDMAC  MAIN  
CyDmaTdFreeCount . . . . . . . . . . . CODE     CYDMAC  
CyEEPROM_ReadRelease . . . . . . . . . CODE     CYFLASH  EEPROM  
CyEEPROM_ReadReserve . . . . . . . . . CODE     CYFLASH  EEPROM  
CyEEPROM_Start . . . . . . . . . . . . CODE     CYFLASH  EEPROM  
CyEEPROM_Stop. . . . . . . . . . . . . CODE     CYFLASH  EEPROM  
CyEnterCriticalSection . . . . . . . . CODE     CYBOOTASMKEIL  ADC  ADC_STATUS  CYDMAC  CYFLASH  CYLIB  CYPM  CYSPC  EEP
                                                ROM  FF_STATUS  MY_TIMER  SPI_IMU  UART_RS485  
cyfitter_cfg . . . . . . . . . . . . . CODE     CYFITTER_CFG  ?C_STARTUP  
CyFlash_Start. . . . . . . . . . . . . CODE     CYFLASH  
CyFlash_Stop . . . . . . . . . . . . . CODE     CYFLASH  
CyILO_Disable33K . . . . . . . . . . . CODE     CYLIB  
CyILO_Enable33K. . . . . . . . . . . . CODE     CYLIB  
CyILO_Start100K. . . . . . . . . . . . CODE     CYLIB  CYPM  
CyILO_Start1K. . . . . . . . . . . . . CODE     CYLIB  CYPM  
CyILO_Stop100K . . . . . . . . . . . . CODE     CYLIB  
CyILO_Stop1K . . . . . . . . . . . . . CODE     CYLIB  
CyIMO_DisableDoubler . . . . . . . . . CODE     CYLIB  CYPM  
CyIMO_EnableDoubler. . . . . . . . . . CODE     CYLIB  CYPM  
CyIMO_Stop . . . . . . . . . . . . . . CODE     CYLIB  CYPM  
CyPLL_OUT_Stop . . . . . . . . . . . . CODE     CYLIB  CYPM  
CyPmHibernate. . . . . . . . . . . . . CODE     CYPM  
CyPmOppsSet. . . . . . . . . . . . . . CODE     CYPM  
CyPmRestoreClocks. . . . . . . . . . . CODE     CYPM  
CyPmSaveClocks . . . . . . . . . . . . CODE     CYPM  
LX51 LINKER/LOCATER V4.64.0.0                                                         01/31/2019  11:47:34  PAGE 118


CyResetStatus. . . . . . . . . . . . . XDATA    CYLIB  ?C_STARTUP  
CySetTemp. . . . . . . . . . . . . . . CODE     CYFLASH  COMMAND_PROCESSING  EEPROM  
CySoftwareReset. . . . . . . . . . . . CODE     CYLIB  BOOTLOADABLE  
CySpcGetAlgorithm. . . . . . . . . . . CODE     CYSPC  CYFLASH  
CySpcLock. . . . . . . . . . . . . . . CODE     CYSPC  CYFLASH  EEPROM  
CySpcStart . . . . . . . . . . . . . . CODE     CYSPC  CYFLASH  EEPROM  
CySpcStop. . . . . . . . . . . . . . . CODE     CYSPC  
CySpcUnlock. . . . . . . . . . . . . . CODE     CYSPC  CYFLASH  EEPROM  
CyVdHvAnalogDisable. . . . . . . . . . CODE     CYLIB  CYPM  
CyVdHvAnalogEnable . . . . . . . . . . CODE     CYLIB  CYPM  
CyVdLvAnalogDisable. . . . . . . . . . CODE     CYLIB  CYPM  
CyVdLvDigitDisable . . . . . . . . . . CODE     CYLIB  CYPM  
CyVdRealTimeStatus . . . . . . . . . . CODE     CYLIB  
CyWdtClear . . . . . . . . . . . . . . CODE     CYLIB  
CyXTAL_32KHZ_ReadStatus. . . . . . . . CODE     CYLIB  
CyXTAL_32KHZ_Start . . . . . . . . . . CODE     CYLIB  CYPM  
CyXTAL_32KHZ_Stop. . . . . . . . . . . CODE     CYLIB  
CyXTAL_DisableErrStatus. . . . . . . . CODE     CYLIB  
CyXTAL_DisableFaultRecovery. . . . . . CODE     CYLIB  
CyXTAL_EnableErrStatus . . . . . . . . CODE     CYLIB  
CyXTAL_EnableFaultRecovery . . . . . . CODE     CYLIB  
CyXTAL_ReadStatus. . . . . . . . . . . CODE     CYLIB  
CyXTAL_Stop. . . . . . . . . . . . . . CODE     CYLIB  CYPM  
dieTemperature . . . . . . . . . . . . XDATA    CYFLASH  EEPROM  
DMA_DmaHandle. . . . . . . . . . . . . XDATA    DMA_DMA  
DMA_DmaRelease . . . . . . . . . . . . CODE     DMA_DMA  
DPH. . . . . . . . . . . . . . . . . . DATA     COMMAND_PROCESSING  
DPH1 . . . . . . . . . . . . . . . . . DATA     COMMAND_PROCESSING  
DPL. . . . . . . . . . . . . . . . . . DATA     COMMAND_PROCESSING  
DPL1 . . . . . . . . . . . . . . . . . DATA     COMMAND_PROCESSING  
DPS. . . . . . . . . . . . . . . . . . DATA     COMMAND_PROCESSING  
DPX. . . . . . . . . . . . . . . . . . DATA     COMMAND_PROCESSING  
DPX1 . . . . . . . . . . . . . . . . . DATA     COMMAND_PROCESSING  
EA . . . . . . . . . . . . . . . . . . DATA     COMMAND_PROCESSING  
EEPROM_ADDR. . . . . . . . . . . . . . XDATA    COMMAND_PROCESSING  
EEPROM_Enable. . . . . . . . . . . . . CODE     EEPROM  
EEPROM_Query . . . . . . . . . . . . . CODE     EEPROM  
EEPROM_Start . . . . . . . . . . . . . CODE     EEPROM  MAIN  
EEPROM_Stop. . . . . . . . . . . . . . CODE     EEPROM  
EEPROM_UpdateTemperature . . . . . . . CODE     EEPROM  
F0 . . . . . . . . . . . . . . . . . . DATA     COMMAND_PROCESSING  
F1 . . . . . . . . . . . . . . . . . . DATA     COMMAND_PROCESSING  
FF_STATUS_InterruptDisable . . . . . . CODE     FF_STATUS  
FF_STATUS_InterruptEnable. . . . . . . CODE     FF_STATUS  
FF_STATUS_Read . . . . . . . . . . . . CODE     FF_STATUS  MAIN  
FF_STATUS_ReadMask . . . . . . . . . . CODE     FF_STATUS  
FTDI_ENABLE_REG_Read . . . . . . . . . CODE     FTDI_ENABLE_REG  
function_scheduler . . . . . . . . . . CODE     INTERRUPTIONS  MAIN  
g_imu. . . . . . . . . . . . . . . . . XDATA    GLOBALS  COMMAND_PROCESSING  IMU_FUNCTIONS  INTERRUPTIONS  
g_imuNew . . . . . . . . . . . . . . . XDATA    GLOBALS  IMU_FUNCTIONS  INTERRUPTIONS  
g_mem. . . . . . . . . . . . . . . . . XDATA    GLOBALS  COMMAND_PROCESSING  
g_rx . . . . . . . . . . . . . . . . . XDATA    GLOBALS  COMMAND_PROCESSING  INTERRUPTIONS  MAIN  
Gyro . . . . . . . . . . . . . . . . . XDATA    GLOBALS  IMU_FUNCTIONS  
IE . . . . . . . . . . . . . . . . . . DATA     COMMAND_PROCESSING  
IMU_connected. . . . . . . . . . . . . XDATA    GLOBALS  COMMAND_PROCESSING  IMU_FUNCTIONS  
imus_data_size . . . . . . . . . . . . XDATA    GLOBALS  COMMAND_PROCESSING  IMU_FUNCTIONS  
ImusReset. . . . . . . . . . . . . . . CODE     IMU_FUNCTIONS  
infoSend . . . . . . . . . . . . . . . CODE     COMMAND_PROCESSING  
InitIMU. . . . . . . . . . . . . . . . CODE     IMU_FUNCTIONS  
InitIMUgeneral . . . . . . . . . . . . CODE     IMU_FUNCTIONS  MAIN  
InitIMUMagCal. . . . . . . . . . . . . CODE     IMU_FUNCTIONS  
interrupt_flag . . . . . . . . . . . . BIT      GLOBALS  INTERRUPTIONS  MAIN  
interrupt_manager. . . . . . . . . . . CODE     INTERRUPTIONS  MAIN  
ISR_RS485_RX_ClearPending. . . . . . . CODE     ISR_RS485_RX  
ISR_RS485_RX_Disable . . . . . . . . . CODE     ISR_RS485_RX  COMMAND_PROCESSING  
LX51 LINKER/LOCATER V4.64.0.0                                                         01/31/2019  11:47:34  PAGE 119


ISR_RS485_RX_Enable. . . . . . . . . . CODE     ISR_RS485_RX  COMMAND_PROCESSING  
ISR_RS485_RX_ExInterrupt . . . . . . . CODE     INTERRUPTIONS  MAIN  
ISR_RS485_RX_GetPriority . . . . . . . CODE     ISR_RS485_RX  
ISR_RS485_RX_GetState. . . . . . . . . CODE     ISR_RS485_RX  
ISR_RS485_RX_GetVector . . . . . . . . CODE     ISR_RS485_RX  
ISR_RS485_RX_Interrupt . . . . . . . . CODE     ISR_RS485_RX  
ISR_RS485_RX_SetPending. . . . . . . . CODE     ISR_RS485_RX  
ISR_RS485_RX_Start . . . . . . . . . . CODE     ISR_RS485_RX  
ISR_RS485_RX_Stop. . . . . . . . . . . CODE     ISR_RS485_RX  
Mag. . . . . . . . . . . . . . . . . . XDATA    GLOBALS  IMU_FUNCTIONS  
MagCal . . . . . . . . . . . . . . . . XDATA    GLOBALS  COMMAND_PROCESSING  IMU_FUNCTIONS  
main . . . . . . . . . . . . . . . . . CODE     MAIN  ?C_INIT  
memInit. . . . . . . . . . . . . . . . CODE     COMMAND_PROCESSING  
memRecall. . . . . . . . . . . . . . . CODE     COMMAND_PROCESSING  MAIN  
memRestore . . . . . . . . . . . . . . CODE     COMMAND_PROCESSING  
MXAX . . . . . . . . . . . . . . . . . DATA     COMMAND_PROCESSING  
MY_TIMER_ClearFIFO . . . . . . . . . . CODE     MY_TIMER  
MY_TIMER_Enable. . . . . . . . . . . . CODE     MY_TIMER  
MY_TIMER_Init. . . . . . . . . . . . . CODE     MY_TIMER  
MY_TIMER_initVar . . . . . . . . . . . XDATA    MY_TIMER  
MY_TIMER_ReadCapture . . . . . . . . . CODE     MY_TIMER  
MY_TIMER_ReadControlRegister . . . . . CODE     MY_TIMER  
MY_TIMER_ReadCounter . . . . . . . . . CODE     MY_TIMER  INTERRUPTIONS  
MY_TIMER_ReadPeriod. . . . . . . . . . CODE     MY_TIMER  
MY_TIMER_ReadStatusRegister. . . . . . CODE     MY_TIMER  
MY_TIMER_SoftwareCapture . . . . . . . CODE     MY_TIMER  
MY_TIMER_Start . . . . . . . . . . . . CODE     MY_TIMER  MAIN  
MY_TIMER_Stop. . . . . . . . . . . . . CODE     MY_TIMER  
N_IMU_Connected. . . . . . . . . . . . XDATA    GLOBALS  COMMAND_PROCESSING  IMU_FUNCTIONS  
Opto_Pin_Read. . . . . . . . . . . . . CODE     OPTO_PIN  
Opto_Pin_ReadDataReg . . . . . . . . . CODE     OPTO_PIN  
OV . . . . . . . . . . . . . . . . . . DATA     COMMAND_PROCESSING  
P. . . . . . . . . . . . . . . . . . . DATA     COMMAND_PROCESSING  
P2AX . . . . . . . . . . . . . . . . . DATA     COMMAND_PROCESSING  
PACER_TIMER_Enable . . . . . . . . . . CODE     PACER_TIMER  
PACER_TIMER_Init . . . . . . . . . . . CODE     PACER_TIMER  
PACER_TIMER_initVar. . . . . . . . . . XDATA    PACER_TIMER  
PACER_TIMER_ReadCapture. . . . . . . . CODE     PACER_TIMER  
PACER_TIMER_ReadControlRegister. . . . CODE     PACER_TIMER  
PACER_TIMER_ReadCounter. . . . . . . . CODE     PACER_TIMER  
PACER_TIMER_ReadPeriod . . . . . . . . CODE     PACER_TIMER  
PACER_TIMER_ReadStatusRegister . . . . CODE     PACER_TIMER  
PACER_TIMER_SoftwareCapture. . . . . . CODE     PACER_TIMER  
PACER_TIMER_Start. . . . . . . . . . . CODE     PACER_TIMER  MAIN  
PACER_TIMER_Stop . . . . . . . . . . . CODE     PACER_TIMER  
PSW. . . . . . . . . . . . . . . . . . DATA     COMMAND_PROCESSING  
Quat . . . . . . . . . . . . . . . . . XDATA    GLOBALS  IMU_FUNCTIONS  
ReadAllIMUs. . . . . . . . . . . . . . CODE     IMU_FUNCTIONS  INTERRUPTIONS  
RESET_FF_Read. . . . . . . . . . . . . CODE     RESET_FF  
RS0. . . . . . . . . . . . . . . . . . DATA     COMMAND_PROCESSING  
RS1. . . . . . . . . . . . . . . . . . DATA     COMMAND_PROCESSING  
RS485_CTS_Read . . . . . . . . . . . . CODE     RS485_CTS  
sensor_value_1 . . . . . . . . . . . . XDATA    GLOBALS  COMMAND_PROCESSING  INTERRUPTIONS  
sensor_value_2 . . . . . . . . . . . . XDATA    GLOBALS  COMMAND_PROCESSING  INTERRUPTIONS  
SFRPRT0DR. . . . . . . . . . . . . . . DATA     COMMAND_PROCESSING  
SFRPRT0PS. . . . . . . . . . . . . . . DATA     COMMAND_PROCESSING  
SFRPRT0SEL . . . . . . . . . . . . . . DATA     COMMAND_PROCESSING  
SFRPRT12DR . . . . . . . . . . . . . . DATA     COMMAND_PROCESSING  
SFRPRT12PS . . . . . . . . . . . . . . DATA     COMMAND_PROCESSING  
SFRPRT12SEL. . . . . . . . . . . . . . DATA     COMMAND_PROCESSING  
SFRPRT15DR . . . . . . . . . . . . . . DATA     COMMAND_PROCESSING  
SFRPRT15PS . . . . . . . . . . . . . . DATA     COMMAND_PROCESSING  
SFRPRT15SEL. . . . . . . . . . . . . . DATA     COMMAND_PROCESSING  
SFRPRT1DR. . . . . . . . . . . . . . . DATA     COMMAND_PROCESSING  
SFRPRT1PS. . . . . . . . . . . . . . . DATA     COMMAND_PROCESSING  
LX51 LINKER/LOCATER V4.64.0.0                                                         01/31/2019  11:47:34  PAGE 120


SFRPRT1SEL . . . . . . . . . . . . . . DATA     COMMAND_PROCESSING  
SFRPRT2DR. . . . . . . . . . . . . . . DATA     COMMAND_PROCESSING  
SFRPRT2PS. . . . . . . . . . . . . . . DATA     COMMAND_PROCESSING  
SFRPRT2SEL . . . . . . . . . . . . . . DATA     COMMAND_PROCESSING  
SFRPRT3DR. . . . . . . . . . . . . . . DATA     COMMAND_PROCESSING  
SFRPRT3PS. . . . . . . . . . . . . . . DATA     COMMAND_PROCESSING  
SFRPRT3SEL . . . . . . . . . . . . . . DATA     COMMAND_PROCESSING  
SFRPRT4DR. . . . . . . . . . . . . . . DATA     COMMAND_PROCESSING  
SFRPRT4PS. . . . . . . . . . . . . . . DATA     COMMAND_PROCESSING  
SFRPRT4SEL . . . . . . . . . . . . . . DATA     COMMAND_PROCESSING  
SFRPRT5DR. . . . . . . . . . . . . . . DATA     COMMAND_PROCESSING  
SFRPRT5PS. . . . . . . . . . . . . . . DATA     COMMAND_PROCESSING  
SFRPRT5SEL . . . . . . . . . . . . . . DATA     COMMAND_PROCESSING  
SFRPRT6DR. . . . . . . . . . . . . . . DATA     COMMAND_PROCESSING  
SFRPRT6PS. . . . . . . . . . . . . . . DATA     COMMAND_PROCESSING  
SFRPRT6SEL . . . . . . . . . . . . . . DATA     COMMAND_PROCESSING  
single_imu_size. . . . . . . . . . . . XDATA    GLOBALS  COMMAND_PROCESSING  IMU_FUNCTIONS  
SP . . . . . . . . . . . . . . . . . . DATA     COMMAND_PROCESSING  
SpcLockState . . . . . . . . . . . . . XDATA    CYSPC  
SPI_delay. . . . . . . . . . . . . . . CODE     IMU_FUNCTIONS  
SPI_IMU_ClearFIFO. . . . . . . . . . . CODE     SPI_IMU  IMU_FUNCTIONS  MAIN  
SPI_IMU_ClearRxBuffer. . . . . . . . . CODE     SPI_IMU  IMU_FUNCTIONS  MAIN  
SPI_IMU_ClearTxBuffer. . . . . . . . . CODE     SPI_IMU  IMU_FUNCTIONS  MAIN  
SPI_IMU_DisableInt . . . . . . . . . . CODE     SPI_IMU  
SPI_IMU_DisableRxInt . . . . . . . . . CODE     SPI_IMU  
SPI_IMU_DisableTxInt . . . . . . . . . CODE     SPI_IMU  
SPI_IMU_Enable . . . . . . . . . . . . CODE     SPI_IMU  MAIN  
SPI_IMU_EnableInt. . . . . . . . . . . CODE     SPI_IMU  
SPI_IMU_EnableRxInt. . . . . . . . . . CODE     SPI_IMU  
SPI_IMU_EnableTxInt. . . . . . . . . . CODE     SPI_IMU  
SPI_IMU_GetRxBufferSize. . . . . . . . CODE     SPI_IMU  
SPI_IMU_GetTxBufferSize. . . . . . . . CODE     SPI_IMU  
SPI_IMU_Init . . . . . . . . . . . . . CODE     SPI_IMU  MAIN  
SPI_IMU_initVar. . . . . . . . . . . . XDATA    SPI_IMU  
SPI_IMU_IntClock_GetDividerRegister. . CODE     SPI_IMU_INTCLOCK  
SPI_IMU_IntClock_GetModeRegister . . . CODE     SPI_IMU_INTCLOCK  
SPI_IMU_IntClock_GetSourceRegister . . CODE     SPI_IMU_INTCLOCK  
SPI_IMU_IntClock_Start . . . . . . . . CODE     SPI_IMU_INTCLOCK  SPI_IMU  
SPI_IMU_IntClock_Stop. . . . . . . . . CODE     SPI_IMU_INTCLOCK  SPI_IMU  
SPI_IMU_IntClock_StopBlock . . . . . . CODE     SPI_IMU_INTCLOCK  
SPI_IMU_ReadRxData . . . . . . . . . . CODE     SPI_IMU  IMU_FUNCTIONS  
SPI_IMU_ReadRxStatus . . . . . . . . . CODE     SPI_IMU  
SPI_IMU_ReadStatus . . . . . . . . . . CODE     SPI_IMU  IMU_FUNCTIONS  
SPI_IMU_ReadTxStatus . . . . . . . . . CODE     SPI_IMU  
SPI_IMU_Start. . . . . . . . . . . . . CODE     SPI_IMU  MAIN  
SPI_IMU_Stop . . . . . . . . . . . . . CODE     SPI_IMU  
SPI_IMU_swStatusRx . . . . . . . . . . XDATA    SPI_IMU  
SPI_IMU_swStatusTx . . . . . . . . . . XDATA    SPI_IMU  
STARTUP1 . . . . . . . . . . . . . . . CODE     ?C_STARTUP  
Temp . . . . . . . . . . . . . . . . . XDATA    GLOBALS  IMU_FUNCTIONS  
timer_value. . . . . . . . . . . . . . XDATA    GLOBALS  COMMAND_PROCESSING  IMU_FUNCTIONS  INTERRUPTIONS  
timer_value0 . . . . . . . . . . . . . XDATA    GLOBALS  COMMAND_PROCESSING  IMU_FUNCTIONS  INTERRUPTIONS  
UART_RS485_ClearRxBuffer . . . . . . . CODE     UART_RS485  MAIN  
UART_RS485_ClearTxBuffer . . . . . . . CODE     UART_RS485  COMMAND_PROCESSING  MAIN  
UART_RS485_Enable. . . . . . . . . . . CODE     UART_RS485  
UART_RS485_errorStatus . . . . . . . . XDATA    UART_RS485  UART_RS485_INT  
UART_RS485_GetByte . . . . . . . . . . CODE     UART_RS485  
UART_RS485_GetChar . . . . . . . . . . CODE     UART_RS485  INTERRUPTIONS  
UART_RS485_GetRxBufferSize . . . . . . CODE     UART_RS485  INTERRUPTIONS  
UART_RS485_GetTxBufferSize . . . . . . CODE     UART_RS485  
UART_RS485_Init. . . . . . . . . . . . CODE     UART_RS485  MAIN  
UART_RS485_initVar . . . . . . . . . . XDATA    UART_RS485  
UART_RS485_ReadControlRegister . . . . CODE     UART_RS485  
UART_RS485_ReadRxData. . . . . . . . . CODE     UART_RS485  
UART_RS485_ReadRxStatus. . . . . . . . CODE     UART_RS485  MAIN  
LX51 LINKER/LOCATER V4.64.0.0                                                         01/31/2019  11:47:34  PAGE 121


UART_RS485_ReadTxStatus. . . . . . . . CODE     UART_RS485  COMMAND_PROCESSING  
UART_RS485_rxBuffer. . . . . . . . . . XDATA    UART_RS485  UART_RS485_INT  
UART_RS485_rxBufferLoopDetect. . . . . XDATA    UART_RS485  UART_RS485_INT  
UART_RS485_rxBufferOverflow. . . . . . XDATA    UART_RS485  UART_RS485_INT  
UART_RS485_rxBufferRead. . . . . . . . XDATA    UART_RS485  UART_RS485_INT  
UART_RS485_rxBufferWrite . . . . . . . XDATA    UART_RS485  UART_RS485_INT  
UART_RS485_RXISR . . . . . . . . . . . CODE     UART_RS485_INT  UART_RS485  
UART_RS485_Start . . . . . . . . . . . CODE     UART_RS485  MAIN  
UART_RS485_Stop. . . . . . . . . . . . CODE     UART_RS485  MAIN  

Program Size: data=41.3 xdata=5713 const=1677 code=31199
LX51 RUN COMPLETE.  0 WARNING(S),  0 ERROR(S)
