LX51 LINKER/LOCATER V4.64.0.0                                                           04/17/2018  14:39:23  PAGE 1


LX51 LINKER/LOCATER V4.64.0.0, INVOKED BY:
C:\PROGRAM FILES (X86)\CYPRESS\PSOC CREATOR\4.2\PSOC CREATOR\IMPORT\KEIL\PK51\9.51\C51\BIN\LX51.EXE .\DP8051_Keil_951\Re
>> lease\command_processing.obj, .\DP8051_Keil_951\Release\globals.obj, .\DP8051_Keil_951\Release\interruptions.obj, .\D
>> P8051_Keil_951\Release\main.obj, .\DP8051_Keil_951\Release\utils.obj, .\DP8051_Keil_951\Release\IMU_functions.obj, .\
>> DP8051_Keil_951\Release\cyfitter_cfg.obj, .\DP8051_Keil_951\Release\firmware.lib, C:\Program Files (x86)\Cypress\PSoC
>>  Creator\4.2\PSoC Creator\psoc\content\cycomponentlibrary\CyComponentLibrary.cylib\DP8051\DP8051_Keil_951\Release\CyC
>> omponentLibrary.lib TO .\DP8051_Keil_951\Release\firmware.omf CODE RU RC (10) DW (16) WL (2) PR (.\DP8051_Keil_951\Re
>> lease/firmware.map) IX CL (XDATA (X:0X0000-X:0X1FFF)) CL (CODE (C:0X2600-C:0XFFBF)) CL (CONST (C:0X2600-C:0XFFBF))


CPU MODE:     8051 MODE
MEMORY MODEL: LARGE WITH FLOATING POINT ARITHMETIC


INPUT MODULES INCLUDED:
  .\DP8051_Keil_951\Release\command_processing.obj (COMMAND_PROCESSING)
         COMMENT TYPE 0: C51 V9.51
  .\DP8051_Keil_951\Release\globals.obj (GLOBALS)
         COMMENT TYPE 0: C51 V9.51
  .\DP8051_Keil_951\Release\interruptions.obj (INTERRUPTIONS)
         COMMENT TYPE 0: C51 V9.51
  .\DP8051_Keil_951\Release\main.obj (MAIN)
         COMMENT TYPE 0: C51 V9.51
  .\DP8051_Keil_951\Release\utils.obj (UTILS)
         COMMENT TYPE 0: C51 V9.51
  .\DP8051_Keil_951\Release\IMU_functions.obj (IMU_FUNCTIONS)
         COMMENT TYPE 0: C51 V9.51
  .\DP8051_Keil_951\Release\cyfitter_cfg.obj (CYFITTER_CFG)
         COMMENT TYPE 0: C51 V9.51
  .\DP8051_Keil_951\Release\firmware.lib (UART_RS485)
         COMMENT TYPE 0: C51 V9.51
  .\DP8051_Keil_951\Release\firmware.lib (ISR_RS485_RX)
         COMMENT TYPE 0: C51 V9.51
  .\DP8051_Keil_951\Release\firmware.lib (PACER_TIMER)
         COMMENT TYPE 0: C51 V9.51
  .\DP8051_Keil_951\Release\firmware.lib (CLOCK_UART)
         COMMENT TYPE 0: C51 V9.51
  .\DP8051_Keil_951\Release\firmware.lib (EEPROM)
         COMMENT TYPE 0: C51 V9.51
  .\DP8051_Keil_951\Release\firmware.lib (RS485_CTS)
         COMMENT TYPE 0: C51 V9.51
  .\DP8051_Keil_951\Release\firmware.lib (BOOTLOADABLE)
         COMMENT TYPE 0: C51 V9.51
  .\DP8051_Keil_951\Release\firmware.lib (FTDI_ENABLE_REG)
         COMMENT TYPE 0: C51 V9.51
  .\DP8051_Keil_951\Release\firmware.lib (RESET_FF)
         COMMENT TYPE 0: C51 V9.51
  .\DP8051_Keil_951\Release\firmware.lib (FF_STATUS)
         COMMENT TYPE 0: C51 V9.51
  .\DP8051_Keil_951\Release\firmware.lib (MY_TIMER)
         COMMENT TYPE 0: C51 V9.51
  .\DP8051_Keil_951\Release\firmware.lib (CYFLASH)
         COMMENT TYPE 0: C51 V9.51
  .\DP8051_Keil_951\Release\firmware.lib (CYLIB)
         COMMENT TYPE 0: C51 V9.51
  .\DP8051_Keil_951\Release\firmware.lib (SPI_IMU)
         COMMENT TYPE 0: C51 V9.51
  .\DP8051_Keil_951\Release\firmware.lib (OPTO_PIN)
         COMMENT TYPE 0: C51 V9.51
  .\DP8051_Keil_951\Release\firmware.lib (CHIP_SELECT_A)
         COMMENT TYPE 0: C51 V9.51
  .\DP8051_Keil_951\Release\firmware.lib (CHIP_SELECT_B)
         COMMENT TYPE 0: C51 V9.51
  .\DP8051_Keil_951\Release\firmware.lib (CYBOOTASMKEIL)
         COMMENT TYPE 0: AX51 V3.07d
  .\DP8051_Keil_951\Release\firmware.lib (CYMEM)
LX51 LINKER/LOCATER V4.64.0.0                                                         04/17/2018  14:39:23  PAGE 2


         COMMENT TYPE 0: AX51 V3.07d
  .\DP8051_Keil_951\Release\firmware.lib (?C_STARTUP)
         COMMENT TYPE 0: AX51 V3.07d
  .\DP8051_Keil_951\Release\firmware.lib (UART_RS485_INT)
         COMMENT TYPE 0: C51 V9.51
  .\DP8051_Keil_951\Release\firmware.lib (CYPM)
         COMMENT TYPE 0: C51 V9.51
  .\DP8051_Keil_951\Release\firmware.lib (CYSPC)
         COMMENT TYPE 0: C51 V9.51
  .\DP8051_Keil_951\Release\firmware.lib (SPI_IMU_INTCLOCK)
         COMMENT TYPE 0: C51 V9.51
  C:\PROGRAM FILES (X86)\CYPRESS\PSOC CREATOR\4.2\PSOC CREATOR\IMPORT\KEIL\PK51\9.51\C51\LIB\C51FPL.LIB (?C?FPADD)
         COMMENT TYPE 1: A51 / ASM51 Assembler
  C:\PROGRAM FILES (X86)\CYPRESS\PSOC CREATOR\4.2\PSOC CREATOR\IMPORT\KEIL\PK51\9.51\C51\LIB\C51FPL.LIB (?C?FPMUL)
         COMMENT TYPE 1: A51 / ASM51 Assembler
  C:\PROGRAM FILES (X86)\CYPRESS\PSOC CREATOR\4.2\PSOC CREATOR\IMPORT\KEIL\PK51\9.51\C51\LIB\C51FPL.LIB (?C?FPDIV)
         COMMENT TYPE 1: A51 / ASM51 Assembler
  C:\PROGRAM FILES (X86)\CYPRESS\PSOC CREATOR\4.2\PSOC CREATOR\IMPORT\KEIL\PK51\9.51\C51\LIB\C51FPL.LIB (?C?FPCMP)
         COMMENT TYPE 1: A51 / ASM51 Assembler
  C:\PROGRAM FILES (X86)\CYPRESS\PSOC CREATOR\4.2\PSOC CREATOR\IMPORT\KEIL\PK51\9.51\C51\LIB\C51FPL.LIB (?C?FPNEG)
         COMMENT TYPE 1: A51 / ASM51 Assembler
  C:\PROGRAM FILES (X86)\CYPRESS\PSOC CREATOR\4.2\PSOC CREATOR\IMPORT\KEIL\PK51\9.51\C51\LIB\C51FPL.LIB (?C?FCAST)
         COMMENT TYPE 1: A51 / ASM51 Assembler
  C:\PROGRAM FILES (X86)\CYPRESS\PSOC CREATOR\4.2\PSOC CREATOR\IMPORT\KEIL\PK51\9.51\C51\LIB\C51FPL.LIB (PRINTF)
         COMMENT TYPE 1: A51 / ASM51 Assembler
  C:\PROGRAM FILES (X86)\CYPRESS\PSOC CREATOR\4.2\PSOC CREATOR\IMPORT\KEIL\PK51\9.51\C51\LIB\C51FPL.LIB (FABS)
         COMMENT TYPE 1: A51 / ASM51 Assembler
  C:\PROGRAM FILES (X86)\CYPRESS\PSOC CREATOR\4.2\PSOC CREATOR\IMPORT\KEIL\PK51\9.51\C51\LIB\C51FPL.LIB (?C?FPGETOPN)
         COMMENT TYPE 1: A51 / ASM51 Assembler
  C:\PROGRAM FILES (X86)\CYPRESS\PSOC CREATOR\4.2\PSOC CREATOR\IMPORT\KEIL\PK51\9.51\C51\LIB\C51FPL.LIB (?C?FPROUND)
         COMMENT TYPE 1: A51 / ASM51 Assembler
  C:\PROGRAM FILES (X86)\CYPRESS\PSOC CREATOR\4.2\PSOC CREATOR\IMPORT\KEIL\PK51\9.51\C51\LIB\C51FPL.LIB (?C?FPCONVERT)
         COMMENT TYPE 1: A51 / ASM51 Assembler
  C:\PROGRAM FILES (X86)\CYPRESS\PSOC CREATOR\4.2\PSOC CREATOR\IMPORT\KEIL\PK51\9.51\C51\LIB\C51FPL.LIB (?C?FTNPWR)
         COMMENT TYPE 1: A51 / ASM51 Assembler
  C:\PROGRAM FILES (X86)\CYPRESS\PSOC CREATOR\4.2\PSOC CREATOR\IMPORT\KEIL\PK51\9.51\C51\LIB\C51L.LIB (?C_INIT)
         COMMENT TYPE 1: A51 / ASM51 Assembler
  C:\PROGRAM FILES (X86)\CYPRESS\PSOC CREATOR\4.2\PSOC CREATOR\IMPORT\KEIL\PK51\9.51\C51\LIB\C51L.LIB (?C?CLDPTR)
         COMMENT TYPE 1: A51 / ASM51 Assembler
  C:\PROGRAM FILES (X86)\CYPRESS\PSOC CREATOR\4.2\PSOC CREATOR\IMPORT\KEIL\PK51\9.51\C51\LIB\C51L.LIB (?C?CLDOPTR)
         COMMENT TYPE 1: A51 / ASM51 Assembler
  C:\PROGRAM FILES (X86)\CYPRESS\PSOC CREATOR\4.2\PSOC CREATOR\IMPORT\KEIL\PK51\9.51\C51\LIB\C51L.LIB (?C?CSTPTR)
         COMMENT TYPE 1: A51 / ASM51 Assembler
  C:\PROGRAM FILES (X86)\CYPRESS\PSOC CREATOR\4.2\PSOC CREATOR\IMPORT\KEIL\PK51\9.51\C51\LIB\C51L.LIB (?C?IMUL)
         COMMENT TYPE 1: A51 / ASM51 Assembler
  C:\PROGRAM FILES (X86)\CYPRESS\PSOC CREATOR\4.2\PSOC CREATOR\IMPORT\KEIL\PK51\9.51\C51\LIB\C51L.LIB (?C?LMUL)
         COMMENT TYPE 1: A51 / ASM51 Assembler
  C:\PROGRAM FILES (X86)\CYPRESS\PSOC CREATOR\4.2\PSOC CREATOR\IMPORT\KEIL\PK51\9.51\C51\LIB\C51L.LIB (?C?ULDIV)
         COMMENT TYPE 1: A51 / ASM51 Assembler
  C:\PROGRAM FILES (X86)\CYPRESS\PSOC CREATOR\4.2\PSOC CREATOR\IMPORT\KEIL\PK51\9.51\C51\LIB\C51L.LIB (?C?LNEG)
         COMMENT TYPE 1: A51 / ASM51 Assembler
  C:\PROGRAM FILES (X86)\CYPRESS\PSOC CREATOR\4.2\PSOC CREATOR\IMPORT\KEIL\PK51\9.51\C51\LIB\C51L.LIB (?C?ULCMP)
         COMMENT TYPE 1: A51 / ASM51 Assembler
  C:\PROGRAM FILES (X86)\CYPRESS\PSOC CREATOR\4.2\PSOC CREATOR\IMPORT\KEIL\PK51\9.51\C51\LIB\C51L.LIB (?C?ULSHR)
         COMMENT TYPE 1: A51 / ASM51 Assembler
  C:\PROGRAM FILES (X86)\CYPRESS\PSOC CREATOR\4.2\PSOC CREATOR\IMPORT\KEIL\PK51\9.51\C51\LIB\C51L.LIB (?C?SLSHR)
         COMMENT TYPE 1: A51 / ASM51 Assembler
  C:\PROGRAM FILES (X86)\CYPRESS\PSOC CREATOR\4.2\PSOC CREATOR\IMPORT\KEIL\PK51\9.51\C51\LIB\C51L.LIB (?C?LSHL)
         COMMENT TYPE 1: A51 / ASM51 Assembler
  C:\PROGRAM FILES (X86)\CYPRESS\PSOC CREATOR\4.2\PSOC CREATOR\IMPORT\KEIL\PK51\9.51\C51\LIB\C51L.LIB (?C?LLDPTR)
         COMMENT TYPE 1: A51 / ASM51 Assembler
  C:\PROGRAM FILES (X86)\CYPRESS\PSOC CREATOR\4.2\PSOC CREATOR\IMPORT\KEIL\PK51\9.51\C51\LIB\C51L.LIB (?C?LSTPTR)
         COMMENT TYPE 1: A51 / ASM51 Assembler
  C:\PROGRAM FILES (X86)\CYPRESS\PSOC CREATOR\4.2\PSOC CREATOR\IMPORT\KEIL\PK51\9.51\C51\LIB\C51L.LIB (?C?LSTXDATA)
         COMMENT TYPE 1: A51 / ASM51 Assembler
LX51 LINKER/LOCATER V4.64.0.0                                                         04/17/2018  14:39:23  PAGE 3


  C:\PROGRAM FILES (X86)\CYPRESS\PSOC CREATOR\4.2\PSOC CREATOR\IMPORT\KEIL\PK51\9.51\C51\LIB\C51L.LIB (?C?OFFX256)
         COMMENT TYPE 1: A51 / ASM51 Assembler
  C:\PROGRAM FILES (X86)\CYPRESS\PSOC CREATOR\4.2\PSOC CREATOR\IMPORT\KEIL\PK51\9.51\C51\LIB\C51L.LIB (?C?OFFXADD)
         COMMENT TYPE 1: A51 / ASM51 Assembler
  C:\PROGRAM FILES (X86)\CYPRESS\PSOC CREATOR\4.2\PSOC CREATOR\IMPORT\KEIL\PK51\9.51\C51\LIB\C51L.LIB (?C?PLDIXDATA)
         COMMENT TYPE 1: A51 / ASM51 Assembler
  C:\PROGRAM FILES (X86)\CYPRESS\PSOC CREATOR\4.2\PSOC CREATOR\IMPORT\KEIL\PK51\9.51\C51\LIB\C51L.LIB (?C?PSTXDATA)
         COMMENT TYPE 1: A51 / ASM51 Assembler
  C:\PROGRAM FILES (X86)\CYPRESS\PSOC CREATOR\4.2\PSOC CREATOR\IMPORT\KEIL\PK51\9.51\C51\LIB\C51L.LIB (?C?CCASE)
         COMMENT TYPE 1: A51 / ASM51 Assembler
  C:\PROGRAM FILES (X86)\CYPRESS\PSOC CREATOR\4.2\PSOC CREATOR\IMPORT\KEIL\PK51\9.51\C51\LIB\C51L.LIB (?C_XBP)
         COMMENT TYPE 1: A51 / ASM51 Assembler
  C:\PROGRAM FILES (X86)\CYPRESS\PSOC CREATOR\4.2\PSOC CREATOR\IMPORT\KEIL\PK51\9.51\C51\LIB\C51L.LIB (?C?ADDXBP)
         COMMENT TYPE 1: A51 / ASM51 Assembler
  C:\PROGRAM FILES (X86)\CYPRESS\PSOC CREATOR\4.2\PSOC CREATOR\IMPORT\KEIL\PK51\9.51\C51\LIB\C51L.LIB (?C?LIMUL)
         COMMENT TYPE 1: A51 / ASM51 Assembler
  C:\PROGRAM FILES (X86)\CYPRESS\PSOC CREATOR\4.2\PSOC CREATOR\IMPORT\KEIL\PK51\9.51\C51\LIB\C51L.LIB (PUTCHAR)
         COMMENT TYPE 1: A51 / ASM51 Assembler
  C:\PROGRAM FILES (X86)\CYPRESS\PSOC CREATOR\4.2\PSOC CREATOR\IMPORT\KEIL\PK51\9.51\C51\LIB\C51L.LIB (STRCAT)
         COMMENT TYPE 1: C51 Compiler
  C:\PROGRAM FILES (X86)\CYPRESS\PSOC CREATOR\4.2\PSOC CREATOR\IMPORT\KEIL\PK51\9.51\C51\LIB\C51L.LIB (STRLEN)
         COMMENT TYPE 1: A51 / ASM51 Assembler
  C:\PROGRAM FILES (X86)\CYPRESS\PSOC CREATOR\4.2\PSOC CREATOR\IMPORT\KEIL\PK51\9.51\C51\LIB\C51L.LIB (?C?MEMSET)
         COMMENT TYPE 1: A51 / ASM51 Assembler
  C:\PROGRAM FILES (X86)\CYPRESS\PSOC CREATOR\4.2\PSOC CREATOR\IMPORT\KEIL\PK51\9.51\C51\LIB\C51L.LIB (?C?COPYAMD)
         COMMENT TYPE 1: A51 / ASM51 Assembler
  C:\PROGRAM FILES (X86)\CYPRESS\PSOC CREATOR\4.2\PSOC CREATOR\IMPORT\KEIL\PK51\9.51\C51\LIB\C51L.LIB (?C?STRCPYAMD)
         COMMENT TYPE 1: A51 / ASM51 Assembler
  C:\PROGRAM FILES (X86)\CYPRESS\PSOC CREATOR\4.2\PSOC CREATOR\IMPORT\KEIL\PK51\9.51\C51\LIB\C51L.LIB (?C?IILDX)
         COMMENT TYPE 1: A51 / ASM51 Assembler
  C:\PROGRAM FILES (X86)\CYPRESS\PSOC CREATOR\4.2\PSOC CREATOR\IMPORT\KEIL\PK51\9.51\C51\LIB\C51L.LIB (?C?ILDIX)
         COMMENT TYPE 1: A51 / ASM51 Assembler
  C:\PROGRAM FILES (X86)\CYPRESS\PSOC CREATOR\4.2\PSOC CREATOR\IMPORT\KEIL\PK51\9.51\C51\LIB\C51L.LIB (?C?LLDIDATA)
         COMMENT TYPE 1: A51 / ASM51 Assembler
  C:\PROGRAM FILES (X86)\CYPRESS\PSOC CREATOR\4.2\PSOC CREATOR\IMPORT\KEIL\PK51\9.51\C51\LIB\C51L.LIB (?C?LLDXDATA)
         COMMENT TYPE 1: A51 / ASM51 Assembler
  C:\PROGRAM FILES (X86)\CYPRESS\PSOC CREATOR\4.2\PSOC CREATOR\IMPORT\KEIL\PK51\9.51\C51\LIB\C51L.LIB (?C?LLDPDATA)
         COMMENT TYPE 1: A51 / ASM51 Assembler
  C:\PROGRAM FILES (X86)\CYPRESS\PSOC CREATOR\4.2\PSOC CREATOR\IMPORT\KEIL\PK51\9.51\C51\LIB\C51L.LIB (?C?LLDCODE)
         COMMENT TYPE 1: A51 / ASM51 Assembler
  C:\PROGRAM FILES (X86)\CYPRESS\PSOC CREATOR\4.2\PSOC CREATOR\IMPORT\KEIL\PK51\9.51\C51\LIB\C51L.LIB (?C?LSTIDATA)
         COMMENT TYPE 1: A51 / ASM51 Assembler
  C:\PROGRAM FILES (X86)\CYPRESS\PSOC CREATOR\4.2\PSOC CREATOR\IMPORT\KEIL\PK51\9.51\C51\LIB\C51L.LIB (?C?LSTPDATA)
         COMMENT TYPE 1: A51 / ASM51 Assembler


ACTIVE MEMORY CLASSES OF MODULE:  .\DP8051_Keil_951\Release\firmware.omf (COMMAND_PROCESSING)

BASE        START       END         USED      MEMORY CLASS
==========================================================
X:000000H   X:000000H   X:001FFFH   00162BH   XDATA
C:000000H   C:002600H   C:00FFBFH   006CCFH   CODE
C:000000H   C:002600H   C:00FFBFH   0003D5H   CONST
I:000000H   I:000000H   I:00007FH   000027H   DATA
I:000020H.0 I:000020H.0 I:00002FH.7 000001H.3 BIT
I:000000H   I:000000H   I:0000FFH   000001H   IDATA


MEMORY MAP OF MODULE:  .\DP8051_Keil_951\Release\firmware.omf (COMMAND_PROCESSING)


START     STOP      LENGTH    ALIGN  RELOC    MEMORY CLASS   SEGMENT NAME
=========================================================================

* * * * * * * * * * *   D A T A   M E M O R Y   * * * * * * * * * * * * *
LX51 LINKER/LOCATER V4.64.0.0                                                         04/17/2018  14:39:23  PAGE 4


000000H   000007H   000008H   ---    AT..     DATA           "REG BANK 0"
000008H   00001EH   000017H   BYTE   UNIT     DATA           _DATA_GROUP_
00001FH.0 00001FH.7 000001H.0 ---    ---      **GAP**
000020H.0 000021H.1 000001H.2 BIT    UNIT     BIT            _BIT_GROUP_
000021H.2 000021H.2 000000H.1 BIT    UNIT     BIT            ?BI?GLOBALS
000021H.3 000021H   000000H.5 ---    ---      **GAP**
000022H   000027H   000006H   BYTE   UNIT     DATA           ?DT?INTERRUPTIONS
000028H   000029H   000002H   BYTE   UNIT     DATA           ?C?LIB_DATA
00002AH   00002AH   000001H   BYTE   UNIT     IDATA          ?STACK

* * * * * * * * * * *   C O D E   M E M O R Y   * * * * * * * * * * * * *
002600H   002619H   00001AH   ---    OFFS..   CODE           ?CO?KEILSTART?3
00261AH   0034DCH   000EC3H   BYTE   UNIT     CODE           ?PR?_GET_PARAM_LIST?COMMAND_PROCESSING
0034DDH   004259H   000D7DH   BYTE   UNIT     CODE           ?PR?_READQUAT?IMU_FUNCTIONS
00425AH   004D80H   000B27H   BYTE   UNIT     CODE           ?CO?COMMAND_PROCESSING
004D81H   005817H   000A97H   BYTE   UNIT     CODE           ?C?LIB_CODE
005818H   005DACH   000595H   BYTE   UNIT     CODE           ?PR?_INFOPREPARE?COMMAND_PROCESSING
005DADH   00622FH   000483H   BYTE   UNIT     CODE           ?PR?PRINTF?PRINTF
006230H   0066AAH   00047BH   BYTE   UNIT     CODE           ?PR?_INFOREADING?COMMAND_PROCESSING
0066ABH   006A9FH   0003F5H   BYTE   UNIT     CODE           ?PR?CMD_GET_IMU_READINGS?COMMAND_PROCESSING
006AA0H   006DDAH   00033BH   BYTE   UNIT     CODE           ?PR?READALLIMUS?IMU_FUNCTIONS
006DDBH   007093H   0002B9H   BYTE   UNIT     CODE           ?PR?INITIMUGENERAL?IMU_FUNCTIONS
007094H   00721DH   00018AH   BYTE   UNIT     CODE           ?PR?_V4_NORMALIZE?UTILS
00721EH   00734DH   000130H   BYTE   UNIT     CODE           ?PR?_CLOCK_UART_SETDIVIDERREGISTER?CLOCK_UART
00734EH   007474H   000127H   BYTE   UNIT     CODE           ?PR?INTERRUPT_MANAGER?INTERRUPTIONS
007475H   00759AH   000126H   BYTE   UNIT     CODE           ?PR?CYFITTER_CFG?CYFITTER_CFG
00759BH   0076BCH   000122H   BYTE   UNIT     CODE           ?PR?_V3_NORMALIZE?UTILS
0076BDH   0077DEH   000122H   BYTE   UNIT     CODE           ?PR?CLOCKSETUP?CYFITTER_CFG
0077DFH   0078FAH   00011CH   BYTE   UNIT     CODE           ?PR?_READACC?IMU_FUNCTIONS
0078FBH   007A16H   00011CH   BYTE   UNIT     CODE           ?PR?_READGYRO?IMU_FUNCTIONS
007A17H   007B30H   00011AH   BYTE   UNIT     CODE           ?C_C51STARTUP
007B31H   007C47H   000117H   BYTE   UNIT     CODE           ?PR?_READMAG?IMU_FUNCTIONS
007C48H   007D38H   0000F1H   BYTE   UNIT     CODE           ?PR?INITIMU?IMU_FUNCTIONS
007D39H   007E29H   0000F1H   BYTE   UNIT     CODE           ?PR?INITIMUMAGCAL?IMU_FUNCTIONS
007E2AH   007F18H   0000EFH   BYTE   UNIT     CODE           ?PR?_INVSQRT?UTILS
007F19H   007FFAH   0000E2H   BYTE   UNIT     CODE           ?PR?COMMPROCESS?COMMAND_PROCESSING
007FFBH   0080D9H   0000DFH   BYTE   UNIT     CODE           ?PR?_EEPROM_WRITE?EEPROM
0080DAH   0081A7H   0000CEH   BYTE   UNIT     CODE           ?PR?CFG_DMA_INIT?CYFITTER_CFG
0081A8H   008258H   0000B1H   BYTE   UNIT     CODE           ?PR?UART_RS485_RXISR?UART_RS485_INT
008259H   008306H   0000AEH   BYTE   UNIT     CODE           ?PR?_MEMSTORE?COMMAND_PROCESSING
008307H   0083AFH   0000A9H   BYTE   UNIT     CODE           ?PR?_READIMU?IMU_FUNCTIONS
0083B0H   00844CH   00009DH   BYTE   UNIT     CODE           ?PR?MAIN?MAIN
00844DH   0084D9H   00008DH   BYTE   UNIT     CODE           ?PR?_COMMWRITE?COMMAND_PROCESSING
0084DAH   008561H   000088H   BYTE   UNIT     CODE           ?PR?_?CYDELAY?CYLIB
008562H   0085E5H   000084H   BYTE   UNIT     CODE           ?PR?_READMAGCAL?IMU_FUNCTIONS
0085E6H   008666H   000081H   BYTE   UNIT     CODE           ?PR?MEMINIT?COMMAND_PROCESSING
008667H   0086D9H   000073H   BYTE   UNIT     CODE           ?PR?_CYSPCLOADROW?CYSPC
0086DAH   008744H   00006BH   BYTE   UNIT     CODE           ?PR?_STRCAT?STRCAT
008745H   0087ABH   000067H   BYTE   UNIT     CODE           ?C_INITSEG
0087ACH   00880BH   000060H   BYTE   UNIT     CODE           ?PR?_CYSPCREADDATA?CYSPC
00880CH   008869H   00005EH   BYTE   UNIT     CODE           ?PR?_READTEMP?IMU_FUNCTIONS
00886AH   0088C4H   00005BH   BYTE   UNIT     CODE           ?PR?UART_RS485_GETCHAR?UART_RS485
0088C5H   00891AH   000056H   BYTE   UNIT     CODE           ?PR?CYSETTEMPINT?CYFLASH
00891BH   00896EH   000054H   BYTE   UNIT     CODE           ?PR?_CYINTSETVECTOR?CYLIB
00896FH   0089C2H   000054H   BYTE   UNIT     CODE           ?PR?_CYSPCWRITEROW?CYSPC
0089C3H   008A12H   000050H   BYTE   UNIT     CODE           ?PR?CYFLASHGETSPCALGORITHM?CYFLASH
008A13H   008A61H   00004FH   BYTE   UNIT     CODE           ?PR?UART_RS485_GETRXBUFFERSIZE?UART_RS485
008A62H   008AAEH   00004DH   BYTE   UNIT     CODE           ?PR?MEMRECALL?COMMAND_PROCESSING
008AAFH   008AF7H   000049H   BYTE   UNIT     CODE           ?PR?_CHIPSELECTOR?IMU_FUNCTIONS
008AF8H   008B3FH   000048H   BYTE   UNIT     CODE           ?PR?MEMRESTORE?COMMAND_PROCESSING
008B40H   008B83H   000044H   BYTE   UNIT     CODE           ?PR?FUNCTION_SCHEDULER?INTERRUPTIONS
008B84H   008BBFH   00003CH   BYTE   UNIT     CODE           ?PR?PACER_TIMER_INIT?PACER_TIMER
008BC0H   008BF3H   000034H   BYTE   UNIT     CODE           ?PR?_UART_RS485_PUTSTRING?UART_RS485
008BF4H   008BFFH   00000CH   BYTE   UNIT     CODE           ?PR?CYREAD8?CYMEM
008C00H   008C3AH   00003BH   PAGE   UNIT     CODE           ?PR?CYDELAYCYCLES?CYBOOTASMKEIL
LX51 LINKER/LOCATER V4.64.0.0                                                         04/17/2018  14:39:23  PAGE 5


008C3BH   008C6EH   000034H   BYTE   UNIT     CODE           ?PR?_CYCONFIGCPY?CYMEM
008C6FH   008CA0H   000032H   BYTE   UNIT     CODE           ?PR?_LCRCHECKSUM?COMMAND_PROCESSING
008CA1H   008CD1H   000031H   BYTE   UNIT     CODE           ?PR?UART_RS485_INIT?UART_RS485
008CD2H   008D02H   000031H   BYTE   UNIT     CODE           ?PR?CYEEPROM_START?CYFLASH
008D03H   008D32H   000030H   BYTE   UNIT     CODE           ?PR?_INFOGET?COMMAND_PROCESSING
008D33H   008D62H   000030H   BYTE   UNIT     CODE           ?PR?_WRITECONTROLREGISTER?IMU_FUNCTIONS
008D63H   008D91H   00002FH   BYTE   UNIT     CODE           ?PR?UART_RS485_CLEARRXBUFFER?UART_RS485
008D92H   008DBFH   00002EH   BYTE   UNIT     CODE           ?PR?_CYSPCGETTEMP?CYSPC
008DC0H   008DECH   00002DH   DWORD  UNIT     CODE           ?PR?CYDELAYUS?CYBOOTASMKEIL
008DEDH   008E18H   00002CH   BYTE   UNIT     CODE           ?PR?MY_TIMER_INIT?MY_TIMER
008E19H   008E3FH   000027H   BYTE   UNIT     CODE           ?PR?PUTCHAR?PUTCHAR
008E40H   008E64H   000025H   BYTE   UNIT     CODE           ?PR?SPI_IMU_ENABLE?SPI_IMU
008E65H   008E84H   000020H   BYTE   UNIT     CODE           ?PR?CMD_SET_BAUDRATE?COMMAND_PROCESSING
008E85H   008EA4H   000020H   BYTE   UNIT     CODE           ?PR?UART_RS485_ENABLE?UART_RS485
008EA5H   008EC4H   000020H   BYTE   UNIT     CODE           ?PR?UART_RS485_STOP?UART_RS485
008EC5H   008EE4H   000020H   BYTE   UNIT     CODE           ?PR?SPI_IMU_CLEARFIFO?SPI_IMU
008EE5H   008F03H   00001FH   BYTE   UNIT     CODE           ?PR?_ISR_RS485_RX_STARTEX?ISR_RS485_RX
008F04H   008F22H   00001FH   BYTE   UNIT     CODE           ?PR?CYSPCLOCK?CYSPC
008F23H   008F3FH   00001DH   BYTE   UNIT     CODE           ?PR?ANALOGSETDEFAULT?CYFITTER_CFG
008F40H   008F5AH   00001BH   BYTE   UNIT     CODE           ?PR?SPI_DELAY?IMU_FUNCTIONS
008F5BH   008F75H   00001BH   BYTE   UNIT     CODE           ?PR?CYSPCGETALGORITHM?CYSPC
008F76H   008F8EH   000019H   BYTE   UNIT     CODE           ?PR?_CYINTSETPRIORITY?CYLIB
008F8FH   008FA7H   000019H   BYTE   UNIT     CODE           ?PR?SPI_IMU_INIT?SPI_IMU
008FA8H   008FBFH   000018H   BYTE   UNIT     CODE           ?PR?CYSETTEMP?CYFLASH
008FC0H   008FD7H   000018H   BYTE   UNIT     CODE           ?PR?CYEXITCRITICALSECTION?CYBOOTASMKEIL
008FD8H   008FEEH   000017H   BYTE   UNIT     CODE           ?PR?_READCONTROLREGISTER?IMU_FUNCTIONS
008FEFH   009004H   000016H   BYTE   UNIT     CODE           ?PR?PACER_TIMER_ENABLE?PACER_TIMER
009005H   009019H   000015H   BYTE   UNIT     CODE           ?PR?_SENDACKNOWLEDGMENT?COMMAND_PROCESSING
00901AH   00902EH   000015H   BYTE   UNIT     CODE           ?PR?CMD_STORE_PARAMS?COMMAND_PROCESSING
00902FH   009043H   000015H   BYTE   UNIT     CODE           ?PR?CYENTERCRITICALSECTION?CYBOOTASMKEIL
009044H   009058H   000015H   BYTE   UNIT     CODE           ?PR?CYSPCSTART?CYSPC
009059H   00906DH   000015H   BYTE   UNIT     CODE           ?PR?_STRLEN?STRLEN
00906EH   009081H   000014H   BYTE   UNIT     CODE           ?PR?CMD_PING?COMMAND_PROCESSING
009082H   009095H   000014H   BYTE   UNIT     CODE           ?PR?UART_RS485_READRXSTATUS?UART_RS485
009096H   0090A8H   000013H   BYTE   UNIT     CODE           ?PR?UART_RS485_START?UART_RS485
0090A9H   0090BBH   000013H   BYTE   UNIT     CODE           ?PR?PACER_TIMER_START?PACER_TIMER
0090BCH   0090CEH   000013H   BYTE   UNIT     CODE           ?PR?MY_TIMER_START?MY_TIMER
0090CFH   0090E1H   000013H   BYTE   UNIT     CODE           ?PR?SPI_IMU_START?SPI_IMU
0090E2H   0090F4H   000013H   BYTE   UNIT     CODE           ?PR?CYREAD24?CYMEM
0090F5H   009106H   000012H   BYTE   UNIT     CODE           ?PR?UART_RS485_CLEARTXBUFFER?UART_RS485
009107H   009118H   000012H   BYTE   UNIT     CODE           ?PR?SPI_IMU_CLEARTXBUFFER?SPI_IMU
009119H   00912AH   000012H   BYTE   UNIT     CODE           ?PR?CYWRITE24?CYMEM
00912BH   00913AH   000010H   BYTE   UNIT     CODE           ?PR?_OPTO_PIN_WRITE?OPTO_PIN
00913BH   009149H   00000FH   BYTE   UNIT     CODE           ?PR?MY_TIMER_READCOUNTER?MY_TIMER
00914AH   009158H   00000FH   BYTE   UNIT     CODE           ?PR?SPI_IMU_CLEARRXBUFFER?SPI_IMU
009159H   009167H   00000FH   BYTE   UNIT     CODE           ?PR?SPI_IMU_READSTATUS?SPI_IMU
009168H   009176H   00000FH   BYTE   UNIT     CODE           ?PR?CYREAD16?CYMEM
009177H   009185H   00000FH   BYTE   UNIT     CODE           ?PR?CYWRITE16?CYMEM
009186H   009194H   00000FH   BYTE   UNIT     CODE           ?PR?SPI_IMU_INTCLOCK_START?SPI_IMU_INTCLOCK
009195H   0091A2H   00000EH   BYTE   UNIT     CODE           ?PR?_ISR_RS485_RX_SETVECTOR?ISR_RS485_RX
0091A3H   0091B0H   00000EH   BYTE   UNIT     CODE           ?PR?_PACER_TIMER_WRITEPERIOD?PACER_TIMER
0091B1H   0091BEH   00000EH   BYTE   UNIT     CODE           ?PR?_PACER_TIMER_WRITECOUNTER?PACER_TIMER
0091BFH   0091CBH   00000DH   BYTE   UNIT     CODE           ?PR?_UART_RS485_PUTCHAR?UART_RS485
0091CCH   0091D8H   00000DH   BYTE   UNIT     CODE           ?PR?MY_TIMER_CLEARFIFO?MY_TIMER
0091D9H   0091E5H   00000DH   BYTE   UNIT     CODE           ?PR?_SPI_IMU_WRITETXDATA?SPI_IMU
0091E6H   0091F2H   00000DH   BYTE   UNIT     CODE           ?PR?_FABS?FABS
0091F3H   0091FEH   00000CH   BYTE   UNIT     CODE           ?PR?CYWRITE8?CYMEM
0091FFH   00920AH   00000CH   BYTE   UNIT     CODE           ?PR?CYSPCUNLOCK?CYSPC
00920BH   009214H   00000AH   BYTE   UNIT     CODE           ?PR?_ISR_RS485_RX_SETPRIORITY?ISR_RS485_RX
009215H   00921EH   00000AH   BYTE   UNIT     CODE           ?PR?CLOCK_UART_GETDIVIDERREGISTER?CLOCK_UART
00921FH   009228H   00000AH   BYTE   UNIT     CODE           ?PR?BOOTLOADABLE_LOAD?BOOTLOADABLE
009229H   009232H   00000AH   BYTE   UNIT     CODE           ?PR?_MY_TIMER_WRITEPERIOD?MY_TIMER
009233H   00923CH   00000AH   BYTE   UNIT     CODE           ?PR?MY_TIMER_READCAPTURE?MY_TIMER
00923DH   009246H   00000AH   BYTE   UNIT     CODE           ?PR?_MY_TIMER_WRITECOUNTER?MY_TIMER
009247H   00924EH   000008H   BYTE   UNIT     CODE           ?PR?CLOCK_UART_GETSOURCEREGISTER?CLOCK_UART
LX51 LINKER/LOCATER V4.64.0.0                                                         04/17/2018  14:39:23  PAGE 6


00924FH   009256H   000008H   BYTE   UNIT     CODE           ?PR?MY_TIMER_ENABLE?MY_TIMER
009257H   00925EH   000008H   BYTE   UNIT     CODE           ?PR?CYSOFTWARERESET?CYLIB
00925FH   009265H   000007H   BYTE   UNIT     CODE           ?PR?ISR_RS485_RX_ENABLE?ISR_RS485_RX
009266H   00926CH   000007H   BYTE   UNIT     CODE           ?PR?ISR_RS485_RX_DISABLE?ISR_RS485_RX
00926DH   009273H   000007H   BYTE   UNIT     CODE           ?PR?EEPROM_ENABLE?EEPROM
009274H   009279H   000006H   BYTE   UNIT     CODE           ?PR?UART_RS485_READTXSTATUS?UART_RS485
00927AH   00927FH   000006H   BYTE   UNIT     CODE           ?PR?_PACER_TIMER_SETINTERRUPTMODE?PACER_TIMER
009280H   009285H   000006H   BYTE   UNIT     CODE           ?PR?_RS485_CTS_WRITE?RS485_CTS
009286H   00928BH   000006H   BYTE   UNIT     CODE           ?PR?_FTDI_ENABLE_REG_WRITE?FTDI_ENABLE_REG
00928CH   009291H   000006H   BYTE   UNIT     CODE           ?PR?_RESET_FF_WRITE?RESET_FF
009292H   009297H   000006H   BYTE   UNIT     CODE           ?PR?FF_STATUS_READ?FF_STATUS
009298H   00929DH   000006H   BYTE   UNIT     CODE           ?PR?_MY_TIMER_SETINTERRUPTMODE?MY_TIMER
00929EH   0092A3H   000006H   BYTE   UNIT     CODE           ?PR?MY_TIMER_READSTATUSREGISTER?MY_TIMER
0092A4H   0092A9H   000006H   BYTE   UNIT     CODE           ?PR?SPI_IMU_READTXSTATUS?SPI_IMU
0092AAH   0092AFH   000006H   BYTE   UNIT     CODE           ?PR?SPI_IMU_READRXSTATUS?SPI_IMU
0092B0H   0092B5H   000006H   BYTE   UNIT     CODE           ?PR?SPI_IMU_READRXDATA?SPI_IMU
0092B6H   0092BBH   000006H   BYTE   UNIT     CODE           ?PR?_CHIP_SELECT_A_WRITE?CHIP_SELECT_A
0092BCH   0092C1H   000006H   BYTE   UNIT     CODE           ?PR?_CHIP_SELECT_B_WRITE?CHIP_SELECT_B
0092C2H   0092C5H   000004H   BYTE   UNIT     CODE           ?PR?EEPROM_START?EEPROM
0092C6H   0092C8H   000003H   BYTE   UNIT     CODE           ?PR?ISR_RS485_RX_EXINTERRUPT?INTERRUPTIONS
0092C9H   0092CBH   000003H   BYTE   UNIT     CODE           ?PR?_CYCLOCKSTARTUPERROR?CYFITTER_CFG
0092CCH   0092CCH   000001H   BYTE   UNIT     CODE           ?PR?ISR_RS485_RX_INTERRUPT?ISR_RS485_RX
0092CDH   0092CDH   000001H   BYTE   UNIT     CODE           ?PR?SPI_IMU_ENABLETXINT?SPI_IMU
0092CEH   0092CEH   000001H   BYTE   UNIT     CODE           ?PR?SPI_IMU_ENABLERXINT?SPI_IMU
0092CFH   0096A3H   0003D5H   BYTE   UNIT     CONST          ?CO?CYFITTER_CFG

* * * * * * * * * * *  X D A T A   M E M O R Y  * * * * * * * * * * * * *
000000H   0008DDH   0008DEH   BYTE   UNIT     XDATA          _XDATA_GROUP_
0008DEH   0010D3H   0007F6H   BYTE   UNIT     XDATA          ?XD?GLOBALS
0010D4H   001521H   00044EH   BYTE   UNIT     XDATA          ?XD?COMMAND_PROCESSING
001522H   0015A1H   000080H   BYTE   UNIT     XDATA          ?XD?INTERRUPTIONS
0015A2H   0015E4H   000043H   BYTE   UNIT     XDATA          ?XD?CYPM
0015E5H   00160BH   000027H   BYTE   UNIT     XDATA          ?XD?UART_RS485
00160CH   00161AH   00000FH   BYTE   UNIT     XDATA          ?XD?CYLIB
00161BH   00161FH   000005H   BYTE   UNIT     XDATA          ?XD?CYFLASH
001620H   001623H   000004H   BYTE   UNIT     XDATA          ?XD?CYFITTER_CFG
001624H   001626H   000003H   BYTE   UNIT     XDATA          ?XD?SPI_IMU
001627H   001627H   000001H   BYTE   UNIT     XDATA          ?XD?IMU_FUNCTIONS
001628H   001628H   000001H   BYTE   UNIT     XDATA          ?XD?PACER_TIMER
001629H   001629H   000001H   BYTE   UNIT     XDATA          ?XD?MY_TIMER
00162AH   00162AH   000001H   BYTE   UNIT     XDATA          ?XD?CYSPC

* * * * * * * * *   R E M O V E D     S E G M E N T S   * * * * * * * *
   *DEL*:           000013H   BYTE   UNIT     CODE           ?PR?INFOSEND?COMMAND_PROCESSING
   *DEL*:           00044CH   BYTE   UNIT     XDATA          ?XD?INFOSEND?COMMAND_PROCESSING
   *DEL*:           000029H   BYTE   UNIT     CODE           ?PR?IMUSRESET?IMU_FUNCTIONS
   *DEL*:           000014H   BYTE   UNIT     CODE           ?PR?_SETANALOGROUTINGPUMPS?CYFITTER_CFG
   *DEL*:           000003H   BYTE   UNIT     CODE           ?PR?UART_RS485_READCONTROLREGISTER?UART_RS485
   *DEL*:           000006H   BYTE   UNIT     CODE           ?PR?_UART_RS485_WRITECONTROLREGISTER?UART_RS485
   *DEL*:           000001H   BYTE   UNIT     XDATA          ?XD?_UART_RS485_WRITECONTROLREGISTER?UART_RS485
   *DEL*:           000006H   BYTE   UNIT     CODE           ?PR?_UART_RS485_SETRXINTERRUPTMODE?UART_RS485
   *DEL*:           00004AH   BYTE   UNIT     CODE           ?PR?UART_RS485_READRXDATA?UART_RS485
   *DEL*:           00001FH   BYTE   UNIT     CODE           ?PR?UART_RS485_GETBYTE?UART_RS485
   *DEL*:           000006H   BYTE   UNIT     CODE           ?PR?_UART_RS485_SETRXADDRESSMODE?UART_RS485
   *DEL*:           000001H   BYTE   UNIT     XDATA          ?XD?_UART_RS485_SETRXADDRESSMODE?UART_RS485
   *DEL*:           000006H   BYTE   UNIT     CODE           ?PR?_UART_RS485_SETRXADDRESS1?UART_RS485
   *DEL*:           000006H   BYTE   UNIT     CODE           ?PR?_UART_RS485_SETRXADDRESS2?UART_RS485
   *DEL*:           000006H   BYTE   UNIT     CODE           ?PR?_UART_RS485_SETTXINTERRUPTMODE?UART_RS485
   *DEL*:           00000CH   BYTE   UNIT     CODE           ?PR?_UART_RS485_WRITETXDATA?UART_RS485
   *DEL*:           000032H   BYTE   UNIT     CODE           ?PR?_UART_RS485_PUTARRAY?UART_RS485
   *DEL*:           000003H   BYTE   UNIT     XDATA          ?XD?_UART_RS485_PUTARRAY?UART_RS485
   *DEL*:           000014H   BYTE   UNIT     CODE           ?PR?_UART_RS485_PUTCRLF?UART_RS485
   *DEL*:           000017H   BYTE   UNIT     CODE           ?PR?UART_RS485_GETTXBUFFERSIZE?UART_RS485
   *DEL*:           000059H   BYTE   UNIT     CODE           ?PR?_UART_RS485_SENDBREAK?UART_RS485
   *DEL*:           000001H   BYTE   UNIT     XDATA          ?XD?_UART_RS485_SENDBREAK?UART_RS485
LX51 LINKER/LOCATER V4.64.0.0                                                         04/17/2018  14:39:23  PAGE 7


   *DEL*:           000006H   BYTE   UNIT     CODE           ?PR?_UART_RS485_SETTXADDRESSMODE?UART_RS485
   *DEL*:           000001H   BYTE   UNIT     XDATA          ?XD?_UART_RS485_SETTXADDRESSMODE?UART_RS485
   *DEL*:           000013H   BYTE   UNIT     CODE           ?PR?ISR_RS485_RX_START?ISR_RS485_RX
   *DEL*:           000004H   BYTE   UNIT     CODE           ?PR?ISR_RS485_RX_STOP?ISR_RS485_RX
   *DEL*:           00000AH   BYTE   UNIT     CODE           ?PR?ISR_RS485_RX_GETVECTOR?ISR_RS485_RX
   *DEL*:           00000BH   BYTE   UNIT     CODE           ?PR?ISR_RS485_RX_GETPRIORITY?ISR_RS485_RX
   *DEL*:           00000EH   BYTE   UNIT     CODE           ?PR?ISR_RS485_RX_GETSTATE?ISR_RS485_RX
   *DEL*:           000007H   BYTE   UNIT     CODE           ?PR?ISR_RS485_RX_SETPENDING?ISR_RS485_RX
   *DEL*:           000007H   BYTE   UNIT     CODE           ?PR?ISR_RS485_RX_CLEARPENDING?ISR_RS485_RX
   *DEL*:           000016H   BYTE   UNIT     CODE           ?PR?PACER_TIMER_STOP?PACER_TIMER
   *DEL*:           00000AH   BYTE   UNIT     CODE           ?PR?PACER_TIMER_SOFTWARECAPTURE?PACER_TIMER
   *DEL*:           000006H   BYTE   UNIT     CODE           ?PR?PACER_TIMER_READSTATUSREGISTER?PACER_TIMER
   *DEL*:           000006H   BYTE   UNIT     CODE           ?PR?PACER_TIMER_READCONTROLREGISTER?PACER_TIMER
   *DEL*:           000006H   BYTE   UNIT     CODE           ?PR?_PACER_TIMER_WRITECONTROLREGISTER?PACER_TIMER
   *DEL*:           00000AH   BYTE   UNIT     CODE           ?PR?PACER_TIMER_READPERIOD?PACER_TIMER
   *DEL*:           00000AH   BYTE   UNIT     CODE           ?PR?PACER_TIMER_READCAPTURE?PACER_TIMER
   *DEL*:           000013H   BYTE   UNIT     CODE           ?PR?PACER_TIMER_READCOUNTER?PACER_TIMER
   *DEL*:           00000FH   BYTE   UNIT     CODE           ?PR?CLOCK_UART_START?CLOCK_UART
   *DEL*:           00000FH   BYTE   UNIT     CODE           ?PR?CLOCK_UART_STOP?CLOCK_UART
   *DEL*:           00006DH   BYTE   UNIT     CODE           ?PR?CLOCK_UART_STOPBLOCK?CLOCK_UART
   *DEL*:           000002H   BYTE   UNIT     XDATA          ?XD?CLOCK_UART_STOPBLOCK?CLOCK_UART
   *DEL*:           000013H   BYTE   UNIT     CODE           ?PR?_CLOCK_UART_STANDBYPOWER?CLOCK_UART
   *DEL*:           00000DH   BYTE   UNIT     CODE           ?PR?_CLOCK_UART_SETMODEREGISTER?CLOCK_UART
   *DEL*:           00000EH   BYTE   UNIT     CODE           ?PR?_CLOCK_UART_CLEARMODEREGISTER?CLOCK_UART
   *DEL*:           000008H   BYTE   UNIT     CODE           ?PR?CLOCK_UART_GETMODEREGISTER?CLOCK_UART
   *DEL*:           000062H   BYTE   UNIT     CODE           ?PR?_CLOCK_UART_SETSOURCEREGISTER?CLOCK_UART
   *DEL*:           000003H   BYTE   UNIT     XDATA          ?XD?_CLOCK_UART_SETSOURCEREGISTER?CLOCK_UART
   *DEL*:           000004H   BYTE   UNIT     CODE           ?PR?EEPROM_STOP?EEPROM
   *DEL*:           000124H   BYTE   UNIT     CODE           ?PR?_EEPROM_WRITEBYTE?EEPROM
   *DEL*:           000008H   BYTE   UNIT     XDATA          ?XD?_EEPROM_WRITEBYTE?EEPROM
   *DEL*:           00003AH   BYTE   UNIT     CODE           ?PR?_EEPROM_READBYTE?EEPROM
   *DEL*:           000004H   BYTE   UNIT     XDATA          ?XD?_EEPROM_READBYTE?EEPROM
   *DEL*:           000004H   BYTE   UNIT     CODE           ?PR?EEPROM_UPDATETEMPERATURE?EEPROM
   *DEL*:           00006FH   BYTE   UNIT     CODE           ?PR?_EEPROM_ERASESECTOR?EEPROM
   *DEL*:           000002H   BYTE   UNIT     XDATA          ?XD?_EEPROM_ERASESECTOR?EEPROM
   *DEL*:           0000B9H   BYTE   UNIT     CODE           ?PR?_EEPROM_STARTWRITE?EEPROM
   *DEL*:           000005H   BYTE   UNIT     XDATA          ?XD?_EEPROM_STARTWRITE?EEPROM
   *DEL*:           000046H   BYTE   UNIT     CODE           ?PR?_EEPROM_STARTERASE?EEPROM
   *DEL*:           000002H   BYTE   UNIT     XDATA          ?XD?_EEPROM_STARTERASE?EEPROM
   *DEL*:           00003BH   BYTE   UNIT     CODE           ?PR?EEPROM_QUERY?EEPROM
   *DEL*:           000001H   BYTE   UNIT     XDATA          ?XD?EEPROM_QUERY?EEPROM
   *DEL*:           0000E5H   BYTE   UNIT     CODE           ?PR?_EEPROM_BYTEWRITEPOS?EEPROM
   *DEL*:           000004H   BYTE   UNIT     XDATA          ?XD?_EEPROM_BYTEWRITEPOS?EEPROM
   *DEL*:           000006H   BYTE   UNIT     CODE           ?PR?RS485_CTS_READ?RS485_CTS
   *DEL*:           0000FBH   BYTE   UNIT     CODE           ?PR?_BOOTLOADABLE_SETFLASHBYTE?BOOTLOADABLE
   *DEL*:           000110H   BYTE   UNIT     XDATA          ?XD?_BOOTLOADABLE_SETFLASHBYTE?BOOTLOADABLE
   *DEL*:           000006H   BYTE   UNIT     CODE           ?PR?FTDI_ENABLE_REG_READ?FTDI_ENABLE_REG
   *DEL*:           000006H   BYTE   UNIT     CODE           ?PR?RESET_FF_READ?RESET_FF
   *DEL*:           00000EH   BYTE   UNIT     CODE           ?PR?FF_STATUS_INTERRUPTENABLE?FF_STATUS
   *DEL*:           00000EH   BYTE   UNIT     CODE           ?PR?FF_STATUS_INTERRUPTDISABLE?FF_STATUS
   *DEL*:           000009H   BYTE   UNIT     CODE           ?PR?_FF_STATUS_WRITEMASK?FF_STATUS
   *DEL*:           000006H   BYTE   UNIT     CODE           ?PR?FF_STATUS_READMASK?FF_STATUS
   *DEL*:           000008H   BYTE   UNIT     CODE           ?PR?MY_TIMER_STOP?MY_TIMER
   *DEL*:           000006H   BYTE   UNIT     CODE           ?PR?MY_TIMER_SOFTWARECAPTURE?MY_TIMER
   *DEL*:           000006H   BYTE   UNIT     CODE           ?PR?MY_TIMER_READCONTROLREGISTER?MY_TIMER
   *DEL*:           000006H   BYTE   UNIT     CODE           ?PR?_MY_TIMER_WRITECONTROLREGISTER?MY_TIMER
   *DEL*:           00000AH   BYTE   UNIT     CODE           ?PR?MY_TIMER_READPERIOD?MY_TIMER
   *DEL*:           000031H   BYTE   UNIT     CODE           ?PR?CYFLASH_START?CYFLASH
   *DEL*:           000015H   BYTE   UNIT     CODE           ?PR?CYFLASH_STOP?CYFLASH
   *DEL*:           00007DH   BYTE   UNIT     CODE           ?PR?_CYSETFLASHEEBUFFER?CYFLASH
   *DEL*:           000004H   BYTE   UNIT     XDATA          ?XD?_CYSETFLASHEEBUFFER?CYFLASH
   *DEL*:           000034H   BYTE   UNIT     CODE           ?PR?_CYWRITEROWDATA?CYFLASH
   *DEL*:           000003H   BYTE   UNIT     XDATA          ?XD?_CYWRITEROWDATA?CYFLASH
   *DEL*:           000190H   BYTE   UNIT     CODE           ?PR?_CYWRITEROWFULL?CYFLASH
   *DEL*:           000009H   BYTE   UNIT     XDATA          ?XD?_CYWRITEROWFULL?CYFLASH
LX51 LINKER/LOCATER V4.64.0.0                                                         04/17/2018  14:39:23  PAGE 8


   *DEL*:           000044H   BYTE   UNIT     CODE           ?PR?_CYFLASH_SETWAITCYCLES?CYFLASH
   *DEL*:           000001H   BYTE   UNIT     XDATA          ?XD?_CYFLASH_SETWAITCYCLES?CYFLASH
   *DEL*:           000015H   BYTE   UNIT     CODE           ?PR?CYEEPROM_STOP?CYFLASH
   *DEL*:           000010H   BYTE   UNIT     CODE           ?PR?CYEEPROM_READRESERVE?CYFLASH
   *DEL*:           000008H   BYTE   UNIT     CODE           ?PR?CYEEPROM_READRELEASE?CYFLASH
   *DEL*:           00006EH   BYTE   UNIT     CODE           ?PR?_CYPLL_OUT_START?CYLIB
   *DEL*:           000004H   BYTE   UNIT     XDATA          ?XD?_CYPLL_OUT_START?CYLIB
   *DEL*:           000008H   BYTE   UNIT     CODE           ?PR?CYPLL_OUT_STOP?CYLIB
   *DEL*:           000036H   BYTE   UNIT     CODE           ?PR?_CYPLL_OUT_SETPQ?CYLIB
   *DEL*:           000010H   BYTE   UNIT     CODE           ?PR?_CYPLL_OUT_SETSOURCE?CYLIB
   *DEL*:           000053H   BYTE   UNIT     CODE           ?PR?_CYIMO_START?CYLIB
   *DEL*:           000003H   BYTE   UNIT     XDATA          ?XD?_CYIMO_START?CYLIB
   *DEL*:           00000FH   BYTE   UNIT     CODE           ?PR?CYIMO_STOP?CYLIB
   *DEL*:           000027H   BYTE   UNIT     CODE           ?PR?CYUSB_POWERONCHECK?CYLIB
   *DEL*:           0000B6H   BYTE   UNIT     CODE           ?PR?_CYIMO_SETTRIMVALUE?CYLIB
   *DEL*:           000001H   BYTE   UNIT     XDATA          ?XD?_CYIMO_SETTRIMVALUE?CYLIB
   *DEL*:           000118H   BYTE   UNIT     CODE           ?PR?_CYIMO_SETFREQ?CYLIB
   *DEL*:           000003H   BYTE   UNIT     XDATA          ?XD?_CYIMO_SETFREQ?CYLIB
   *DEL*:           00002FH   BYTE   UNIT     CODE           ?PR?_CYIMO_SETSOURCE?CYLIB
   *DEL*:           000008H   BYTE   UNIT     CODE           ?PR?CYIMO_ENABLEDOUBLER?CYLIB
   *DEL*:           000008H   BYTE   UNIT     CODE           ?PR?CYIMO_DISABLEDOUBLER?CYLIB
   *DEL*:           00000DH   BYTE   UNIT     CODE           ?PR?_CYMASTERCLK_SETSOURCE?CYLIB
   *DEL*:           000006H   BYTE   UNIT     CODE           ?PR?_CYMASTERCLK_SETDIVIDER?CYLIB
   *DEL*:           000023H   BYTE   UNIT     CODE           ?PR?_CYBUSCLK_INTERNAL_SETDIVIDER?CYLIB
   *DEL*:           00007AH   BYTE   UNIT     CODE           ?PR?_CYBUSCLK_SETDIVIDER?CYLIB
   *DEL*:           000002H   BYTE   UNIT     XDATA          ?XD?_CYBUSCLK_SETDIVIDER?CYLIB
   *DEL*:           00000EH   BYTE   UNIT     CODE           ?PR?_CYCPUCLK_SETDIVIDER?CYLIB
   *DEL*:           00000DH   BYTE   UNIT     CODE           ?PR?_CYUSBCLK_SETSOURCE?CYLIB
   *DEL*:           000008H   BYTE   UNIT     CODE           ?PR?CYILO_START1K?CYLIB
   *DEL*:           000008H   BYTE   UNIT     CODE           ?PR?CYILO_STOP1K?CYLIB
   *DEL*:           000008H   BYTE   UNIT     CODE           ?PR?CYILO_START100K?CYLIB
   *DEL*:           000008H   BYTE   UNIT     CODE           ?PR?CYILO_STOP100K?CYLIB
   *DEL*:           000008H   BYTE   UNIT     CODE           ?PR?CYILO_ENABLE33K?CYLIB
   *DEL*:           000008H   BYTE   UNIT     CODE           ?PR?CYILO_DISABLE33K?CYLIB
   *DEL*:           000011H   BYTE   UNIT     CODE           ?PR?_CYILO_SETSOURCE?CYLIB
   *DEL*:           000029H   BYTE   UNIT     CODE           ?PR?_CYILO_SETPOWERMODE?CYLIB
   *DEL*:           00005EH   BYTE   UNIT     CODE           ?PR?CYXTAL_32KHZ_START?CYLIB
   *DEL*:           000002H   BYTE   UNIT     XDATA          ?XD?CYXTAL_32KHZ_START?CYLIB
   *DEL*:           000020H   BYTE   UNIT     CODE           ?PR?CYXTAL_32KHZ_STOP?CYLIB
   *DEL*:           000008H   BYTE   UNIT     CODE           ?PR?CYXTAL_32KHZ_READSTATUS?CYLIB
   *DEL*:           000066H   BYTE   UNIT     CODE           ?PR?_CYXTAL_32KHZ_SETPOWERMODE?CYLIB
   *DEL*:           000001H   BYTE   UNIT     XDATA          ?XD?_CYXTAL_32KHZ_SETPOWERMODE?CYLIB
   *DEL*:           0000A0H   BYTE   UNIT     CODE           ?PR?_CYXTAL_START?CYLIB
   *DEL*:           000006H   BYTE   UNIT     XDATA          ?XD?_CYXTAL_START?CYLIB
   *DEL*:           000008H   BYTE   UNIT     CODE           ?PR?CYXTAL_STOP?CYLIB
   *DEL*:           000008H   BYTE   UNIT     CODE           ?PR?CYXTAL_ENABLEERRSTATUS?CYLIB
   *DEL*:           000008H   BYTE   UNIT     CODE           ?PR?CYXTAL_DISABLEERRSTATUS?CYLIB
   *DEL*:           00000FH   BYTE   UNIT     CODE           ?PR?CYXTAL_READSTATUS?CYLIB
   *DEL*:           000008H   BYTE   UNIT     CODE           ?PR?CYXTAL_ENABLEFAULTRECOVERY?CYLIB
   *DEL*:           000008H   BYTE   UNIT     CODE           ?PR?CYXTAL_DISABLEFAULTRECOVERY?CYLIB
   *DEL*:           00000DH   BYTE   UNIT     CODE           ?PR?_CYXTAL_SETSTARTUP?CYLIB
   *DEL*:           00000DH   BYTE   UNIT     CODE           ?PR?_CYXTAL_SETFBVOLTAGE?CYLIB
   *DEL*:           00000EH   BYTE   UNIT     CODE           ?PR?_CYXTAL_SETWDVOLTAGE?CYLIB
   *DEL*:           000015H   BYTE   UNIT     CODE           ?PR?_?CYHALT?CYLIB
   *DEL*:           0000B8H   BYTE   UNIT     CODE           ?PR?_?CYDELAYFREQ?CYLIB
   *DEL*:           000026H   BYTE   UNIT     CODE           ?PR?_CYWDTSTART?CYLIB
   *DEL*:           000007H   BYTE   UNIT     CODE           ?PR?CYWDTCLEAR?CYLIB
   *DEL*:           000084H   BYTE   UNIT     CODE           ?PR?_CYVDLVDIGITENABLE?CYLIB
   *DEL*:           000007H   BYTE   UNIT     XDATA          ?XD?_CYVDLVDIGITENABLE?CYLIB
   *DEL*:           000083H   BYTE   UNIT     CODE           ?PR?_CYVDLVANALOGENABLE?CYLIB
   *DEL*:           000007H   BYTE   UNIT     XDATA          ?XD?_CYVDLVANALOGENABLE?CYLIB
   *DEL*:           00001DH   BYTE   UNIT     CODE           ?PR?CYVDLVDIGITDISABLE?CYLIB
   *DEL*:           000018H   BYTE   UNIT     CODE           ?PR?CYVDLVANALOGDISABLE?CYLIB
   *DEL*:           000056H   BYTE   UNIT     CODE           ?PR?CYVDHVANALOGENABLE?CYLIB
   *DEL*:           000005H   BYTE   UNIT     XDATA          ?XD?CYVDHVANALOGENABLE?CYLIB
LX51 LINKER/LOCATER V4.64.0.0                                                         04/17/2018  14:39:23  PAGE 9


   *DEL*:           000011H   BYTE   UNIT     CODE           ?PR?CYVDHVANALOGDISABLE?CYLIB
   *DEL*:           000039H   BYTE   UNIT     CODE           ?PR?_CYVDSTICKYSTATUS?CYLIB
   *DEL*:           000002H   BYTE   UNIT     XDATA          ?XD?_CYVDSTICKYSTATUS?CYLIB
   *DEL*:           000018H   BYTE   UNIT     CODE           ?PR?CYVDREALTIMESTATUS?CYLIB
   *DEL*:           000001H   BYTE   UNIT     XDATA          ?XD?CYVDREALTIMESTATUS?CYLIB
   *DEL*:           0000D0H   BYTE   UNIT     CODE           ?PR?CYDISABLEINTS?CYLIB
   *DEL*:           000005H   BYTE   UNIT     XDATA          ?XD?CYDISABLEINTS?CYLIB
   *DEL*:           000067H   BYTE   UNIT     CODE           ?PR?_CYENABLEINTS?CYLIB
   *DEL*:           000004H   BYTE   UNIT     XDATA          ?XD?_CYENABLEINTS?CYLIB
   *DEL*:           000018H   BYTE   UNIT     CODE           ?PR?_CYINTGETVECTOR?CYLIB
   *DEL*:           000014H   BYTE   UNIT     CODE           ?PR?_CYINTGETPRIORITY?CYLIB
   *DEL*:           000036H   BYTE   UNIT     CODE           ?PR?_CYINTGETSTATE?CYLIB
   *DEL*:           000248H   BYTE   UNIT     CODE           ?PR?_CYGETUNIQUEID?CYLIB
   *DEL*:           000003H   BYTE   UNIT     XDATA          ?XD?_CYGETUNIQUEID?CYLIB
   *DEL*:           00001EH   BYTE   UNIT     CODE           ?PR?SPI_IMU_STOP?SPI_IMU
   *DEL*:           000001H   BYTE   UNIT     CODE           ?PR?SPI_IMU_DISABLETXINT?SPI_IMU
   *DEL*:           000001H   BYTE   UNIT     CODE           ?PR?SPI_IMU_DISABLERXINT?SPI_IMU
   *DEL*:           000006H   BYTE   UNIT     CODE           ?PR?_SPI_IMU_SETTXINTERRUPTMODE?SPI_IMU
   *DEL*:           000006H   BYTE   UNIT     CODE           ?PR?_SPI_IMU_SETRXINTERRUPTMODE?SPI_IMU
   *DEL*:           00000EH   BYTE   UNIT     CODE           ?PR?SPI_IMU_GETRXBUFFERSIZE?SPI_IMU
   *DEL*:           000017H   BYTE   UNIT     CODE           ?PR?SPI_IMU_GETTXBUFFERSIZE?SPI_IMU
   *DEL*:           00002EH   BYTE   UNIT     CODE           ?PR?_SPI_IMU_PUTARRAY?SPI_IMU
   *DEL*:           000003H   BYTE   UNIT     XDATA          ?XD?_SPI_IMU_PUTARRAY?SPI_IMU
   *DEL*:           000007H   BYTE   UNIT     CODE           ?PR?SPI_IMU_ENABLEINT?SPI_IMU
   *DEL*:           000007H   BYTE   UNIT     CODE           ?PR?SPI_IMU_DISABLEINT?SPI_IMU
   *DEL*:           00000DH   BYTE   UNIT     CODE           ?PR?_SPI_IMU_SETINTERRUPTMODE?SPI_IMU
   *DEL*:           00000DH   BYTE   UNIT     CODE           ?PR?_OPTO_PIN_SETDRIVEMODE?OPTO_PIN
   *DEL*:           000013H   BYTE   UNIT     CODE           ?PR?OPTO_PIN_READ?OPTO_PIN
   *DEL*:           000013H   BYTE   UNIT     CODE           ?PR?OPTO_PIN_READDATAREG?OPTO_PIN
   *DEL*:           000006H   BYTE   UNIT     CODE           ?PR?CHIP_SELECT_A_READ?CHIP_SELECT_A
   *DEL*:           000006H   BYTE   UNIT     CODE           ?PR?CHIP_SELECT_B_READ?CHIP_SELECT_B
   *DEL*:           000004H   BYTE   UNIT     CODE           ?PR?_CyDelay?CYBOOTASMKEIL
   *DEL*:           000019H   BYTE   UNIT     CODE           ?PR?CYMEMZERO?CYMEM
   *DEL*:           000026H   BYTE   UNIT     CODE           ?PR?CYCONFIGCPYCODE?CYMEM
   *DEL*:           00002DH   BYTE   UNIT     CODE           ?PR?CFG_WRITE_BYTES?CYMEM
   *DEL*:           00002EH   BYTE   UNIT     CODE           ?PR?CY_WRITE_BYTES_CODE?CYMEM
   *DEL*:           000015H   BYTE   UNIT     CODE           ?PR?CYREAD32?CYMEM
   *DEL*:           000015H   BYTE   UNIT     CODE           ?PR?CYWRITE32?CYMEM
   *DEL*:           0001A9H   BYTE   UNIT     CODE           ?PR?CYPMSAVECLOCKS?CYPM
   *DEL*:           00024CH   BYTE   UNIT     CODE           ?PR?CYPMRESTORECLOCKS?CYPM
   *DEL*:           000003H   BYTE   UNIT     XDATA          ?XD?CYPMRESTORECLOCKS?CYPM
   *DEL*:           0000E0H   BYTE   UNIT     CODE           ?PR?_CYPMALTACT?CYPM
   *DEL*:           000004H   BYTE   UNIT     XDATA          ?XD?_CYPMALTACT?CYPM
   *DEL*:           000160H   BYTE   UNIT     CODE           ?PR?_CYPMSLEEP?CYPM
   *DEL*:           000004H   BYTE   UNIT     XDATA          ?XD?_CYPMSLEEP?CYPM
   *DEL*:           000008H   BYTE   UNIT     CODE           ?PR?CYPMHIBERNATE?CYPM
   *DEL*:           0000D6H   BYTE   UNIT     CODE           ?PR?_CYPMHIBERNATEEX?CYPM
   *DEL*:           000003H   BYTE   UNIT     XDATA          ?XD?_CYPMHIBERNATEEX?CYPM
   *DEL*:           000039H   BYTE   UNIT     CODE           ?PR?_CYPMREADSTATUS?CYPM
   *DEL*:           000002H   BYTE   UNIT     XDATA          ?XD?_CYPMREADSTATUS?CYPM
   *DEL*:           000076H   BYTE   UNIT     CODE           ?PR?CYPMHIBSAVESET?CYPM
   *DEL*:           000040H   BYTE   UNIT     CODE           ?PR?CYPMHIBRESTORE?CYPM
   *DEL*:           000049H   BYTE   UNIT     CODE           ?PR?_CYPMCTWSETINTERVAL?CYPM
   *DEL*:           000001H   BYTE   UNIT     XDATA          ?XD?_CYPMCTWSETINTERVAL?CYPM
   *DEL*:           000017H   BYTE   UNIT     CODE           ?PR?CYPMOPPSSET?CYPM
   *DEL*:           00004DH   BYTE   UNIT     CODE           ?PR?_CYPMFTWSETINTERVAL?CYPM
   *DEL*:           000001H   BYTE   UNIT     XDATA          ?XD?_CYPMFTWSETINTERVAL?CYPM
   *DEL*:           00018CH   BYTE   UNIT     CODE           ?PR?CYPMHIBSLPSAVESET?CYPM
   *DEL*:           00010DH   BYTE   UNIT     CODE           ?PR?CYPMHIBSLPRESTORE?CYPM
   *DEL*:           000082H   BYTE   UNIT     CODE           ?PR?CYPMHVILVISAVEDISABLE?CYPM
   *DEL*:           000033H   BYTE   UNIT     CODE           ?PR?CYPMHVILVIRESTORE?CYPM
   *DEL*:           00000EH   BYTE   UNIT     CONST          ?CO?CYPM
   *DEL*:           000015H   BYTE   UNIT     CODE           ?PR?CYSPCSTOP?CYSPC
   *DEL*:           0000A7H   BYTE   UNIT     CODE           ?PR?_CYSPCLOADMULTIBYTE?CYSPC
   *DEL*:           000007H   BYTE   UNIT     XDATA          ?XD?_CYSPCLOADMULTIBYTE?CYSPC
LX51 LINKER/LOCATER V4.64.0.0                                                         04/17/2018  14:39:23  PAGE 10


   *DEL*:           000143H   BYTE   UNIT     CODE           ?PR?_CYSPCLOADROWFULL?CYSPC
   *DEL*:           00000FH   BYTE   UNIT     XDATA          ?XD?_CYSPCLOADROWFULL?CYSPC
   *DEL*:           000030H   BYTE   UNIT     CODE           ?PR?_CYSPCERASESECTOR?CYSPC
   *DEL*:           00000FH   BYTE   UNIT     CODE           ?PR?SPI_IMU_INTCLOCK_STOP?SPI_IMU_INTCLOCK
   *DEL*:           00006EH   BYTE   UNIT     CODE           ?PR?SPI_IMU_INTCLOCK_STOPBLOCK?SPI_IMU_INTCLOCK
   *DEL*:           000002H   BYTE   UNIT     XDATA          ?XD?SPI_IMU_INTCLOCK_STOPBLOCK?SPI_IMU_INTCLOCK
   *DEL*:           000013H   BYTE   UNIT     CODE           ?PR?_SPI_IMU_INTCLOCK_STANDBYPOWER?SPI_IMU_INTCLOCK
   *DEL*:           000131H   BYTE   UNIT     CODE           ?PR?_SPI_IMU_INTCLOCK_SETDIVIDERREGISTER?SPI_IMU_INTCLOCK
   *DEL*:           000007H   BYTE   UNIT     XDATA          ?XD?_SPI_IMU_INTCLOCK_SETDIVIDERREGISTER?SPI_IMU_INTCLOCK
   *DEL*:           00000AH   BYTE   UNIT     CODE           ?PR?SPI_IMU_INTCLOCK_GETDIVIDERREGISTER?SPI_IMU_INTCLOCK
   *DEL*:           00000DH   BYTE   UNIT     CODE           ?PR?_SPI_IMU_INTCLOCK_SETMODEREGISTER?SPI_IMU_INTCLOCK
   *DEL*:           00000EH   BYTE   UNIT     CODE           ?PR?_SPI_IMU_INTCLOCK_CLEARMODEREGISTER?SPI_IMU_INTCLOCK
   *DEL*:           000008H   BYTE   UNIT     CODE           ?PR?SPI_IMU_INTCLOCK_GETMODEREGISTER?SPI_IMU_INTCLOCK
   *DEL*:           000062H   BYTE   UNIT     CODE           ?PR?_SPI_IMU_INTCLOCK_SETSOURCEREGISTER?SPI_IMU_INTCLOCK
   *DEL*:           000003H   BYTE   UNIT     XDATA          ?XD?_SPI_IMU_INTCLOCK_SETSOURCEREGISTER?SPI_IMU_INTCLOCK
   *DEL*:           000008H   BYTE   UNIT     CODE           ?PR?SPI_IMU_INTCLOCK_GETSOURCEREGISTER?SPI_IMU_INTCLOCK



OVERLAY MAP OF MODULE:   .\DP8051_Keil_951\Release\firmware.omf (COMMAND_PROCESSING)


FUNCTION/MODULE                                BIT_GROUP   DATA_GROUP   XDATA_GROUP
--> CALLED FUNCTION/MODULE                    START  STOP  START  STOP  START  STOP
===================================================================================
ISR_RS485_RX_EXINTERRUPT/INTERRUPTIONS        ----- -----  ----- -----  ----- -----

*** NEW ROOT ********************************

ISR_RS485_RX_INTERRUPT/ISR_RS485_RX           ----- -----  ----- -----  ----- -----

*** NEW ROOT ********************************

?C_C51STARTUP                                 ----- -----  ----- -----  ----- -----
  +--> ?CO?KEILSTART?3
  +--> CYFITTER_CFG/CYFITTER_CFG
  +--> MAIN/MAIN
  +--> ?C_INITSEG

?CO?KEILSTART?3                               ----- -----  ----- -----  ----- -----

CYFITTER_CFG/CYFITTER_CFG                     ----- -----  ----- -----  ----- -----
  +--> CYREAD8/CYMEM
  +--> CYWRITE8/CYMEM
  +--> CFG_DMA_INIT/CYFITTER_CFG
  +--> _CYCONFIGCPY/CYMEM
  +--> CLOCKSETUP/CYFITTER_CFG
  +--> ANALOGSETDEFAULT/CYFITTER_CFG

CYREAD8/CYMEM                                 ----- -----  ----- -----  ----- -----

CYWRITE8/CYMEM                                ----- -----  ----- -----  ----- -----

CFG_DMA_INIT/CYFITTER_CFG                     ----- -----  ----- -----  ----- -----
  +--> CYWRITE16/CYMEM
  +--> ?CO?CYFITTER_CFG

CYWRITE16/CYMEM                               ----- -----  ----- -----  ----- -----

?CO?CYFITTER_CFG                              ----- -----  ----- -----  ----- -----

_CYCONFIGCPY/CYMEM                            ----- -----  ----- -----  0000H 0007H

CLOCKSETUP/CYFITTER_CFG                       ----- -----  ----- -----  0000H 0004H
  +--> CYWRITE16/CYMEM
LX51 LINKER/LOCATER V4.64.0.0                                                         04/17/2018  14:39:23  PAGE 11


  +--> CYREAD8/CYMEM
  +--> CYDELAYCYCLES/CYBOOTASMKEIL
  +--> _CYCLOCKSTARTUPERROR/CYFITTER_CFG

CYDELAYCYCLES/CYBOOTASMKEIL                   ----- -----  ----- -----  ----- -----

_CYCLOCKSTARTUPERROR/CYFITTER_CFG             ----- -----  ----- -----  ----- -----

ANALOGSETDEFAULT/CYFITTER_CFG                 ----- -----  ----- -----  ----- -----
  +--> CYREAD8/CYMEM

MAIN/MAIN                                     ----- -----  ----- -----  ----- -----
  +--> EEPROM_START/EEPROM
  +--> MEMRECALL/COMMAND_PROCESSING
  +--> _?CYDELAY/CYLIB
  +--> _FTDI_ENABLE_REG_WRITE/FTDI_ENABLE_REG
  +--> UART_RS485_STOP/UART_RS485
  +--> UART_RS485_START/UART_RS485
  +--> UART_RS485_INIT/UART_RS485
  +--> UART_RS485_CLEARRXBUFFER/UART_RS485
  +--> UART_RS485_CLEARTXBUFFER/UART_RS485
  +--> _ISR_RS485_RX_STARTEX/ISR_RS485_RX
  +--> _RS485_CTS_WRITE/RS485_CTS
  +--> MY_TIMER_START/MY_TIMER
  +--> PACER_TIMER_START/PACER_TIMER
  +--> SPI_IMU_START/SPI_IMU
  +--> SPI_IMU_INIT/SPI_IMU
  +--> SPI_IMU_ENABLE/SPI_IMU
  +--> SPI_IMU_CLEARRXBUFFER/SPI_IMU
  +--> SPI_IMU_CLEARTXBUFFER/SPI_IMU
  +--> SPI_IMU_CLEARFIFO/SPI_IMU
  +--> _OPTO_PIN_WRITE/OPTO_PIN
  +--> INITIMUGENERAL/IMU_FUNCTIONS
  +--> _RESET_FF_WRITE/RESET_FF
  +--> FUNCTION_SCHEDULER/INTERRUPTIONS
  +--> FF_STATUS_READ/FF_STATUS
  +--> INTERRUPT_MANAGER/INTERRUPTIONS
  +--> UART_RS485_READRXSTATUS/UART_RS485

EEPROM_START/EEPROM                           ----- -----  ----- -----  ----- -----
  +--> EEPROM_ENABLE/EEPROM

EEPROM_ENABLE/EEPROM                          ----- -----  ----- -----  ----- -----
  +--> CYSETTEMP/CYFLASH
  +--> CYEEPROM_START/CYFLASH

CYSETTEMP/CYFLASH                             ----- -----  ----- -----  0007H 0007H
  +--> CYFLASHGETSPCALGORITHM/CYFLASH
  +--> CYSETTEMPINT/CYFLASH

CYFLASHGETSPCALGORITHM/CYFLASH                ----- -----  ----- -----  0008H 0008H
  +--> CYSPCSTART/CYSPC
  +--> CYSPCLOCK/CYSPC
  +--> CYSPCGETALGORITHM/CYSPC
  +--> CYDELAYUS/CYBOOTASMKEIL
  +--> CYSPCUNLOCK/CYSPC

CYSPCSTART/CYSPC                              ----- -----  ----- -----  ----- -----
  +--> CYENTERCRITICALSECTION/CYBOOTASMKEIL
  +--> CYEXITCRITICALSECTION/CYBOOTASMKEIL

CYENTERCRITICALSECTION/CYBOOTASMKEIL          ----- -----  ----- -----  ----- -----

CYEXITCRITICALSECTION/CYBOOTASMKEIL           ----- -----  ----- -----  ----- -----

LX51 LINKER/LOCATER V4.64.0.0                                                         04/17/2018  14:39:23  PAGE 12


CYSPCLOCK/CYSPC                               ----- -----  ----- -----  000CH 000CH
  +--> CYENTERCRITICALSECTION/CYBOOTASMKEIL
  +--> CYEXITCRITICALSECTION/CYBOOTASMKEIL

CYSPCGETALGORITHM/CYSPC                       ----- -----  ----- -----  ----- -----

CYDELAYUS/CYBOOTASMKEIL                       ----- -----  ----- -----  ----- -----
  +--> CYDELAYCYCLES/CYBOOTASMKEIL

CYSPCUNLOCK/CYSPC                             ----- -----  ----- -----  ----- -----
  +--> CYENTERCRITICALSECTION/CYBOOTASMKEIL
  +--> CYEXITCRITICALSECTION/CYBOOTASMKEIL

CYSETTEMPINT/CYFLASH                          ----- -----  ----- -----  0008H 0008H
  +--> CYSPCSTART/CYSPC
  +--> CYSPCLOCK/CYSPC
  +--> _CYSPCGETTEMP/CYSPC
  +--> _CYSPCREADDATA/CYSPC
  +--> CYDELAYUS/CYBOOTASMKEIL
  +--> CYSPCUNLOCK/CYSPC

_CYSPCGETTEMP/CYSPC                           ----- -----  ----- -----  ----- -----

_CYSPCREADDATA/CYSPC                          ----- -----  ----- -----  0009H 000DH
  +--> CYDELAYUS/CYBOOTASMKEIL

CYEEPROM_START/CYFLASH                        ----- -----  ----- -----  ----- -----
  +--> CYENTERCRITICALSECTION/CYBOOTASMKEIL
  +--> CYEXITCRITICALSECTION/CYBOOTASMKEIL

MEMRECALL/COMMAND_PROCESSING                  ----- -----  ----- -----  ----- -----
  +--> MEMRESTORE/COMMAND_PROCESSING

MEMRESTORE/COMMAND_PROCESSING                 ----- -----  ----- -----  ----- -----
  +--> MEMINIT/COMMAND_PROCESSING
  +--> _MEMSTORE/COMMAND_PROCESSING

MEMINIT/COMMAND_PROCESSING                    ----- -----  ----- -----  ----- -----
  +--> _MEMSTORE/COMMAND_PROCESSING

_MEMSTORE/COMMAND_PROCESSING                  ----- -----  ----- -----  0000H 0006H
  +--> ISR_RS485_RX_DISABLE/ISR_RS485_RX
  +--> CYSETTEMP/CYFLASH
  +--> _EEPROM_WRITE/EEPROM
  +--> ISR_RS485_RX_ENABLE/ISR_RS485_RX

ISR_RS485_RX_DISABLE/ISR_RS485_RX             ----- -----  ----- -----  ----- -----

_EEPROM_WRITE/EEPROM                          ----- -----  ----- -----  0007H 000BH
  +--> CYSPCSTART/CYSPC
  +--> CYSPCLOCK/CYSPC
  +--> _CYSPCLOADROW/CYSPC
  +--> _CYSPCWRITEROW/CYSPC
  +--> CYSPCUNLOCK/CYSPC

_CYSPCLOADROW/CYSPC                           ----- -----  ----- -----  000CH 0012H

_CYSPCWRITEROW/CYSPC                          ----- -----  ----- -----  000CH 0010H

ISR_RS485_RX_ENABLE/ISR_RS485_RX              ----- -----  ----- -----  ----- -----

_?CYDELAY/CYLIB                               ----- -----  ----- -----  ----- -----
  +--> CYDELAYCYCLES/CYBOOTASMKEIL

_FTDI_ENABLE_REG_WRITE/FTDI_ENABLE_REG        ----- -----  ----- -----  ----- -----
LX51 LINKER/LOCATER V4.64.0.0                                                         04/17/2018  14:39:23  PAGE 13



UART_RS485_STOP/UART_RS485                    ----- -----  ----- -----  ----- -----
  +--> CYENTERCRITICALSECTION/CYBOOTASMKEIL
  +--> CYEXITCRITICALSECTION/CYBOOTASMKEIL

UART_RS485_START/UART_RS485                   ----- -----  ----- -----  ----- -----
  +--> UART_RS485_INIT/UART_RS485
  +--> UART_RS485_ENABLE/UART_RS485

UART_RS485_INIT/UART_RS485                    ----- -----  ----- -----  ----- -----
  +--> _CYINTSETVECTOR/CYLIB
  +--> _CYINTSETPRIORITY/CYLIB

_CYINTSETVECTOR/CYLIB                         ----- -----  ----- -----  0000H 0004H
  +--> CYREAD16/CYMEM
  +--> CYWRITE16/CYMEM

CYREAD16/CYMEM                                ----- -----  ----- -----  ----- -----

_CYINTSETPRIORITY/CYLIB                       ----- -----  ----- -----  ----- -----

UART_RS485_ENABLE/UART_RS485                  ----- -----  ----- -----  ----- -----
  +--> CYENTERCRITICALSECTION/CYBOOTASMKEIL
  +--> CYEXITCRITICALSECTION/CYBOOTASMKEIL

UART_RS485_CLEARRXBUFFER/UART_RS485           ----- -----  ----- -----  ----- -----
  +--> CYENTERCRITICALSECTION/CYBOOTASMKEIL
  +--> CYEXITCRITICALSECTION/CYBOOTASMKEIL

UART_RS485_CLEARTXBUFFER/UART_RS485           ----- -----  ----- -----  ----- -----
  +--> CYENTERCRITICALSECTION/CYBOOTASMKEIL
  +--> CYEXITCRITICALSECTION/CYBOOTASMKEIL

_ISR_RS485_RX_STARTEX/ISR_RS485_RX            ----- -----  ----- -----  0000H 0001H
  +--> ISR_RS485_RX_DISABLE/ISR_RS485_RX
  +--> _ISR_RS485_RX_SETVECTOR/ISR_RS485_RX
  +--> _ISR_RS485_RX_SETPRIORITY/ISR_RS485_RX
  +--> ISR_RS485_RX_ENABLE/ISR_RS485_RX

_ISR_RS485_RX_SETVECTOR/ISR_RS485_RX          ----- -----  ----- -----  ----- -----
  +--> CYWRITE16/CYMEM

_ISR_RS485_RX_SETPRIORITY/ISR_RS485_RX        ----- -----  ----- -----  ----- -----

_RS485_CTS_WRITE/RS485_CTS                    ----- -----  ----- -----  ----- -----

MY_TIMER_START/MY_TIMER                       ----- -----  ----- -----  ----- -----
  +--> MY_TIMER_INIT/MY_TIMER
  +--> MY_TIMER_ENABLE/MY_TIMER

MY_TIMER_INIT/MY_TIMER                        ----- -----  ----- -----  ----- -----
  +--> _MY_TIMER_WRITEPERIOD/MY_TIMER
  +--> _MY_TIMER_WRITECOUNTER/MY_TIMER
  +--> CYENTERCRITICALSECTION/CYBOOTASMKEIL
  +--> CYEXITCRITICALSECTION/CYBOOTASMKEIL
  +--> MY_TIMER_CLEARFIFO/MY_TIMER
  +--> _MY_TIMER_SETINTERRUPTMODE/MY_TIMER

_MY_TIMER_WRITEPERIOD/MY_TIMER                ----- -----  ----- -----  ----- -----
  +--> CYWRITE24/CYMEM

CYWRITE24/CYMEM                               ----- -----  ----- -----  ----- -----

_MY_TIMER_WRITECOUNTER/MY_TIMER               ----- -----  ----- -----  ----- -----
  +--> CYWRITE24/CYMEM
LX51 LINKER/LOCATER V4.64.0.0                                                         04/17/2018  14:39:23  PAGE 14



MY_TIMER_CLEARFIFO/MY_TIMER                   ----- -----  ----- -----  ----- -----
  +--> MY_TIMER_READSTATUSREGISTER/MY_TIMER
  +--> MY_TIMER_READCAPTURE/MY_TIMER

MY_TIMER_READSTATUSREGISTER/MY_TIMER          ----- -----  ----- -----  ----- -----

MY_TIMER_READCAPTURE/MY_TIMER                 ----- -----  ----- -----  ----- -----
  +--> CYREAD24/CYMEM

CYREAD24/CYMEM                                ----- -----  ----- -----  ----- -----

_MY_TIMER_SETINTERRUPTMODE/MY_TIMER           ----- -----  ----- -----  ----- -----

MY_TIMER_ENABLE/MY_TIMER                      ----- -----  ----- -----  ----- -----

PACER_TIMER_START/PACER_TIMER                 ----- -----  ----- -----  ----- -----
  +--> PACER_TIMER_INIT/PACER_TIMER
  +--> PACER_TIMER_ENABLE/PACER_TIMER

PACER_TIMER_INIT/PACER_TIMER                  ----- -----  ----- -----  ----- -----
  +--> _PACER_TIMER_WRITEPERIOD/PACER_TIMER
  +--> _PACER_TIMER_WRITECOUNTER/PACER_TIMER
  +--> _PACER_TIMER_SETINTERRUPTMODE/PACER_TIMER

_PACER_TIMER_WRITEPERIOD/PACER_TIMER          ----- -----  ----- -----  ----- -----
  +--> CYWRITE16/CYMEM

_PACER_TIMER_WRITECOUNTER/PACER_TIMER         ----- -----  ----- -----  ----- -----
  +--> CYWRITE16/CYMEM

_PACER_TIMER_SETINTERRUPTMODE/PACER_TIME+     ----- -----  ----- -----  ----- -----
... R

PACER_TIMER_ENABLE/PACER_TIMER                ----- -----  ----- -----  ----- -----

SPI_IMU_START/SPI_IMU                         ----- -----  ----- -----  ----- -----
  +--> SPI_IMU_INIT/SPI_IMU
  +--> SPI_IMU_ENABLE/SPI_IMU

SPI_IMU_INIT/SPI_IMU                          ----- -----  ----- -----  ----- -----
  +--> SPI_IMU_CLEARFIFO/SPI_IMU
  +--> SPI_IMU_READTXSTATUS/SPI_IMU
  +--> SPI_IMU_READRXSTATUS/SPI_IMU

SPI_IMU_CLEARFIFO/SPI_IMU                     ----- -----  ----- -----  ----- -----
  +--> CYENTERCRITICALSECTION/CYBOOTASMKEIL
  +--> CYEXITCRITICALSECTION/CYBOOTASMKEIL

SPI_IMU_READTXSTATUS/SPI_IMU                  ----- -----  ----- -----  ----- -----

SPI_IMU_READRXSTATUS/SPI_IMU                  ----- -----  ----- -----  ----- -----

SPI_IMU_ENABLE/SPI_IMU                        ----- -----  ----- -----  ----- -----
  +--> CYENTERCRITICALSECTION/CYBOOTASMKEIL
  +--> CYEXITCRITICALSECTION/CYBOOTASMKEIL
  +--> SPI_IMU_INTCLOCK_START/SPI_IMU_INTCLOCK
  +--> SPI_IMU_ENABLETXINT/SPI_IMU
  +--> SPI_IMU_ENABLERXINT/SPI_IMU

SPI_IMU_INTCLOCK_START/SPI_IMU_INTCLOCK       ----- -----  ----- -----  ----- -----

SPI_IMU_ENABLETXINT/SPI_IMU                   ----- -----  ----- -----  ----- -----

SPI_IMU_ENABLERXINT/SPI_IMU                   ----- -----  ----- -----  ----- -----
LX51 LINKER/LOCATER V4.64.0.0                                                         04/17/2018  14:39:23  PAGE 15



SPI_IMU_CLEARRXBUFFER/SPI_IMU                 ----- -----  ----- -----  ----- -----

SPI_IMU_CLEARTXBUFFER/SPI_IMU                 ----- -----  ----- -----  ----- -----
  +--> CYENTERCRITICALSECTION/CYBOOTASMKEIL
  +--> CYEXITCRITICALSECTION/CYBOOTASMKEIL

_OPTO_PIN_WRITE/OPTO_PIN                      ----- -----  ----- -----  ----- -----

INITIMUGENERAL/IMU_FUNCTIONS                  ----- -----  ----- -----  0000H 0025H
  +--> _CHIPSELECTOR/IMU_FUNCTIONS
  +--> _?CYDELAY/CYLIB
  +--> _READCONTROLREGISTER/IMU_FUNCTIONS
  +--> _OPTO_PIN_WRITE/OPTO_PIN
  +--> INITIMU/IMU_FUNCTIONS
  +--> INITIMUMAGCAL/IMU_FUNCTIONS
  +--> _READMAGCAL/IMU_FUNCTIONS

_CHIPSELECTOR/IMU_FUNCTIONS                   ----- -----  ----- -----  0026H 0027H
  +--> _CHIP_SELECT_A_WRITE/CHIP_SELECT_A
  +--> _CHIP_SELECT_B_WRITE/CHIP_SELECT_B

_CHIP_SELECT_A_WRITE/CHIP_SELECT_A            ----- -----  ----- -----  ----- -----

_CHIP_SELECT_B_WRITE/CHIP_SELECT_B            ----- -----  ----- -----  ----- -----

_READCONTROLREGISTER/IMU_FUNCTIONS            ----- -----  ----- -----  ----- -----
  +--> _SPI_IMU_WRITETXDATA/SPI_IMU
  +--> SPI_IMU_READSTATUS/SPI_IMU
  +--> SPI_IMU_READRXDATA/SPI_IMU

_SPI_IMU_WRITETXDATA/SPI_IMU                  ----- -----  ----- -----  ----- -----

SPI_IMU_READSTATUS/SPI_IMU                    ----- -----  ----- -----  ----- -----

SPI_IMU_READRXDATA/SPI_IMU                    ----- -----  ----- -----  ----- -----

INITIMU/IMU_FUNCTIONS                         ----- -----  ----- -----  ----- -----
  +--> _WRITECONTROLREGISTER/IMU_FUNCTIONS
  +--> _?CYDELAY/CYLIB

_WRITECONTROLREGISTER/IMU_FUNCTIONS           ----- -----  ----- -----  0026H 0027H
  +--> SPI_IMU_CLEARRXBUFFER/SPI_IMU
  +--> SPI_IMU_CLEARTXBUFFER/SPI_IMU
  +--> SPI_IMU_CLEARFIFO/SPI_IMU
  +--> _SPI_IMU_WRITETXDATA/SPI_IMU
  +--> SPI_IMU_READSTATUS/SPI_IMU

INITIMUMAGCAL/IMU_FUNCTIONS                   ----- -----  ----- -----  ----- -----
  +--> _WRITECONTROLREGISTER/IMU_FUNCTIONS
  +--> _?CYDELAY/CYLIB

_READMAGCAL/IMU_FUNCTIONS                     ----- -----  ----- -----  0026H 0028H
  +--> _READCONTROLREGISTER/IMU_FUNCTIONS

_RESET_FF_WRITE/RESET_FF                      ----- -----  ----- -----  ----- -----

FUNCTION_SCHEDULER/INTERRUPTIONS              ----- -----  ----- -----  ----- -----
  +--> MY_TIMER_READCOUNTER/MY_TIMER
  +--> INTERRUPT_MANAGER/INTERRUPTIONS
  +--> READALLIMUS/IMU_FUNCTIONS
  +--> _MY_TIMER_WRITECOUNTER/MY_TIMER

MY_TIMER_READCOUNTER/MY_TIMER                 ----- -----  ----- -----  ----- -----
  +--> CYREAD24/CYMEM
LX51 LINKER/LOCATER V4.64.0.0                                                         04/17/2018  14:39:23  PAGE 16



INTERRUPT_MANAGER/INTERRUPTIONS               20H.0 20H.0  0008H 0009H  ----- -----
  +--> UART_RS485_GETRXBUFFERSIZE/UART_RS485
  +--> UART_RS485_GETCHAR/UART_RS485
  +--> _INFOGET/COMMAND_PROCESSING
  +--> COMMPROCESS/COMMAND_PROCESSING
  +--> _RS485_CTS_WRITE/RS485_CTS

UART_RS485_GETRXBUFFERSIZE/UART_RS485         ----- -----  ----- -----  ----- -----

UART_RS485_GETCHAR/UART_RS485                 ----- -----  ----- -----  ----- -----

_INFOGET/COMMAND_PROCESSING                   ----- -----  ----- -----  ----- -----
  +--> _INFOPREPARE/COMMAND_PROCESSING
  +--> _UART_RS485_PUTSTRING/UART_RS485
  +--> _INFOREADING/COMMAND_PROCESSING

_INFOPREPARE/COMMAND_PROCESSING               ----- -----  ----- -----  0000H 0068H
  +--> ?CO?COMMAND_PROCESSING
  +--> _STRCAT/STRCAT
  +--> PRINTF/PRINTF

?CO?COMMAND_PROCESSING                        ----- -----  ----- -----  ----- -----

_STRCAT/STRCAT                                ----- -----  ----- -----  08AEH 08B6H

PRINTF/PRINTF                                 20H.1 21H.1  001AH 001EH  08AEH 08DDH
  +--> PUTCHAR/PUTCHAR

PUTCHAR/PUTCHAR                               ----- -----  ----- -----  ----- -----

_UART_RS485_PUTSTRING/UART_RS485              ----- -----  ----- -----  0000H 0002H
  +--> _UART_RS485_PUTCHAR/UART_RS485

_UART_RS485_PUTCHAR/UART_RS485                ----- -----  ----- -----  ----- -----

_INFOREADING/COMMAND_PROCESSING               ----- -----  ----- -----  0000H 0068H
  +--> ?CO?COMMAND_PROCESSING
  +--> _STRCAT/STRCAT
  +--> PRINTF/PRINTF

COMMPROCESS/COMMAND_PROCESSING                ----- -----  000AH 000AH  ----- -----
  +--> _LCRCHECKSUM/COMMAND_PROCESSING
  +--> CMD_SET_BAUDRATE/COMMAND_PROCESSING
  +--> _INFOGET/COMMAND_PROCESSING
  +--> _GET_PARAM_LIST/COMMAND_PROCESSING
  +--> CMD_PING/COMMAND_PROCESSING
  +--> CMD_STORE_PARAMS/COMMAND_PROCESSING
  +--> _MEMSTORE/COMMAND_PROCESSING
  +--> _SENDACKNOWLEDGMENT/COMMAND_PROCESSING
  +--> MEMRESTORE/COMMAND_PROCESSING
  +--> MEMINIT/COMMAND_PROCESSING
  +--> _?CYDELAY/CYLIB
  +--> _FTDI_ENABLE_REG_WRITE/FTDI_ENABLE_REG
  +--> BOOTLOADABLE_LOAD/BOOTLOADABLE
  +--> CMD_GET_IMU_READINGS/COMMAND_PROCESSING

_LCRCHECKSUM/COMMAND_PROCESSING               ----- -----  001AH 001BH  08AEH 08B0H

CMD_SET_BAUDRATE/COMMAND_PROCESSING           ----- -----  ----- -----  ----- -----
  +--> _CLOCK_UART_SETDIVIDERREGISTER/CLOCK_UART

_CLOCK_UART_SETDIVIDERREGISTER/CLOCK_UAR+     ----- -----  ----- -----  0000H 0006H
... T
  +--> CLOCK_UART_GETSOURCEREGISTER/CLOCK_UART
LX51 LINKER/LOCATER V4.64.0.0                                                         04/17/2018  14:39:23  PAGE 17


  +--> CLOCK_UART_GETDIVIDERREGISTER/CLOCK_UART
  +--> CYWRITE16/CYMEM

CLOCK_UART_GETSOURCEREGISTER/CLOCK_UART       ----- -----  ----- -----  ----- -----

CLOCK_UART_GETDIVIDERREGISTER/CLOCK_UART      ----- -----  ----- -----  ----- -----
  +--> CYREAD16/CYMEM

_GET_PARAM_LIST/COMMAND_PROCESSING            ----- -----  000BH 0019H  0000H 08ADH
  +--> ?CO?COMMAND_PROCESSING
  +--> _STRLEN/STRLEN
  +--> PRINTF/PRINTF
  +--> _STRCAT/STRCAT
  +--> _LCRCHECKSUM/COMMAND_PROCESSING
  +--> _COMMWRITE/COMMAND_PROCESSING
  +--> UART_RS485_CLEARTXBUFFER/UART_RS485

_STRLEN/STRLEN                                ----- -----  ----- -----  ----- -----

_COMMWRITE/COMMAND_PROCESSING                 ----- -----  001AH 001BH  08AEH 08B2H
  +--> _UART_RS485_PUTCHAR/UART_RS485
  +--> UART_RS485_READTXSTATUS/UART_RS485
  +--> _RS485_CTS_WRITE/RS485_CTS

UART_RS485_READTXSTATUS/UART_RS485            ----- -----  ----- -----  ----- -----

CMD_PING/COMMAND_PROCESSING                   ----- -----  ----- -----  0000H 0001H
  +--> _COMMWRITE/COMMAND_PROCESSING

CMD_STORE_PARAMS/COMMAND_PROCESSING           ----- -----  ----- -----  ----- -----
  +--> _MEMSTORE/COMMAND_PROCESSING
  +--> _SENDACKNOWLEDGMENT/COMMAND_PROCESSING

_SENDACKNOWLEDGMENT/COMMAND_PROCESSING        ----- -----  ----- -----  0000H 0001H
  +--> _COMMWRITE/COMMAND_PROCESSING

BOOTLOADABLE_LOAD/BOOTLOADABLE                ----- -----  ----- -----  ----- -----
  +--> CYSOFTWARERESET/CYLIB

CYSOFTWARERESET/CYLIB                         ----- -----  ----- -----  ----- -----

CMD_GET_IMU_READINGS/COMMAND_PROCESSING       ----- -----  ----- -----  0000H 0177H
  +--> _LCRCHECKSUM/COMMAND_PROCESSING
  +--> _COMMWRITE/COMMAND_PROCESSING

READALLIMUS/IMU_FUNCTIONS                     ----- -----  ----- -----  0000H 0007H
  +--> _CHIPSELECTOR/IMU_FUNCTIONS
  +--> _READIMU/IMU_FUNCTIONS

_READIMU/IMU_FUNCTIONS                        ----- -----  ----- -----  0008H 0009H
  +--> _READACC/IMU_FUNCTIONS
  +--> _READGYRO/IMU_FUNCTIONS
  +--> _READMAG/IMU_FUNCTIONS
  +--> _READQUAT/IMU_FUNCTIONS
  +--> _READTEMP/IMU_FUNCTIONS

_READACC/IMU_FUNCTIONS                        ----- -----  ----- -----  005FH 0062H
  +--> _READCONTROLREGISTER/IMU_FUNCTIONS
  +--> SPI_DELAY/IMU_FUNCTIONS

SPI_DELAY/IMU_FUNCTIONS                       ----- -----  ----- -----  ----- -----
  +--> CYDELAYUS/CYBOOTASMKEIL

_READGYRO/IMU_FUNCTIONS                       ----- -----  ----- -----  005FH 0062H
  +--> _READCONTROLREGISTER/IMU_FUNCTIONS
LX51 LINKER/LOCATER V4.64.0.0                                                         04/17/2018  14:39:23  PAGE 18


  +--> SPI_DELAY/IMU_FUNCTIONS

_READMAG/IMU_FUNCTIONS                        ----- -----  ----- -----  000AH 000DH
  +--> _READCONTROLREGISTER/IMU_FUNCTIONS
  +--> SPI_DELAY/IMU_FUNCTIONS

_READQUAT/IMU_FUNCTIONS                       ----- -----  ----- -----  000AH 005EH
  +--> _READACC/IMU_FUNCTIONS
  +--> _READGYRO/IMU_FUNCTIONS
  +--> _FABS/FABS
  +--> _V3_NORMALIZE/UTILS
  +--> _V4_NORMALIZE/UTILS

_FABS/FABS                                    ----- -----  ----- -----  ----- -----

_V3_NORMALIZE/UTILS                           ----- -----  ----- -----  005FH 0065H
  +--> _INVSQRT/UTILS

_INVSQRT/UTILS                                ----- -----  ----- -----  0066H 0075H

_V4_NORMALIZE/UTILS                           ----- -----  ----- -----  005FH 0065H
  +--> _INVSQRT/UTILS

_READTEMP/IMU_FUNCTIONS                       ----- -----  ----- -----  000AH 000DH
  +--> _READCONTROLREGISTER/IMU_FUNCTIONS
  +--> SPI_DELAY/IMU_FUNCTIONS

FF_STATUS_READ/FF_STATUS                      ----- -----  ----- -----  ----- -----

UART_RS485_READRXSTATUS/UART_RS485            ----- -----  ----- -----  ----- -----

?C_INITSEG                                    ----- -----  ----- -----  ----- -----

*** NEW ROOT ********************************

UART_RS485_RXISR/UART_RS485_INT               ----- -----  ----- -----  ----- -----



PUBLIC SYMBOLS OF MODULE:  .\DP8051_Keil_951\Release\firmware.omf (COMMAND_PROCESSING)


      VALUE       CLASS    TYPE      PUBLIC SYMBOL NAME
      =================================================
*DEL*:00000000H   XDATA    BYTE      ?_Bootloadable_SetFlashByte?BYTE
      02000000H   XDATA    BYTE      ?_cyconfigcpy?BYTE
*DEL*:00000000H   XDATA    BYTE      ?_CySpcLoadMultiByte?BYTE
      0200000CH   XDATA    BYTE      ?_CySpcLoadRow?BYTE
*DEL*:00000000H   XDATA    BYTE      ?_CySpcLoadRowFull?BYTE
      0200000CH   XDATA    BYTE      ?_CySpcWriteRow?BYTE
*DEL*:00000000H   XDATA    BYTE      ?_CyWriteRowFull?BYTE
      020008AEH   XDATA    ---       ?_PRINTF?BYTE
      020008AEH   XDATA    ---       ?_SPRINTF?BYTE
      020008AEH   XDATA    ---       ?_strcat?BYTE
      0100556CH   CODE     ---       ?C?ADDXBP
      01005546H   CODE     ---       ?C?CCASE
      010052FCH   CODE     ---       ?C?CLDOPTR
      010052E3H   CODE     ---       ?C?CLDPTR
      00000000H   NUMBER   ---       ?C?CODESEG
      010056A5H   CODE     ---       ?C?COPYAMD
      01005329H   CODE     ---       ?C?CSTPTR
      010050B3H   CODE     ---       ?C?FCASTC
      010050AEH   CODE     ---       ?C?FCASTI
      010050A9H   CODE     ---       ?C?FCASTL
      01004D88H   CODE     ---       ?C?FPADD
LX51 LINKER/LOCATER V4.64.0.0                                                         04/17/2018  14:39:23  PAGE 19


      01005021H   CODE     ---       ?C?FPCMP
      0100501FH   CODE     ---       ?C?FPCMP3
      0100516EH   CODE     ---       ?C?FPCONVERT
      01004F82H   CODE     ---       ?C?FPDIV
      010050E7H   CODE     ---       ?C?FPGETOPN2
      01004E79H   CODE     ---       ?C?FPMUL
      0100511CH   CODE     ---       ?C?FPNANRESULT
      01005098H   CODE     ---       ?C?FPNEG
      01005126H   CODE     ---       ?C?FPOVERFLOW
      010050FEH   CODE     ---       ?C?FPRESULT
      01005112H   CODE     ---       ?C?FPRESULT2
      01005131H   CODE     ---       ?C?FPROUND
      01004D84H   CODE     ---       ?C?FPSUB
      01005123H   CODE     ---       ?C?FPUNDERFLOW
      010052A3H   CODE     ---       ?C?FTNPWR
      010057A0H   CODE     ---       ?C?IILDX
      010057B6H   CODE     ---       ?C?ILDIX
      0100533BH   CODE     ---       ?C?IMUL
      01005590H   CODE     ---       ?C?LIMUL
      010057F0H   CODE     ---       ?C?LLDCODE
      010057CCH   CODE     ---       ?C?LLDIDATA
      010057E4H   CODE     ---       ?C?LLDPDATA
      010054C3H   CODE     ---       ?C?LLDPTR
      010057D8H   CODE     ---       ?C?LLDXDATA
      0100534DH   CODE     ---       ?C?LMUL
      0100546AH   CODE     ---       ?C?LNEG
      010054B0H   CODE     ---       ?C?LSHL
      01005800H   CODE     ---       ?C?LSTIDATA
      0100580CH   CODE     ---       ?C?LSTPDATA
      010054E3H   CODE     ---       ?C?LSTPTR
      010054FDH   CODE     ---       ?C?LSTXDATA
      010055BDH   CODE     ---       ?C?MEMSET
      01005509H   CODE     ---       ?C?OFFX256
      0100551AH   CODE     ---       ?C?OFFXADD
      01005526H   CODE     ---       ?C?PLDIXDATA
      0100553DH   CODE     ---       ?C?PSTXDATA
      0100549CH   CODE     ---       ?C?SLSHR
      01005783H   CODE     ---       ?C?STRCPYAMD
      01005478H   CODE     ---       ?C?ULCMP
      010053D8H   CODE     ---       ?C?ULDIV
      01005489H   CODE     ---       ?C?ULSHR
      00000000H   NUMBER   ---       ?C?XDATASEG
      00000000H   NUMBER   ---       ?C?XPAGE1RST
      00000093H   DATA     BYTE      ?C?XPAGE1SFR
      01007AECH   CODE     ---       ?C_START
      01002600H   CODE     NEAR LAB  ?C_STARTUP
      00000028H   DATA     ---       ?C_XBP
      010084DAH   CODE     ---       _?CyDelay
*DEL*:00000000H   CODE     ---       _?CyDelayFreq
*DEL*:00000000H   CODE     ---       _?CyHalt
*DEL*:00000000H   CODE     ---       _Bootloadable_SetFlashByte
*DEL*:00000000H   CODE     NEAR LAB  _cfg_write_bytes
*DEL*:00000000H   CODE     NEAR LAB  _cfg_write_bytes_code
      010092B6H   CODE     ---       _Chip_Select_A_Write
      010092BCH   CODE     ---       _Chip_Select_B_Write
      01008AAFH   CODE     ---       _ChipSelector
*DEL*:00000000H   CODE     ---       _CLOCK_UART_ClearModeRegister
      0100721EH   CODE     ---       _CLOCK_UART_SetDividerRegister
*DEL*:00000000H   CODE     ---       _CLOCK_UART_SetModeRegister
*DEL*:00000000H   CODE     ---       _CLOCK_UART_SetSourceRegister
*DEL*:00000000H   CODE     ---       _CLOCK_UART_StandbyPower
      0100844DH   CODE     ---       _commWrite
*DEL*:00000000H   CODE     ---       _CyBusClk_SetDivider
      01008C3BH   CODE     NEAR LAB  _cyconfigcpy
*DEL*:00000000H   CODE     NEAR LAB  _cyconfigcpycode
LX51 LINKER/LOCATER V4.64.0.0                                                         04/17/2018  14:39:23  PAGE 20


*DEL*:00000000H   CODE     ---       _CyCpuClk_SetDivider
*DEL*:00000000H   CODE     NEAR LAB  _CyDelay
      01008C00H   CODE     NEAR LAB  _CyDelayCycles
      01008DC0H   CODE     NEAR LAB  _CyDelayUs
*DEL*:00000000H   CODE     ---       _CyEnableInts
      01008FC0H   CODE     NEAR LAB  _CyExitCriticalSection
*DEL*:00000000H   CODE     ---       _CyFlash_SetWaitCycles
*DEL*:00000000H   CODE     ---       _CyGetUniqueId
*DEL*:00000000H   CODE     ---       _CyILO_SetPowerMode
*DEL*:00000000H   CODE     ---       _CyILO_SetSource
*DEL*:00000000H   CODE     ---       _CyIMO_SetFreq
*DEL*:00000000H   CODE     ---       _CyIMO_SetSource
*DEL*:00000000H   CODE     ---       _CyIMO_Start
*DEL*:00000000H   CODE     ---       _CyIntGetPriority
*DEL*:00000000H   CODE     ---       _CyIntGetState
*DEL*:00000000H   CODE     ---       _CyIntGetVector
      01008F76H   CODE     ---       _CyIntSetPriority
      0100891BH   CODE     ---       _CyIntSetVector
*DEL*:00000000H   CODE     ---       _CyMasterClk_SetDivider
*DEL*:00000000H   CODE     ---       _CyMasterClk_SetSource
*DEL*:00000000H   CODE     NEAR LAB  _cymemzero
*DEL*:00000000H   CODE     ---       _CyPLL_OUT_SetPQ
*DEL*:00000000H   CODE     ---       _CyPLL_OUT_SetSource
*DEL*:00000000H   CODE     ---       _CyPLL_OUT_Start
*DEL*:00000000H   CODE     ---       _CyPmAltAct
*DEL*:00000000H   CODE     ---       _CyPmCtwSetInterval
*DEL*:00000000H   CODE     ---       _CyPmFtwSetInterval
*DEL*:00000000H   CODE     ---       _CyPmHibernateEx
*DEL*:00000000H   CODE     ---       _CyPmReadStatus
*DEL*:00000000H   CODE     ---       _CyPmSleep
      01009168H   CODE     NEAR LAB  _cyread16
      0100916AH   CODE     NEAR LAB  _cyread16_nodpx
      010090E2H   CODE     NEAR LAB  _cyread24
      010090E4H   CODE     NEAR LAB  _cyread24_nodpx
*DEL*:00000000H   CODE     NEAR LAB  _cyread32
*DEL*:00000002H   CODE     NEAR LAB  _cyread32_nodpx
      01008BF4H   CODE     NEAR LAB  _cyread8
      01008BF6H   CODE     NEAR LAB  _cyread8_nodpx
*DEL*:00000000H   CODE     ---       _CySetFlashEEBuffer
*DEL*:00000000H   CODE     ---       _CySpcEraseSector
      01008D92H   CODE     ---       _CySpcGetTemp
*DEL*:00000000H   CODE     ---       _CySpcLoadMultiByte
      01008667H   CODE     ---       _CySpcLoadRow
*DEL*:00000000H   CODE     ---       _CySpcLoadRowFull
      010087ACH   CODE     ---       _CySpcReadData
      0100896FH   CODE     ---       _CySpcWriteRow
*DEL*:00000000H   CODE     ---       _CyUsbClk_SetSource
*DEL*:00000000H   CODE     ---       _CyVdLvAnalogEnable
*DEL*:00000000H   CODE     ---       _CyVdLvDigitEnable
*DEL*:00000000H   CODE     ---       _CyVdStickyStatus
*DEL*:00000000H   CODE     ---       _CyWdtStart
      01009177H   CODE     NEAR LAB  _cywrite16
      01009179H   CODE     NEAR LAB  _cywrite16_nodpx
      01009119H   CODE     NEAR LAB  _cywrite24
      0100911BH   CODE     NEAR LAB  _cywrite24_nodpx
*DEL*:00000000H   CODE     NEAR LAB  _cywrite32
*DEL*:00000002H   CODE     NEAR LAB  _cywrite32_nodpx
      010091F3H   CODE     NEAR LAB  _cywrite8
      010091F5H   CODE     NEAR LAB  _cywrite8_nodpx
*DEL*:00000000H   CODE     ---       _CyWriteRowData
*DEL*:00000000H   CODE     ---       _CyWriteRowFull
*DEL*:00000000H   CODE     ---       _CyXTAL_32KHZ_SetPowerMode
*DEL*:00000000H   CODE     ---       _CyXTAL_SetFbVoltage
*DEL*:00000000H   CODE     ---       _CyXTAL_SetStartup
*DEL*:00000000H   CODE     ---       _CyXTAL_SetWdVoltage
LX51 LINKER/LOCATER V4.64.0.0                                                         04/17/2018  14:39:23  PAGE 21


*DEL*:00000000H   CODE     ---       _CyXTAL_Start
      01002604H   CODE     NEAR LAB  _dma_wait
*DEL*:00000000H   CODE     ---       _EEPROM_ByteWritePos
*DEL*:00000000H   CODE     ---       _EEPROM_EraseSector
*DEL*:00000000H   CODE     ---       _EEPROM_ReadByte
*DEL*:00000000H   CODE     ---       _EEPROM_StartErase
*DEL*:00000000H   CODE     ---       _EEPROM_StartWrite
      01007FFBH   CODE     ---       _EEPROM_Write
*DEL*:00000000H   CODE     ---       _EEPROM_WriteByte
      010091E6H   CODE     ---       _FABS
*DEL*:00000000H   CODE     ---       _FF_STATUS_WriteMask
      01009286H   CODE     ---       _FTDI_ENABLE_REG_Write
      0100261AH   CODE     ---       _get_param_list
      01008D03H   CODE     ---       _infoGet
      01005818H   CODE     ---       _infoPrepare
      01006230H   CODE     ---       _infoReading
      01007E2AH   CODE     ---       _invSqrt
      0100920BH   CODE     ---       _ISR_RS485_RX_SetPriority
      01009195H   CODE     ---       _ISR_RS485_RX_SetVector
      01008EE5H   CODE     ---       _ISR_RS485_RX_StartEx
      01008C6FH   CODE     ---       _LCRChecksum
      01008259H   CODE     ---       _memStore
      01009298H   CODE     ---       _MY_TIMER_SetInterruptMode
*DEL*:00000000H   CODE     ---       _MY_TIMER_WriteControlRegister
      0100923DH   CODE     ---       _MY_TIMER_WriteCounter
      01009229H   CODE     ---       _MY_TIMER_WritePeriod
*DEL*:00000000H   CODE     ---       _Opto_Pin_SetDriveMode
      0100912BH   CODE     ---       _Opto_Pin_Write
      0100927AH   CODE     ---       _PACER_TIMER_SetInterruptMode
*DEL*:00000000H   CODE     ---       _PACER_TIMER_WriteControlRegister
      010091B1H   CODE     ---       _PACER_TIMER_WriteCounter
      010091A3H   CODE     ---       _PACER_TIMER_WritePeriod
      01005E18H   CODE     ---       _PRINTF
      01008E19H   CODE     ---       _PUTCHAR
      010077DFH   CODE     ---       _ReadAcc
      01008FD8H   CODE     ---       _ReadControlRegister
      010078FBH   CODE     ---       _ReadGyro
      01008307H   CODE     ---       _ReadIMU
      01007B31H   CODE     ---       _ReadMag
      01008562H   CODE     ---       _ReadMagCal
      010034DDH   CODE     ---       _ReadQuat
      0100880CH   CODE     ---       _ReadTemp
      0100928CH   CODE     ---       _RESET_FF_Write
      01009280H   CODE     ---       _RS485_CTS_Write
      01009005H   CODE     ---       _sendAcknowledgment
*DEL*:00000000H   CODE     ---       _SetAnalogRoutingPumps
*DEL*:00000000H   CODE     ---       _SPI_IMU_IntClock_ClearModeRegister
*DEL*:00000000H   CODE     ---       _SPI_IMU_IntClock_SetDividerRegister
*DEL*:00000000H   CODE     ---       _SPI_IMU_IntClock_SetModeRegister
*DEL*:00000000H   CODE     ---       _SPI_IMU_IntClock_SetSourceRegister
*DEL*:00000000H   CODE     ---       _SPI_IMU_IntClock_StandbyPower
*DEL*:00000000H   CODE     ---       _SPI_IMU_PutArray
*DEL*:00000000H   CODE     ---       _SPI_IMU_SetInterruptMode
*DEL*:00000000H   CODE     ---       _SPI_IMU_SetRxInterruptMode
*DEL*:00000000H   CODE     ---       _SPI_IMU_SetTxInterruptMode
      010091D9H   CODE     ---       _SPI_IMU_WriteTxData
      01005E12H   CODE     ---       _SPRINTF
      010086DAH   CODE     ---       _strcat
      01009059H   CODE     ---       _STRLEN
*DEL*:00000000H   CODE     ---       _UART_RS485_PutArray
      010091BFH   CODE     ---       _UART_RS485_PutChar
*DEL*:00000000H   CODE     ---       _UART_RS485_PutCRLF
      01008BC0H   CODE     ---       _UART_RS485_PutString
*DEL*:00000000H   CODE     ---       _UART_RS485_SendBreak
*DEL*:00000000H   CODE     ---       _UART_RS485_SetRxAddress1
LX51 LINKER/LOCATER V4.64.0.0                                                         04/17/2018  14:39:23  PAGE 22


*DEL*:00000000H   CODE     ---       _UART_RS485_SetRxAddress2
*DEL*:00000000H   CODE     ---       _UART_RS485_SetRxAddressMode
*DEL*:00000000H   CODE     ---       _UART_RS485_SetRxInterruptMode
*DEL*:00000000H   CODE     ---       _UART_RS485_SetTxAddressMode
*DEL*:00000000H   CODE     ---       _UART_RS485_SetTxInterruptMode
*DEL*:00000000H   CODE     ---       _UART_RS485_WriteControlRegister
*DEL*:00000000H   CODE     ---       _UART_RS485_WriteTxData
      0100759BH   CODE     ---       _v3_normalize
      01007094H   CODE     ---       _v4_normalize
      01008D33H   CODE     ---       _WriteControlRegister
*SFR* 000000D0H.6 DATA     BIT       AC
*SFR* 000000E0H   DATA     BYTE      ACC
      0200106CH   XDATA    ---       Accel
*SFR* 000000F0H   DATA     BYTE      B
      0100921FH   CODE     ---       Bootloadable_Load
      020008DEH   XDATA    ---       c_mem
*DEL*:00000000H   CODE     ---       Chip_Select_A_Read
*DEL*:00000000H   CODE     ---       Chip_Select_B_Read
      01009215H   CODE     ---       CLOCK_UART_GetDividerRegister
*DEL*:00000000H   CODE     ---       CLOCK_UART_GetModeRegister
      01009247H   CODE     ---       CLOCK_UART_GetSourceRegister
*DEL*:00000000H   CODE     ---       CLOCK_UART_Start
*DEL*:00000000H   CODE     ---       CLOCK_UART_Stop
*DEL*:00000000H   CODE     ---       CLOCK_UART_StopBlock
      010066ABH   CODE     ---       cmd_get_imu_readings
      0100906EH   CODE     ---       cmd_ping
      01008E65H   CODE     ---       cmd_set_baudrate
      0100901AH   CODE     ---       cmd_store_params
      01007F19H   CODE     ---       commProcess
*SFR* 000000D0H.7 DATA     BIT       CY
      02001617H   XDATA    DWORD     cydelay_32k_ms
      02001612H   XDATA    DWORD     cydelay_freq_hz
      0200160DH   XDATA    DWORD     cydelay_freq_khz
      02001611H   XDATA    BYTE      cydelay_freq_mhz
*DEL*:00000000H   CODE     ---       CyDisableInts
*DEL*:00000000H   CODE     ---       CyEEPROM_ReadRelease
*DEL*:00000000H   CODE     ---       CyEEPROM_ReadReserve
      01008CD2H   CODE     ---       CyEEPROM_Start
*DEL*:00000000H   CODE     ---       CyEEPROM_Stop
      0100902FH   CODE     NEAR LAB  CyEnterCriticalSection
      01007475H   CODE     ---       cyfitter_cfg
*DEL*:00000000H   CODE     ---       CyFlash_Start
*DEL*:00000000H   CODE     ---       CyFlash_Stop
*DEL*:00000000H   CODE     ---       CyILO_Disable33K
*DEL*:00000000H   CODE     ---       CyILO_Enable33K
*DEL*:00000000H   CODE     ---       CyILO_Start100K
*DEL*:00000000H   CODE     ---       CyILO_Start1K
*DEL*:00000000H   CODE     ---       CyILO_Stop100K
*DEL*:00000000H   CODE     ---       CyILO_Stop1K
*DEL*:00000000H   CODE     ---       CyIMO_DisableDoubler
*DEL*:00000000H   CODE     ---       CyIMO_EnableDoubler
*DEL*:00000000H   CODE     ---       CyIMO_Stop
*DEL*:00000000H   CODE     ---       CyPLL_OUT_Stop
*DEL*:00000000H   CODE     ---       CyPmHibernate
*DEL*:00000000H   CODE     ---       CyPmOppsSet
*DEL*:00000000H   CODE     ---       CyPmRestoreClocks
*DEL*:00000000H   CODE     ---       CyPmSaveClocks
      02001616H   XDATA    BYTE      CyResetStatus
      01008FA8H   CODE     ---       CySetTemp
      01009257H   CODE     ---       CySoftwareReset
      01008F5BH   CODE     ---       CySpcGetAlgorithm
      01008F04H   CODE     ---       CySpcLock
      01009044H   CODE     ---       CySpcStart
*DEL*:00000000H   CODE     ---       CySpcStop
      010091FFH   CODE     ---       CySpcUnlock
LX51 LINKER/LOCATER V4.64.0.0                                                         04/17/2018  14:39:23  PAGE 23


*DEL*:00000000H   CODE     ---       CyVdHvAnalogDisable
*DEL*:00000000H   CODE     ---       CyVdHvAnalogEnable
*DEL*:00000000H   CODE     ---       CyVdLvAnalogDisable
*DEL*:00000000H   CODE     ---       CyVdLvDigitDisable
*DEL*:00000000H   CODE     ---       CyVdRealTimeStatus
*DEL*:00000000H   CODE     ---       CyWdtClear
*DEL*:00000000H   CODE     ---       CyXTAL_32KHZ_ReadStatus
*DEL*:00000000H   CODE     ---       CyXTAL_32KHZ_Start
*DEL*:00000000H   CODE     ---       CyXTAL_32KHZ_Stop
*DEL*:00000000H   CODE     ---       CyXTAL_DisableErrStatus
*DEL*:00000000H   CODE     ---       CyXTAL_DisableFaultRecovery
*DEL*:00000000H   CODE     ---       CyXTAL_EnableErrStatus
*DEL*:00000000H   CODE     ---       CyXTAL_EnableFaultRecovery
*DEL*:00000000H   CODE     ---       CyXTAL_ReadStatus
*DEL*:00000000H   CODE     ---       CyXTAL_Stop
      0200161EH   XDATA    ---       dieTemperature
*SFR* 00000083H   DATA     BYTE      DPH
*SFR* 00000085H   DATA     BYTE      DPH1
*SFR* 00000082H   DATA     BYTE      DPL
*SFR* 00000084H   DATA     BYTE      DPL1
*SFR* 00000086H   DATA     BYTE      DPS
*SFR* 00000093H   DATA     BYTE      DPX
*SFR* 00000095H   DATA     BYTE      DPX1
*SFR* 000000A8H.7 DATA     BIT       EA
      02001520H   XDATA    ---       EEPROM_ADDR
      0100926DH   CODE     ---       EEPROM_Enable
*DEL*:00000000H   CODE     ---       EEPROM_Query
      010092C2H   CODE     ---       EEPROM_Start
*DEL*:00000000H   CODE     ---       EEPROM_Stop
*DEL*:00000000H   CODE     ---       EEPROM_UpdateTemperature
*SFR* 000000D0H.5 DATA     BIT       F0
*SFR* 000000D0H.1 DATA     BIT       F1
*DEL*:00000000H   CODE     ---       FF_STATUS_InterruptDisable
*DEL*:00000000H   CODE     ---       FF_STATUS_InterruptEnable
      01009292H   CODE     ---       FF_STATUS_Read
*DEL*:00000000H   CODE     ---       FF_STATUS_ReadMask
*DEL*:00000000H   CODE     ---       FTDI_ENABLE_REG_Read
      01008B40H   CODE     ---       function_scheduler
      020009A1H   XDATA    ---       g_imu
      02000DD1H   XDATA    ---       g_imuNew
      02000948H   XDATA    ---       g_mem
      02000D4CH   XDATA    ---       g_rx
      02000CAFH   XDATA    ---       Gyro
*SFR* 000000A8H   DATA     BYTE      IE
      02000937H   XDATA    ---       IMU_connected
      020010D2H   XDATA    INT       imus_data_size
*DEL*:00000000H   CODE     ---       ImusReset
*DEL*:00000000H   CODE     ---       infoSend
      01007C48H   CODE     ---       InitIMU
      01006DDBH   CODE     ---       InitIMUgeneral
      01007D39H   CODE     ---       InitIMUMagCal
      00000021H.2 BIT      BIT       interrupt_flag
      0100734EH   CODE     ---       interrupt_manager
*DEL*:00000000H   CODE     ---       ISR_RS485_RX_ClearPending
      01009266H   CODE     ---       ISR_RS485_RX_Disable
      0100925FH   CODE     ---       ISR_RS485_RX_Enable
      010092C6H   CODE     ---       ISR_RS485_RX_ExInterrupt
*DEL*:00000000H   CODE     ---       ISR_RS485_RX_GetPriority
*DEL*:00000000H   CODE     ---       ISR_RS485_RX_GetState
*DEL*:00000000H   CODE     ---       ISR_RS485_RX_GetVector
      010092CCH   CODE     ---       ISR_RS485_RX_Interrupt
*DEL*:00000000H   CODE     ---       ISR_RS485_RX_SetPending
*DEL*:00000000H   CODE     ---       ISR_RS485_RX_Start
*DEL*:00000000H   CODE     ---       ISR_RS485_RX_Stop
      02000C17H   XDATA    ---       Mag
LX51 LINKER/LOCATER V4.64.0.0                                                         04/17/2018  14:39:23  PAGE 24


      02000D19H   XDATA    ---       MagCal
      010083B0H   CODE     ---       main
      010085E6H   CODE     ---       memInit
      01008A62H   CODE     ---       memRecall
      01008AF8H   CODE     ---       memRestore
*SFR* 000000EAH   DATA     BYTE      MXAX
      010091CCH   CODE     ---       MY_TIMER_ClearFIFO
      0100924FH   CODE     ---       MY_TIMER_Enable
      01008DEDH   CODE     ---       MY_TIMER_Init
      02001629H   XDATA    BYTE      MY_TIMER_initVar
      01009233H   CODE     ---       MY_TIMER_ReadCapture
*DEL*:00000000H   CODE     ---       MY_TIMER_ReadControlRegister
      0100913BH   CODE     ---       MY_TIMER_ReadCounter
*DEL*:00000000H   CODE     ---       MY_TIMER_ReadPeriod
      0100929EH   CODE     ---       MY_TIMER_ReadStatusRegister
*DEL*:00000000H   CODE     ---       MY_TIMER_SoftwareCapture
      010090BCH   CODE     ---       MY_TIMER_Start
*DEL*:00000000H   CODE     ---       MY_TIMER_Stop
      02000C16H   XDATA    BYTE      N_IMU_Connected
*DEL*:00000000H   CODE     ---       Opto_Pin_Read
*DEL*:00000000H   CODE     ---       Opto_Pin_ReadDataReg
*SFR* 000000D0H.2 DATA     BIT       OV
*SFR* 000000D0H   DATA     BIT       P
*SFR* 000000A0H   DATA     BYTE      P2AX
      01008FEFH   CODE     ---       PACER_TIMER_Enable
      01008B84H   CODE     ---       PACER_TIMER_Init
      02001628H   XDATA    BYTE      PACER_TIMER_initVar
*DEL*:00000000H   CODE     ---       PACER_TIMER_ReadCapture
*DEL*:00000000H   CODE     ---       PACER_TIMER_ReadControlRegister
*DEL*:00000000H   CODE     ---       PACER_TIMER_ReadCounter
*DEL*:00000000H   CODE     ---       PACER_TIMER_ReadPeriod
*DEL*:00000000H   CODE     ---       PACER_TIMER_ReadStatusRegister
*DEL*:00000000H   CODE     ---       PACER_TIMER_SoftwareCapture
      010090A9H   CODE     ---       PACER_TIMER_Start
*DEL*:00000000H   CODE     ---       PACER_TIMER_Stop
*SFR* 000000D0H   DATA     BYTE      PSW
      02000C9FH   XDATA    ---       Quat
      01006AA0H   CODE     ---       ReadAllIMUs
*DEL*:00000000H   CODE     ---       RESET_FF_Read
*SFR* 000000D0H.3 DATA     BIT       RS0
*SFR* 000000D0H.4 DATA     BIT       RS1
*DEL*:00000000H   CODE     ---       RS485_CTS_Read
*SFR* 00000080H   DATA     BYTE      SFRPRT0DR
*SFR* 00000089H   DATA     BYTE      SFRPRT0PS
*SFR* 0000008AH   DATA     BYTE      SFRPRT0SEL
*SFR* 000000E8H   DATA     BYTE      SFRPRT12DR
*SFR* 000000E9H   DATA     BYTE      SFRPRT12PS
*SFR* 000000F2H   DATA     BYTE      SFRPRT12SEL
*SFR* 000000F8H   DATA     BYTE      SFRPRT15DR
*SFR* 000000F9H   DATA     BYTE      SFRPRT15PS
*SFR* 000000FAH   DATA     BYTE      SFRPRT15SEL
*SFR* 00000090H   DATA     BYTE      SFRPRT1DR
*SFR* 00000091H   DATA     BYTE      SFRPRT1PS
*SFR* 000000A2H   DATA     BYTE      SFRPRT1SEL
*SFR* 00000098H   DATA     BYTE      SFRPRT2DR
*SFR* 00000099H   DATA     BYTE      SFRPRT2PS
*SFR* 0000009AH   DATA     BYTE      SFRPRT2SEL
*SFR* 000000B0H   DATA     BYTE      SFRPRT3DR
*SFR* 000000B1H   DATA     BYTE      SFRPRT3PS
*SFR* 000000B2H   DATA     BYTE      SFRPRT3SEL
*SFR* 000000C0H   DATA     BYTE      SFRPRT4DR
*SFR* 000000C1H   DATA     BYTE      SFRPRT4PS
*SFR* 000000C2H   DATA     BYTE      SFRPRT4SEL
*SFR* 000000C8H   DATA     BYTE      SFRPRT5DR
*SFR* 000000C9H   DATA     BYTE      SFRPRT5PS
LX51 LINKER/LOCATER V4.64.0.0                                                         04/17/2018  14:39:23  PAGE 25


*SFR* 000000CAH   DATA     BYTE      SFRPRT5SEL
*SFR* 000000D8H   DATA     BYTE      SFRPRT6DR
*SFR* 000000D9H   DATA     BYTE      SFRPRT6PS
*SFR* 000000DAH   DATA     BYTE      SFRPRT6SEL
      02001046H   XDATA    ---       single_imu_size
*SFR* 00000081H   DATA     BYTE      SP
      0200162AH   XDATA    BYTE      SpcLockState
      01008F40H   CODE     ---       SPI_delay
      01008EC5H   CODE     ---       SPI_IMU_ClearFIFO
      0100914AH   CODE     ---       SPI_IMU_ClearRxBuffer
      01009107H   CODE     ---       SPI_IMU_ClearTxBuffer
*DEL*:00000000H   CODE     ---       SPI_IMU_DisableInt
*DEL*:00000000H   CODE     ---       SPI_IMU_DisableRxInt
*DEL*:00000000H   CODE     ---       SPI_IMU_DisableTxInt
      01008E40H   CODE     ---       SPI_IMU_Enable
*DEL*:00000000H   CODE     ---       SPI_IMU_EnableInt
      010092CEH   CODE     ---       SPI_IMU_EnableRxInt
      010092CDH   CODE     ---       SPI_IMU_EnableTxInt
*DEL*:00000000H   CODE     ---       SPI_IMU_GetRxBufferSize
*DEL*:00000000H   CODE     ---       SPI_IMU_GetTxBufferSize
      01008F8FH   CODE     ---       SPI_IMU_Init
      02001626H   XDATA    BYTE      SPI_IMU_initVar
*DEL*:00000000H   CODE     ---       SPI_IMU_IntClock_GetDividerRegister
*DEL*:00000000H   CODE     ---       SPI_IMU_IntClock_GetModeRegister
*DEL*:00000000H   CODE     ---       SPI_IMU_IntClock_GetSourceRegister
      01009186H   CODE     ---       SPI_IMU_IntClock_Start
*DEL*:00000000H   CODE     ---       SPI_IMU_IntClock_Stop
*DEL*:00000000H   CODE     ---       SPI_IMU_IntClock_StopBlock
      010092B0H   CODE     ---       SPI_IMU_ReadRxData
      010092AAH   CODE     ---       SPI_IMU_ReadRxStatus
      01009159H   CODE     ---       SPI_IMU_ReadStatus
      010092A4H   CODE     ---       SPI_IMU_ReadTxStatus
      010090CFH   CODE     ---       SPI_IMU_Start
*DEL*:00000000H   CODE     ---       SPI_IMU_Stop
      02001624H   XDATA    BYTE      SPI_IMU_swStatusRx
      02001625H   XDATA    BYTE      SPI_IMU_swStatusTx
      01007A17H   CODE     NEAR LAB  STARTUP1
      02000C7DH   XDATA    ---       Temp
      02000D15H   XDATA    DWORD     timer_value
      02001068H   XDATA    DWORD     timer_value0
      01008D63H   CODE     ---       UART_RS485_ClearRxBuffer
      010090F5H   CODE     ---       UART_RS485_ClearTxBuffer
      01008E85H   CODE     ---       UART_RS485_Enable
      0200160BH   XDATA    BYTE      UART_RS485_errorStatus
*DEL*:00000000H   CODE     ---       UART_RS485_GetByte
      0100886AH   CODE     ---       UART_RS485_GetChar
      01008A13H   CODE     ---       UART_RS485_GetRxBufferSize
*DEL*:00000000H   CODE     ---       UART_RS485_GetTxBufferSize
      01008CA1H   CODE     ---       UART_RS485_Init
      02001609H   XDATA    BYTE      UART_RS485_initVar
*DEL*:00000000H   CODE     ---       UART_RS485_ReadControlRegister
*DEL*:00000000H   CODE     ---       UART_RS485_ReadRxData
      01009082H   CODE     ---       UART_RS485_ReadRxStatus
      01009274H   CODE     ---       UART_RS485_ReadTxStatus
      020015E8H   XDATA    ---       UART_RS485_rxBuffer
      020015E6H   XDATA    BYTE      UART_RS485_rxBufferLoopDetect
      0200160AH   XDATA    BYTE      UART_RS485_rxBufferOverflow
      020015E7H   XDATA    BYTE      UART_RS485_rxBufferRead
      02001608H   XDATA    BYTE      UART_RS485_rxBufferWrite
      010081A8H   CODE     ---       UART_RS485_RXISR
      01009096H   CODE     ---       UART_RS485_Start
      01008EA5H   CODE     ---       UART_RS485_Stop



LX51 LINKER/LOCATER V4.64.0.0                                                         04/17/2018  14:39:23  PAGE 26


SYMBOL TABLE OF MODULE:  .\DP8051_Keil_951\Release\firmware.omf (COMMAND_PROCESSING)

      VALUE       REP       CLASS    TYPE      SYMBOL NAME
      ====================================================
      ---         MODULE    ---      ---       COMMAND_PROCESSING
      02001520H   PUBLIC    XDATA    ---       EEPROM_ADDR
      010066ABH   PUBLIC    CODE     ---       cmd_get_imu_readings
      0100901AH   PUBLIC    CODE     ---       cmd_store_params
      0100906EH   PUBLIC    CODE     ---       cmd_ping
      01008E65H   PUBLIC    CODE     ---       cmd_set_baudrate
      010085E6H   PUBLIC    CODE     ---       memInit
      01008AF8H   PUBLIC    CODE     ---       memRestore
      01008A62H   PUBLIC    CODE     ---       memRecall
      01008259H   PUBLIC    CODE     ---       _memStore
      01009005H   PUBLIC    CODE     ---       _sendAcknowledgment
      01008C6FH   PUBLIC    CODE     ---       _LCRChecksum
      0100844DH   PUBLIC    CODE     ---       _commWrite
      01006230H   PUBLIC    CODE     ---       _infoReading
      01005818H   PUBLIC    CODE     ---       _infoPrepare
      0100261AH   PUBLIC    CODE     ---       _get_param_list
      01008D03H   PUBLIC    CODE     ---       _infoGet
      01007F19H   PUBLIC    CODE     ---       commProcess
      000000CAH   SFRSYM    DATA     BYTE      SFRPRT5SEL
      000000DAH   SFRSYM    DATA     BYTE      SFRPRT6SEL
      000000D0H.6 SFRSYM    DATA     BIT       AC
      000000A8H.7 SFRSYM    DATA     BIT       EA
      000000A8H   SFRSYM    DATA     BYTE      IE
      00000085H   SFRSYM    DATA     BYTE      DPH1
      00000084H   SFRSYM    DATA     BYTE      DPL1
      000000D0H.7 SFRSYM    DATA     BIT       CY
      000000A0H   SFRSYM    DATA     BYTE      P2AX
      00000095H   SFRSYM    DATA     BYTE      DPX1
      00000081H   SFRSYM    DATA     BYTE      SP
      000000D0H.2 SFRSYM    DATA     BIT       OV
      00000080H   SFRSYM    DATA     BYTE      SFRPRT0DR
      00000090H   SFRSYM    DATA     BYTE      SFRPRT1DR
      000000F2H   SFRSYM    DATA     BYTE      SFRPRT12SEL
      00000098H   SFRSYM    DATA     BYTE      SFRPRT2DR
      000000B0H   SFRSYM    DATA     BYTE      SFRPRT3DR
      000000C0H   SFRSYM    DATA     BYTE      SFRPRT4DR
      000000FAH   SFRSYM    DATA     BYTE      SFRPRT15SEL
      000000C8H   SFRSYM    DATA     BYTE      SFRPRT5DR
      000000D8H   SFRSYM    DATA     BYTE      SFRPRT6DR
      00000089H   SFRSYM    DATA     BYTE      SFRPRT0PS
      00000091H   SFRSYM    DATA     BYTE      SFRPRT1PS
      00000099H   SFRSYM    DATA     BYTE      SFRPRT2PS
      000000B1H   SFRSYM    DATA     BYTE      SFRPRT3PS
      000000C1H   SFRSYM    DATA     BYTE      SFRPRT4PS
      000000C9H   SFRSYM    DATA     BYTE      SFRPRT5PS
      000000D9H   SFRSYM    DATA     BYTE      SFRPRT6PS
      000000EAH   SFRSYM    DATA     BYTE      MXAX
      000000F0H   SFRSYM    DATA     BYTE      B
      000000E0H   SFRSYM    DATA     BYTE      ACC
      000000D0H   SFRSYM    DATA     BIT       P
      000000D0H.3 SFRSYM    DATA     BIT       RS0
      000000D0H.4 SFRSYM    DATA     BIT       RS1
      00000083H   SFRSYM    DATA     BYTE      DPH
      000000E8H   SFRSYM    DATA     BYTE      SFRPRT12DR
      00000082H   SFRSYM    DATA     BYTE      DPL
      000000F8H   SFRSYM    DATA     BYTE      SFRPRT15DR
      00000086H   SFRSYM    DATA     BYTE      DPS
      000000E9H   SFRSYM    DATA     BYTE      SFRPRT12PS
      00000093H   SFRSYM    DATA     BYTE      DPX
      000000F9H   SFRSYM    DATA     BYTE      SFRPRT15PS
      000000D0H.5 SFRSYM    DATA     BIT       F0
LX51 LINKER/LOCATER V4.64.0.0                                                         04/17/2018  14:39:23  PAGE 27


      000000D0H.1 SFRSYM    DATA     BIT       F1
      0000008AH   SFRSYM    DATA     BYTE      SFRPRT0SEL
      000000D0H   SFRSYM    DATA     BYTE      PSW
      000000A2H   SFRSYM    DATA     BYTE      SFRPRT1SEL
      0000009AH   SFRSYM    DATA     BYTE      SFRPRT2SEL
      000000B2H   SFRSYM    DATA     BYTE      SFRPRT3SEL
      000000C2H   SFRSYM    DATA     BYTE      SFRPRT4SEL
      010044DFH   SYMBOL    CODE     ---       _?ix1000
      01004C7EH   SYMBOL    CODE     ---       _?ix1001
      01004C98H   SYMBOL    CODE     ---       _?ix1002
      01004CA3H   SYMBOL    CODE     ---       _?ix1003
      01004CB7H   SYMBOL    CODE     ---       _?ix1004
      01004CC7H   SYMBOL    CODE     ---       _?ix1005
      01004CF1H   SYMBOL    CODE     ---       _?ix1006
      01004D0BH   SYMBOL    CODE     ---       _?ix1007

      01007F19H   BLOCK     CODE     ---       LVL=0
      01007F19H   BLOCK     CODE     NEAR LAB  LVL=1
      0000000AH   SYMBOL    DATA     BYTE      rx_cmd
      ---         BLOCKEND  ---      ---       LVL=1
      01007F19H   LINE      CODE     ---       #67
      01007F19H   LINE      CODE     ---       #71
      01007F1FH   LINE      CODE     ---       #75
      01007F4AH   LINE      CODE     ---       #77
      01007F50H   LINE      CODE     ---       #79
      01007F50H   LINE      CODE     ---       #82
      01007F77H   LINE      CODE     ---       #86
      01007F77H   LINE      CODE     ---       #87
      01007F7AH   LINE      CODE     ---       #88
      01007F7BH   LINE      CODE     ---       #92
      01007F7BH   LINE      CODE     ---       #93
      01007F86H   LINE      CODE     ---       #94
      01007F87H   LINE      CODE     ---       #98
      01007F87H   LINE      CODE     ---       #99
      01007F92H   LINE      CODE     ---       #100
      01007F93H   LINE      CODE     ---       #104
      01007F93H   LINE      CODE     ---       #105
      01007F96H   LINE      CODE     ---       #106
      01007F97H   LINE      CODE     ---       #110
      01007F97H   LINE      CODE     ---       #111
      01007F9AH   LINE      CODE     ---       #112
      01007F9BH   LINE      CODE     ---       #116
      01007F9BH   LINE      CODE     ---       #117
      01007FA5H   LINE      CODE     ---       #118
      01007FABH   LINE      CODE     ---       #120
      01007FB0H   LINE      CODE     ---       #121
      01007FB1H   LINE      CODE     ---       #125
      01007FB1H   LINE      CODE     ---       #126
      01007FB7H   LINE      CODE     ---       #127
      01007FBDH   LINE      CODE     ---       #129
      01007FC2H   LINE      CODE     ---       #130
      01007FC3H   LINE      CODE     ---       #134
      01007FC3H   LINE      CODE     ---       #135
      01007FC9H   LINE      CODE     ---       #136
      01007FCFH   LINE      CODE     ---       #138
      01007FD4H   LINE      CODE     ---       #139
      01007FD5H   LINE      CODE     ---       #143
      01007FD5H   LINE      CODE     ---       #145
      01007FDAH   LINE      CODE     ---       #146
      01007FE4H   LINE      CODE     ---       #147
      01007FE9H   LINE      CODE     ---       #148
      01007FF3H   LINE      CODE     ---       #149
      01007FF6H   LINE      CODE     ---       #150
      01007FF7H   LINE      CODE     ---       #154
      01007FF7H   LINE      CODE     ---       #155
LX51 LINKER/LOCATER V4.64.0.0                                                         04/17/2018  14:39:23  PAGE 28


      01007FFAH   LINE      CODE     ---       #156
      01007FFAH   LINE      CODE     ---       #159
      01007FFAH   LINE      CODE     ---       #160
      01007FFAH   LINE      CODE     ---       #162
      01007FFAH   LINE      CODE     ---       #163
      ---         BLOCKEND  ---      ---       LVL=0

      01008D03H   BLOCK     CODE     ---       LVL=0
      00000006H   SYMBOL    DATA     WORD      info_type
      01008D03H   BLOCK     CODE     NEAR LAB  LVL=1
      020010D4H   SYMBOL    XDATA    ---       packet_string
      ---         BLOCKEND  ---      ---       LVL=1
      01008D03H   LINE      CODE     ---       #181
      01008D03H   LINE      CODE     ---       #186
      01008D0DH   LINE      CODE     ---       #187
      01008D0DH   LINE      CODE     ---       #188
      01008D16H   LINE      CODE     ---       #189
      01008D1FH   LINE      CODE     ---       #190
      01008D20H   LINE      CODE     ---       #191
      01008D20H   LINE      CODE     ---       #192
      01008D29H   LINE      CODE     ---       #193
      01008D32H   LINE      CODE     ---       #194
      01008D32H   LINE      CODE     ---       #195
      01008D32H   LINE      CODE     ---       #196
      01008D32H   LINE      CODE     ---       #197
      01008D32H   LINE      CODE     ---       #198
      ---         BLOCKEND  ---      ---       LVL=0

      0100261AH   BLOCK     CODE     ---       LVL=0
      02000000H   SYMBOL    XDATA    WORD      index
      01002622H   BLOCK     CODE     NEAR LAB  LVL=1
      02000002H   SYMBOL    XDATA    ---       packet_data
      020007A1H   SYMBOL    XDATA    WORD      num_imus_id_params
      020007A3H   SYMBOL    XDATA    WORD      num_mag_cal_params
      020007A5H   SYMBOL    XDATA    WORD      first_imu_parameter
      020007A7H   SYMBOL    XDATA    WORD      packet_length
      0000000BH   SYMBOL    DATA     WORD      i
      0000000DH   SYMBOL    DATA     WORD      j
      0000000FH   SYMBOL    DATA     WORD      k
      00000011H   SYMBOL    DATA     WORD      h
      020007A9H   SYMBOL    XDATA    WORD      start_byte
      020007ABH   SYMBOL    XDATA    ---       n_imu_str
      020007C5H   SYMBOL    XDATA    ---       ids_str
      020007D0H   SYMBOL    XDATA    ---       mag_param_str
      020007E4H   SYMBOL    XDATA    ---       id_str
      020007F4H   SYMBOL    XDATA    ---       imu_table_str
      0200081EH   SYMBOL    XDATA    ---       spi_read_delay_str
      00000013H   SYMBOL    DATA     BYTE      id_str_len
      00000014H   SYMBOL    DATA     BYTE      n_imu_str_len
      00000015H   SYMBOL    DATA     BYTE      ids_str_len
      00000016H   SYMBOL    DATA     BYTE      mag_param_str_len
      00000017H   SYMBOL    DATA     BYTE      imu_table_str_len
      00000018H   SYMBOL    DATA     BYTE      spi_read_delay_str_len
      02000838H   SYMBOL    XDATA    ---       spi_delay_menu
      00000019H   SYMBOL    DATA     BYTE      spi_delay_menu_len
      ---         BLOCKEND  ---      ---       LVL=1
      0100261AH   LINE      CODE     ---       #204
      01002622H   LINE      CODE     ---       #205
      01002622H   LINE      CODE     ---       #213
      01002635H   LINE      CODE     ---       #214
      0100263EH   LINE      CODE     ---       #215
      01002643H   LINE      CODE     ---       #216
      01002649H   LINE      CODE     ---       #217
      01002680H   LINE      CODE     ---       #226
      01002685H   LINE      CODE     ---       #229
LX51 LINKER/LOCATER V4.64.0.0                                                         04/17/2018  14:39:23  PAGE 29


      01002697H   LINE      CODE     ---       #230
      010026AAH   LINE      CODE     ---       #231
      010026BDH   LINE      CODE     ---       #232
      010026D0H   LINE      CODE     ---       #233
      010026E3H   LINE      CODE     ---       #234
      010026F6H   LINE      CODE     ---       #237
      01002701H   LINE      CODE     ---       #238
      0100270CH   LINE      CODE     ---       #239
      01002717H   LINE      CODE     ---       #240
      01002722H   LINE      CODE     ---       #241
      0100272DH   LINE      CODE     ---       #242
      01002738H   LINE      CODE     ---       #244
      0100274BH   LINE      CODE     ---       #247
      01002770H   LINE      CODE     ---       #248
      0100277BH   LINE      CODE     ---       #252
      0100278BH   LINE      CODE     ---       #253
      010027B3H   LINE      CODE     ---       #259
      010027F3H   LINE      CODE     ---       #262
      01002815H   LINE      CODE     ---       #263
      0100281BH   LINE      CODE     ---       #264
      01002824H   LINE      CODE     ---       #266
      01002837H   LINE      CODE     ---       #267
      01002837H   LINE      CODE     ---       #269
      0100283EH   LINE      CODE     ---       #270
      01002844H   LINE      CODE     ---       #271
      01002847H   LINE      CODE     ---       #272
      0100284FH   LINE      CODE     ---       #273
      0100285BH   LINE      CODE     ---       #274
      01002887H   LINE      CODE     ---       #277
      01002895H   LINE      CODE     ---       #278
      0100289AH   LINE      CODE     ---       #279
      010028B0H   LINE      CODE     ---       #280
      010028CFH   LINE      CODE     ---       #281
      010028D5H   LINE      CODE     ---       #282
      010028E0H   LINE      CODE     ---       #283
      0100290CH   LINE      CODE     ---       #284
      01002930H   LINE      CODE     ---       #286
      0100295CH   LINE      CODE     ---       #287
      01002971H   LINE      CODE     ---       #288
      010029A2H   LINE      CODE     ---       #289
      010029AAH   LINE      CODE     ---       #290
      010029ACH   LINE      CODE     ---       #291
      010029ACH   LINE      CODE     ---       #292
      010029DEH   LINE      CODE     ---       #293
      010029DEH   LINE      CODE     ---       #294
      010029E6H   LINE      CODE     ---       #295
      010029F1H   LINE      CODE     ---       #298
      010029FDH   LINE      CODE     ---       #299
      01002A52H   LINE      CODE     ---       #300
      01002A5DH   LINE      CODE     ---       #303
      01002A78H   LINE      CODE     ---       #304
      01002A8FH   LINE      CODE     ---       #305
      01002ABBH   LINE      CODE     ---       #307
      01002ADFH   LINE      CODE     ---       #308
      01002B2DH   LINE      CODE     ---       #309
      01002B73H   LINE      CODE     ---       #310
      01002BB9H   LINE      CODE     ---       #313
      01002BD3H   LINE      CODE     ---       #315
      01002BE2H   LINE      CODE     ---       #316
      01002C37H   LINE      CODE     ---       #317
      01002C37H   LINE      CODE     ---       #318
      01002C37H   LINE      CODE     ---       #320
      01002C63H   LINE      CODE     ---       #321
      01002CB1H   LINE      CODE     ---       #322
      01002CF7H   LINE      CODE     ---       #323
LX51 LINKER/LOCATER V4.64.0.0                                                         04/17/2018  14:39:23  PAGE 30


      01002D3DH   LINE      CODE     ---       #325
      01002D49H   LINE      CODE     ---       #326
      01002D9EH   LINE      CODE     ---       #327
      01002D9EH   LINE      CODE     ---       #328
      01002DA9H   LINE      CODE     ---       #332
      01002DC4H   LINE      CODE     ---       #333
      01002DEFH   LINE      CODE     ---       #334
      01002DFAH   LINE      CODE     ---       #335
      01002E0EH   LINE      CODE     ---       #336
      01002E1BH   LINE      CODE     ---       #337
      01002E32H   LINE      CODE     ---       #338
      01002E3EH   LINE      CODE     ---       #339
      01002E84H   LINE      CODE     ---       #343
      01002E92H   LINE      CODE     ---       #344
      01002EA9H   LINE      CODE     ---       #345
      01002EEAH   LINE      CODE     ---       #346
      01002EF5H   LINE      CODE     ---       #348
      01002F21H   LINE      CODE     ---       #349
      01002F45H   LINE      CODE     ---       #351
      01002F8CH   LINE      CODE     ---       #352
      01002FCBH   LINE      CODE     ---       #353
      0100300AH   LINE      CODE     ---       #354
      01003049H   LINE      CODE     ---       #355
      01003088H   LINE      CODE     ---       #357
      01003094H   LINE      CODE     ---       #358
      010030E9H   LINE      CODE     ---       #359
      010030F4H   LINE      CODE     ---       #364
      0100310BH   LINE      CODE     ---       #365
      0100313BH   LINE      CODE     ---       #366
      0100314EH   LINE      CODE     ---       #367
      0100315BH   LINE      CODE     ---       #368
      01003172H   LINE      CODE     ---       #369
      0100317DH   LINE      CODE     ---       #370
      0100317DH   LINE      CODE     ---       #371
      01003194H   LINE      CODE     ---       #372
      01003197H   LINE      CODE     ---       #373
      01003199H   LINE      CODE     ---       #374
      01003199H   LINE      CODE     ---       #375
      010031B0H   LINE      CODE     ---       #376
      010031B3H   LINE      CODE     ---       #377
      010031B5H   LINE      CODE     ---       #378
      010031B5H   LINE      CODE     ---       #379
      010031CCH   LINE      CODE     ---       #380
      010031CFH   LINE      CODE     ---       #381
      010031CFH   LINE      CODE     ---       #382
      010031CFH   LINE      CODE     ---       #383
      010031CFH   LINE      CODE     ---       #384
      010031CFH   LINE      CODE     ---       #385
      010031DBH   LINE      CODE     ---       #386
      01003221H   LINE      CODE     ---       #388
      0100323DH   LINE      CODE     ---       #392
      0100324BH   LINE      CODE     ---       #393
      01003257H   LINE      CODE     ---       #394
      0100329DH   LINE      CODE     ---       #396
      010032C1H   LINE      CODE     ---       #397
      010032CAH   LINE      CODE     ---       #398
      010032CDH   LINE      CODE     ---       #399
      010032CEH   LINE      CODE     ---       #402
      010032CEH   LINE      CODE     ---       #404
      010032EDH   LINE      CODE     ---       #405
      010032EDH   LINE      CODE     ---       #407
      01003309H   LINE      CODE     ---       #408
      01003311H   LINE      CODE     ---       #409
      01003312H   LINE      CODE     ---       #410
      01003312H   LINE      CODE     ---       #412
LX51 LINKER/LOCATER V4.64.0.0                                                         04/17/2018  14:39:23  PAGE 31


      01003329H   LINE      CODE     ---       #413
      01003331H   LINE      CODE     ---       #414
      01003332H   LINE      CODE     ---       #415
      01003332H   LINE      CODE     ---       #418
      01003360H   LINE      CODE     ---       #419
      0100337FH   LINE      CODE     ---       #420
      0100339EH   LINE      CODE     ---       #421
      010033BDH   LINE      CODE     ---       #422
      010033DCH   LINE      CODE     ---       #425
      010033E4H   LINE      CODE     ---       #426
      010033FBH   LINE      CODE     ---       #427
      010033FBH   LINE      CODE     ---       #428
      0100349AH   LINE      CODE     ---       #429
      010034C3H   LINE      CODE     ---       #430
      010034CEH   LINE      CODE     ---       #431
      010034DCH   LINE      CODE     ---       #433
      010034DCH   LINE      CODE     ---       #435
      010034DCH   LINE      CODE     ---       #436
      010034DCH   LINE      CODE     ---       #437
      ---         BLOCKEND  ---      ---       LVL=0

      01005818H   BLOCK     CODE     ---       LVL=0
      02000000H   SYMBOL    XDATA    ---       info_string
      01005823H   BLOCK     CODE     NEAR LAB  LVL=1
      02000003H   SYMBOL    XDATA    INT       i
      02000005H   SYMBOL    XDATA    ---       str
      ---         BLOCKEND  ---      ---       LVL=1
      01005818H   LINE      CODE     ---       #444
      01005823H   LINE      CODE     ---       #445
      01005823H   LINE      CODE     ---       #448
      0100582EH   LINE      CODE     ---       #449
      01005846H   LINE      CODE     ---       #450
      01005862H   LINE      CODE     ---       #451
      0100587EH   LINE      CODE     ---       #455
      0100589AH   LINE      CODE     ---       #457
      010058B6H   LINE      CODE     ---       #459
      010058D2H   LINE      CODE     ---       #460
      010058F6H   LINE      CODE     ---       #461
      01005912H   LINE      CODE     ---       #466
      0100592EH   LINE      CODE     ---       #469
      01005952H   LINE      CODE     ---       #470
      0100596EH   LINE      CODE     ---       #472
      0100598AH   LINE      CODE     ---       #474
      010059A6H   LINE      CODE     ---       #475
      010059C7H   LINE      CODE     ---       #476
      01005A01H   LINE      CODE     ---       #477
      01005A1DH   LINE      CODE     ---       #479
      01005A34H   LINE      CODE     ---       #480
      01005A55H   LINE      CODE     ---       #481
      01005A6EH   LINE      CODE     ---       #483
      01005A85H   LINE      CODE     ---       #484
      01005A9CH   LINE      CODE     ---       #485
      01005ABDH   LINE      CODE     ---       #486
      01005AD6H   LINE      CODE     ---       #488
      01005AEDH   LINE      CODE     ---       #489
      01005B04H   LINE      CODE     ---       #490
      01005B25H   LINE      CODE     ---       #491
      01005B3EH   LINE      CODE     ---       #493
      01005B55H   LINE      CODE     ---       #494
      01005B6CH   LINE      CODE     ---       #495
      01005B8DH   LINE      CODE     ---       #496
      01005BA6H   LINE      CODE     ---       #498
      01005BBDH   LINE      CODE     ---       #499
      01005BD4H   LINE      CODE     ---       #500
      01005BF5H   LINE      CODE     ---       #501
LX51 LINKER/LOCATER V4.64.0.0                                                         04/17/2018  14:39:23  PAGE 32


      01005C0EH   LINE      CODE     ---       #503
      01005C25H   LINE      CODE     ---       #505
      01005C41H   LINE      CODE     ---       #506
      01005C52H   LINE      CODE     ---       #508
      01005C6EH   LINE      CODE     ---       #510
      01005CC0H   LINE      CODE     ---       #511
      01005CDCH   LINE      CODE     ---       #512
      01005CF8H   LINE      CODE     ---       #513
      01005D14H   LINE      CODE     ---       #515
      01005D58H   LINE      CODE     ---       #516
      01005D74H   LINE      CODE     ---       #517
      01005D90H   LINE      CODE     ---       #518
      01005DACH   LINE      CODE     ---       #519
      01005DACH   LINE      CODE     ---       #520
      ---         BLOCKEND  ---      ---       LVL=0

      01006230H   BLOCK     CODE     ---       LVL=0
      02000000H   SYMBOL    XDATA    ---       info_string
      0100623BH   BLOCK     CODE     NEAR LAB  LVL=1
      02000003H   SYMBOL    XDATA    INT       i
      02000005H   SYMBOL    XDATA    ---       str
      ---         BLOCKEND  ---      ---       LVL=1
      01006230H   LINE      CODE     ---       #523
      0100623BH   LINE      CODE     ---       #524
      0100623BH   LINE      CODE     ---       #528
      01006253H   LINE      CODE     ---       #529
      0100626FH   LINE      CODE     ---       #530
      0100628BH   LINE      CODE     ---       #531
      010062ACH   LINE      CODE     ---       #532
      010062E6H   LINE      CODE     ---       #533
      01006302H   LINE      CODE     ---       #535
      01006327H   LINE      CODE     ---       #536
      010063A0H   LINE      CODE     ---       #537
      010063BCH   LINE      CODE     ---       #538
      010063BCH   LINE      CODE     ---       #540
      010063E1H   LINE      CODE     ---       #541
      0100645AH   LINE      CODE     ---       #542
      01006476H   LINE      CODE     ---       #543
      01006476H   LINE      CODE     ---       #545
      0100649BH   LINE      CODE     ---       #546
      01006514H   LINE      CODE     ---       #547
      01006530H   LINE      CODE     ---       #548
      01006530H   LINE      CODE     ---       #550
      01006554H   LINE      CODE     ---       #551
      01006609H   LINE      CODE     ---       #552
      01006625H   LINE      CODE     ---       #553
      01006625H   LINE      CODE     ---       #555
      01006647H   LINE      CODE     ---       #556
      0100667DH   LINE      CODE     ---       #557
      01006699H   LINE      CODE     ---       #558
      01006699H   LINE      CODE     ---       #559
      010066AAH   LINE      CODE     ---       #560
      ---         BLOCKEND  ---      ---       LVL=0

      0100844DH   BLOCK     CODE     ---       LVL=0
      020008AEH   SYMBOL    XDATA    ---       packet_data
      020008B1H   SYMBOL    XDATA    WORD      packet_lenght
      0100845EH   BLOCK     CODE     NEAR LAB  LVL=1
      0000001AH   SYMBOL    DATA     WORD      index
      ---         BLOCKEND  ---      ---       LVL=1
      0100844DH   LINE      CODE     ---       #565
      0100845EH   LINE      CODE     ---       #566
      0100845EH   LINE      CODE     ---       #570
      01008463H   LINE      CODE     ---       #571
      01008468H   LINE      CODE     ---       #574
LX51 LINKER/LOCATER V4.64.0.0                                                         04/17/2018  14:39:23  PAGE 33


      01008470H   LINE      CODE     ---       #577
      0100847AH   LINE      CODE     ---       #580
      0100848EH   LINE      CODE     ---       #581
      010084B0H   LINE      CODE     ---       #583
      010084B5H   LINE      CODE     ---       #585
      010084CFH   LINE      CODE     ---       #587
      010084D4H   LINE      CODE     ---       #588
      010084D9H   LINE      CODE     ---       #589
      ---         BLOCKEND  ---      ---       LVL=0

      01008C6FH   BLOCK     CODE     ---       LVL=0
      020008AEH   SYMBOL    XDATA    ---       data_array
      00000005H   SYMBOL    DATA     BYTE      data_length
      01008C7AH   BLOCK     CODE     NEAR LAB  LVL=1
      0000001AH   SYMBOL    DATA     BYTE      i
      0000001BH   SYMBOL    DATA     BYTE      checksum
      ---         BLOCKEND  ---      ---       LVL=1
      01008C6FH   LINE      CODE     ---       #598
      01008C7AH   LINE      CODE     ---       #601
      01008C7DH   LINE      CODE     ---       #603
      01008C85H   LINE      CODE     ---       #604
      01008C9EH   LINE      CODE     ---       #606
      01008CA0H   LINE      CODE     ---       #607
      ---         BLOCKEND  ---      ---       LVL=0

      01009005H   BLOCK     CODE     ---       LVL=0
      00000007H   SYMBOL    DATA     BYTE      value
      01009005H   BLOCK     CODE     NEAR LAB  LVL=1
      00000004H   SYMBOL    DATA     INT       packet_lenght
      02000000H   SYMBOL    XDATA    ---       packet_data
      ---         BLOCKEND  ---      ---       LVL=1
      01009005H   LINE      CODE     ---       #613
      01009005H   LINE      CODE     ---       #614
      01009009H   LINE      CODE     ---       #617
      0100900EH   LINE      CODE     ---       #618
      01009010H   LINE      CODE     ---       #620
      01009019H   LINE      CODE     ---       #621
      ---         BLOCKEND  ---      ---       LVL=0

      01008259H   BLOCK     CODE     ---       LVL=0
      02000000H   SYMBOL    XDATA    INT       displacement
      01008261H   BLOCK     CODE     NEAR LAB  LVL=1
      02000002H   SYMBOL    XDATA    INT       i
      00000007H   SYMBOL    DATA     BYTE      writeStatus
      02000004H   SYMBOL    XDATA    INT       pages
      02000006H   SYMBOL    XDATA    BYTE      ret_val
      ---         BLOCKEND  ---      ---       LVL=1
      01008259H   LINE      CODE     ---       #632
      01008261H   LINE      CODE     ---       #633
      01008261H   LINE      CODE     ---       #637
      01008267H   LINE      CODE     ---       #640
      0100826AH   LINE      CODE     ---       #644
      0100826DH   LINE      CODE     ---       #646
      01008280H   LINE      CODE     ---       #648
      01008289H   LINE      CODE     ---       #650
      010082ACH   LINE      CODE     ---       #651
      010082D1H   LINE      CODE     ---       #652
      010082D4H   LINE      CODE     ---       #653
      010082D9H   LINE      CODE     ---       #654
      010082DBH   LINE      CODE     ---       #655
      010082DBH   LINE      CODE     ---       #656
      010082EBH   LINE      CODE     ---       #658
      010082FEH   LINE      CODE     ---       #661
      01008301H   LINE      CODE     ---       #663
      01008306H   LINE      CODE     ---       #664
LX51 LINKER/LOCATER V4.64.0.0                                                         04/17/2018  14:39:23  PAGE 34


      ---         BLOCKEND  ---      ---       LVL=0

      01008A62H   BLOCK     CODE     ---       LVL=0
      01008A62H   BLOCK     CODE     NEAR LAB  LVL=1
      00000006H   SYMBOL    DATA     WORD      i
      ---         BLOCKEND  ---      ---       LVL=1
      01008A62H   LINE      CODE     ---       #675
      01008A62H   LINE      CODE     ---       #676
      01008A62H   LINE      CODE     ---       #679
      01008A6EH   LINE      CODE     ---       #680
      01008A8AH   LINE      CODE     ---       #681
      01008A91H   LINE      CODE     ---       #684
      01008A97H   LINE      CODE     ---       #685
      01008A9AH   LINE      CODE     ---       #686
      01008A9BH   LINE      CODE     ---       #687
      01008AAEH   LINE      CODE     ---       #688
      01008AAEH   LINE      CODE     ---       #689
      ---         BLOCKEND  ---      ---       LVL=0

      01008AF8H   BLOCK     CODE     ---       LVL=0
      01008AF8H   BLOCK     CODE     NEAR LAB  LVL=1
      00000006H   SYMBOL    DATA     WORD      i
      ---         BLOCKEND  ---      ---       LVL=1
      01008AF8H   LINE      CODE     ---       #700
      01008AF8H   LINE      CODE     ---       #703
      01008B04H   LINE      CODE     ---       #704
      01008B28H   LINE      CODE     ---       #705
      01008B2FH   LINE      CODE     ---       #708
      01008B35H   LINE      CODE     ---       #709
      01008B39H   LINE      CODE     ---       #710
      01008B39H   LINE      CODE     ---       #711
      01008B3FH   LINE      CODE     ---       #712
      01008B3FH   LINE      CODE     ---       #713
      ---         BLOCKEND  ---      ---       LVL=0

      010085E6H   BLOCK     CODE     ---       LVL=0
      010085E6H   BLOCK     CODE     NEAR LAB  LVL=1
      00000007H   SYMBOL    DATA     BYTE      i
      ---         BLOCKEND  ---      ---       LVL=1
      010085E6H   LINE      CODE     ---       #723
      010085E6H   LINE      CODE     ---       #724
      010085E6H   LINE      CODE     ---       #729
      010085ECH   LINE      CODE     ---       #733
      010085F0H   LINE      CODE     ---       #736
      010085F8H   LINE      CODE     ---       #737
      01008609H   LINE      CODE     ---       #738
      0100861AH   LINE      CODE     ---       #739
      0100862AH   LINE      CODE     ---       #740
      0100863AH   LINE      CODE     ---       #741
      0100864AH   LINE      CODE     ---       #745
      0100864DH   LINE      CODE     ---       #748
      01008666H   LINE      CODE     ---       #749
      ---         BLOCKEND  ---      ---       LVL=0

      01008E65H   BLOCK     CODE     ---       LVL=0
      01008E65H   LINE      CODE     ---       #758
      01008E65H   LINE      CODE     ---       #761
      01008E6DH   LINE      CODE     ---       #763
      01008E71H   LINE      CODE     ---       #764
      01008E71H   LINE      CODE     ---       #765
      01008E7AH   LINE      CODE     ---       #766
      01008E7BH   LINE      CODE     ---       #767
      01008E7BH   LINE      CODE     ---       #768
      01008E84H   LINE      CODE     ---       #769
      01008E84H   LINE      CODE     ---       #770
LX51 LINKER/LOCATER V4.64.0.0                                                         04/17/2018  14:39:23  PAGE 35


      ---         BLOCKEND  ---      ---       LVL=0

      0100906EH   BLOCK     CODE     ---       LVL=0
      0100906EH   BLOCK     CODE     NEAR LAB  LVL=1
      02000000H   SYMBOL    XDATA    ---       packet_data
      ---         BLOCKEND  ---      ---       LVL=1
      0100906EH   LINE      CODE     ---       #772
      0100906EH   LINE      CODE     ---       #777
      01009073H   LINE      CODE     ---       #780
      01009075H   LINE      CODE     ---       #783
      01009081H   LINE      CODE     ---       #784
      ---         BLOCKEND  ---      ---       LVL=0

      0100901AH   BLOCK     CODE     ---       LVL=0
      0100901AH   LINE      CODE     ---       #786
      0100901AH   LINE      CODE     ---       #788
      01009023H   LINE      CODE     ---       #789
      01009029H   LINE      CODE     ---       #791
      0100902EH   LINE      CODE     ---       #792
      ---         BLOCKEND  ---      ---       LVL=0

      010066ABH   BLOCK     CODE     ---       LVL=0
      010066ABH   BLOCK     CODE     NEAR LAB  LVL=1
      02000000H   SYMBOL    XDATA    BYTE      k_imu
      02000001H   SYMBOL    XDATA    BYTE      c
      02000002H   SYMBOL    XDATA    BYTE      k
      02000003H   SYMBOL    XDATA    BYTE      gl_c
      02000004H   SYMBOL    XDATA    ---       packet_data
      02000162H   SYMBOL    XDATA    ---       single_packet
      ---         BLOCKEND  ---      ---       LVL=1
      010066ABH   LINE      CODE     ---       #794
      010066ABH   LINE      CODE     ---       #798
      010066B1H   LINE      CODE     ---       #799
      010066B4H   LINE      CODE     ---       #800
      010066B7H   LINE      CODE     ---       #807
      010066BBH   LINE      CODE     ---       #809
      010066D1H   LINE      CODE     ---       #810
      010066D1H   LINE      CODE     ---       #812
      010066D7H   LINE      CODE     ---       #813
      010066F2H   LINE      CODE     ---       #814
      0100671DH   LINE      CODE     ---       #815
      01006740H   LINE      CODE     ---       #816
      01006766H   LINE      CODE     ---       #817
      0100676DH   LINE      CODE     ---       #818
      0100676DH   LINE      CODE     ---       #819
      0100678CH   LINE      CODE     ---       #820
      010067B7H   LINE      CODE     ---       #821
      010067DAH   LINE      CODE     ---       #822
      010067FDH   LINE      CODE     ---       #823
      01006804H   LINE      CODE     ---       #824
      01006804H   LINE      CODE     ---       #825
      01006823H   LINE      CODE     ---       #826
      0100684EH   LINE      CODE     ---       #827
      01006871H   LINE      CODE     ---       #828
      01006894H   LINE      CODE     ---       #829
      0100689BH   LINE      CODE     ---       #830
      0100689BH   LINE      CODE     ---       #831
      010068BCH   LINE      CODE     ---       #832
      010068EBH   LINE      CODE     ---       #833
      01006912H   LINE      CODE     ---       #834
      0100693DH   LINE      CODE     ---       #835
      01006964H   LINE      CODE     ---       #836
      0100696BH   LINE      CODE     ---       #837
      0100696BH   LINE      CODE     ---       #838
      0100698AH   LINE      CODE     ---       #839
LX51 LINKER/LOCATER V4.64.0.0                                                         04/17/2018  14:39:23  PAGE 36


      010069B0H   LINE      CODE     ---       #840
      010069B7H   LINE      CODE     ---       #841
      010069B7H   LINE      CODE     ---       #842
      010069E0H   LINE      CODE     ---       #843
      010069E6H   LINE      CODE     ---       #845
      01006A19H   LINE      CODE     ---       #846
      01006A3CH   LINE      CODE     ---       #847
      01006A44H   LINE      CODE     ---       #848
      01006A5AH   LINE      CODE     ---       #850
      01006A69H   LINE      CODE     ---       #852
      01006A72H   LINE      CODE     ---       #855
      01006A96H   LINE      CODE     ---       #856
      01006A9FH   LINE      CODE     ---       #857
      ---         BLOCKEND  ---      ---       LVL=0

      ---         MODULE    ---      ---       GLOBALS
      00000021H.2 PUBLIC    BIT      BIT       interrupt_flag
      020010D2H   PUBLIC    XDATA    INT       imus_data_size
      0200106CH   PUBLIC    XDATA    ---       Accel
      02001068H   PUBLIC    XDATA    DWORD     timer_value0
      02001046H   PUBLIC    XDATA    ---       single_imu_size
      02000DD1H   PUBLIC    XDATA    ---       g_imuNew
      02000D4CH   PUBLIC    XDATA    ---       g_rx
      02000D19H   PUBLIC    XDATA    ---       MagCal
      02000D15H   PUBLIC    XDATA    DWORD     timer_value
      02000CAFH   PUBLIC    XDATA    ---       Gyro
      02000C9FH   PUBLIC    XDATA    ---       Quat
      02000C7DH   PUBLIC    XDATA    ---       Temp
      02000C17H   PUBLIC    XDATA    ---       Mag
      02000C16H   PUBLIC    XDATA    BYTE      N_IMU_Connected
      020009A1H   PUBLIC    XDATA    ---       g_imu
      02000948H   PUBLIC    XDATA    ---       g_mem
      02000937H   PUBLIC    XDATA    ---       IMU_connected
      020008DEH   PUBLIC    XDATA    ---       c_mem
      000000CAH   SFRSYM    DATA     BYTE      SFRPRT5SEL
      000000DAH   SFRSYM    DATA     BYTE      SFRPRT6SEL
      000000D0H.6 SFRSYM    DATA     BIT       AC
      000000A8H.7 SFRSYM    DATA     BIT       EA
      000000A8H   SFRSYM    DATA     BYTE      IE
      00000085H   SFRSYM    DATA     BYTE      DPH1
      00000084H   SFRSYM    DATA     BYTE      DPL1
      000000D0H.7 SFRSYM    DATA     BIT       CY
      000000A0H   SFRSYM    DATA     BYTE      P2AX
      00000095H   SFRSYM    DATA     BYTE      DPX1
      00000081H   SFRSYM    DATA     BYTE      SP
      000000D0H.2 SFRSYM    DATA     BIT       OV
      00000080H   SFRSYM    DATA     BYTE      SFRPRT0DR
      00000090H   SFRSYM    DATA     BYTE      SFRPRT1DR
      000000F2H   SFRSYM    DATA     BYTE      SFRPRT12SEL
      00000098H   SFRSYM    DATA     BYTE      SFRPRT2DR
      000000B0H   SFRSYM    DATA     BYTE      SFRPRT3DR
      000000C0H   SFRSYM    DATA     BYTE      SFRPRT4DR
      000000FAH   SFRSYM    DATA     BYTE      SFRPRT15SEL
      000000C8H   SFRSYM    DATA     BYTE      SFRPRT5DR
      000000D8H   SFRSYM    DATA     BYTE      SFRPRT6DR
      00000089H   SFRSYM    DATA     BYTE      SFRPRT0PS
      00000091H   SFRSYM    DATA     BYTE      SFRPRT1PS
      00000099H   SFRSYM    DATA     BYTE      SFRPRT2PS
      000000B1H   SFRSYM    DATA     BYTE      SFRPRT3PS
      000000C1H   SFRSYM    DATA     BYTE      SFRPRT4PS
      000000C9H   SFRSYM    DATA     BYTE      SFRPRT5PS
      000000D9H   SFRSYM    DATA     BYTE      SFRPRT6PS
      000000EAH   SFRSYM    DATA     BYTE      MXAX
      000000F0H   SFRSYM    DATA     BYTE      B
      000000E0H   SFRSYM    DATA     BYTE      ACC
LX51 LINKER/LOCATER V4.64.0.0                                                         04/17/2018  14:39:23  PAGE 37


      000000D0H   SFRSYM    DATA     BIT       P
      000000D0H.3 SFRSYM    DATA     BIT       RS0
      000000D0H.4 SFRSYM    DATA     BIT       RS1
      00000083H   SFRSYM    DATA     BYTE      DPH
      000000E8H   SFRSYM    DATA     BYTE      SFRPRT12DR
      00000082H   SFRSYM    DATA     BYTE      DPL
      000000F8H   SFRSYM    DATA     BYTE      SFRPRT15DR
      00000086H   SFRSYM    DATA     BYTE      DPS
      000000E9H   SFRSYM    DATA     BYTE      SFRPRT12PS
      00000093H   SFRSYM    DATA     BYTE      DPX
      000000F9H   SFRSYM    DATA     BYTE      SFRPRT15PS
      000000D0H.5 SFRSYM    DATA     BIT       F0
      000000D0H.1 SFRSYM    DATA     BIT       F1
      0000008AH   SFRSYM    DATA     BYTE      SFRPRT0SEL
      000000D0H   SFRSYM    DATA     BYTE      PSW
      000000A2H   SFRSYM    DATA     BYTE      SFRPRT1SEL
      0000009AH   SFRSYM    DATA     BYTE      SFRPRT2SEL
      000000B2H   SFRSYM    DATA     BYTE      SFRPRT3SEL
      000000C2H   SFRSYM    DATA     BYTE      SFRPRT4SEL

      ---         MODULE    ---      ---       INTERRUPTIONS
      01008B40H   PUBLIC    CODE     ---       function_scheduler
      0100734EH   PUBLIC    CODE     ---       interrupt_manager
      010092C6H   PUBLIC    CODE     ---       ISR_RS485_RX_ExInterrupt
      000000CAH   SFRSYM    DATA     BYTE      SFRPRT5SEL
      000000DAH   SFRSYM    DATA     BYTE      SFRPRT6SEL
      000000D0H.6 SFRSYM    DATA     BIT       AC
      000000A8H.7 SFRSYM    DATA     BIT       EA
      000000A8H   SFRSYM    DATA     BYTE      IE
      00000085H   SFRSYM    DATA     BYTE      DPH1
      00000084H   SFRSYM    DATA     BYTE      DPL1
      000000D0H.7 SFRSYM    DATA     BIT       CY
      000000A0H   SFRSYM    DATA     BYTE      P2AX
      00000095H   SFRSYM    DATA     BYTE      DPX1
      00000081H   SFRSYM    DATA     BYTE      SP
      000000D0H.2 SFRSYM    DATA     BIT       OV
      00000080H   SFRSYM    DATA     BYTE      SFRPRT0DR
      00000090H   SFRSYM    DATA     BYTE      SFRPRT1DR
      000000F2H   SFRSYM    DATA     BYTE      SFRPRT12SEL
      00000098H   SFRSYM    DATA     BYTE      SFRPRT2DR
      000000B0H   SFRSYM    DATA     BYTE      SFRPRT3DR
      000000C0H   SFRSYM    DATA     BYTE      SFRPRT4DR
      000000FAH   SFRSYM    DATA     BYTE      SFRPRT15SEL
      000000C8H   SFRSYM    DATA     BYTE      SFRPRT5DR
      000000D8H   SFRSYM    DATA     BYTE      SFRPRT6DR
      00000089H   SFRSYM    DATA     BYTE      SFRPRT0PS
      00000091H   SFRSYM    DATA     BYTE      SFRPRT1PS
      00000099H   SFRSYM    DATA     BYTE      SFRPRT2PS
      000000B1H   SFRSYM    DATA     BYTE      SFRPRT3PS
      000000C1H   SFRSYM    DATA     BYTE      SFRPRT4PS
      000000C9H   SFRSYM    DATA     BYTE      SFRPRT5PS
      000000D9H   SFRSYM    DATA     BYTE      SFRPRT6PS
      000000EAH   SFRSYM    DATA     BYTE      MXAX
      000000F0H   SFRSYM    DATA     BYTE      B
      000000E0H   SFRSYM    DATA     BYTE      ACC
      000000D0H   SFRSYM    DATA     BIT       P
      000000D0H.3 SFRSYM    DATA     BIT       RS0
      000000D0H.4 SFRSYM    DATA     BIT       RS1
      00000083H   SFRSYM    DATA     BYTE      DPH
      000000E8H   SFRSYM    DATA     BYTE      SFRPRT12DR
      00000082H   SFRSYM    DATA     BYTE      DPL
      000000F8H   SFRSYM    DATA     BYTE      SFRPRT15DR
      00000086H   SFRSYM    DATA     BYTE      DPS
      000000E9H   SFRSYM    DATA     BYTE      SFRPRT12PS
      00000093H   SFRSYM    DATA     BYTE      DPX
LX51 LINKER/LOCATER V4.64.0.0                                                         04/17/2018  14:39:23  PAGE 38


      000000F9H   SFRSYM    DATA     BYTE      SFRPRT15PS
      000000D0H.5 SFRSYM    DATA     BIT       F0
      000000D0H.1 SFRSYM    DATA     BIT       F1
      0000008AH   SFRSYM    DATA     BYTE      SFRPRT0SEL
      000000D0H   SFRSYM    DATA     BYTE      PSW
      000000A2H   SFRSYM    DATA     BYTE      SFRPRT1SEL
      0000009AH   SFRSYM    DATA     BYTE      SFRPRT2SEL
      000000B2H   SFRSYM    DATA     BYTE      SFRPRT3SEL
      000000C2H   SFRSYM    DATA     BYTE      SFRPRT4SEL

      010092C6H   BLOCK     CODE     ---       LVL=0
      010092C6H   LINE      CODE     ---       #70
      010092C6H   LINE      CODE     ---       #74
      010092C8H   LINE      CODE     ---       #76
      ---         BLOCKEND  ---      ---       LVL=0

      0100734EH   BLOCK     CODE     ---       LVL=0
      0100734EH   BLOCK     CODE     NEAR LAB  LVL=1
      00000022H   SYMBOL    DATA     BYTE      state
      00000023H   SYMBOL    DATA     BYTE      data_packet_index
      00000024H   SYMBOL    DATA     BYTE      data_packet_length
      02001522H   SYMBOL    XDATA    ---       data_packet_buffer
      00000025H   SYMBOL    DATA     ---       rx_queue
      00000008H   SYMBOL    DATA     BYTE      rx_data
      00000020H.0 SYMBOL    BIT      BIT       rx_data_type
      00000009H   SYMBOL    DATA     BYTE      package_count
      ---         BLOCKEND  ---      ---       LVL=1
      0100734EH   LINE      CODE     ---       #93
      0100734EH   LINE      CODE     ---       #109
      01007351H   LINE      CODE     ---       #115
      01007364H   LINE      CODE     ---       #119
      01007369H   LINE      CODE     ---       #121
      01007381H   LINE      CODE     ---       #123
      01007381H   LINE      CODE     ---       #125
      01007384H   LINE      CODE     ---       #126
      01007387H   LINE      CODE     ---       #127
      0100738AH   LINE      CODE     ---       #130
      01007394H   LINE      CODE     ---       #131
      01007397H   LINE      CODE     ---       #132
      01007399H   LINE      CODE     ---       #133
      0100739BH   LINE      CODE     ---       #134
      0100739EH   LINE      CODE     ---       #135
      010073A0H   LINE      CODE     ---       #136
      010073B0H   LINE      CODE     ---       #139
      010073B5H   LINE      CODE     ---       #140
      010073B7H   LINE      CODE     ---       #143
      010073B7H   LINE      CODE     ---       #146
      010073C3H   LINE      CODE     ---       #147
      010073C7H   LINE      CODE     ---       #149
      010073C9H   LINE      CODE     ---       #151
      010073CCH   LINE      CODE     ---       #152
      010073CFH   LINE      CODE     ---       #153
      010073D1H   LINE      CODE     ---       #156
      010073D1H   LINE      CODE     ---       #159
      010073D4H   LINE      CODE     ---       #161
      010073DBH   LINE      CODE     ---       #162
      010073DEH   LINE      CODE     ---       #163
      010073E0H   LINE      CODE     ---       #164
      010073EAH   LINE      CODE     ---       #165
      010073EDH   LINE      CODE     ---       #166
      010073EFH   LINE      CODE     ---       #167
      010073F2H   LINE      CODE     ---       #168
      010073F5H   LINE      CODE     ---       #170
      010073F8H   LINE      CODE     ---       #171
      010073FEH   LINE      CODE     ---       #173
LX51 LINKER/LOCATER V4.64.0.0                                                         04/17/2018  14:39:23  PAGE 39


      01007401H   LINE      CODE     ---       #174
      01007401H   LINE      CODE     ---       #175
      01007404H   LINE      CODE     ---       #178
      01007404H   LINE      CODE     ---       #180
      01007412H   LINE      CODE     ---       #181
      01007414H   LINE      CODE     ---       #184
      0100741EH   LINE      CODE     ---       #186
      01007421H   LINE      CODE     ---       #188
      01007434H   LINE      CODE     ---       #189
      0100743DH   LINE      CODE     ---       #190
      01007443H   LINE      CODE     ---       #191
      01007446H   LINE      CODE     ---       #192
      01007446H   LINE      CODE     ---       #194
      01007449H   LINE      CODE     ---       #195
      0100744BH   LINE      CODE     ---       #196
      0100744DH   LINE      CODE     ---       #197
      0100744FH   LINE      CODE     ---       #199
      0100744FH   LINE      CODE     ---       #200
      01007452H   LINE      CODE     ---       #203
      01007452H   LINE      CODE     ---       #204
      0100745BH   LINE      CODE     ---       #205
      0100745DH   LINE      CODE     ---       #206
      0100745FH   LINE      CODE     ---       #207
      01007464H   LINE      CODE     ---       #208
      01007469H   LINE      CODE     ---       #209
      0100746CH   LINE      CODE     ---       #210
      0100746EH   LINE      CODE     ---       #211
      0100746EH   LINE      CODE     ---       #212
      01007471H   LINE      CODE     ---       #213
      01007471H   LINE      CODE     ---       #214
      01007474H   LINE      CODE     ---       #215
      ---         BLOCKEND  ---      ---       LVL=0

      01008B40H   BLOCK     CODE     ---       LVL=0
      01008B40H   LINE      CODE     ---       #224
      01008B40H   LINE      CODE     ---       #226
      01008B49H   LINE      CODE     ---       #230
      01008B4CH   LINE      CODE     ---       #231
      01008B4EH   LINE      CODE     ---       #232
      01008B51H   LINE      CODE     ---       #233
      01008B51H   LINE      CODE     ---       #235
      01008B54H   LINE      CODE     ---       #238
      01008B67H   LINE      CODE     ---       #240
      01008B6AH   LINE      CODE     ---       #241
      01008B6CH   LINE      CODE     ---       #242
      01008B6FH   LINE      CODE     ---       #243
      01008B6FH   LINE      CODE     ---       #245
      01008B78H   LINE      CODE     ---       #246
      01008B83H   LINE      CODE     ---       #248
      ---         BLOCKEND  ---      ---       LVL=0

      ---         MODULE    ---      ---       MAIN
      010083B0H   PUBLIC    CODE     ---       main
      000000CAH   SFRSYM    DATA     BYTE      SFRPRT5SEL
      000000DAH   SFRSYM    DATA     BYTE      SFRPRT6SEL
      000000D0H.6 SFRSYM    DATA     BIT       AC
      000000A8H.7 SFRSYM    DATA     BIT       EA
      000000A8H   SFRSYM    DATA     BYTE      IE
      00000085H   SFRSYM    DATA     BYTE      DPH1
      00000084H   SFRSYM    DATA     BYTE      DPL1
      000000D0H.7 SFRSYM    DATA     BIT       CY
      000000A0H   SFRSYM    DATA     BYTE      P2AX
      00000095H   SFRSYM    DATA     BYTE      DPX1
      00000081H   SFRSYM    DATA     BYTE      SP
      000000D0H.2 SFRSYM    DATA     BIT       OV
LX51 LINKER/LOCATER V4.64.0.0                                                         04/17/2018  14:39:23  PAGE 40


      00000080H   SFRSYM    DATA     BYTE      SFRPRT0DR
      00000090H   SFRSYM    DATA     BYTE      SFRPRT1DR
      000000F2H   SFRSYM    DATA     BYTE      SFRPRT12SEL
      00000098H   SFRSYM    DATA     BYTE      SFRPRT2DR
      000000B0H   SFRSYM    DATA     BYTE      SFRPRT3DR
      000000C0H   SFRSYM    DATA     BYTE      SFRPRT4DR
      000000FAH   SFRSYM    DATA     BYTE      SFRPRT15SEL
      000000C8H   SFRSYM    DATA     BYTE      SFRPRT5DR
      000000D8H   SFRSYM    DATA     BYTE      SFRPRT6DR
      00000089H   SFRSYM    DATA     BYTE      SFRPRT0PS
      00000091H   SFRSYM    DATA     BYTE      SFRPRT1PS
      00000099H   SFRSYM    DATA     BYTE      SFRPRT2PS
      000000B1H   SFRSYM    DATA     BYTE      SFRPRT3PS
      000000C1H   SFRSYM    DATA     BYTE      SFRPRT4PS
      000000C9H   SFRSYM    DATA     BYTE      SFRPRT5PS
      000000D9H   SFRSYM    DATA     BYTE      SFRPRT6PS
      000000EAH   SFRSYM    DATA     BYTE      MXAX
      000000F0H   SFRSYM    DATA     BYTE      B
      000000E0H   SFRSYM    DATA     BYTE      ACC
      000000D0H   SFRSYM    DATA     BIT       P
      000000D0H.3 SFRSYM    DATA     BIT       RS0
      000000D0H.4 SFRSYM    DATA     BIT       RS1
      00000083H   SFRSYM    DATA     BYTE      DPH
      000000E8H   SFRSYM    DATA     BYTE      SFRPRT12DR
      00000082H   SFRSYM    DATA     BYTE      DPL
      000000F8H   SFRSYM    DATA     BYTE      SFRPRT15DR
      00000086H   SFRSYM    DATA     BYTE      DPS
      000000E9H   SFRSYM    DATA     BYTE      SFRPRT12PS
      00000093H   SFRSYM    DATA     BYTE      DPX
      000000F9H   SFRSYM    DATA     BYTE      SFRPRT15PS
      000000D0H.5 SFRSYM    DATA     BIT       F0
      000000D0H.1 SFRSYM    DATA     BIT       F1
      0000008AH   SFRSYM    DATA     BYTE      SFRPRT0SEL
      000000D0H   SFRSYM    DATA     BYTE      PSW
      000000A2H   SFRSYM    DATA     BYTE      SFRPRT1SEL
      0000009AH   SFRSYM    DATA     BYTE      SFRPRT2SEL
      000000B2H   SFRSYM    DATA     BYTE      SFRPRT3SEL
      000000C2H   SFRSYM    DATA     BYTE      SFRPRT4SEL

      010083B0H   BLOCK     CODE     ---       LVL=0
      010083B0H   LINE      CODE     ---       #71
      010083B0H   LINE      CODE     ---       #72
      010083B0H   LINE      CODE     ---       #77
      010083B3H   LINE      CODE     ---       #78
      010083B6H   LINE      CODE     ---       #82
      010083BFH   LINE      CODE     ---       #83
      010083C4H   LINE      CODE     ---       #87
      010083C7H   LINE      CODE     ---       #88
      010083CAH   LINE      CODE     ---       #89
      010083CDH   LINE      CODE     ---       #91
      010083D0H   LINE      CODE     ---       #92
      010083D3H   LINE      CODE     ---       #94
      010083DAH   LINE      CODE     ---       #96
      010083DFH   LINE      CODE     ---       #100
      010083E2H   LINE      CODE     ---       #101
      010083E5H   LINE      CODE     ---       #103
      010083EDH   LINE      CODE     ---       #106
      010083F0H   LINE      CODE     ---       #107
      010083F3H   LINE      CODE     ---       #108
      010083F6H   LINE      CODE     ---       #109
      010083F9H   LINE      CODE     ---       #110
      010083FCH   LINE      CODE     ---       #111
      010083FFH   LINE      CODE     ---       #112
      01008408H   LINE      CODE     ---       #114
      0100840DH   LINE      CODE     ---       #117
LX51 LINKER/LOCATER V4.64.0.0                                                         04/17/2018  14:39:23  PAGE 41


      01008410H   LINE      CODE     ---       #123
      01008417H   LINE      CODE     ---       #124
      0100841BH   LINE      CODE     ---       #128
      0100841BH   LINE      CODE     ---       #129
      0100841BH   LINE      CODE     ---       #131
      01008420H   LINE      CODE     ---       #134
      01008423H   LINE      CODE     ---       #137
      01008429H   LINE      CODE     ---       #139
      0100842CH   LINE      CODE     ---       #141
      0100842EH   LINE      CODE     ---       #144
      01008431H   LINE      CODE     ---       #145
      01008431H   LINE      CODE     ---       #146
      01008433H   LINE      CODE     ---       #149
      01008438H   LINE      CODE     ---       #152
      01008440H   LINE      CODE     ---       #154
      01008447H   LINE      CODE     ---       #155
      0100844AH   LINE      CODE     ---       #156
      0100844CH   LINE      CODE     ---       #157
      0100844CH   LINE      CODE     ---       #158
      ---         BLOCKEND  ---      ---       LVL=0

      ---         MODULE    ---      ---       UTILS
      01007094H   PUBLIC    CODE     ---       _v4_normalize
      0100759BH   PUBLIC    CODE     ---       _v3_normalize
      01007E2AH   PUBLIC    CODE     ---       _invSqrt
      000000CAH   SFRSYM    DATA     BYTE      SFRPRT5SEL
      000000DAH   SFRSYM    DATA     BYTE      SFRPRT6SEL
      000000D0H.6 SFRSYM    DATA     BIT       AC
      000000A8H.7 SFRSYM    DATA     BIT       EA
      000000A8H   SFRSYM    DATA     BYTE      IE
      00000085H   SFRSYM    DATA     BYTE      DPH1
      00000084H   SFRSYM    DATA     BYTE      DPL1
      000000D0H.7 SFRSYM    DATA     BIT       CY
      000000A0H   SFRSYM    DATA     BYTE      P2AX
      00000095H   SFRSYM    DATA     BYTE      DPX1
      00000081H   SFRSYM    DATA     BYTE      SP
      000000D0H.2 SFRSYM    DATA     BIT       OV
      00000080H   SFRSYM    DATA     BYTE      SFRPRT0DR
      00000090H   SFRSYM    DATA     BYTE      SFRPRT1DR
      000000F2H   SFRSYM    DATA     BYTE      SFRPRT12SEL
      00000098H   SFRSYM    DATA     BYTE      SFRPRT2DR
      000000B0H   SFRSYM    DATA     BYTE      SFRPRT3DR
      000000C0H   SFRSYM    DATA     BYTE      SFRPRT4DR
      000000FAH   SFRSYM    DATA     BYTE      SFRPRT15SEL
      000000C8H   SFRSYM    DATA     BYTE      SFRPRT5DR
      000000D8H   SFRSYM    DATA     BYTE      SFRPRT6DR
      00000089H   SFRSYM    DATA     BYTE      SFRPRT0PS
      00000091H   SFRSYM    DATA     BYTE      SFRPRT1PS
      00000099H   SFRSYM    DATA     BYTE      SFRPRT2PS
      000000B1H   SFRSYM    DATA     BYTE      SFRPRT3PS
      000000C1H   SFRSYM    DATA     BYTE      SFRPRT4PS
      000000C9H   SFRSYM    DATA     BYTE      SFRPRT5PS
      000000D9H   SFRSYM    DATA     BYTE      SFRPRT6PS
      000000EAH   SFRSYM    DATA     BYTE      MXAX
      000000F0H   SFRSYM    DATA     BYTE      B
      000000E0H   SFRSYM    DATA     BYTE      ACC
      000000D0H   SFRSYM    DATA     BIT       P
      000000D0H.3 SFRSYM    DATA     BIT       RS0
      000000D0H.4 SFRSYM    DATA     BIT       RS1
      00000083H   SFRSYM    DATA     BYTE      DPH
      000000E8H   SFRSYM    DATA     BYTE      SFRPRT12DR
      00000082H   SFRSYM    DATA     BYTE      DPL
      000000F8H   SFRSYM    DATA     BYTE      SFRPRT15DR
      00000086H   SFRSYM    DATA     BYTE      DPS
      000000E9H   SFRSYM    DATA     BYTE      SFRPRT12PS
LX51 LINKER/LOCATER V4.64.0.0                                                         04/17/2018  14:39:23  PAGE 42


      00000093H   SFRSYM    DATA     BYTE      DPX
      000000F9H   SFRSYM    DATA     BYTE      SFRPRT15PS
      000000D0H.5 SFRSYM    DATA     BIT       F0
      000000D0H.1 SFRSYM    DATA     BIT       F1
      0000008AH   SFRSYM    DATA     BYTE      SFRPRT0SEL
      000000D0H   SFRSYM    DATA     BYTE      PSW
      000000A2H   SFRSYM    DATA     BYTE      SFRPRT1SEL
      0000009AH   SFRSYM    DATA     BYTE      SFRPRT2SEL
      000000B2H   SFRSYM    DATA     BYTE      SFRPRT3SEL
      000000C2H   SFRSYM    DATA     BYTE      SFRPRT4SEL

      01007E2AH   BLOCK     CODE     ---       LVL=0
      02000066H   SYMBOL    XDATA    FLOAT     x
      01007E30H   BLOCK     CODE     NEAR LAB  LVL=1
      0200006AH   SYMBOL    XDATA    FLOAT     halfx
      0200006EH   SYMBOL    XDATA    FLOAT     y
      02000072H   SYMBOL    XDATA    LONG      i
      ---         BLOCKEND  ---      ---       LVL=1
      01007E2AH   LINE      CODE     ---       #53
      01007E30H   LINE      CODE     ---       #54
      01007E4DH   LINE      CODE     ---       #55
      01007E61H   LINE      CODE     ---       #56
      01007E73H   LINE      CODE     ---       #57
      01007E9DH   LINE      CODE     ---       #58
      01007EB1H   LINE      CODE     ---       #59
      01007F0AH   LINE      CODE     ---       #60
      01007F18H   LINE      CODE     ---       #61
      ---         BLOCKEND  ---      ---       LVL=0

      0100759BH   BLOCK     CODE     ---       LVL=0
      0200005FH   SYMBOL    XDATA    ---       v3_in
      010075A6H   BLOCK     CODE     NEAR LAB  LVL=1
      02000062H   SYMBOL    XDATA    FLOAT     norm
      ---         BLOCKEND  ---      ---       LVL=1
      0100759BH   LINE      CODE     ---       #66
      010075A6H   LINE      CODE     ---       #68
      01007620H   LINE      CODE     ---       #70
      0100764EH   LINE      CODE     ---       #71
      01007685H   LINE      CODE     ---       #72
      010076BCH   LINE      CODE     ---       #73
      ---         BLOCKEND  ---      ---       LVL=0

      01007094H   BLOCK     CODE     ---       LVL=0
      0200005FH   SYMBOL    XDATA    ---       v4_in
      0100709FH   BLOCK     CODE     NEAR LAB  LVL=1
      02000062H   SYMBOL    XDATA    FLOAT     norm
      ---         BLOCKEND  ---      ---       LVL=1
      01007094H   LINE      CODE     ---       #78
      0100709FH   LINE      CODE     ---       #80
      0100714AH   LINE      CODE     ---       #82
      01007178H   LINE      CODE     ---       #83
      010071AFH   LINE      CODE     ---       #84
      010071E6H   LINE      CODE     ---       #85
      0100721DH   LINE      CODE     ---       #86
      ---         BLOCKEND  ---      ---       LVL=0

      ---         MODULE    ---      ---       IMU_FUNCTIONS
      01008F40H   PUBLIC    CODE     ---       SPI_delay
      01008FD8H   PUBLIC    CODE     ---       _ReadControlRegister
      01008D33H   PUBLIC    CODE     ---       _WriteControlRegister
      0100880CH   PUBLIC    CODE     ---       _ReadTemp
      01006AA0H   PUBLIC    CODE     ---       ReadAllIMUs
      010034DDH   PUBLIC    CODE     ---       _ReadQuat
      01008562H   PUBLIC    CODE     ---       _ReadMagCal
      01007B31H   PUBLIC    CODE     ---       _ReadMag
LX51 LINKER/LOCATER V4.64.0.0                                                         04/17/2018  14:39:23  PAGE 43


      010078FBH   PUBLIC    CODE     ---       _ReadGyro
      010077DFH   PUBLIC    CODE     ---       _ReadAcc
      01008307H   PUBLIC    CODE     ---       _ReadIMU
      01006DDBH   PUBLIC    CODE     ---       InitIMUgeneral
      01008AAFH   PUBLIC    CODE     ---       _ChipSelector
      01007D39H   PUBLIC    CODE     ---       InitIMUMagCal
      01007C48H   PUBLIC    CODE     ---       InitIMU
      000000CAH   SFRSYM    DATA     BYTE      SFRPRT5SEL
      000000DAH   SFRSYM    DATA     BYTE      SFRPRT6SEL
      000000D0H.6 SFRSYM    DATA     BIT       AC
      000000A8H.7 SFRSYM    DATA     BIT       EA
      000000A8H   SFRSYM    DATA     BYTE      IE
      00000085H   SFRSYM    DATA     BYTE      DPH1
      00000084H   SFRSYM    DATA     BYTE      DPL1
      000000D0H.7 SFRSYM    DATA     BIT       CY
      000000A0H   SFRSYM    DATA     BYTE      P2AX
      00000095H   SFRSYM    DATA     BYTE      DPX1
      00000081H   SFRSYM    DATA     BYTE      SP
      000000D0H.2 SFRSYM    DATA     BIT       OV
      00000080H   SFRSYM    DATA     BYTE      SFRPRT0DR
      00000090H   SFRSYM    DATA     BYTE      SFRPRT1DR
      000000F2H   SFRSYM    DATA     BYTE      SFRPRT12SEL
      00000098H   SFRSYM    DATA     BYTE      SFRPRT2DR
      000000B0H   SFRSYM    DATA     BYTE      SFRPRT3DR
      000000C0H   SFRSYM    DATA     BYTE      SFRPRT4DR
      000000FAH   SFRSYM    DATA     BYTE      SFRPRT15SEL
      000000C8H   SFRSYM    DATA     BYTE      SFRPRT5DR
      000000D8H   SFRSYM    DATA     BYTE      SFRPRT6DR
      00000089H   SFRSYM    DATA     BYTE      SFRPRT0PS
      00000091H   SFRSYM    DATA     BYTE      SFRPRT1PS
      00000099H   SFRSYM    DATA     BYTE      SFRPRT2PS
      000000B1H   SFRSYM    DATA     BYTE      SFRPRT3PS
      000000C1H   SFRSYM    DATA     BYTE      SFRPRT4PS
      000000C9H   SFRSYM    DATA     BYTE      SFRPRT5PS
      000000D9H   SFRSYM    DATA     BYTE      SFRPRT6PS
      000000EAH   SFRSYM    DATA     BYTE      MXAX
      000000F0H   SFRSYM    DATA     BYTE      B
      000000E0H   SFRSYM    DATA     BYTE      ACC
      000000D0H   SFRSYM    DATA     BIT       P
      000000D0H.3 SFRSYM    DATA     BIT       RS0
      000000D0H.4 SFRSYM    DATA     BIT       RS1
      00000083H   SFRSYM    DATA     BYTE      DPH
      000000E8H   SFRSYM    DATA     BYTE      SFRPRT12DR
      00000082H   SFRSYM    DATA     BYTE      DPL
      000000F8H   SFRSYM    DATA     BYTE      SFRPRT15DR
      00000086H   SFRSYM    DATA     BYTE      DPS
      000000E9H   SFRSYM    DATA     BYTE      SFRPRT12PS
      00000093H   SFRSYM    DATA     BYTE      DPX
      000000F9H   SFRSYM    DATA     BYTE      SFRPRT15PS
      000000D0H.5 SFRSYM    DATA     BIT       F0
      000000D0H.1 SFRSYM    DATA     BIT       F1
      0000008AH   SFRSYM    DATA     BYTE      SFRPRT0SEL
      000000D0H   SFRSYM    DATA     BYTE      PSW
      000000A2H   SFRSYM    DATA     BYTE      SFRPRT1SEL
      0000009AH   SFRSYM    DATA     BYTE      SFRPRT2SEL
      000000B2H   SFRSYM    DATA     BYTE      SFRPRT3SEL
      000000C2H   SFRSYM    DATA     BYTE      SFRPRT4SEL

      01007C48H   BLOCK     CODE     ---       LVL=0
      01007C48H   LINE      CODE     ---       #70
      01007C48H   LINE      CODE     ---       #72
      01007C4FH   LINE      CODE     ---       #73
      01007C58H   LINE      CODE     ---       #74
      01007C5FH   LINE      CODE     ---       #75
      01007C68H   LINE      CODE     ---       #76
LX51 LINKER/LOCATER V4.64.0.0                                                         04/17/2018  14:39:23  PAGE 44


      01007C6FH   LINE      CODE     ---       #77
      01007C78H   LINE      CODE     ---       #78
      01007C7FH   LINE      CODE     ---       #79
      01007C88H   LINE      CODE     ---       #80
      01007C8FH   LINE      CODE     ---       #81
      01007C98H   LINE      CODE     ---       #85
      01007C9FH   LINE      CODE     ---       #87
      01007CA8H   LINE      CODE     ---       #89
      01007CAFH   LINE      CODE     ---       #90
      01007CB8H   LINE      CODE     ---       #92
      01007CBFH   LINE      CODE     ---       #93
      01007CC8H   LINE      CODE     ---       #94
      01007CCFH   LINE      CODE     ---       #95
      01007CD8H   LINE      CODE     ---       #97
      01007CDFH   LINE      CODE     ---       #98
      01007CE8H   LINE      CODE     ---       #99
      01007CEFH   LINE      CODE     ---       #100
      01007CF8H   LINE      CODE     ---       #102
      01007CFFH   LINE      CODE     ---       #103
      01007D08H   LINE      CODE     ---       #105
      01007D0FH   LINE      CODE     ---       #106
      01007D18H   LINE      CODE     ---       #108
      01007D1FH   LINE      CODE     ---       #109
      01007D28H   LINE      CODE     ---       #110
      01007D2FH   LINE      CODE     ---       #111
      01007D38H   LINE      CODE     ---       #112
      ---         BLOCKEND  ---      ---       LVL=0

      01007D39H   BLOCK     CODE     ---       LVL=0
      01007D39H   LINE      CODE     ---       #117
      01007D39H   LINE      CODE     ---       #119
      01007D40H   LINE      CODE     ---       #120
      01007D49H   LINE      CODE     ---       #121
      01007D50H   LINE      CODE     ---       #122
      01007D59H   LINE      CODE     ---       #123
      01007D60H   LINE      CODE     ---       #124
      01007D69H   LINE      CODE     ---       #125
      01007D70H   LINE      CODE     ---       #126
      01007D79H   LINE      CODE     ---       #127
      01007D80H   LINE      CODE     ---       #128
      01007D89H   LINE      CODE     ---       #129
      01007D90H   LINE      CODE     ---       #130
      01007D99H   LINE      CODE     ---       #132
      01007DA0H   LINE      CODE     ---       #133
      01007DA9H   LINE      CODE     ---       #135
      01007DB0H   LINE      CODE     ---       #136
      01007DB9H   LINE      CODE     ---       #137
      01007DC0H   LINE      CODE     ---       #138
      01007DC9H   LINE      CODE     ---       #139
      01007DD0H   LINE      CODE     ---       #140
      01007DD9H   LINE      CODE     ---       #141
      01007DE0H   LINE      CODE     ---       #142
      01007DE9H   LINE      CODE     ---       #144
      01007DF0H   LINE      CODE     ---       #145
      01007DF9H   LINE      CODE     ---       #146
      01007E00H   LINE      CODE     ---       #147
      01007E09H   LINE      CODE     ---       #148
      01007E10H   LINE      CODE     ---       #149
      01007E19H   LINE      CODE     ---       #150
      01007E20H   LINE      CODE     ---       #151
      01007E29H   LINE      CODE     ---       #152
      ---         BLOCKEND  ---      ---       LVL=0

      01008AAFH   BLOCK     CODE     ---       LVL=0
      02000026H   SYMBOL    XDATA    INT       n
LX51 LINKER/LOCATER V4.64.0.0                                                         04/17/2018  14:39:23  PAGE 45


      01008AAFH   LINE      CODE     ---       #157
      01008AB7H   LINE      CODE     ---       #158
      01008AB7H   LINE      CODE     ---       #159
      01008ABCH   LINE      CODE     ---       #160
      01008AC1H   LINE      CODE     ---       #162
      01008AD3H   LINE      CODE     ---       #163
      01008AD6H   LINE      CODE     ---       #164
      01008AE2H   LINE      CODE     ---       #165
      01008AE6H   LINE      CODE     ---       #166
      01008AF2H   LINE      CODE     ---       #167
      01008AF7H   LINE      CODE     ---       #168
      ---         BLOCKEND  ---      ---       LVL=0

      01006DDBH   BLOCK     CODE     ---       LVL=0
      01006DDBH   BLOCK     CODE     NEAR LAB  LVL=1
      02000000H   SYMBOL    XDATA    BYTE      k_imu
      02000001H   SYMBOL    XDATA    BYTE      count
      02000002H   SYMBOL    XDATA    INT       IMU_ack
      02000004H   SYMBOL    XDATA    ---       tmp
      ---         BLOCKEND  ---      ---       LVL=1
      01006DDBH   LINE      CODE     ---       #173
      01006DDBH   LINE      CODE     ---       #174
      01006DDBH   LINE      CODE     ---       #176
      01006DE0H   LINE      CODE     ---       #181
      01006DEDH   LINE      CODE     ---       #182
      01006DFCH   LINE      CODE     ---       #185
      01006E0BH   LINE      CODE     ---       #186
      01006E0BH   LINE      CODE     ---       #187
      01006E10H   LINE      CODE     ---       #188
      01006E19H   LINE      CODE     ---       #189
      01006E1EH   LINE      CODE     ---       #190
      01006E26H   LINE      CODE     ---       #193
      01006E2CH   LINE      CODE     ---       #194
      01006E35H   LINE      CODE     ---       #195
      01006E42H   LINE      CODE     ---       #196
      01006E49H   LINE      CODE     ---       #197
      01006E4DH   LINE      CODE     ---       #198
      01006E5BH   LINE      CODE     ---       #199
      01006E5BH   LINE      CODE     ---       #200
      01006E60H   LINE      CODE     ---       #201
      01006E69H   LINE      CODE     ---       #202
      01006E78H   LINE      CODE     ---       #203
      01006E7CH   LINE      CODE     ---       #204
      01006E7CH   LINE      CODE     ---       #205
      01006E82H   LINE      CODE     ---       #206
      01006E89H   LINE      CODE     ---       #207
      01006E9DH   LINE      CODE     ---       #208
      01006E9FH   LINE      CODE     ---       #210
      01006EB2H   LINE      CODE     ---       #211
      01006EBAH   LINE      CODE     ---       #213
      01006EC9H   LINE      CODE     ---       #214
      01006EC9H   LINE      CODE     ---       #215
      01006EDEH   LINE      CODE     ---       #216
      01006EDEH   LINE      CODE     ---       #217
      01006EEFH   LINE      CODE     ---       #218
      01006EF5H   LINE      CODE     ---       #219
      01006EF5H   LINE      CODE     ---       #220
      01006EFDH   LINE      CODE     ---       #223
      01006F02H   LINE      CODE     ---       #224
      01006F0BH   LINE      CODE     ---       #225
      01006F10H   LINE      CODE     ---       #226
      01006F19H   LINE      CODE     ---       #227
      01006F28H   LINE      CODE     ---       #228
      01006F28H   LINE      CODE     ---       #229
      01006F2DH   LINE      CODE     ---       #230
LX51 LINKER/LOCATER V4.64.0.0                                                         04/17/2018  14:39:23  PAGE 46


      01006F36H   LINE      CODE     ---       #231
      01006F39H   LINE      CODE     ---       #232
      01006F42H   LINE      CODE     ---       #233
      01006F45H   LINE      CODE     ---       #234
      01006F4EH   LINE      CODE     ---       #235
      01006F56H   LINE      CODE     ---       #236
      01006F5FH   LINE      CODE     ---       #239
      01006F6EH   LINE      CODE     ---       #240
      01006F73H   LINE      CODE     ---       #241
      01006F7DH   LINE      CODE     ---       #242
      01006F85H   LINE      CODE     ---       #243
      01006F8EH   LINE      CODE     ---       #246
      01006F9DH   LINE      CODE     ---       #247
      01006FA5H   LINE      CODE     ---       #248
      01006FBBH   LINE      CODE     ---       #249
      01006FBBH   LINE      CODE     ---       #250
      01007055H   LINE      CODE     ---       #251
      0100707CH   LINE      CODE     ---       #252
      01007085H   LINE      CODE     ---       #253
      01007093H   LINE      CODE     ---       #254
      ---         BLOCKEND  ---      ---       LVL=0

      01008307H   BLOCK     CODE     ---       LVL=0
      02000008H   SYMBOL    XDATA    INT       n
      01008307H   LINE      CODE     ---       #259
      0100830FH   LINE      CODE     ---       #260
      0100830FH   LINE      CODE     ---       #261
      0100832FH   LINE      CODE     ---       #262
      0100834FH   LINE      CODE     ---       #263
      0100836FH   LINE      CODE     ---       #264
      0100838FH   LINE      CODE     ---       #265
      010083AFH   LINE      CODE     ---       #266
      ---         BLOCKEND  ---      ---       LVL=0

      010077DFH   BLOCK     CODE     ---       LVL=0
      00000006H   SYMBOL    DATA     INT       n
      010077DFH   BLOCK     CODE     NEAR LAB  LVL=1
      0200005FH   SYMBOL    XDATA    BYTE      low
      02000060H   SYMBOL    XDATA    BYTE      high
      02000061H   SYMBOL    XDATA    INT       row
      ---         BLOCKEND  ---      ---       LVL=1
      010077DFH   LINE      CODE     ---       #271
      010077DFH   LINE      CODE     ---       #272
      010077DFH   LINE      CODE     ---       #273
      010077E6H   LINE      CODE     ---       #275
      010077ECH   LINE      CODE     ---       #278
      010077F6H   LINE      CODE     ---       #279
      010077F9H   LINE      CODE     ---       #280
      01007803H   LINE      CODE     ---       #281
      01007806H   LINE      CODE     ---       #283
      01007825H   LINE      CODE     ---       #284
      0100783FH   LINE      CODE     ---       #285
      01007846H   LINE      CODE     ---       #288
      01007850H   LINE      CODE     ---       #289
      01007853H   LINE      CODE     ---       #290
      0100785DH   LINE      CODE     ---       #291
      01007860H   LINE      CODE     ---       #293
      0100787FH   LINE      CODE     ---       #294
      01007899H   LINE      CODE     ---       #295
      010078A0H   LINE      CODE     ---       #298
      010078AAH   LINE      CODE     ---       #299
      010078ADH   LINE      CODE     ---       #300
      010078B7H   LINE      CODE     ---       #301
      010078BAH   LINE      CODE     ---       #303
      010078D9H   LINE      CODE     ---       #304
LX51 LINKER/LOCATER V4.64.0.0                                                         04/17/2018  14:39:23  PAGE 47


      010078F3H   LINE      CODE     ---       #305
      010078FAH   LINE      CODE     ---       #306
      ---         BLOCKEND  ---      ---       LVL=0

      010078FBH   BLOCK     CODE     ---       LVL=0
      00000006H   SYMBOL    DATA     INT       n
      010078FBH   BLOCK     CODE     NEAR LAB  LVL=1
      0200005FH   SYMBOL    XDATA    BYTE      low
      02000060H   SYMBOL    XDATA    BYTE      high
      02000061H   SYMBOL    XDATA    INT       row
      ---         BLOCKEND  ---      ---       LVL=1
      010078FBH   LINE      CODE     ---       #311
      010078FBH   LINE      CODE     ---       #312
      01007902H   LINE      CODE     ---       #314
      01007908H   LINE      CODE     ---       #317
      01007912H   LINE      CODE     ---       #318
      01007915H   LINE      CODE     ---       #319
      0100791FH   LINE      CODE     ---       #320
      01007922H   LINE      CODE     ---       #322
      01007941H   LINE      CODE     ---       #323
      0100795BH   LINE      CODE     ---       #324
      01007962H   LINE      CODE     ---       #327
      0100796CH   LINE      CODE     ---       #328
      0100796FH   LINE      CODE     ---       #329
      01007979H   LINE      CODE     ---       #330
      0100797CH   LINE      CODE     ---       #332
      0100799BH   LINE      CODE     ---       #333
      010079B5H   LINE      CODE     ---       #334
      010079BCH   LINE      CODE     ---       #337
      010079C6H   LINE      CODE     ---       #338
      010079C9H   LINE      CODE     ---       #339
      010079D3H   LINE      CODE     ---       #340
      010079D6H   LINE      CODE     ---       #342
      010079F5H   LINE      CODE     ---       #343
      01007A0FH   LINE      CODE     ---       #345
      01007A16H   LINE      CODE     ---       #346
      ---         BLOCKEND  ---      ---       LVL=0

      01007B31H   BLOCK     CODE     ---       LVL=0
      00000006H   SYMBOL    DATA     INT       n
      01007B31H   BLOCK     CODE     NEAR LAB  LVL=1
      0200000AH   SYMBOL    XDATA    BYTE      low
      0200000BH   SYMBOL    XDATA    BYTE      high
      0200000CH   SYMBOL    XDATA    INT       row
      ---         BLOCKEND  ---      ---       LVL=1
      01007B31H   LINE      CODE     ---       #351
      01007B31H   LINE      CODE     ---       #354
      01007B39H   LINE      CODE     ---       #356
      01007B43H   LINE      CODE     ---       #357
      01007B46H   LINE      CODE     ---       #358
      01007B50H   LINE      CODE     ---       #359
      01007B53H   LINE      CODE     ---       #361
      01007B72H   LINE      CODE     ---       #362
      01007B8CH   LINE      CODE     ---       #363
      01007B93H   LINE      CODE     ---       #366
      01007B9DH   LINE      CODE     ---       #367
      01007BA0H   LINE      CODE     ---       #368
      01007BAAH   LINE      CODE     ---       #369
      01007BADH   LINE      CODE     ---       #371
      01007BCCH   LINE      CODE     ---       #372
      01007BE6H   LINE      CODE     ---       #373
      01007BEDH   LINE      CODE     ---       #376
      01007BF7H   LINE      CODE     ---       #377
      01007BFAH   LINE      CODE     ---       #378
      01007C04H   LINE      CODE     ---       #379
LX51 LINKER/LOCATER V4.64.0.0                                                         04/17/2018  14:39:23  PAGE 48


      01007C07H   LINE      CODE     ---       #381
      01007C26H   LINE      CODE     ---       #382
      01007C40H   LINE      CODE     ---       #383
      01007C47H   LINE      CODE     ---       #384
      ---         BLOCKEND  ---      ---       LVL=0

      01008562H   BLOCK     CODE     ---       LVL=0
      00000006H   SYMBOL    DATA     INT       n
      01008562H   BLOCK     CODE     NEAR LAB  LVL=1
      02000026H   SYMBOL    XDATA    BYTE      read
      02000027H   SYMBOL    XDATA    INT       row
      ---         BLOCKEND  ---      ---       LVL=1
      01008562H   LINE      CODE     ---       #389
      01008562H   LINE      CODE     ---       #391
      01008567H   LINE      CODE     ---       #392
      0100856DH   LINE      CODE     ---       #394
      01008577H   LINE      CODE     ---       #395
      01008590H   LINE      CODE     ---       #396
      01008595H   LINE      CODE     ---       #399
      0100859FH   LINE      CODE     ---       #400
      010085B8H   LINE      CODE     ---       #401
      010085BDH   LINE      CODE     ---       #404
      010085C7H   LINE      CODE     ---       #405
      010085E0H   LINE      CODE     ---       #406
      010085E5H   LINE      CODE     ---       #408
      ---         BLOCKEND  ---      ---       LVL=0

      010034DDH   BLOCK     CODE     ---       LVL=0
      0200000AH   SYMBOL    XDATA    INT       n
      010034E5H   BLOCK     CODE     NEAR LAB  LVL=1
      0200000CH   SYMBOL    XDATA    BYTE      i
      0200000DH   SYMBOL    XDATA    INT       var_h
      0200000FH   SYMBOL    XDATA    FLOAT     qd0
      02000013H   SYMBOL    XDATA    FLOAT     qd1
      02000017H   SYMBOL    XDATA    FLOAT     qd2
      0200001BH   SYMBOL    XDATA    FLOAT     qd3
      0200001FH   SYMBOL    XDATA    ---       aP
      0200002BH   SYMBOL    XDATA    ---       Napla
      0200003BH   SYMBOL    XDATA    ---       g
      0200004BH   SYMBOL    XDATA    ---       qL
      0200005BH   SYMBOL    XDATA    FLOAT     time
      ---         BLOCKEND  ---      ---       LVL=1
      010034DDH   LINE      CODE     ---       #413
      010034E5H   LINE      CODE     ---       #414
      010034E5H   LINE      CODE     ---       #415
      010034E8H   LINE      CODE     ---       #420
      010034F2H   LINE      CODE     ---       #422
      010034FDH   LINE      CODE     ---       #425
      0100351DH   LINE      CODE     ---       #426
      0100353DH   LINE      CODE     ---       #430
      01003579H   LINE      CODE     ---       #435
      0100359DH   LINE      CODE     ---       #436
      010035C2H   LINE      CODE     ---       #437
      010035E6H   LINE      CODE     ---       #438
      0100360BH   LINE      CODE     ---       #439
      0100362FH   LINE      CODE     ---       #440
      01003654H   LINE      CODE     ---       #442
      0100365FH   LINE      CODE     ---       #443
      01003683H   LINE      CODE     ---       #444
      010036B3H   LINE      CODE     ---       #445
      010036DEH   LINE      CODE     ---       #446
      01003702H   LINE      CODE     ---       #447
      01003732H   LINE      CODE     ---       #448
      0100375DH   LINE      CODE     ---       #449
      01003781H   LINE      CODE     ---       #450
LX51 LINKER/LOCATER V4.64.0.0                                                         04/17/2018  14:39:23  PAGE 49


      010037B1H   LINE      CODE     ---       #451
      010037DCH   LINE      CODE     ---       #454
      010037E5H   LINE      CODE     ---       #457
      010037F9H   LINE      CODE     ---       #458
      0100380DH   LINE      CODE     ---       #459
      01003821H   LINE      CODE     ---       #460
      01003835H   LINE      CODE     ---       #463
      01003964H   LINE      CODE     ---       #464
      01003B49H   LINE      CODE     ---       #465
      01003D41H   LINE      CODE     ---       #466
      01003E5DH   LINE      CODE     ---       #468
      01003F03H   LINE      CODE     ---       #469
      01003FA6H   LINE      CODE     ---       #470
      01004049H   LINE      CODE     ---       #471
      010040EAH   LINE      CODE     ---       #473
      01004130H   LINE      CODE     ---       #474
      01004176H   LINE      CODE     ---       #475
      010041BCH   LINE      CODE     ---       #476
      01004200H   LINE      CODE     ---       #477
      01004209H   LINE      CODE     ---       #480
      0100421DH   LINE      CODE     ---       #481
      01004231H   LINE      CODE     ---       #482
      01004245H   LINE      CODE     ---       #483
      01004259H   LINE      CODE     ---       #484
      01004259H   LINE      CODE     ---       #485
      01004259H   LINE      CODE     ---       #487
      01004259H   LINE      CODE     ---       #488
      ---         BLOCKEND  ---      ---       LVL=0

      01006AA0H   BLOCK     CODE     ---       LVL=0
      01006AA0H   BLOCK     CODE     NEAR LAB  LVL=1
      02001627H   SYMBOL    XDATA    BYTE      k_imu
      02000000H   SYMBOL    XDATA    WORD      tmp
      02000002H   SYMBOL    XDATA    WORD      i
      02000004H   SYMBOL    XDATA    WORD      j
      02000006H   SYMBOL    XDATA    INT       value
      ---         BLOCKEND  ---      ---       LVL=1
      01006AA0H   LINE      CODE     ---       #493
      01006AA0H   LINE      CODE     ---       #495
      01006AAFH   LINE      CODE     ---       #496
      01006AB3H   LINE      CODE     ---       #498
      01006AC8H   LINE      CODE     ---       #500
      01006AD9H   LINE      CODE     ---       #501
      01006AEDH   LINE      CODE     ---       #503
      01006B07H   LINE      CODE     ---       #504
      01006B3FH   LINE      CODE     ---       #505
      01006B8AH   LINE      CODE     ---       #506
      01006B9BH   LINE      CODE     ---       #508
      01006BB5H   LINE      CODE     ---       #509
      01006BEDH   LINE      CODE     ---       #510
      01006C38H   LINE      CODE     ---       #511
      01006C49H   LINE      CODE     ---       #513
      01006C63H   LINE      CODE     ---       #514
      01006C9BH   LINE      CODE     ---       #515
      01006CE6H   LINE      CODE     ---       #516
      01006CF7H   LINE      CODE     ---       #519
      01006D14H   LINE      CODE     ---       #520
      01006D72H   LINE      CODE     ---       #521
      01006D83H   LINE      CODE     ---       #523
      01006DA8H   LINE      CODE     ---       #524
      01006DD1H   LINE      CODE     ---       #525
      01006DDAH   LINE      CODE     ---       #526
      ---         BLOCKEND  ---      ---       LVL=0

      0100880CH   BLOCK     CODE     ---       LVL=0
LX51 LINKER/LOCATER V4.64.0.0                                                         04/17/2018  14:39:23  PAGE 50


      00000006H   SYMBOL    DATA     INT       n
      0100880CH   BLOCK     CODE     NEAR LAB  LVL=1
      0200000AH   SYMBOL    XDATA    BYTE      low
      0200000BH   SYMBOL    XDATA    BYTE      high
      0200000CH   SYMBOL    XDATA    INT       row
      ---         BLOCKEND  ---      ---       LVL=1
      0100880CH   LINE      CODE     ---       #531
      0100880CH   LINE      CODE     ---       #532
      0100880CH   LINE      CODE     ---       #533
      01008813H   LINE      CODE     ---       #534
      01008819H   LINE      CODE     ---       #537
      01008823H   LINE      CODE     ---       #538
      01008826H   LINE      CODE     ---       #539
      01008830H   LINE      CODE     ---       #540
      01008833H   LINE      CODE     ---       #542
      01008851H   LINE      CODE     ---       #543
      01008862H   LINE      CODE     ---       #544
      01008869H   LINE      CODE     ---       #545
      ---         BLOCKEND  ---      ---       LVL=0

      01008D33H   BLOCK     CODE     ---       LVL=0
      02000026H   SYMBOL    XDATA    BYTE      address
      02000027H   SYMBOL    XDATA    BYTE      dta
      01008D33H   LINE      CODE     ---       #550
      01008D3BH   LINE      CODE     ---       #552
      01008D3EH   LINE      CODE     ---       #553
      01008D41H   LINE      CODE     ---       #554
      01008D44H   LINE      CODE     ---       #555
      01008D4CH   LINE      CODE     ---       #556
      01008D53H   LINE      CODE     ---       #557
      01008D5BH   LINE      CODE     ---       #558
      01008D62H   LINE      CODE     ---       #559
      ---         BLOCKEND  ---      ---       LVL=0

      01008FD8H   BLOCK     CODE     ---       LVL=0
      00000007H   SYMBOL    DATA     BYTE      address
      01008FD8H   BLOCK     CODE     NEAR LAB  LVL=1
      00000007H   SYMBOL    DATA     BYTE      controlreg
      ---         BLOCKEND  ---      ---       LVL=1
      01008FD8H   LINE      CODE     ---       #564
      01008FD8H   LINE      CODE     ---       #567
      01008FDFH   LINE      CODE     ---       #568
      01008FE4H   LINE      CODE     ---       #569
      01008FEBH   LINE      CODE     ---       #570
      01008FEEH   LINE      CODE     ---       #571
      01008FEEH   LINE      CODE     ---       #572
      ---         BLOCKEND  ---      ---       LVL=0

      01008F40H   BLOCK     CODE     ---       LVL=0
      01008F40H   LINE      CODE     ---       #577
      01008F40H   LINE      CODE     ---       #578
      01008F4BH   LINE      CODE     ---       #579
      01008F4BH   LINE      CODE     ---       #580
      01008F52H   LINE      CODE     ---       #581
      01008F53H   LINE      CODE     ---       #582
      01008F53H   LINE      CODE     ---       #583
      01008F5AH   LINE      CODE     ---       #584
      01008F5AH   LINE      CODE     ---       #585
      01008F5AH   LINE      CODE     ---       #586
      01008F5AH   LINE      CODE     ---       #587
      01008F5AH   LINE      CODE     ---       #588
      ---         BLOCKEND  ---      ---       LVL=0

      ---         MODULE    ---      ---       CYFITTER_CFG
      01007475H   PUBLIC    CODE     ---       cyfitter_cfg
LX51 LINKER/LOCATER V4.64.0.0                                                         04/17/2018  14:39:23  PAGE 51


      000000CAH   SFRSYM    DATA     BYTE      SFRPRT5SEL
      000000DAH   SFRSYM    DATA     BYTE      SFRPRT6SEL
      000000D0H.6 SFRSYM    DATA     BIT       AC
      000000A8H.7 SFRSYM    DATA     BIT       EA
      000000A8H   SFRSYM    DATA     BYTE      IE
      00000085H   SFRSYM    DATA     BYTE      DPH1
      00000084H   SFRSYM    DATA     BYTE      DPL1
      000000D0H.7 SFRSYM    DATA     BIT       CY
      000000A0H   SFRSYM    DATA     BYTE      P2AX
      00000095H   SFRSYM    DATA     BYTE      DPX1
      00000081H   SFRSYM    DATA     BYTE      SP
      000000D0H.2 SFRSYM    DATA     BIT       OV
      00000080H   SFRSYM    DATA     BYTE      SFRPRT0DR
      00000090H   SFRSYM    DATA     BYTE      SFRPRT1DR
      000000F2H   SFRSYM    DATA     BYTE      SFRPRT12SEL
      00000098H   SFRSYM    DATA     BYTE      SFRPRT2DR
      000000B0H   SFRSYM    DATA     BYTE      SFRPRT3DR
      000000C0H   SFRSYM    DATA     BYTE      SFRPRT4DR
      000000FAH   SFRSYM    DATA     BYTE      SFRPRT15SEL
      000000C8H   SFRSYM    DATA     BYTE      SFRPRT5DR
      000000D8H   SFRSYM    DATA     BYTE      SFRPRT6DR
      00000089H   SFRSYM    DATA     BYTE      SFRPRT0PS
      00000091H   SFRSYM    DATA     BYTE      SFRPRT1PS
      00000099H   SFRSYM    DATA     BYTE      SFRPRT2PS
      000000B1H   SFRSYM    DATA     BYTE      SFRPRT3PS
      000000C1H   SFRSYM    DATA     BYTE      SFRPRT4PS
      000000C9H   SFRSYM    DATA     BYTE      SFRPRT5PS
      000000D9H   SFRSYM    DATA     BYTE      SFRPRT6PS
      000000EAH   SFRSYM    DATA     BYTE      MXAX
      000000F0H   SFRSYM    DATA     BYTE      B
      000000E0H   SFRSYM    DATA     BYTE      ACC
      000000D0H   SFRSYM    DATA     BIT       P
      000000D0H.3 SFRSYM    DATA     BIT       RS0
      000000D0H.4 SFRSYM    DATA     BIT       RS1
      00000083H   SFRSYM    DATA     BYTE      DPH
      000000E8H   SFRSYM    DATA     BYTE      SFRPRT12DR
      00000082H   SFRSYM    DATA     BYTE      DPL
      000000F8H   SFRSYM    DATA     BYTE      SFRPRT15DR
      00000086H   SFRSYM    DATA     BYTE      DPS
      000000E9H   SFRSYM    DATA     BYTE      SFRPRT12PS
      00000093H   SFRSYM    DATA     BYTE      DPX
      000000F9H   SFRSYM    DATA     BYTE      SFRPRT15PS
      000000D0H.5 SFRSYM    DATA     BIT       F0
      000000D0H.1 SFRSYM    DATA     BIT       F1
      0000008AH   SFRSYM    DATA     BYTE      SFRPRT0SEL
      000000D0H   SFRSYM    DATA     BYTE      PSW
      000000A2H   SFRSYM    DATA     BYTE      SFRPRT1SEL
      0000009AH   SFRSYM    DATA     BYTE      SFRPRT2SEL
      000000B2H   SFRSYM    DATA     BYTE      SFRPRT3SEL
      000000C2H   SFRSYM    DATA     BYTE      SFRPRT4SEL
      010076BDH   SYMBOL    CODE     ---       ClockSetup
      010092C9H   SYMBOL    CODE     ---       _CyClockStartupError
      01008F23H   SYMBOL    CODE     ---       AnalogSetDefault
      010080DAH   SYMBOL    CODE     ---       cfg_dma_init

      010092C9H   BLOCK     CODE     ---       LVL=0
      02000000H   SYMBOL    XDATA    BYTE      errorCode
      010092C9H   LINE      CODE     ---       #77
      010092C9H   LINE      CODE     ---       #78
      010092C9H   LINE      CODE     ---       #80
      010092C9H   LINE      CODE     ---       #98
      ---         BLOCKEND  ---      ---       LVL=0

      010080DAH   BLOCK     CODE     ---       LVL=0
      010080DAH   BLOCK     CODE     NEAR LAB  LVL=1
LX51 LINKER/LOCATER V4.64.0.0                                                         04/17/2018  14:39:23  PAGE 52


      010092CFH   SYMBOL    CONST    ---       BS_DSISWITCH_1_5_VAL
      0100934FH   SYMBOL    CONST    ---       BS_DSI3_5_HV_ROUTING_VAL
      010093CFH   SYMBOL    CONST    ---       CH1_ADDR_DATA0
      010093D7H   SYMBOL    CONST    ---       CH2_ADDR_DATA0
      010093DFH   SYMBOL    CONST    ---       CH4_ADDR_DATA0
      010093E7H   SYMBOL    CONST    ---       CH5_ADDR_DATA0
      010093EFH   SYMBOL    CONST    ---       CH6_ADDR_DATA0
      010093F7H   SYMBOL    CONST    ---       DMA_TD_START_CMD
      02001620H   SYMBOL    XDATA    DWORD     DMA_ZERO_VAL
      010093FCH   SYMBOL    CONST    ---       CFG_TD_LIST0
      ---         BLOCKEND  ---      ---       LVL=1
      010080DAH   LINE      CODE     ---       #324
      010080DAH   LINE      CODE     ---       #325
      010080DAH   LINE      CODE     ---       #468
      010080E5H   LINE      CODE     ---       #469
      010080EBH   LINE      CODE     ---       #470
      010080F1H   LINE      CODE     ---       #471
      010080F6H   LINE      CODE     ---       #472
      01008102H   LINE      CODE     ---       #473
      01008108H   LINE      CODE     ---       #474
      0100810CH   LINE      CODE     ---       #475
      0100812EH   LINE      CODE     ---       #476
      0100813BH   LINE      CODE     ---       #477
      01008148H   LINE      CODE     ---       #478
      01008154H   LINE      CODE     ---       #479
      0100815AH   LINE      CODE     ---       #480
      0100815FH   LINE      CODE     ---       #481
      01008165H   LINE      CODE     ---       #482
      0100816BH   LINE      CODE     ---       #483
      01008171H   LINE      CODE     ---       #485
      01008171H   LINE      CODE     ---       #486
      01008177H   LINE      CODE     ---       #487
      01008177H   LINE      CODE     ---       #490
      0100817FH   LINE      CODE     ---       #491
      01008187H   LINE      CODE     ---       #492
      0100818FH   LINE      CODE     ---       #493
      01008197H   LINE      CODE     ---       #494
      0100819FH   LINE      CODE     ---       #495
      010081A7H   LINE      CODE     ---       #498
      ---         BLOCKEND  ---      ---       LVL=0

      010076BDH   BLOCK     CODE     ---       LVL=0
      010076BDH   BLOCK     CODE     NEAR LAB  LVL=1
      02000000H   SYMBOL    XDATA    DWORD     timeout
      02000004H   SYMBOL    XDATA    BYTE      pllLock
      ---         BLOCKEND  ---      ---       LVL=1
      010076BDH   LINE      CODE     ---       #516
      010076BDH   LINE      CODE     ---       #517
      010076BDH   LINE      CODE     ---       #523
      010076CAH   LINE      CODE     ---       #524
      010076D0H   LINE      CODE     ---       #525
      010076DDH   LINE      CODE     ---       #526
      010076E3H   LINE      CODE     ---       #527
      010076F0H   LINE      CODE     ---       #528
      010076F6H   LINE      CODE     ---       #531
      010076FCH   LINE      CODE     ---       #534
      01007702H   LINE      CODE     ---       #535
      01007710H   LINE      CODE     ---       #538
      0100771DH   LINE      CODE     ---       #539
      0100772AH   LINE      CODE     ---       #541
      0100772FH   LINE      CODE     ---       #542
      01007754H   LINE      CODE     ---       #543
      01007754H   LINE      CODE     ---       #544
      01007765H   LINE      CODE     ---       #545
      0100776FH   LINE      CODE     ---       #546
LX51 LINKER/LOCATER V4.64.0.0                                                         04/17/2018  14:39:23  PAGE 53


      01007797H   LINE      CODE     ---       #548
      010077A5H   LINE      CODE     ---       #549
      010077A5H   LINE      CODE     ---       #550
      010077AAH   LINE      CODE     ---       #551
      010077AAH   LINE      CODE     ---       #554
      010077B7H   LINE      CODE     ---       #555
      010077BDH   LINE      CODE     ---       #556
      010077C2H   LINE      CODE     ---       #557
      010077C8H   LINE      CODE     ---       #558
      010077CDH   LINE      CODE     ---       #561
      010077D1H   LINE      CODE     ---       #562
      010077D7H   LINE      CODE     ---       #564
      010077DEH   LINE      CODE     ---       #565
      ---         BLOCKEND  ---      ---       LVL=0

      01008F23H   BLOCK     CODE     ---       LVL=0
      01008F23H   BLOCK     CODE     NEAR LAB  LVL=1
      00000007H   SYMBOL    DATA     BYTE      bg_xover_inl_trim
      ---         BLOCKEND  ---      ---       LVL=1
      01008F23H   LINE      CODE     ---       #587
      01008F23H   LINE      CODE     ---       #588
      01008F23H   LINE      CODE     ---       #589
      01008F2CH   LINE      CODE     ---       #590
      01008F33H   LINE      CODE     ---       #591
      01008F39H   LINE      CODE     ---       #592
      01008F3FH   LINE      CODE     ---       #593
      ---         BLOCKEND  ---      ---       LVL=0
      00000007H   SYMBOL    DATA     BYTE      enabled
      00000006H   SYMBOL    DATA     BYTE      regValue

      01007475H   BLOCK     CODE     ---       LVL=0
      01007475H   LINE      CODE     ---       #647
      01007475H   LINE      CODE     ---       #648
      01007475H   LINE      CODE     ---       #650
      0100748BH   LINE      CODE     ---       #652
      0100748BH   LINE      CODE     ---       #653
      0100748EH   LINE      CODE     ---       #656
      010074A4H   LINE      CODE     ---       #657
      010074BAH   LINE      CODE     ---       #660
      010074C1H   LINE      CODE     ---       #661
      010074C8H   LINE      CODE     ---       #662
      010074C8H   LINE      CODE     ---       #666
      010074E2H   LINE      CODE     ---       #667
      010074FCH   LINE      CODE     ---       #668
      01007516H   LINE      CODE     ---       #669
      01007530H   LINE      CODE     ---       #670
      0100754AH   LINE      CODE     ---       #671
      01007550H   LINE      CODE     ---       #673
      01007557H   LINE      CODE     ---       #674
      01007560H   LINE      CODE     ---       #675
      01007560H   LINE      CODE     ---       #676
      01007566H   LINE      CODE     ---       #677
      01007566H   LINE      CODE     ---       #681
      0100756CH   LINE      CODE     ---       #683
      0100756FH   LINE      CODE     ---       #686
      01007572H   LINE      CODE     ---       #689
      01007593H   LINE      CODE     ---       #690
      0100759AH   LINE      CODE     ---       #691
      ---         BLOCKEND  ---      ---       LVL=0

      ---         MODULE    ---      ---       UART_RS485
      0200160BH   PUBLIC    XDATA    BYTE      UART_RS485_errorStatus
      0200160AH   PUBLIC    XDATA    BYTE      UART_RS485_rxBufferOverflow
      02001609H   PUBLIC    XDATA    BYTE      UART_RS485_initVar
      02001608H   PUBLIC    XDATA    BYTE      UART_RS485_rxBufferWrite
LX51 LINKER/LOCATER V4.64.0.0                                                         04/17/2018  14:39:23  PAGE 54


      020015E8H   PUBLIC    XDATA    ---       UART_RS485_rxBuffer
      020015E7H   PUBLIC    XDATA    BYTE      UART_RS485_rxBufferRead
      020015E6H   PUBLIC    XDATA    BYTE      UART_RS485_rxBufferLoopDetect
      010090F5H   PUBLIC    CODE     ---       UART_RS485_ClearTxBuffer
      01008BC0H   PUBLIC    CODE     ---       _UART_RS485_PutString
      010091BFH   PUBLIC    CODE     ---       _UART_RS485_PutChar
      01009274H   PUBLIC    CODE     ---       UART_RS485_ReadTxStatus
      01008D63H   PUBLIC    CODE     ---       UART_RS485_ClearRxBuffer
      01008A13H   PUBLIC    CODE     ---       UART_RS485_GetRxBufferSize
      0100886AH   PUBLIC    CODE     ---       UART_RS485_GetChar
      01009082H   PUBLIC    CODE     ---       UART_RS485_ReadRxStatus
      01008EA5H   PUBLIC    CODE     ---       UART_RS485_Stop
      01008E85H   PUBLIC    CODE     ---       UART_RS485_Enable
      01008CA1H   PUBLIC    CODE     ---       UART_RS485_Init
      01009096H   PUBLIC    CODE     ---       UART_RS485_Start
      000000CAH   SFRSYM    DATA     BYTE      SFRPRT5SEL
      000000DAH   SFRSYM    DATA     BYTE      SFRPRT6SEL
      000000D0H.6 SFRSYM    DATA     BIT       AC
      000000A8H.7 SFRSYM    DATA     BIT       EA
      000000A8H   SFRSYM    DATA     BYTE      IE
      00000085H   SFRSYM    DATA     BYTE      DPH1
      00000084H   SFRSYM    DATA     BYTE      DPL1
      000000D0H.7 SFRSYM    DATA     BIT       CY
      000000A0H   SFRSYM    DATA     BYTE      P2AX
      00000095H   SFRSYM    DATA     BYTE      DPX1
      00000081H   SFRSYM    DATA     BYTE      SP
      000000D0H.2 SFRSYM    DATA     BIT       OV
      00000080H   SFRSYM    DATA     BYTE      SFRPRT0DR
      00000090H   SFRSYM    DATA     BYTE      SFRPRT1DR
      000000F2H   SFRSYM    DATA     BYTE      SFRPRT12SEL
      00000098H   SFRSYM    DATA     BYTE      SFRPRT2DR
      000000B0H   SFRSYM    DATA     BYTE      SFRPRT3DR
      000000C0H   SFRSYM    DATA     BYTE      SFRPRT4DR
      000000FAH   SFRSYM    DATA     BYTE      SFRPRT15SEL
      000000C8H   SFRSYM    DATA     BYTE      SFRPRT5DR
      000000D8H   SFRSYM    DATA     BYTE      SFRPRT6DR
      00000089H   SFRSYM    DATA     BYTE      SFRPRT0PS
      00000091H   SFRSYM    DATA     BYTE      SFRPRT1PS
      00000099H   SFRSYM    DATA     BYTE      SFRPRT2PS
      000000B1H   SFRSYM    DATA     BYTE      SFRPRT3PS
      000000C1H   SFRSYM    DATA     BYTE      SFRPRT4PS
      000000C9H   SFRSYM    DATA     BYTE      SFRPRT5PS
      000000D9H   SFRSYM    DATA     BYTE      SFRPRT6PS
      000000EAH   SFRSYM    DATA     BYTE      MXAX
      000000F0H   SFRSYM    DATA     BYTE      B
      000000E0H   SFRSYM    DATA     BYTE      ACC
      000000D0H   SFRSYM    DATA     BIT       P
      000000D0H.3 SFRSYM    DATA     BIT       RS0
      000000D0H.4 SFRSYM    DATA     BIT       RS1
      00000083H   SFRSYM    DATA     BYTE      DPH
      000000E8H   SFRSYM    DATA     BYTE      SFRPRT12DR
      00000082H   SFRSYM    DATA     BYTE      DPL
      000000F8H   SFRSYM    DATA     BYTE      SFRPRT15DR
      00000086H   SFRSYM    DATA     BYTE      DPS
      000000E9H   SFRSYM    DATA     BYTE      SFRPRT12PS
      00000093H   SFRSYM    DATA     BYTE      DPX
      000000F9H   SFRSYM    DATA     BYTE      SFRPRT15PS
      000000D0H.5 SFRSYM    DATA     BIT       F0
      000000D0H.1 SFRSYM    DATA     BIT       F1
      0000008AH   SFRSYM    DATA     BYTE      SFRPRT0SEL
      000000D0H   SFRSYM    DATA     BYTE      PSW
      000000A2H   SFRSYM    DATA     BYTE      SFRPRT1SEL
      0000009AH   SFRSYM    DATA     BYTE      SFRPRT2SEL
      000000B2H   SFRSYM    DATA     BYTE      SFRPRT3SEL
      000000C2H   SFRSYM    DATA     BYTE      SFRPRT4SEL
LX51 LINKER/LOCATER V4.64.0.0                                                         04/17/2018  14:39:23  PAGE 55



      01009096H   BLOCK     CODE     ---       LVL=0
      01009096H   LINE      CODE     ---       #76
      01009096H   LINE      CODE     ---       #77
      01009096H   LINE      CODE     ---       #79
      0100909CH   LINE      CODE     ---       #80
      0100909CH   LINE      CODE     ---       #81
      0100909FH   LINE      CODE     ---       #82
      010090A5H   LINE      CODE     ---       #83
      010090A5H   LINE      CODE     ---       #85
      010090A8H   LINE      CODE     ---       #86
      ---         BLOCKEND  ---      ---       LVL=0

      01008CA1H   BLOCK     CODE     ---       LVL=0
      01008CA1H   LINE      CODE     ---       #106
      01008CA1H   LINE      CODE     ---       #107
      01008CA1H   LINE      CODE     ---       #112
      01008CAAH   LINE      CODE     ---       #113
      01008CB1H   LINE      CODE     ---       #114
      01008CB6H   LINE      CODE     ---       #124
      01008CBCH   LINE      CODE     ---       #126
      01008CC0H   LINE      CODE     ---       #138
      01008CC6H   LINE      CODE     ---       #139
      01008CCCH   LINE      CODE     ---       #150
      01008CD1H   LINE      CODE     ---       #160
      ---         BLOCKEND  ---      ---       LVL=0

      01008E85H   BLOCK     CODE     ---       LVL=0
      01008E85H   BLOCK     CODE     NEAR LAB  LVL=1
      00000007H   SYMBOL    DATA     BYTE      enableInterrupts
      ---         BLOCKEND  ---      ---       LVL=1
      01008E85H   LINE      CODE     ---       #183
      01008E85H   LINE      CODE     ---       #184
      01008E85H   LINE      CODE     ---       #186
      01008E88H   LINE      CODE     ---       #190
      01008E8FH   LINE      CODE     ---       #193
      01008E94H   LINE      CODE     ---       #196
      01008E9AH   LINE      CODE     ---       #211
      01008EA1H   LINE      CODE     ---       #222
      01008EA4H   LINE      CODE     ---       #223
      ---         BLOCKEND  ---      ---       LVL=0

      01008EA5H   BLOCK     CODE     ---       LVL=0
      01008EA5H   BLOCK     CODE     NEAR LAB  LVL=1
      00000007H   SYMBOL    DATA     BYTE      enableInterrupts
      ---         BLOCKEND  ---      ---       LVL=1
      01008EA5H   LINE      CODE     ---       #240
      01008EA5H   LINE      CODE     ---       #241
      01008EA5H   LINE      CODE     ---       #243
      01008EA8H   LINE      CODE     ---       #247
      01008EAFH   LINE      CODE     ---       #262
      01008EB4H   LINE      CODE     ---       #265
      01008EBAH   LINE      CODE     ---       #270
      01008EC1H   LINE      CODE     ---       #277
      01008EC4H   LINE      CODE     ---       #278
      ---         BLOCKEND  ---      ---       LVL=0
      00000007H   SYMBOL    DATA     BYTE      intSrc
      00000007H   SYMBOL    DATA     BYTE      rxData
      00000006H   SYMBOL    DATA     BYTE      locRxBufferRead
      00000005H   SYMBOL    DATA     BYTE      locRxBufferWrite

      01009082H   BLOCK     CODE     ---       LVL=0
      01009082H   BLOCK     CODE     NEAR LAB  LVL=1
      00000007H   SYMBOL    DATA     BYTE      status
      ---         BLOCKEND  ---      ---       LVL=1
LX51 LINKER/LOCATER V4.64.0.0                                                         04/17/2018  14:39:23  PAGE 56


      01009082H   LINE      CODE     ---       #485
      01009082H   LINE      CODE     ---       #486
      01009082H   LINE      CODE     ---       #489
      01009089H   LINE      CODE     ---       #492
      0100908FH   LINE      CODE     ---       #493
      0100908FH   LINE      CODE     ---       #494
      01009093H   LINE      CODE     ---       #495
      01009095H   LINE      CODE     ---       #496
      01009095H   LINE      CODE     ---       #499
      01009095H   LINE      CODE     ---       #500
      ---         BLOCKEND  ---      ---       LVL=0

      0100886AH   BLOCK     CODE     ---       LVL=0
      0100886AH   BLOCK     CODE     NEAR LAB  LVL=1
      00000007H   SYMBOL    DATA     BYTE      rxData
      00000006H   SYMBOL    DATA     BYTE      rxStatus
      00000006H   SYMBOL    DATA     BYTE      locRxBufferRead
      00000005H   SYMBOL    DATA     BYTE      locRxBufferWrite
      ---         BLOCKEND  ---      ---       LVL=1
      0100886AH   LINE      CODE     ---       #532
      0100886AH   LINE      CODE     ---       #533
      0100886AH   LINE      CODE     ---       #534
      0100886CH   LINE      CODE     ---       #542
      01008872H   LINE      CODE     ---       #544
      01008877H   LINE      CODE     ---       #545
      0100887CH   LINE      CODE     ---       #547
      01008886H   LINE      CODE     ---       #548
      01008886H   LINE      CODE     ---       #549
      01008892H   LINE      CODE     ---       #550
      01008893H   LINE      CODE     ---       #551
      01008899H   LINE      CODE     ---       #552
      01008899H   LINE      CODE     ---       #553
      0100889BH   LINE      CODE     ---       #554
      0100889BH   LINE      CODE     ---       #556
      010088A0H   LINE      CODE     ---       #558
      010088A6H   LINE      CODE     ---       #559
      010088A6H   LINE      CODE     ---       #560
      010088A8H   LINE      CODE     ---       #575
      010088A8H   LINE      CODE     ---       #577
      010088AAH   LINE      CODE     ---       #579
      010088AFH   LINE      CODE     ---       #580
      010088B2H   LINE      CODE     ---       #581
      010088B2H   LINE      CODE     ---       #582
      010088B7H   LINE      CODE     ---       #585
      010088BCH   LINE      CODE     ---       #586
      010088BCH   LINE      CODE     ---       #587
      010088BEH   LINE      CODE     ---       #588
      010088BEH   LINE      CODE     ---       #589
      010088BEH   LINE      CODE     ---       #590
      010088BEH   LINE      CODE     ---       #592
      010088C4H   LINE      CODE     ---       #611
      010088C4H   LINE      CODE     ---       #612
      ---         BLOCKEND  ---      ---       LVL=0
      00000002H   SYMBOL    DATA     WORD      locErrorStatus

      01008A13H   BLOCK     CODE     ---       LVL=0
      01008A13H   BLOCK     CODE     NEAR LAB  LVL=1
      00000007H   SYMBOL    DATA     BYTE      size
      ---         BLOCKEND  ---      ---       LVL=1
      01008A13H   LINE      CODE     ---       #683
      01008A13H   LINE      CODE     ---       #685
      01008A13H   LINE      CODE     ---       #691
      01008A19H   LINE      CODE     ---       #693
      01008A25H   LINE      CODE     ---       #694
      01008A25H   LINE      CODE     ---       #695
LX51 LINKER/LOCATER V4.64.0.0                                                         04/17/2018  14:39:23  PAGE 57


      01008A2BH   LINE      CODE     ---       #696
      01008A2BH   LINE      CODE     ---       #697
      01008A2DH   LINE      CODE     ---       #698
      01008A2FH   LINE      CODE     ---       #700
      01008A2FH   LINE      CODE     ---       #701
      01008A31H   LINE      CODE     ---       #702
      01008A31H   LINE      CODE     ---       #703
      01008A33H   LINE      CODE     ---       #704
      01008A40H   LINE      CODE     ---       #705
      01008A40H   LINE      CODE     ---       #706
      01008A49H   LINE      CODE     ---       #707
      01008A4BH   LINE      CODE     ---       #709
      01008A4BH   LINE      CODE     ---       #710
      01008A5BH   LINE      CODE     ---       #711
      01008A5BH   LINE      CODE     ---       #713
      01008A61H   LINE      CODE     ---       #722
      01008A61H   LINE      CODE     ---       #723
      ---         BLOCKEND  ---      ---       LVL=0

      01008D63H   BLOCK     CODE     ---       LVL=0
      01008D63H   BLOCK     CODE     NEAR LAB  LVL=1
      00000007H   SYMBOL    DATA     BYTE      enableInterrupts
      ---         BLOCKEND  ---      ---       LVL=1
      01008D63H   LINE      CODE     ---       #757
      01008D63H   LINE      CODE     ---       #758
      01008D63H   LINE      CODE     ---       #762
      01008D66H   LINE      CODE     ---       #763
      01008D6DH   LINE      CODE     ---       #764
      01008D71H   LINE      CODE     ---       #765
      01008D74H   LINE      CODE     ---       #770
      01008D7AH   LINE      CODE     ---       #772
      01008D7FH   LINE      CODE     ---       #773
      01008D83H   LINE      CODE     ---       #774
      01008D87H   LINE      CODE     ---       #775
      01008D8BH   LINE      CODE     ---       #777
      01008D91H   LINE      CODE     ---       #781
      ---         BLOCKEND  ---      ---       LVL=0
      00000007H   SYMBOL    DATA     BYTE      address
      00000007H   SYMBOL    DATA     BYTE      address
      00000007H   SYMBOL    DATA     BYTE      intSrc
      00000007H   SYMBOL    DATA     BYTE      txDataByte

      01009274H   BLOCK     CODE     ---       LVL=0
      01009274H   LINE      CODE     ---       #1003
      01009274H   LINE      CODE     ---       #1004
      01009274H   LINE      CODE     ---       #1005
      01009279H   LINE      CODE     ---       #1006
      ---         BLOCKEND  ---      ---       LVL=0

      010091BFH   BLOCK     CODE     ---       LVL=0
      00000007H   SYMBOL    DATA     BYTE      txDataByte
      010091BFH   LINE      CODE     ---       #1041
      010091BFH   LINE      CODE     ---       #1042
      010091BFH   LINE      CODE     ---       #1107
      010091C6H   LINE      CODE     ---       #1108
      010091C6H   LINE      CODE     ---       #1110
      010091C6H   LINE      CODE     ---       #1113
      010091CBH   LINE      CODE     ---       #1116
      ---         BLOCKEND  ---      ---       LVL=0

      01008BC0H   BLOCK     CODE     ---       LVL=0
      02000000H   SYMBOL    XDATA    ---       string
      01008BCBH   BLOCK     CODE     NEAR LAB  LVL=1
      00000004H   SYMBOL    DATA     WORD      bufIndex
      ---         BLOCKEND  ---      ---       LVL=1
LX51 LINKER/LOCATER V4.64.0.0                                                         04/17/2018  14:39:23  PAGE 58


      01008BC0H   LINE      CODE     ---       #1145
      01008BCBH   LINE      CODE     ---       #1146
      01008BCBH   LINE      CODE     ---       #1147
      01008BCEH   LINE      CODE     ---       #1150
      01008BD4H   LINE      CODE     ---       #1151
      01008BD4H   LINE      CODE     ---       #1153
      01008BE9H   LINE      CODE     ---       #1154
      01008BE9H   LINE      CODE     ---       #1155
      01008BECH   LINE      CODE     ---       #1156
      01008BF1H   LINE      CODE     ---       #1157
      01008BF3H   LINE      CODE     ---       #1158
      01008BF3H   LINE      CODE     ---       #1159
      ---         BLOCKEND  ---      ---       LVL=0
      00000005H   SYMBOL    DATA     BYTE      byteCount
      00000006H   SYMBOL    DATA     BYTE      bufIndex
      00000007H   SYMBOL    DATA     BYTE      txDataByte
      00000007H   SYMBOL    DATA     BYTE      size

      010090F5H   BLOCK     CODE     ---       LVL=0
      010090F5H   BLOCK     CODE     NEAR LAB  LVL=1
      00000007H   SYMBOL    DATA     BYTE      enableInterrupts
      ---         BLOCKEND  ---      ---       LVL=1
      010090F5H   LINE      CODE     ---       #1354
      010090F5H   LINE      CODE     ---       #1355
      010090F5H   LINE      CODE     ---       #1358
      010090F8H   LINE      CODE     ---       #1360
      010090FFH   LINE      CODE     ---       #1361
      01009103H   LINE      CODE     ---       #1362
      01009106H   LINE      CODE     ---       #1376
      ---         BLOCKEND  ---      ---       LVL=0
      00000007H   SYMBOL    DATA     BYTE      retMode
      020015E5H   SYMBOL    XDATA    BYTE      txPeriod

      ---         MODULE    ---      ---       ISR_RS485_RX
      01009266H   PUBLIC    CODE     ---       ISR_RS485_RX_Disable
      0100925FH   PUBLIC    CODE     ---       ISR_RS485_RX_Enable
      0100920BH   PUBLIC    CODE     ---       _ISR_RS485_RX_SetPriority
      01009195H   PUBLIC    CODE     ---       _ISR_RS485_RX_SetVector
      010092CCH   PUBLIC    CODE     ---       ISR_RS485_RX_Interrupt
      01008EE5H   PUBLIC    CODE     ---       _ISR_RS485_RX_StartEx
      000000CAH   SFRSYM    DATA     BYTE      SFRPRT5SEL
      000000DAH   SFRSYM    DATA     BYTE      SFRPRT6SEL
      000000D0H.6 SFRSYM    DATA     BIT       AC
      000000A8H.7 SFRSYM    DATA     BIT       EA
      000000A8H   SFRSYM    DATA     BYTE      IE
      00000085H   SFRSYM    DATA     BYTE      DPH1
      00000084H   SFRSYM    DATA     BYTE      DPL1
      000000D0H.7 SFRSYM    DATA     BIT       CY
      000000A0H   SFRSYM    DATA     BYTE      P2AX
      00000095H   SFRSYM    DATA     BYTE      DPX1
      00000081H   SFRSYM    DATA     BYTE      SP
      000000D0H.2 SFRSYM    DATA     BIT       OV
      00000080H   SFRSYM    DATA     BYTE      SFRPRT0DR
      00000090H   SFRSYM    DATA     BYTE      SFRPRT1DR
      000000F2H   SFRSYM    DATA     BYTE      SFRPRT12SEL
      00000098H   SFRSYM    DATA     BYTE      SFRPRT2DR
      000000B0H   SFRSYM    DATA     BYTE      SFRPRT3DR
      000000C0H   SFRSYM    DATA     BYTE      SFRPRT4DR
      000000FAH   SFRSYM    DATA     BYTE      SFRPRT15SEL
      000000C8H   SFRSYM    DATA     BYTE      SFRPRT5DR
      000000D8H   SFRSYM    DATA     BYTE      SFRPRT6DR
      00000089H   SFRSYM    DATA     BYTE      SFRPRT0PS
      00000091H   SFRSYM    DATA     BYTE      SFRPRT1PS
      00000099H   SFRSYM    DATA     BYTE      SFRPRT2PS
      000000B1H   SFRSYM    DATA     BYTE      SFRPRT3PS
LX51 LINKER/LOCATER V4.64.0.0                                                         04/17/2018  14:39:23  PAGE 59


      000000C1H   SFRSYM    DATA     BYTE      SFRPRT4PS
      000000C9H   SFRSYM    DATA     BYTE      SFRPRT5PS
      000000D9H   SFRSYM    DATA     BYTE      SFRPRT6PS
      000000EAH   SFRSYM    DATA     BYTE      MXAX
      000000F0H   SFRSYM    DATA     BYTE      B
      000000E0H   SFRSYM    DATA     BYTE      ACC
      000000D0H   SFRSYM    DATA     BIT       P
      000000D0H.3 SFRSYM    DATA     BIT       RS0
      000000D0H.4 SFRSYM    DATA     BIT       RS1
      00000083H   SFRSYM    DATA     BYTE      DPH
      000000E8H   SFRSYM    DATA     BYTE      SFRPRT12DR
      00000082H   SFRSYM    DATA     BYTE      DPL
      000000F8H   SFRSYM    DATA     BYTE      SFRPRT15DR
      00000086H   SFRSYM    DATA     BYTE      DPS
      000000E9H   SFRSYM    DATA     BYTE      SFRPRT12PS
      00000093H   SFRSYM    DATA     BYTE      DPX
      000000F9H   SFRSYM    DATA     BYTE      SFRPRT15PS
      000000D0H.5 SFRSYM    DATA     BIT       F0
      000000D0H.1 SFRSYM    DATA     BIT       F1
      0000008AH   SFRSYM    DATA     BYTE      SFRPRT0SEL
      000000D0H   SFRSYM    DATA     BYTE      PSW
      000000A2H   SFRSYM    DATA     BYTE      SFRPRT1SEL
      0000009AH   SFRSYM    DATA     BYTE      SFRPRT2SEL
      000000B2H   SFRSYM    DATA     BYTE      SFRPRT3SEL
      000000C2H   SFRSYM    DATA     BYTE      SFRPRT4SEL

      01008EE5H   BLOCK     CODE     ---       LVL=0
      02000000H   SYMBOL    XDATA    ---       address
      01008EE5H   LINE      CODE     ---       #94
      01008EEDH   LINE      CODE     ---       #95
      01008EEDH   LINE      CODE     ---       #97
      01008EF0H   LINE      CODE     ---       #100
      01008EFBH   LINE      CODE     ---       #103
      01008F00H   LINE      CODE     ---       #106
      01008F03H   LINE      CODE     ---       #107
      ---         BLOCKEND  ---      ---       LVL=0

      010092CCH   BLOCK     CODE     ---       LVL=0
      010092CCH   LINE      CODE     ---       #151
      010092CCH   LINE      CODE     ---       #168
      ---         BLOCKEND  ---      ---       LVL=0

      01009195H   BLOCK     CODE     ---       LVL=0
      00000006H   SYMBOL    DATA     ---       address
      01009195H   LINE      CODE     ---       #198
      01009195H   LINE      CODE     ---       #199
      01009195H   LINE      CODE     ---       #200
      010091A2H   LINE      CODE     ---       #201
      ---         BLOCKEND  ---      ---       LVL=0

      0100920BH   BLOCK     CODE     ---       LVL=0
      00000007H   SYMBOL    DATA     BYTE      priority
      0100920BH   LINE      CODE     ---       #248
      0100920BH   LINE      CODE     ---       #249
      0100920BH   LINE      CODE     ---       #250
      01009214H   LINE      CODE     ---       #251
      ---         BLOCKEND  ---      ---       LVL=0
      00000007H   SYMBOL    DATA     BYTE      priority

      0100925FH   BLOCK     CODE     ---       LVL=0
      0100925FH   LINE      CODE     ---       #297
      0100925FH   LINE      CODE     ---       #298
      0100925FH   LINE      CODE     ---       #300
      01009265H   LINE      CODE     ---       #301
      ---         BLOCKEND  ---      ---       LVL=0
LX51 LINKER/LOCATER V4.64.0.0                                                         04/17/2018  14:39:23  PAGE 60



      01009266H   BLOCK     CODE     ---       LVL=0
      01009266H   LINE      CODE     ---       #339
      01009266H   LINE      CODE     ---       #340
      01009266H   LINE      CODE     ---       #342
      0100926CH   LINE      CODE     ---       #343
      ---         BLOCKEND  ---      ---       LVL=0

      ---         MODULE    ---      ---       PACER_TIMER
      02001628H   PUBLIC    XDATA    BYTE      PACER_TIMER_initVar
      010091B1H   PUBLIC    CODE     ---       _PACER_TIMER_WriteCounter
      010091A3H   PUBLIC    CODE     ---       _PACER_TIMER_WritePeriod
      0100927AH   PUBLIC    CODE     ---       _PACER_TIMER_SetInterruptMode
      010090A9H   PUBLIC    CODE     ---       PACER_TIMER_Start
      01008FEFH   PUBLIC    CODE     ---       PACER_TIMER_Enable
      01008B84H   PUBLIC    CODE     ---       PACER_TIMER_Init
      000000CAH   SFRSYM    DATA     BYTE      SFRPRT5SEL
      000000DAH   SFRSYM    DATA     BYTE      SFRPRT6SEL
      000000D0H.6 SFRSYM    DATA     BIT       AC
      000000A8H.7 SFRSYM    DATA     BIT       EA
      000000A8H   SFRSYM    DATA     BYTE      IE
      00000085H   SFRSYM    DATA     BYTE      DPH1
      00000084H   SFRSYM    DATA     BYTE      DPL1
      000000D0H.7 SFRSYM    DATA     BIT       CY
      000000A0H   SFRSYM    DATA     BYTE      P2AX
      00000095H   SFRSYM    DATA     BYTE      DPX1
      00000081H   SFRSYM    DATA     BYTE      SP
      000000D0H.2 SFRSYM    DATA     BIT       OV
      00000080H   SFRSYM    DATA     BYTE      SFRPRT0DR
      00000090H   SFRSYM    DATA     BYTE      SFRPRT1DR
      000000F2H   SFRSYM    DATA     BYTE      SFRPRT12SEL
      00000098H   SFRSYM    DATA     BYTE      SFRPRT2DR
      000000B0H   SFRSYM    DATA     BYTE      SFRPRT3DR
      000000C0H   SFRSYM    DATA     BYTE      SFRPRT4DR
      000000FAH   SFRSYM    DATA     BYTE      SFRPRT15SEL
      000000C8H   SFRSYM    DATA     BYTE      SFRPRT5DR
      000000D8H   SFRSYM    DATA     BYTE      SFRPRT6DR
      00000089H   SFRSYM    DATA     BYTE      SFRPRT0PS
      00000091H   SFRSYM    DATA     BYTE      SFRPRT1PS
      00000099H   SFRSYM    DATA     BYTE      SFRPRT2PS
      000000B1H   SFRSYM    DATA     BYTE      SFRPRT3PS
      000000C1H   SFRSYM    DATA     BYTE      SFRPRT4PS
      000000C9H   SFRSYM    DATA     BYTE      SFRPRT5PS
      000000D9H   SFRSYM    DATA     BYTE      SFRPRT6PS
      000000EAH   SFRSYM    DATA     BYTE      MXAX
      000000F0H   SFRSYM    DATA     BYTE      B
      000000E0H   SFRSYM    DATA     BYTE      ACC
      000000D0H   SFRSYM    DATA     BIT       P
      000000D0H.3 SFRSYM    DATA     BIT       RS0
      000000D0H.4 SFRSYM    DATA     BIT       RS1
      00000083H   SFRSYM    DATA     BYTE      DPH
      000000E8H   SFRSYM    DATA     BYTE      SFRPRT12DR
      00000082H   SFRSYM    DATA     BYTE      DPL
      000000F8H   SFRSYM    DATA     BYTE      SFRPRT15DR
      00000086H   SFRSYM    DATA     BYTE      DPS
      000000E9H   SFRSYM    DATA     BYTE      SFRPRT12PS
      00000093H   SFRSYM    DATA     BYTE      DPX
      000000F9H   SFRSYM    DATA     BYTE      SFRPRT15PS
      000000D0H.5 SFRSYM    DATA     BIT       F0
      000000D0H.1 SFRSYM    DATA     BIT       F1
      0000008AH   SFRSYM    DATA     BYTE      SFRPRT0SEL
      000000D0H   SFRSYM    DATA     BYTE      PSW
      000000A2H   SFRSYM    DATA     BYTE      SFRPRT1SEL
      0000009AH   SFRSYM    DATA     BYTE      SFRPRT2SEL
      000000B2H   SFRSYM    DATA     BYTE      SFRPRT3SEL
LX51 LINKER/LOCATER V4.64.0.0                                                         04/17/2018  14:39:23  PAGE 61


      000000C2H   SFRSYM    DATA     BYTE      SFRPRT4SEL

      01008B84H   BLOCK     CODE     ---       LVL=0
      01008B84H   LINE      CODE     ---       #43
      01008B84H   LINE      CODE     ---       #44
      01008B84H   LINE      CODE     ---       #52
      01008B8BH   LINE      CODE     ---       #60
      01008B92H   LINE      CODE     ---       #106
      01008B99H   LINE      CODE     ---       #107
      01008B9DH   LINE      CODE     ---       #110
      01008BA1H   LINE      CODE     ---       #111
      01008BA5H   LINE      CODE     ---       #114
      01008BACH   LINE      CODE     ---       #118
      01008BB3H   LINE      CODE     ---       #119
      01008BBAH   LINE      CODE     ---       #162
      01008BBFH   LINE      CODE     ---       #163
      ---         BLOCKEND  ---      ---       LVL=0

      01008FEFH   BLOCK     CODE     ---       LVL=0
      01008FEFH   LINE      CODE     ---       #180
      01008FEFH   LINE      CODE     ---       #181
      01008FEFH   LINE      CODE     ---       #184
      01008FF6H   LINE      CODE     ---       #185
      01008FFDH   LINE      CODE     ---       #190
      01009004H   LINE      CODE     ---       #192
      ---         BLOCKEND  ---      ---       LVL=0

      010090A9H   BLOCK     CODE     ---       LVL=0
      010090A9H   LINE      CODE     ---       #215
      010090A9H   LINE      CODE     ---       #216
      010090A9H   LINE      CODE     ---       #217
      010090AFH   LINE      CODE     ---       #218
      010090AFH   LINE      CODE     ---       #219
      010090B2H   LINE      CODE     ---       #221
      010090B8H   LINE      CODE     ---       #222
      010090B8H   LINE      CODE     ---       #225
      010090BBH   LINE      CODE     ---       #226
      ---         BLOCKEND  ---      ---       LVL=0

      0100927AH   BLOCK     CODE     ---       LVL=0
      00000007H   SYMBOL    DATA     BYTE      interruptMode
      0100927AH   LINE      CODE     ---       #279
      0100927AH   LINE      CODE     ---       #280
      0100927AH   LINE      CODE     ---       #281
      0100927FH   LINE      CODE     ---       #282
      ---         BLOCKEND  ---      ---       LVL=0
      00000007H   SYMBOL    DATA     BYTE      control

      010091A3H   BLOCK     CODE     ---       LVL=0
      00000006H   SYMBOL    DATA     WORD      period
      010091A3H   BLOCK     CODE     NEAR LAB  LVL=1
      00000006H   SYMBOL    DATA     WORD      period_temp
      ---         BLOCKEND  ---      ---       LVL=1
      010091A3H   LINE      CODE     ---       #431
      010091A3H   LINE      CODE     ---       #432
      010091A3H   LINE      CODE     ---       #434
      010091A3H   LINE      CODE     ---       #435
      010091B0H   LINE      CODE     ---       #439
      ---         BLOCKEND  ---      ---       LVL=0

      010091B1H   BLOCK     CODE     ---       LVL=0
      00000006H   SYMBOL    DATA     WORD      counter
      010091B1H   LINE      CODE     ---       #480
      010091B1H   LINE      CODE     ---       #481
      010091B1H   LINE      CODE     ---       #486
LX51 LINKER/LOCATER V4.64.0.0                                                         04/17/2018  14:39:23  PAGE 62


      010091BEH   LINE      CODE     ---       #491
      ---         BLOCKEND  ---      ---       LVL=0

      ---         MODULE    ---      ---       CLOCK_UART
      01009247H   PUBLIC    CODE     ---       CLOCK_UART_GetSourceRegister
      01009215H   PUBLIC    CODE     ---       CLOCK_UART_GetDividerRegister
      0100721EH   PUBLIC    CODE     ---       _CLOCK_UART_SetDividerRegister
      00000007H   SYMBOL    DATA     BYTE      state

      0100721EH   BLOCK     CODE     ---       LVL=0
      02000000H   SYMBOL    XDATA    WORD      clkDivider
      02000002H   SYMBOL    XDATA    BYTE      restart
      01007229H   BLOCK     CODE     NEAR LAB  LVL=1
      02000003H   SYMBOL    XDATA    BYTE      enabled
      02000004H   SYMBOL    XDATA    BYTE      currSrc
      02000005H   SYMBOL    XDATA    WORD      oldDivider
      ---         BLOCKEND  ---      ---       LVL=1
      0100721EH   LINE      CODE     ---       #193
      01007229H   LINE      CODE     ---       #195
      01007229H   LINE      CODE     ---       #198
      01007231H   LINE      CODE     ---       #199
      0100723CH   LINE      CODE     ---       #201
      0100724EH   LINE      CODE     ---       #202
      0100724EH   LINE      CODE     ---       #203
      01007258H   LINE      CODE     ---       #205
      01007269H   LINE      CODE     ---       #206
      01007269H   LINE      CODE     ---       #208
      0100726DH   LINE      CODE     ---       #209
      0100726DH   LINE      CODE     ---       #213
      01007276H   LINE      CODE     ---       #214
      0100727DH   LINE      CODE     ---       #215
      0100727EH   LINE      CODE     ---       #217
      0100727EH   LINE      CODE     ---       #220
      01007285H   LINE      CODE     ---       #221
      01007296H   LINE      CODE     ---       #222
      01007296H   LINE      CODE     ---       #223
      01007297H   LINE      CODE     ---       #225
      01007297H   LINE      CODE     ---       #227
      0100729DH   LINE      CODE     ---       #228
      0100729DH   LINE      CODE     ---       #229
      010072A2H   LINE      CODE     ---       #236
      010072A7H   LINE      CODE     ---       #237
      010072ACH   LINE      CODE     ---       #240
      010072B3H   LINE      CODE     ---       #243
      010072C5H   LINE      CODE     ---       #244
      010072C5H   LINE      CODE     ---       #246
      010072D6H   LINE      CODE     ---       #247
      010072DCH   LINE      CODE     ---       #250
      010072E4H   LINE      CODE     ---       #253
      010072EBH   LINE      CODE     ---       #257
      010072F0H   LINE      CODE     ---       #259
      010072F0H   LINE      CODE     ---       #260
      010072F0H   LINE      CODE     ---       #263
      010072F8H   LINE      CODE     ---       #264
      010072F8H   LINE      CODE     ---       #266
      01007309H   LINE      CODE     ---       #268
      0100731CH   LINE      CODE     ---       #269
      01007326H   LINE      CODE     ---       #270
      01007327H   LINE      CODE     ---       #272
      01007327H   LINE      CODE     ---       #274
      01007338H   LINE      CODE     ---       #275
      0100734DH   LINE      CODE     ---       #276
      0100734DH   LINE      CODE     ---       #277
      0100734DH   LINE      CODE     ---       #278
      0100734DH   LINE      CODE     ---       #279
LX51 LINKER/LOCATER V4.64.0.0                                                         04/17/2018  14:39:23  PAGE 63


      ---         BLOCKEND  ---      ---       LVL=0

      01009215H   BLOCK     CODE     ---       LVL=0
      01009215H   LINE      CODE     ---       #297
      01009215H   LINE      CODE     ---       #298
      01009215H   LINE      CODE     ---       #299
      0100921EH   LINE      CODE     ---       #300
      ---         BLOCKEND  ---      ---       LVL=0
      00000007H   SYMBOL    DATA     BYTE      modeBitMask
      00000007H   SYMBOL    DATA     BYTE      modeBitMask
      00000007H   SYMBOL    DATA     BYTE      oldSrc

      01009247H   BLOCK     CODE     ---       LVL=0
      01009247H   LINE      CODE     ---       #464
      01009247H   LINE      CODE     ---       #465
      01009247H   LINE      CODE     ---       #466
      0100924EH   LINE      CODE     ---       #467
      ---         BLOCKEND  ---      ---       LVL=0

      ---         MODULE    ---      ---       EEPROM
      01007FFBH   PUBLIC    CODE     ---       _EEPROM_Write
      010092C2H   PUBLIC    CODE     ---       EEPROM_Start
      0100926DH   PUBLIC    CODE     ---       EEPROM_Enable
      000000CAH   SFRSYM    DATA     BYTE      SFRPRT5SEL
      000000DAH   SFRSYM    DATA     BYTE      SFRPRT6SEL
      000000D0H.6 SFRSYM    DATA     BIT       AC
      000000A8H.7 SFRSYM    DATA     BIT       EA
      000000A8H   SFRSYM    DATA     BYTE      IE
      00000085H   SFRSYM    DATA     BYTE      DPH1
      00000084H   SFRSYM    DATA     BYTE      DPL1
      000000D0H.7 SFRSYM    DATA     BIT       CY
      000000A0H   SFRSYM    DATA     BYTE      P2AX
      00000095H   SFRSYM    DATA     BYTE      DPX1
      00000081H   SFRSYM    DATA     BYTE      SP
      000000D0H.2 SFRSYM    DATA     BIT       OV
      00000080H   SFRSYM    DATA     BYTE      SFRPRT0DR
      00000090H   SFRSYM    DATA     BYTE      SFRPRT1DR
      000000F2H   SFRSYM    DATA     BYTE      SFRPRT12SEL
      00000098H   SFRSYM    DATA     BYTE      SFRPRT2DR
      000000B0H   SFRSYM    DATA     BYTE      SFRPRT3DR
      000000C0H   SFRSYM    DATA     BYTE      SFRPRT4DR
      000000FAH   SFRSYM    DATA     BYTE      SFRPRT15SEL
      000000C8H   SFRSYM    DATA     BYTE      SFRPRT5DR
      000000D8H   SFRSYM    DATA     BYTE      SFRPRT6DR
      00000089H   SFRSYM    DATA     BYTE      SFRPRT0PS
      00000091H   SFRSYM    DATA     BYTE      SFRPRT1PS
      00000099H   SFRSYM    DATA     BYTE      SFRPRT2PS
      000000B1H   SFRSYM    DATA     BYTE      SFRPRT3PS
      000000C1H   SFRSYM    DATA     BYTE      SFRPRT4PS
      000000C9H   SFRSYM    DATA     BYTE      SFRPRT5PS
      000000D9H   SFRSYM    DATA     BYTE      SFRPRT6PS
      000000EAH   SFRSYM    DATA     BYTE      MXAX
      000000F0H   SFRSYM    DATA     BYTE      B
      000000E0H   SFRSYM    DATA     BYTE      ACC
      000000D0H   SFRSYM    DATA     BIT       P
      000000D0H.3 SFRSYM    DATA     BIT       RS0
      000000D0H.4 SFRSYM    DATA     BIT       RS1
      00000083H   SFRSYM    DATA     BYTE      DPH
      000000E8H   SFRSYM    DATA     BYTE      SFRPRT12DR
      00000082H   SFRSYM    DATA     BYTE      DPL
      000000F8H   SFRSYM    DATA     BYTE      SFRPRT15DR
      00000086H   SFRSYM    DATA     BYTE      DPS
      000000E9H   SFRSYM    DATA     BYTE      SFRPRT12PS
      00000093H   SFRSYM    DATA     BYTE      DPX
      000000F9H   SFRSYM    DATA     BYTE      SFRPRT15PS
LX51 LINKER/LOCATER V4.64.0.0                                                         04/17/2018  14:39:23  PAGE 64


      000000D0H.5 SFRSYM    DATA     BIT       F0
      000000D0H.1 SFRSYM    DATA     BIT       F1
      0000008AH   SFRSYM    DATA     BYTE      SFRPRT0SEL
      000000D0H   SFRSYM    DATA     BYTE      PSW
      000000A2H   SFRSYM    DATA     BYTE      SFRPRT1SEL
      0000009AH   SFRSYM    DATA     BYTE      SFRPRT2SEL
      000000B2H   SFRSYM    DATA     BYTE      SFRPRT3SEL
      000000C2H   SFRSYM    DATA     BYTE      SFRPRT4SEL

      0100926DH   BLOCK     CODE     ---       LVL=0
      0100926DH   LINE      CODE     ---       #33
      0100926DH   LINE      CODE     ---       #34
      0100926DH   LINE      CODE     ---       #36
      01009270H   LINE      CODE     ---       #39
      01009273H   LINE      CODE     ---       #40
      ---         BLOCKEND  ---      ---       LVL=0

      010092C2H   BLOCK     CODE     ---       LVL=0
      010092C2H   LINE      CODE     ---       #57
      010092C2H   LINE      CODE     ---       #58
      010092C2H   LINE      CODE     ---       #59
      010092C5H   LINE      CODE     ---       #60
      ---         BLOCKEND  ---      ---       LVL=0

      01007FFBH   BLOCK     CODE     ---       LVL=0
      02000007H   SYMBOL    XDATA    ---       rowData
      0200000AH   SYMBOL    XDATA    BYTE      rowNumber
      01008009H   BLOCK     CODE     NEAR LAB  LVL=1
      0200000BH   SYMBOL    XDATA    BYTE      status
      ---         BLOCKEND  ---      ---       LVL=1
      01007FFBH   LINE      CODE     ---       #345
      01008009H   LINE      CODE     ---       #346
      01008009H   LINE      CODE     ---       #349
      0100800CH   LINE      CODE     ---       #351
      01008018H   LINE      CODE     ---       #352
      01008018H   LINE      CODE     ---       #354
      01008021H   LINE      CODE     ---       #355
      01008021H   LINE      CODE     ---       #357
      01008027H   LINE      CODE     ---       #360
      01008045H   LINE      CODE     ---       #361
      01008045H   LINE      CODE     ---       #362
      0100804DH   LINE      CODE     ---       #363
      0100804DH   LINE      CODE     ---       #365
      0100804DH   LINE      CODE     ---       #368
      01008063H   LINE      CODE     ---       #369
      01008063H   LINE      CODE     ---       #370
      01008067H   LINE      CODE     ---       #371
      01008067H   LINE      CODE     ---       #374
      0100806DH   LINE      CODE     ---       #375
      0100806DH   LINE      CODE     ---       #376
      01008089H   LINE      CODE     ---       #378
      01008089H   LINE      CODE     ---       #380
      0100808FH   LINE      CODE     ---       #382
      01008097H   LINE      CODE     ---       #383
      01008097H   LINE      CODE     ---       #385
      01008097H   LINE      CODE     ---       #388
      010080ADH   LINE      CODE     ---       #389
      010080ADH   LINE      CODE     ---       #390
      010080B1H   LINE      CODE     ---       #391
      010080B1H   LINE      CODE     ---       #392
      010080B3H   LINE      CODE     ---       #394
      010080B3H   LINE      CODE     ---       #395
      010080B9H   LINE      CODE     ---       #396
      010080B9H   LINE      CODE     ---       #397
      010080BBH   LINE      CODE     ---       #399
LX51 LINKER/LOCATER V4.64.0.0                                                         04/17/2018  14:39:23  PAGE 65


      010080BBH   LINE      CODE     ---       #400
      010080C1H   LINE      CODE     ---       #401
      010080C1H   LINE      CODE     ---       #402
      010080C1H   LINE      CODE     ---       #405
      010080C4H   LINE      CODE     ---       #406
      010080C6H   LINE      CODE     ---       #408
      010080C6H   LINE      CODE     ---       #409
      010080CCH   LINE      CODE     ---       #410
      010080CCH   LINE      CODE     ---       #411
      010080CEH   LINE      CODE     ---       #413
      010080CEH   LINE      CODE     ---       #414
      010080D4H   LINE      CODE     ---       #415
      010080D4H   LINE      CODE     ---       #417
      010080D9H   LINE      CODE     ---       #418
      ---         BLOCKEND  ---      ---       LVL=0

      ---         MODULE    ---      ---       RS485_CTS
      01009280H   PUBLIC    CODE     ---       _RS485_CTS_Write

      01009280H   BLOCK     CODE     ---       LVL=0
      00000007H   SYMBOL    DATA     BYTE      control
      01009280H   LINE      CODE     ---       #37
      01009280H   LINE      CODE     ---       #38
      01009280H   LINE      CODE     ---       #39
      01009285H   LINE      CODE     ---       #40
      ---         BLOCKEND  ---      ---       LVL=0

      ---         MODULE    ---      ---       BOOTLOADABLE
      0100921FH   PUBLIC    CODE     ---       Bootloadable_Load
      000000CAH   SFRSYM    DATA     BYTE      SFRPRT5SEL
      000000DAH   SFRSYM    DATA     BYTE      SFRPRT6SEL
      000000D0H.6 SFRSYM    DATA     BIT       AC
      000000A8H.7 SFRSYM    DATA     BIT       EA
      000000A8H   SFRSYM    DATA     BYTE      IE
      00000085H   SFRSYM    DATA     BYTE      DPH1
      00000084H   SFRSYM    DATA     BYTE      DPL1
      000000D0H.7 SFRSYM    DATA     BIT       CY
      000000A0H   SFRSYM    DATA     BYTE      P2AX
      00000095H   SFRSYM    DATA     BYTE      DPX1
      00000081H   SFRSYM    DATA     BYTE      SP
      000000D0H.2 SFRSYM    DATA     BIT       OV
      00000080H   SFRSYM    DATA     BYTE      SFRPRT0DR
      00000090H   SFRSYM    DATA     BYTE      SFRPRT1DR
      000000F2H   SFRSYM    DATA     BYTE      SFRPRT12SEL
      00000098H   SFRSYM    DATA     BYTE      SFRPRT2DR
      000000B0H   SFRSYM    DATA     BYTE      SFRPRT3DR
      000000C0H   SFRSYM    DATA     BYTE      SFRPRT4DR
      000000FAH   SFRSYM    DATA     BYTE      SFRPRT15SEL
      000000C8H   SFRSYM    DATA     BYTE      SFRPRT5DR
      000000D8H   SFRSYM    DATA     BYTE      SFRPRT6DR
      00000089H   SFRSYM    DATA     BYTE      SFRPRT0PS
      00000091H   SFRSYM    DATA     BYTE      SFRPRT1PS
      00000099H   SFRSYM    DATA     BYTE      SFRPRT2PS
      000000B1H   SFRSYM    DATA     BYTE      SFRPRT3PS
      000000C1H   SFRSYM    DATA     BYTE      SFRPRT4PS
      000000C9H   SFRSYM    DATA     BYTE      SFRPRT5PS
      000000D9H   SFRSYM    DATA     BYTE      SFRPRT6PS
      000000EAH   SFRSYM    DATA     BYTE      MXAX
      000000F0H   SFRSYM    DATA     BYTE      B
      000000E0H   SFRSYM    DATA     BYTE      ACC
      000000D0H   SFRSYM    DATA     BIT       P
      000000D0H.3 SFRSYM    DATA     BIT       RS0
      000000D0H.4 SFRSYM    DATA     BIT       RS1
      00000083H   SFRSYM    DATA     BYTE      DPH
      000000E8H   SFRSYM    DATA     BYTE      SFRPRT12DR
LX51 LINKER/LOCATER V4.64.0.0                                                         04/17/2018  14:39:23  PAGE 66


      00000082H   SFRSYM    DATA     BYTE      DPL
      000000F8H   SFRSYM    DATA     BYTE      SFRPRT15DR
      00000086H   SFRSYM    DATA     BYTE      DPS
      000000E9H   SFRSYM    DATA     BYTE      SFRPRT12PS
      00000093H   SFRSYM    DATA     BYTE      DPX
      000000F9H   SFRSYM    DATA     BYTE      SFRPRT15PS
      000000D0H.5 SFRSYM    DATA     BIT       F0
      000000D0H.1 SFRSYM    DATA     BIT       F1
      0000008AH   SFRSYM    DATA     BYTE      SFRPRT0SEL
      000000D0H   SFRSYM    DATA     BYTE      PSW
      000000A2H   SFRSYM    DATA     BYTE      SFRPRT1SEL
      0000009AH   SFRSYM    DATA     BYTE      SFRPRT2SEL
      000000B2H   SFRSYM    DATA     BYTE      SFRPRT3SEL
      000000C2H   SFRSYM    DATA     BYTE      SFRPRT4SEL

      0100921FH   BLOCK     CODE     ---       LVL=0
      0100921FH   LINE      CODE     ---       #41
      0100921FH   LINE      CODE     ---       #42
      0100921FH   LINE      CODE     ---       #44
      01009225H   LINE      CODE     ---       #46
      01009228H   LINE      CODE     ---       #47
      ---         BLOCKEND  ---      ---       LVL=0
      00000002H   SYMBOL    DATA     WORD      idx

      ---         MODULE    ---      ---       FTDI_ENABLE_REG
      01009286H   PUBLIC    CODE     ---       _FTDI_ENABLE_REG_Write

      01009286H   BLOCK     CODE     ---       LVL=0
      00000007H   SYMBOL    DATA     BYTE      control
      01009286H   LINE      CODE     ---       #37
      01009286H   LINE      CODE     ---       #38
      01009286H   LINE      CODE     ---       #39
      0100928BH   LINE      CODE     ---       #40
      ---         BLOCKEND  ---      ---       LVL=0

      ---         MODULE    ---      ---       RESET_FF
      0100928CH   PUBLIC    CODE     ---       _RESET_FF_Write

      0100928CH   BLOCK     CODE     ---       LVL=0
      00000007H   SYMBOL    DATA     BYTE      control
      0100928CH   LINE      CODE     ---       #37
      0100928CH   LINE      CODE     ---       #38
      0100928CH   LINE      CODE     ---       #39
      01009291H   LINE      CODE     ---       #40
      ---         BLOCKEND  ---      ---       LVL=0

      ---         MODULE    ---      ---       FF_STATUS
      01009292H   PUBLIC    CODE     ---       FF_STATUS_Read
      000000CAH   SFRSYM    DATA     BYTE      SFRPRT5SEL
      000000DAH   SFRSYM    DATA     BYTE      SFRPRT6SEL
      000000D0H.6 SFRSYM    DATA     BIT       AC
      000000A8H.7 SFRSYM    DATA     BIT       EA
      000000A8H   SFRSYM    DATA     BYTE      IE
      00000085H   SFRSYM    DATA     BYTE      DPH1
      00000084H   SFRSYM    DATA     BYTE      DPL1
      000000D0H.7 SFRSYM    DATA     BIT       CY
      000000A0H   SFRSYM    DATA     BYTE      P2AX
      00000095H   SFRSYM    DATA     BYTE      DPX1
      00000081H   SFRSYM    DATA     BYTE      SP
      000000D0H.2 SFRSYM    DATA     BIT       OV
      00000080H   SFRSYM    DATA     BYTE      SFRPRT0DR
      00000090H   SFRSYM    DATA     BYTE      SFRPRT1DR
      000000F2H   SFRSYM    DATA     BYTE      SFRPRT12SEL
      00000098H   SFRSYM    DATA     BYTE      SFRPRT2DR
      000000B0H   SFRSYM    DATA     BYTE      SFRPRT3DR
LX51 LINKER/LOCATER V4.64.0.0                                                         04/17/2018  14:39:23  PAGE 67


      000000C0H   SFRSYM    DATA     BYTE      SFRPRT4DR
      000000FAH   SFRSYM    DATA     BYTE      SFRPRT15SEL
      000000C8H   SFRSYM    DATA     BYTE      SFRPRT5DR
      000000D8H   SFRSYM    DATA     BYTE      SFRPRT6DR
      00000089H   SFRSYM    DATA     BYTE      SFRPRT0PS
      00000091H   SFRSYM    DATA     BYTE      SFRPRT1PS
      00000099H   SFRSYM    DATA     BYTE      SFRPRT2PS
      000000B1H   SFRSYM    DATA     BYTE      SFRPRT3PS
      000000C1H   SFRSYM    DATA     BYTE      SFRPRT4PS
      000000C9H   SFRSYM    DATA     BYTE      SFRPRT5PS
      000000D9H   SFRSYM    DATA     BYTE      SFRPRT6PS
      000000EAH   SFRSYM    DATA     BYTE      MXAX
      000000F0H   SFRSYM    DATA     BYTE      B
      000000E0H   SFRSYM    DATA     BYTE      ACC
      000000D0H   SFRSYM    DATA     BIT       P
      000000D0H.3 SFRSYM    DATA     BIT       RS0
      000000D0H.4 SFRSYM    DATA     BIT       RS1
      00000083H   SFRSYM    DATA     BYTE      DPH
      000000E8H   SFRSYM    DATA     BYTE      SFRPRT12DR
      00000082H   SFRSYM    DATA     BYTE      DPL
      000000F8H   SFRSYM    DATA     BYTE      SFRPRT15DR
      00000086H   SFRSYM    DATA     BYTE      DPS
      000000E9H   SFRSYM    DATA     BYTE      SFRPRT12PS
      00000093H   SFRSYM    DATA     BYTE      DPX
      000000F9H   SFRSYM    DATA     BYTE      SFRPRT15PS
      000000D0H.5 SFRSYM    DATA     BIT       F0
      000000D0H.1 SFRSYM    DATA     BIT       F1
      0000008AH   SFRSYM    DATA     BYTE      SFRPRT0SEL
      000000D0H   SFRSYM    DATA     BYTE      PSW
      000000A2H   SFRSYM    DATA     BYTE      SFRPRT1SEL
      0000009AH   SFRSYM    DATA     BYTE      SFRPRT2SEL
      000000B2H   SFRSYM    DATA     BYTE      SFRPRT3SEL
      000000C2H   SFRSYM    DATA     BYTE      SFRPRT4SEL

      01009292H   BLOCK     CODE     ---       LVL=0
      01009292H   LINE      CODE     ---       #37
      01009292H   LINE      CODE     ---       #38
      01009292H   LINE      CODE     ---       #39
      01009297H   LINE      CODE     ---       #40
      ---         BLOCKEND  ---      ---       LVL=0
      00000007H   SYMBOL    DATA     BYTE      interruptState
      00000007H   SYMBOL    DATA     BYTE      interruptState
      00000007H   SYMBOL    DATA     BYTE      mask

      ---         MODULE    ---      ---       MY_TIMER
      02001629H   PUBLIC    XDATA    BYTE      MY_TIMER_initVar
      010091CCH   PUBLIC    CODE     ---       MY_TIMER_ClearFIFO
      0100913BH   PUBLIC    CODE     ---       MY_TIMER_ReadCounter
      0100923DH   PUBLIC    CODE     ---       _MY_TIMER_WriteCounter
      01009233H   PUBLIC    CODE     ---       MY_TIMER_ReadCapture
      01009229H   PUBLIC    CODE     ---       _MY_TIMER_WritePeriod
      0100929EH   PUBLIC    CODE     ---       MY_TIMER_ReadStatusRegister
      01009298H   PUBLIC    CODE     ---       _MY_TIMER_SetInterruptMode
      010090BCH   PUBLIC    CODE     ---       MY_TIMER_Start
      0100924FH   PUBLIC    CODE     ---       MY_TIMER_Enable
      01008DEDH   PUBLIC    CODE     ---       MY_TIMER_Init
      000000CAH   SFRSYM    DATA     BYTE      SFRPRT5SEL
      000000DAH   SFRSYM    DATA     BYTE      SFRPRT6SEL
      000000D0H.6 SFRSYM    DATA     BIT       AC
      000000A8H.7 SFRSYM    DATA     BIT       EA
      000000A8H   SFRSYM    DATA     BYTE      IE
      00000085H   SFRSYM    DATA     BYTE      DPH1
      00000084H   SFRSYM    DATA     BYTE      DPL1
      000000D0H.7 SFRSYM    DATA     BIT       CY
      000000A0H   SFRSYM    DATA     BYTE      P2AX
LX51 LINKER/LOCATER V4.64.0.0                                                         04/17/2018  14:39:23  PAGE 68


      00000095H   SFRSYM    DATA     BYTE      DPX1
      00000081H   SFRSYM    DATA     BYTE      SP
      000000D0H.2 SFRSYM    DATA     BIT       OV
      00000080H   SFRSYM    DATA     BYTE      SFRPRT0DR
      00000090H   SFRSYM    DATA     BYTE      SFRPRT1DR
      000000F2H   SFRSYM    DATA     BYTE      SFRPRT12SEL
      00000098H   SFRSYM    DATA     BYTE      SFRPRT2DR
      000000B0H   SFRSYM    DATA     BYTE      SFRPRT3DR
      000000C0H   SFRSYM    DATA     BYTE      SFRPRT4DR
      000000FAH   SFRSYM    DATA     BYTE      SFRPRT15SEL
      000000C8H   SFRSYM    DATA     BYTE      SFRPRT5DR
      000000D8H   SFRSYM    DATA     BYTE      SFRPRT6DR
      00000089H   SFRSYM    DATA     BYTE      SFRPRT0PS
      00000091H   SFRSYM    DATA     BYTE      SFRPRT1PS
      00000099H   SFRSYM    DATA     BYTE      SFRPRT2PS
      000000B1H   SFRSYM    DATA     BYTE      SFRPRT3PS
      000000C1H   SFRSYM    DATA     BYTE      SFRPRT4PS
      000000C9H   SFRSYM    DATA     BYTE      SFRPRT5PS
      000000D9H   SFRSYM    DATA     BYTE      SFRPRT6PS
      000000EAH   SFRSYM    DATA     BYTE      MXAX
      000000F0H   SFRSYM    DATA     BYTE      B
      000000E0H   SFRSYM    DATA     BYTE      ACC
      000000D0H   SFRSYM    DATA     BIT       P
      000000D0H.3 SFRSYM    DATA     BIT       RS0
      000000D0H.4 SFRSYM    DATA     BIT       RS1
      00000083H   SFRSYM    DATA     BYTE      DPH
      000000E8H   SFRSYM    DATA     BYTE      SFRPRT12DR
      00000082H   SFRSYM    DATA     BYTE      DPL
      000000F8H   SFRSYM    DATA     BYTE      SFRPRT15DR
      00000086H   SFRSYM    DATA     BYTE      DPS
      000000E9H   SFRSYM    DATA     BYTE      SFRPRT12PS
      00000093H   SFRSYM    DATA     BYTE      DPX
      000000F9H   SFRSYM    DATA     BYTE      SFRPRT15PS
      000000D0H.5 SFRSYM    DATA     BIT       F0
      000000D0H.1 SFRSYM    DATA     BIT       F1
      0000008AH   SFRSYM    DATA     BYTE      SFRPRT0SEL
      000000D0H   SFRSYM    DATA     BYTE      PSW
      000000A2H   SFRSYM    DATA     BYTE      SFRPRT1SEL
      0000009AH   SFRSYM    DATA     BYTE      SFRPRT2SEL
      000000B2H   SFRSYM    DATA     BYTE      SFRPRT3SEL
      000000C2H   SFRSYM    DATA     BYTE      SFRPRT4SEL

      01008DEDH   BLOCK     CODE     ---       LVL=0
      01008DEDH   BLOCK     CODE     NEAR LAB  LVL=1
      00000007H   SYMBOL    DATA     BYTE      MY_TIMER_interruptState
      ---         BLOCKEND  ---      ---       LVL=1
      01008DEDH   LINE      CODE     ---       #43
      01008DEDH   LINE      CODE     ---       #44
      01008DEDH   LINE      CODE     ---       #118
      01008DF8H   LINE      CODE     ---       #119
      01008E03H   LINE      CODE     ---       #142
      01008E06H   LINE      CODE     ---       #145
      01008E0DH   LINE      CODE     ---       #148
      01008E10H   LINE      CODE     ---       #159
      01008E13H   LINE      CODE     ---       #162
      01008E18H   LINE      CODE     ---       #163
      ---         BLOCKEND  ---      ---       LVL=0

      0100924FH   BLOCK     CODE     ---       LVL=0
      0100924FH   LINE      CODE     ---       #180
      0100924FH   LINE      CODE     ---       #181
      0100924FH   LINE      CODE     ---       #190
      01009256H   LINE      CODE     ---       #192
      ---         BLOCKEND  ---      ---       LVL=0

LX51 LINKER/LOCATER V4.64.0.0                                                         04/17/2018  14:39:23  PAGE 69


      010090BCH   BLOCK     CODE     ---       LVL=0
      010090BCH   LINE      CODE     ---       #215
      010090BCH   LINE      CODE     ---       #216
      010090BCH   LINE      CODE     ---       #217
      010090C2H   LINE      CODE     ---       #218
      010090C2H   LINE      CODE     ---       #219
      010090C5H   LINE      CODE     ---       #221
      010090CBH   LINE      CODE     ---       #222
      010090CBH   LINE      CODE     ---       #225
      010090CEH   LINE      CODE     ---       #226
      ---         BLOCKEND  ---      ---       LVL=0

      01009298H   BLOCK     CODE     ---       LVL=0
      00000007H   SYMBOL    DATA     BYTE      interruptMode
      01009298H   LINE      CODE     ---       #279
      01009298H   LINE      CODE     ---       #280
      01009298H   LINE      CODE     ---       #281
      0100929DH   LINE      CODE     ---       #282
      ---         BLOCKEND  ---      ---       LVL=0

      0100929EH   BLOCK     CODE     ---       LVL=0
      0100929EH   LINE      CODE     ---       #333
      0100929EH   LINE      CODE     ---       #334
      0100929EH   LINE      CODE     ---       #335
      010092A3H   LINE      CODE     ---       #336
      ---         BLOCKEND  ---      ---       LVL=0
      00000007H   SYMBOL    DATA     BYTE      control

      01009229H   BLOCK     CODE     ---       LVL=0
      00000004H   SYMBOL    DATA     DWORD     period
      01009229H   LINE      CODE     ---       #431
      01009229H   LINE      CODE     ---       #432
      01009229H   LINE      CODE     ---       #437
      01009232H   LINE      CODE     ---       #439
      ---         BLOCKEND  ---      ---       LVL=0

      01009233H   BLOCK     CODE     ---       LVL=0
      01009233H   LINE      CODE     ---       #456
      01009233H   LINE      CODE     ---       #457
      01009233H   LINE      CODE     ---       #461
      0100923CH   LINE      CODE     ---       #463
      ---         BLOCKEND  ---      ---       LVL=0

      0100923DH   BLOCK     CODE     ---       LVL=0
      00000004H   SYMBOL    DATA     DWORD     counter
      0100923DH   LINE      CODE     ---       #480
      0100923DH   LINE      CODE     ---       #481
      0100923DH   LINE      CODE     ---       #489
      01009246H   LINE      CODE     ---       #491
      ---         BLOCKEND  ---      ---       LVL=0

      0100913BH   BLOCK     CODE     ---       LVL=0
      0100913BH   LINE      CODE     ---       #508
      0100913BH   LINE      CODE     ---       #509
      0100913BH   LINE      CODE     ---       #516
      01009140H   LINE      CODE     ---       #523
      01009149H   LINE      CODE     ---       #525
      ---         BLOCKEND  ---      ---       LVL=0

      010091CCH   BLOCK     CODE     ---       LVL=0
      010091CCH   LINE      CODE     ---       #763
      010091CCH   LINE      CODE     ---       #764
      010091CCH   LINE      CODE     ---       #765
      010091D3H   LINE      CODE     ---       #766
      010091D3H   LINE      CODE     ---       #767
LX51 LINKER/LOCATER V4.64.0.0                                                         04/17/2018  14:39:23  PAGE 70


      010091D6H   LINE      CODE     ---       #768
      010091D8H   LINE      CODE     ---       #769
      ---         BLOCKEND  ---      ---       LVL=0

      ---         MODULE    ---      ---       CYFLASH
      0200161EH   PUBLIC    XDATA    ---       dieTemperature
      01008CD2H   PUBLIC    CODE     ---       CyEEPROM_Start
      01008FA8H   PUBLIC    CODE     ---       CySetTemp
      000000CAH   SFRSYM    DATA     BYTE      SFRPRT5SEL
      000000DAH   SFRSYM    DATA     BYTE      SFRPRT6SEL
      000000D0H.6 SFRSYM    DATA     BIT       AC
      000000A8H.7 SFRSYM    DATA     BIT       EA
      000000A8H   SFRSYM    DATA     BYTE      IE
      00000085H   SFRSYM    DATA     BYTE      DPH1
      00000084H   SFRSYM    DATA     BYTE      DPL1
      000000D0H.7 SFRSYM    DATA     BIT       CY
      000000A0H   SFRSYM    DATA     BYTE      P2AX
      00000095H   SFRSYM    DATA     BYTE      DPX1
      00000081H   SFRSYM    DATA     BYTE      SP
      000000D0H.2 SFRSYM    DATA     BIT       OV
      00000080H   SFRSYM    DATA     BYTE      SFRPRT0DR
      00000090H   SFRSYM    DATA     BYTE      SFRPRT1DR
      000000F2H   SFRSYM    DATA     BYTE      SFRPRT12SEL
      00000098H   SFRSYM    DATA     BYTE      SFRPRT2DR
      000000B0H   SFRSYM    DATA     BYTE      SFRPRT3DR
      000000C0H   SFRSYM    DATA     BYTE      SFRPRT4DR
      000000FAH   SFRSYM    DATA     BYTE      SFRPRT15SEL
      000000C8H   SFRSYM    DATA     BYTE      SFRPRT5DR
      000000D8H   SFRSYM    DATA     BYTE      SFRPRT6DR
      00000089H   SFRSYM    DATA     BYTE      SFRPRT0PS
      00000091H   SFRSYM    DATA     BYTE      SFRPRT1PS
      00000099H   SFRSYM    DATA     BYTE      SFRPRT2PS
      000000B1H   SFRSYM    DATA     BYTE      SFRPRT3PS
      000000C1H   SFRSYM    DATA     BYTE      SFRPRT4PS
      000000C9H   SFRSYM    DATA     BYTE      SFRPRT5PS
      000000D9H   SFRSYM    DATA     BYTE      SFRPRT6PS
      000000EAH   SFRSYM    DATA     BYTE      MXAX
      000000F0H   SFRSYM    DATA     BYTE      B
      000000E0H   SFRSYM    DATA     BYTE      ACC
      000000D0H   SFRSYM    DATA     BIT       P
      000000D0H.3 SFRSYM    DATA     BIT       RS0
      000000D0H.4 SFRSYM    DATA     BIT       RS1
      00000083H   SFRSYM    DATA     BYTE      DPH
      000000E8H   SFRSYM    DATA     BYTE      SFRPRT12DR
      00000082H   SFRSYM    DATA     BYTE      DPL
      000000F8H   SFRSYM    DATA     BYTE      SFRPRT15DR
      00000086H   SFRSYM    DATA     BYTE      DPS
      000000E9H   SFRSYM    DATA     BYTE      SFRPRT12PS
      00000093H   SFRSYM    DATA     BYTE      DPX
      000000F9H   SFRSYM    DATA     BYTE      SFRPRT15PS
      000000D0H.5 SFRSYM    DATA     BIT       F0
      000000D0H.1 SFRSYM    DATA     BIT       F1
      0000008AH   SFRSYM    DATA     BYTE      SFRPRT0SEL
      000000D0H   SFRSYM    DATA     BYTE      PSW
      000000A2H   SFRSYM    DATA     BYTE      SFRPRT1SEL
      0000009AH   SFRSYM    DATA     BYTE      SFRPRT2SEL
      000000B2H   SFRSYM    DATA     BYTE      SFRPRT3SEL
      000000C2H   SFRSYM    DATA     BYTE      SFRPRT4SEL
      010089C3H   SYMBOL    CODE     ---       CyFlashGetSpcAlgorithm
      010088C5H   SYMBOL    CODE     ---       CySetTempInt
      0200161BH   SYMBOL    XDATA    ---       rowBuffer
      00000007H   SYMBOL    DATA     BYTE      interruptState
      00000007H   SYMBOL    DATA     BYTE      interruptState

      010088C5H   BLOCK     CODE     ---       LVL=0
LX51 LINKER/LOCATER V4.64.0.0                                                         04/17/2018  14:39:23  PAGE 71


      010088C5H   BLOCK     CODE     NEAR LAB  LVL=1
      02000008H   SYMBOL    XDATA    BYTE      status
      ---         BLOCKEND  ---      ---       LVL=1
      010088C5H   LINE      CODE     ---       #155
      010088C5H   LINE      CODE     ---       #156
      010088C5H   LINE      CODE     ---       #160
      010088C8H   LINE      CODE     ---       #163
      010088CEH   LINE      CODE     ---       #165
      010088D4H   LINE      CODE     ---       #166
      010088D4H   LINE      CODE     ---       #168
      010088DEH   LINE      CODE     ---       #169
      010088DEH   LINE      CODE     ---       #171
      010088DEH   LINE      CODE     ---       #172
      010088EDH   LINE      CODE     ---       #173
      010088EDH   LINE      CODE     ---       #174
      010088F2H   LINE      CODE     ---       #176
      010088FAH   LINE      CODE     ---       #177
      010088FAH   LINE      CODE     ---       #179
      01008900H   LINE      CODE     ---       #180
      01008902H   LINE      CODE     ---       #181
      01008902H   LINE      CODE     ---       #182
      01008902H   LINE      CODE     ---       #184
      0100890AH   LINE      CODE     ---       #185
      0100890AH   LINE      CODE     ---       #187
      0100890DH   LINE      CODE     ---       #188
      0100890FH   LINE      CODE     ---       #190
      0100890FH   LINE      CODE     ---       #191
      01008915H   LINE      CODE     ---       #192
      01008915H   LINE      CODE     ---       #194
      0100891AH   LINE      CODE     ---       #195
      ---         BLOCKEND  ---      ---       LVL=0

      010089C3H   BLOCK     CODE     ---       LVL=0
      010089C3H   BLOCK     CODE     NEAR LAB  LVL=1
      02000008H   SYMBOL    XDATA    BYTE      status
      ---         BLOCKEND  ---      ---       LVL=1
      010089C3H   LINE      CODE     ---       #215
      010089C3H   LINE      CODE     ---       #216
      010089C3H   LINE      CODE     ---       #220
      010089C6H   LINE      CODE     ---       #222
      010089CCH   LINE      CODE     ---       #223
      010089CCH   LINE      CODE     ---       #224
      010089D4H   LINE      CODE     ---       #226
      010089D8H   LINE      CODE     ---       #227
      010089D8H   LINE      CODE     ---       #228
      010089E0H   LINE      CODE     ---       #229
      010089E0H   LINE      CODE     ---       #231
      010089E6H   LINE      CODE     ---       #232
      010089E8H   LINE      CODE     ---       #234
      010089FEH   LINE      CODE     ---       #235
      010089FEH   LINE      CODE     ---       #236
      01008A02H   LINE      CODE     ---       #237
      01008A02H   LINE      CODE     ---       #238
      01008A02H   LINE      CODE     ---       #239
      01008A05H   LINE      CODE     ---       #240
      01008A07H   LINE      CODE     ---       #242
      01008A07H   LINE      CODE     ---       #243
      01008A0DH   LINE      CODE     ---       #244
      01008A0DH   LINE      CODE     ---       #246
      01008A12H   LINE      CODE     ---       #247
      ---         BLOCKEND  ---      ---       LVL=0

      01008FA8H   BLOCK     CODE     ---       LVL=0
      01008FA8H   BLOCK     CODE     NEAR LAB  LVL=1
      02000007H   SYMBOL    XDATA    BYTE      status
LX51 LINKER/LOCATER V4.64.0.0                                                         04/17/2018  14:39:23  PAGE 72


      ---         BLOCKEND  ---      ---       LVL=1
      01008FA8H   LINE      CODE     ---       #273
      01008FA8H   LINE      CODE     ---       #274
      01008FA8H   LINE      CODE     ---       #275
      01008FB0H   LINE      CODE     ---       #277
      01008FB2H   LINE      CODE     ---       #278
      01008FB2H   LINE      CODE     ---       #279
      01008FBAH   LINE      CODE     ---       #280
      01008FBAH   LINE      CODE     ---       #282
      01008FBFH   LINE      CODE     ---       #283
      ---         BLOCKEND  ---      ---       LVL=0
      00000004H   SYMBOL    DATA     WORD      rowAddress
      00000001H   SYMBOL    DATA     ---       rowData
      00000007H   SYMBOL    DATA     BYTE      status
      00000007H   SYMBOL    DATA     BYTE      interruptState

      01008CD2H   BLOCK     CODE     ---       LVL=0
      01008CD2H   BLOCK     CODE     NEAR LAB  LVL=1
      00000007H   SYMBOL    DATA     BYTE      interruptState
      ---         BLOCKEND  ---      ---       LVL=1
      01008CD2H   LINE      CODE     ---       #636
      01008CD2H   LINE      CODE     ---       #637
      01008CD2H   LINE      CODE     ---       #640
      01008CD5H   LINE      CODE     ---       #647
      01008CDCH   LINE      CODE     ---       #648
      01008CE3H   LINE      CODE     ---       #661
      01008CE9H   LINE      CODE     ---       #668
      01008CF0H   LINE      CODE     ---       #669
      01008CF7H   LINE      CODE     ---       #671
      01008CFFH   LINE      CODE     ---       #672
      01008CFFH   LINE      CODE     ---       #674
      01008CFFH   LINE      CODE     ---       #676
      01008D02H   LINE      CODE     ---       #677
      ---         BLOCKEND  ---      ---       LVL=0
      00000007H   SYMBOL    DATA     BYTE      interruptState

      ---         MODULE    ---      ---       CYLIB
      02001617H   PUBLIC    XDATA    DWORD     cydelay_32k_ms
      02001616H   PUBLIC    XDATA    BYTE      CyResetStatus
      02001612H   PUBLIC    XDATA    DWORD     cydelay_freq_hz
      02001611H   PUBLIC    XDATA    BYTE      cydelay_freq_mhz
      0200160DH   PUBLIC    XDATA    DWORD     cydelay_freq_khz
      01008F76H   PUBLIC    CODE     ---       _CyIntSetPriority
      0100891BH   PUBLIC    CODE     ---       _CyIntSetVector
      010084DAH   PUBLIC    CODE     ---       _?CyDelay
      01009257H   PUBLIC    CODE     ---       CySoftwareReset
      000000CAH   SFRSYM    DATA     BYTE      SFRPRT5SEL
      000000DAH   SFRSYM    DATA     BYTE      SFRPRT6SEL
      000000D0H.6 SFRSYM    DATA     BIT       AC
      000000A8H.7 SFRSYM    DATA     BIT       EA
      000000A8H   SFRSYM    DATA     BYTE      IE
      00000085H   SFRSYM    DATA     BYTE      DPH1
      00000084H   SFRSYM    DATA     BYTE      DPL1
      000000D0H.7 SFRSYM    DATA     BIT       CY
      000000A0H   SFRSYM    DATA     BYTE      P2AX
      00000095H   SFRSYM    DATA     BYTE      DPX1
      00000081H   SFRSYM    DATA     BYTE      SP
      000000D0H.2 SFRSYM    DATA     BIT       OV
      00000080H   SFRSYM    DATA     BYTE      SFRPRT0DR
      00000090H   SFRSYM    DATA     BYTE      SFRPRT1DR
      000000F2H   SFRSYM    DATA     BYTE      SFRPRT12SEL
      00000098H   SFRSYM    DATA     BYTE      SFRPRT2DR
      000000B0H   SFRSYM    DATA     BYTE      SFRPRT3DR
      000000C0H   SFRSYM    DATA     BYTE      SFRPRT4DR
      000000FAH   SFRSYM    DATA     BYTE      SFRPRT15SEL
LX51 LINKER/LOCATER V4.64.0.0                                                         04/17/2018  14:39:23  PAGE 73


      000000C8H   SFRSYM    DATA     BYTE      SFRPRT5DR
      000000D8H   SFRSYM    DATA     BYTE      SFRPRT6DR
      00000089H   SFRSYM    DATA     BYTE      SFRPRT0PS
      00000091H   SFRSYM    DATA     BYTE      SFRPRT1PS
      00000099H   SFRSYM    DATA     BYTE      SFRPRT2PS
      000000B1H   SFRSYM    DATA     BYTE      SFRPRT3PS
      000000C1H   SFRSYM    DATA     BYTE      SFRPRT4PS
      000000C9H   SFRSYM    DATA     BYTE      SFRPRT5PS
      000000D9H   SFRSYM    DATA     BYTE      SFRPRT6PS
      000000EAH   SFRSYM    DATA     BYTE      MXAX
      000000F0H   SFRSYM    DATA     BYTE      B
      000000E0H   SFRSYM    DATA     BYTE      ACC
      000000D0H   SFRSYM    DATA     BIT       P
      000000D0H.3 SFRSYM    DATA     BIT       RS0
      000000D0H.4 SFRSYM    DATA     BIT       RS1
      00000083H   SFRSYM    DATA     BYTE      DPH
      000000E8H   SFRSYM    DATA     BYTE      SFRPRT12DR
      00000082H   SFRSYM    DATA     BYTE      DPL
      000000F8H   SFRSYM    DATA     BYTE      SFRPRT15DR
      00000086H   SFRSYM    DATA     BYTE      DPS
      000000E9H   SFRSYM    DATA     BYTE      SFRPRT12PS
      00000093H   SFRSYM    DATA     BYTE      DPX
      000000F9H   SFRSYM    DATA     BYTE      SFRPRT15PS
      000000D0H.5 SFRSYM    DATA     BIT       F0
      000000D0H.1 SFRSYM    DATA     BIT       F1
      0000008AH   SFRSYM    DATA     BYTE      SFRPRT0SEL
      000000D0H   SFRSYM    DATA     BYTE      PSW
      000000A2H   SFRSYM    DATA     BYTE      SFRPRT1SEL
      0000009AH   SFRSYM    DATA     BYTE      SFRPRT2SEL
      000000B2H   SFRSYM    DATA     BYTE      SFRPRT3SEL
      000000C2H   SFRSYM    DATA     BYTE      SFRPRT4SEL
      00000007H   SYMBOL    DATA     BYTE      wait
      00000007H   SYMBOL    DATA     BYTE      pDiv
      00000005H   SYMBOL    DATA     BYTE      qDiv
      00000003H   SYMBOL    DATA     BYTE      current
      00000007H   SYMBOL    DATA     BYTE      source
      00000007H   SYMBOL    DATA     BYTE      wait
      00000007H   SYMBOL    DATA     BYTE      poweredOn
      00000006H   SYMBOL    DATA     BYTE      freq
      00000007H   SYMBOL    DATA     BYTE      source
      00000007H   SYMBOL    DATA     BYTE      source
      00000007H   SYMBOL    DATA     BYTE      divider
      00000006H   SYMBOL    DATA     WORD      divider
      00000005H   SYMBOL    DATA     BYTE      masterClkDiv
      00000006H   SYMBOL    DATA     WORD      busClkDiv
      00000001H   SYMBOL    DATA     BYTE      interruptState
      00000007H   SYMBOL    DATA     BYTE      divider
      00000007H   SYMBOL    DATA     BYTE      source
      00000007H   SYMBOL    DATA     BYTE      source
      00000007H   SYMBOL    DATA     BYTE      mode
      00000006H   SYMBOL    DATA     BYTE      state
      00000007H   SYMBOL    DATA     BYTE      mode
      00000007H   SYMBOL    DATA     BYTE      wait
      00000007H   SYMBOL    DATA     BYTE      setting
      00000007H   SYMBOL    DATA     BYTE      setting
      00000007H   SYMBOL    DATA     BYTE      setting
      00000000H   SYMBOL    XSTK     BYTE      reason

      01009257H   BLOCK     CODE     ---       LVL=0
      01009257H   LINE      CODE     ---       #1666
      01009257H   LINE      CODE     ---       #1667
      01009257H   LINE      CODE     ---       #1668
      0100925EH   LINE      CODE     ---       #1669
      ---         BLOCKEND  ---      ---       LVL=0

LX51 LINKER/LOCATER V4.64.0.0                                                         04/17/2018  14:39:23  PAGE 74


      010084DAH   BLOCK     CODE     ---       LVL=0
      00000000H   SYMBOL    XSTK     DWORD     milliseconds
      010084DAH   LINE      CODE     ---       #1692
      010084E3H   LINE      CODE     ---       #1694
      010084F9H   LINE      CODE     ---       #1695
      010084F9H   LINE      CODE     ---       #1700
      0100850AH   LINE      CODE     ---       #1701
      01008534H   LINE      CODE     ---       #1702
      01008536H   LINE      CODE     ---       #1704
      0100855BH   LINE      CODE     ---       #1705
      ---         BLOCKEND  ---      ---       LVL=0
      00000000H   SYMBOL    XSTK     DWORD     freq
      00000007H   SYMBOL    DATA     BYTE      ticks
      00000005H   SYMBOL    DATA     BYTE      lpMode
      0200160CH   SYMBOL    XDATA    BYTE      interruptStatus
      00000005H   SYMBOL    DATA     BYTE      interruptState
      00000005H   SYMBOL    DATA     BYTE      interruptState
      00000003H   SYMBOL    DATA     BYTE      interruptState

      0100891BH   BLOCK     CODE     ---       LVL=0
      02000000H   SYMBOL    XDATA    BYTE      number
      02000001H   SYMBOL    XDATA    ---       address
      01008928H   BLOCK     CODE     NEAR LAB  LVL=1
      02000003H   SYMBOL    XDATA    ---       oldIsr
      ---         BLOCKEND  ---      ---       LVL=1
      0100891BH   LINE      CODE     ---       #2641
      01008928H   LINE      CODE     ---       #2642
      01008928H   LINE      CODE     ---       #2648
      01008946H   LINE      CODE     ---       #2652
      01008966H   LINE      CODE     ---       #2654
      0100896EH   LINE      CODE     ---       #2655
      ---         BLOCKEND  ---      ---       LVL=0
      00000007H   SYMBOL    DATA     BYTE      number

      01008F76H   BLOCK     CODE     ---       LVL=0
      00000004H   SYMBOL    DATA     BYTE      number
      00000005H   SYMBOL    DATA     BYTE      priority
      01008F76H   LINE      CODE     ---       #2696
      01008F78H   LINE      CODE     ---       #2697
      01008F78H   LINE      CODE     ---       #2702
      01008F8EH   LINE      CODE     ---       #2704
      ---         BLOCKEND  ---      ---       LVL=0
      00000007H   SYMBOL    DATA     BYTE      number
      00000007H   SYMBOL    DATA     BYTE      priority
      00000005H   SYMBOL    DATA     BYTE      number
      00000006H   SYMBOL    DATA     ---       stateReg

      ---         MODULE    ---      ---       SPI_IMU
      02001626H   PUBLIC    XDATA    BYTE      SPI_IMU_initVar
      02001625H   PUBLIC    XDATA    BYTE      SPI_IMU_swStatusTx
      02001624H   PUBLIC    XDATA    BYTE      SPI_IMU_swStatusRx
      01009159H   PUBLIC    CODE     ---       SPI_IMU_ReadStatus
      01008EC5H   PUBLIC    CODE     ---       SPI_IMU_ClearFIFO
      01009107H   PUBLIC    CODE     ---       SPI_IMU_ClearTxBuffer
      0100914AH   PUBLIC    CODE     ---       SPI_IMU_ClearRxBuffer
      010092B0H   PUBLIC    CODE     ---       SPI_IMU_ReadRxData
      010091D9H   PUBLIC    CODE     ---       _SPI_IMU_WriteTxData
      010092AAH   PUBLIC    CODE     ---       SPI_IMU_ReadRxStatus
      010092A4H   PUBLIC    CODE     ---       SPI_IMU_ReadTxStatus
      010092CEH   PUBLIC    CODE     ---       SPI_IMU_EnableRxInt
      010092CDH   PUBLIC    CODE     ---       SPI_IMU_EnableTxInt
      010090CFH   PUBLIC    CODE     ---       SPI_IMU_Start
      01008E40H   PUBLIC    CODE     ---       SPI_IMU_Enable
      01008F8FH   PUBLIC    CODE     ---       SPI_IMU_Init
      000000CAH   SFRSYM    DATA     BYTE      SFRPRT5SEL
LX51 LINKER/LOCATER V4.64.0.0                                                         04/17/2018  14:39:23  PAGE 75


      000000DAH   SFRSYM    DATA     BYTE      SFRPRT6SEL
      000000D0H.6 SFRSYM    DATA     BIT       AC
      000000A8H.7 SFRSYM    DATA     BIT       EA
      000000A8H   SFRSYM    DATA     BYTE      IE
      00000085H   SFRSYM    DATA     BYTE      DPH1
      00000084H   SFRSYM    DATA     BYTE      DPL1
      000000D0H.7 SFRSYM    DATA     BIT       CY
      000000A0H   SFRSYM    DATA     BYTE      P2AX
      00000095H   SFRSYM    DATA     BYTE      DPX1
      00000081H   SFRSYM    DATA     BYTE      SP
      000000D0H.2 SFRSYM    DATA     BIT       OV
      00000080H   SFRSYM    DATA     BYTE      SFRPRT0DR
      00000090H   SFRSYM    DATA     BYTE      SFRPRT1DR
      000000F2H   SFRSYM    DATA     BYTE      SFRPRT12SEL
      00000098H   SFRSYM    DATA     BYTE      SFRPRT2DR
      000000B0H   SFRSYM    DATA     BYTE      SFRPRT3DR
      000000C0H   SFRSYM    DATA     BYTE      SFRPRT4DR
      000000FAH   SFRSYM    DATA     BYTE      SFRPRT15SEL
      000000C8H   SFRSYM    DATA     BYTE      SFRPRT5DR
      000000D8H   SFRSYM    DATA     BYTE      SFRPRT6DR
      00000089H   SFRSYM    DATA     BYTE      SFRPRT0PS
      00000091H   SFRSYM    DATA     BYTE      SFRPRT1PS
      00000099H   SFRSYM    DATA     BYTE      SFRPRT2PS
      000000B1H   SFRSYM    DATA     BYTE      SFRPRT3PS
      000000C1H   SFRSYM    DATA     BYTE      SFRPRT4PS
      000000C9H   SFRSYM    DATA     BYTE      SFRPRT5PS
      000000D9H   SFRSYM    DATA     BYTE      SFRPRT6PS
      000000EAH   SFRSYM    DATA     BYTE      MXAX
      000000F0H   SFRSYM    DATA     BYTE      B
      000000E0H   SFRSYM    DATA     BYTE      ACC
      000000D0H   SFRSYM    DATA     BIT       P
      000000D0H.3 SFRSYM    DATA     BIT       RS0
      000000D0H.4 SFRSYM    DATA     BIT       RS1
      00000083H   SFRSYM    DATA     BYTE      DPH
      000000E8H   SFRSYM    DATA     BYTE      SFRPRT12DR
      00000082H   SFRSYM    DATA     BYTE      DPL
      000000F8H   SFRSYM    DATA     BYTE      SFRPRT15DR
      00000086H   SFRSYM    DATA     BYTE      DPS
      000000E9H   SFRSYM    DATA     BYTE      SFRPRT12PS
      00000093H   SFRSYM    DATA     BYTE      DPX
      000000F9H   SFRSYM    DATA     BYTE      SFRPRT15PS
      000000D0H.5 SFRSYM    DATA     BIT       F0
      000000D0H.1 SFRSYM    DATA     BIT       F1
      0000008AH   SFRSYM    DATA     BYTE      SFRPRT0SEL
      000000D0H   SFRSYM    DATA     BYTE      PSW
      000000A2H   SFRSYM    DATA     BYTE      SFRPRT1SEL
      0000009AH   SFRSYM    DATA     BYTE      SFRPRT2SEL
      000000B2H   SFRSYM    DATA     BYTE      SFRPRT3SEL
      000000C2H   SFRSYM    DATA     BYTE      SFRPRT4SEL

      01008F8FH   BLOCK     CODE     ---       LVL=0
      01008F8FH   LINE      CODE     ---       #63
      01008F8FH   LINE      CODE     ---       #64
      01008F8FH   LINE      CODE     ---       #66
      01008F95H   LINE      CODE     ---       #83
      01008F98H   LINE      CODE     ---       #97
      01008F9BH   LINE      CODE     ---       #98
      01008F9EH   LINE      CODE     ---       #101
      01008FA3H   LINE      CODE     ---       #102
      01008FA7H   LINE      CODE     ---       #103
      ---         BLOCKEND  ---      ---       LVL=0

      01008E40H   BLOCK     CODE     ---       LVL=0
      01008E40H   BLOCK     CODE     NEAR LAB  LVL=1
      00000007H   SYMBOL    DATA     BYTE      enableInterrupts
LX51 LINKER/LOCATER V4.64.0.0                                                         04/17/2018  14:39:23  PAGE 76


      ---         BLOCKEND  ---      ---       LVL=1
      01008E40H   LINE      CODE     ---       #120
      01008E40H   LINE      CODE     ---       #121
      01008E40H   LINE      CODE     ---       #124
      01008E43H   LINE      CODE     ---       #125
      01008E4AH   LINE      CODE     ---       #126
      01008E51H   LINE      CODE     ---       #127
      01008E58H   LINE      CODE     ---       #128
      01008E5BH   LINE      CODE     ---       #131
      01008E5EH   LINE      CODE     ---       #134
      01008E61H   LINE      CODE     ---       #135
      01008E64H   LINE      CODE     ---       #136
      ---         BLOCKEND  ---      ---       LVL=0

      010090CFH   BLOCK     CODE     ---       LVL=0
      010090CFH   LINE      CODE     ---       #163
      010090CFH   LINE      CODE     ---       #164
      010090CFH   LINE      CODE     ---       #165
      010090D5H   LINE      CODE     ---       #166
      010090D5H   LINE      CODE     ---       #167
      010090D8H   LINE      CODE     ---       #168
      010090DEH   LINE      CODE     ---       #169
      010090DEH   LINE      CODE     ---       #171
      010090E1H   LINE      CODE     ---       #172
      ---         BLOCKEND  ---      ---       LVL=0
      00000007H   SYMBOL    DATA     BYTE      enableInterrupts

      010092CDH   BLOCK     CODE     ---       LVL=0
      010092CDH   LINE      CODE     ---       #227
      010092CDH   LINE      CODE     ---       #228
      010092CDH   LINE      CODE     ---       #232
      ---         BLOCKEND  ---      ---       LVL=0

      010092CEH   BLOCK     CODE     ---       LVL=0
      010092CEH   LINE      CODE     ---       #252
      010092CEH   LINE      CODE     ---       #253
      010092CEH   LINE      CODE     ---       #257
      ---         BLOCKEND  ---      ---       LVL=0
      00000007H   SYMBOL    DATA     BYTE      intSrc
      00000007H   SYMBOL    DATA     BYTE      intSrc

      010092A4H   BLOCK     CODE     ---       LVL=0
      010092A4H   BLOCK     CODE     NEAR LAB  LVL=1
      00000007H   SYMBOL    DATA     BYTE      tmpStatus
      ---         BLOCKEND  ---      ---       LVL=1
      010092A4H   LINE      CODE     ---       #386
      010092A4H   LINE      CODE     ---       #387
      010092A4H   LINE      CODE     ---       #401
      010092A9H   LINE      CODE     ---       #405
      010092A9H   LINE      CODE     ---       #406
      ---         BLOCKEND  ---      ---       LVL=0

      010092AAH   BLOCK     CODE     ---       LVL=0
      010092AAH   BLOCK     CODE     NEAR LAB  LVL=1
      00000007H   SYMBOL    DATA     BYTE      tmpStatus
      ---         BLOCKEND  ---      ---       LVL=1
      010092AAH   LINE      CODE     ---       #437
      010092AAH   LINE      CODE     ---       #438
      010092AAH   LINE      CODE     ---       #452
      010092AFH   LINE      CODE     ---       #456
      010092AFH   LINE      CODE     ---       #457
      ---         BLOCKEND  ---      ---       LVL=0

      010091D9H   BLOCK     CODE     ---       LVL=0
      00000007H   SYMBOL    DATA     BYTE      txData
LX51 LINKER/LOCATER V4.64.0.0                                                         04/17/2018  14:39:23  PAGE 77


      010091D9H   LINE      CODE     ---       #494
      010091D9H   LINE      CODE     ---       #495
      010091D9H   LINE      CODE     ---       #557
      010091E0H   LINE      CODE     ---       #558
      010091E0H   LINE      CODE     ---       #559
      010091E0H   LINE      CODE     ---       #562
      010091E5H   LINE      CODE     ---       #565
      ---         BLOCKEND  ---      ---       LVL=0

      010092B0H   BLOCK     CODE     ---       LVL=0
      010092B0H   BLOCK     CODE     NEAR LAB  LVL=1
      00000007H   SYMBOL    DATA     BYTE      rxData
      ---         BLOCKEND  ---      ---       LVL=1
      010092B0H   LINE      CODE     ---       #602
      010092B0H   LINE      CODE     ---       #603
      010092B0H   LINE      CODE     ---       #633
      010092B5H   LINE      CODE     ---       #637
      010092B5H   LINE      CODE     ---       #638
      ---         BLOCKEND  ---      ---       LVL=0
      00000007H   SYMBOL    DATA     BYTE      size
      00000007H   SYMBOL    DATA     BYTE      size

      0100914AH   BLOCK     CODE     ---       LVL=0
      0100914AH   LINE      CODE     ---       #806
      0100914AH   LINE      CODE     ---       #807
      0100914AH   LINE      CODE     ---       #809
      01009151H   LINE      CODE     ---       #810
      01009151H   LINE      CODE     ---       #811
      01009156H   LINE      CODE     ---       #812
      01009158H   LINE      CODE     ---       #824
      ---         BLOCKEND  ---      ---       LVL=0

      01009107H   BLOCK     CODE     ---       LVL=0
      01009107H   BLOCK     CODE     NEAR LAB  LVL=1
      00000007H   SYMBOL    DATA     BYTE      enableInterrupts
      ---         BLOCKEND  ---      ---       LVL=1
      01009107H   LINE      CODE     ---       #861
      01009107H   LINE      CODE     ---       #862
      01009107H   LINE      CODE     ---       #865
      0100910AH   LINE      CODE     ---       #867
      01009111H   LINE      CODE     ---       #868
      01009115H   LINE      CODE     ---       #875
      01009118H   LINE      CODE     ---       #890
      ---         BLOCKEND  ---      ---       LVL=0
      00000005H   SYMBOL    DATA     BYTE      byteCount
      00000006H   SYMBOL    DATA     BYTE      bufIndex

      01008EC5H   BLOCK     CODE     ---       LVL=0
      01008EC5H   BLOCK     CODE     NEAR LAB  LVL=1
      00000007H   SYMBOL    DATA     BYTE      enableInterrupts
      ---         BLOCKEND  ---      ---       LVL=1
      01008EC5H   LINE      CODE     ---       #995
      01008EC5H   LINE      CODE     ---       #996
      01008EC5H   LINE      CODE     ---       #1000
      01008ECCH   LINE      CODE     ---       #1001
      01008ECCH   LINE      CODE     ---       #1002
      01008ED1H   LINE      CODE     ---       #1003
      01008ED3H   LINE      CODE     ---       #1005
      01008ED6H   LINE      CODE     ---       #1007
      01008EDDH   LINE      CODE     ---       #1008
      01008EE1H   LINE      CODE     ---       #1015
      01008EE4H   LINE      CODE     ---       #1016
      ---         BLOCKEND  ---      ---       LVL=0
      00000007H   SYMBOL    DATA     BYTE      intSrc

LX51 LINKER/LOCATER V4.64.0.0                                                         04/17/2018  14:39:23  PAGE 78


      01009159H   BLOCK     CODE     ---       LVL=0
      01009159H   BLOCK     CODE     NEAR LAB  LVL=1
      00000007H   SYMBOL    DATA     BYTE      tmpStatus
      ---         BLOCKEND  ---      ---       LVL=1
      01009159H   LINE      CODE     ---       #1125
      01009159H   LINE      CODE     ---       #1126
      01009159H   LINE      CODE     ---       #1144
      0100915EH   LINE      CODE     ---       #1145
      01009164H   LINE      CODE     ---       #1146
      01009167H   LINE      CODE     ---       #1150
      01009167H   LINE      CODE     ---       #1151
      ---         BLOCKEND  ---      ---       LVL=0

      ---         MODULE    ---      ---       OPTO_PIN
      0100912BH   PUBLIC    CODE     ---       _Opto_Pin_Write

      0100912BH   BLOCK     CODE     ---       LVL=0
      00000007H   SYMBOL    DATA     BYTE      value
      0100912BH   BLOCK     CODE     NEAR LAB  LVL=1
      00000006H   SYMBOL    DATA     BYTE      staticBits
      ---         BLOCKEND  ---      ---       LVL=1
      0100912BH   LINE      CODE     ---       #53
      0100912BH   LINE      CODE     ---       #54
      0100912BH   LINE      CODE     ---       #55
      01009132H   LINE      CODE     ---       #56
      0100913AH   LINE      CODE     ---       #57
      ---         BLOCKEND  ---      ---       LVL=0
      00000007H   SYMBOL    DATA     BYTE      mode

      ---         MODULE    ---      ---       CHIP_SELECT_A
      010092B6H   PUBLIC    CODE     ---       _Chip_Select_A_Write

      010092B6H   BLOCK     CODE     ---       LVL=0
      00000007H   SYMBOL    DATA     BYTE      control
      010092B6H   LINE      CODE     ---       #37
      010092B6H   LINE      CODE     ---       #38
      010092B6H   LINE      CODE     ---       #39
      010092BBH   LINE      CODE     ---       #40
      ---         BLOCKEND  ---      ---       LVL=0

      ---         MODULE    ---      ---       CHIP_SELECT_B
      010092BCH   PUBLIC    CODE     ---       _Chip_Select_B_Write

      010092BCH   BLOCK     CODE     ---       LVL=0
      00000007H   SYMBOL    DATA     BYTE      control
      010092BCH   LINE      CODE     ---       #37
      010092BCH   LINE      CODE     ---       #38
      010092BCH   LINE      CODE     ---       #39
      010092C1H   LINE      CODE     ---       #40
      ---         BLOCKEND  ---      ---       LVL=0

      ---         MODULE    ---      ---       CYBOOTASMKEIL
      0100902FH   PUBLIC    CODE     NEAR LAB  CyEnterCriticalSection
      01008C00H   PUBLIC    CODE     NEAR LAB  _CyDelayCycles
      01008DC0H   PUBLIC    CODE     NEAR LAB  _CyDelayUs
      01008FC0H   PUBLIC    CODE     NEAR LAB  _CyExitCriticalSection

      ---         MODULE    ---      ---       CYMEM
      02000000H   PUBLIC    XDATA    BYTE      ?_cyconfigcpy?BYTE
      01008C3BH   PUBLIC    CODE     NEAR LAB  _cyconfigcpy
      01009168H   PUBLIC    CODE     NEAR LAB  _cyread16
      0100916AH   PUBLIC    CODE     NEAR LAB  _cyread16_nodpx
      010090E2H   PUBLIC    CODE     NEAR LAB  _cyread24
      010090E4H   PUBLIC    CODE     NEAR LAB  _cyread24_nodpx
      01008BF4H   PUBLIC    CODE     NEAR LAB  _cyread8
LX51 LINKER/LOCATER V4.64.0.0                                                         04/17/2018  14:39:23  PAGE 79


      01008BF6H   PUBLIC    CODE     NEAR LAB  _cyread8_nodpx
      01009177H   PUBLIC    CODE     NEAR LAB  _cywrite16
      01009179H   PUBLIC    CODE     NEAR LAB  _cywrite16_nodpx
      01009119H   PUBLIC    CODE     NEAR LAB  _cywrite24
      0100911BH   PUBLIC    CODE     NEAR LAB  _cywrite24_nodpx
      010091F3H   PUBLIC    CODE     NEAR LAB  _cywrite8
      010091F5H   PUBLIC    CODE     NEAR LAB  _cywrite8_nodpx

      ---         MODULE    ---      ---       ?C_STARTUP
      00000000H   PUBLIC    NUMBER   ---       ?C?XPAGE1RST
      00000093H   PUBLIC    DATA     BYTE      ?C?XPAGE1SFR
      01002600H   PUBLIC    CODE     NEAR LAB  ?C_STARTUP
      01007A17H   PUBLIC    CODE     NEAR LAB  STARTUP1
      01002604H   PUBLIC    CODE     NEAR LAB  _dma_wait

      ---         MODULE    ---      ---       UART_RS485_INT
      010081A8H   PUBLIC    CODE     ---       UART_RS485_RXISR
      000000CAH   SFRSYM    DATA     BYTE      SFRPRT5SEL
      000000DAH   SFRSYM    DATA     BYTE      SFRPRT6SEL
      000000D0H.6 SFRSYM    DATA     BIT       AC
      000000A8H.7 SFRSYM    DATA     BIT       EA
      000000A8H   SFRSYM    DATA     BYTE      IE
      00000085H   SFRSYM    DATA     BYTE      DPH1
      00000084H   SFRSYM    DATA     BYTE      DPL1
      000000D0H.7 SFRSYM    DATA     BIT       CY
      000000A0H   SFRSYM    DATA     BYTE      P2AX
      00000095H   SFRSYM    DATA     BYTE      DPX1
      00000081H   SFRSYM    DATA     BYTE      SP
      000000D0H.2 SFRSYM    DATA     BIT       OV
      00000080H   SFRSYM    DATA     BYTE      SFRPRT0DR
      00000090H   SFRSYM    DATA     BYTE      SFRPRT1DR
      000000F2H   SFRSYM    DATA     BYTE      SFRPRT12SEL
      00000098H   SFRSYM    DATA     BYTE      SFRPRT2DR
      000000B0H   SFRSYM    DATA     BYTE      SFRPRT3DR
      000000C0H   SFRSYM    DATA     BYTE      SFRPRT4DR
      000000FAH   SFRSYM    DATA     BYTE      SFRPRT15SEL
      000000C8H   SFRSYM    DATA     BYTE      SFRPRT5DR
      000000D8H   SFRSYM    DATA     BYTE      SFRPRT6DR
      00000089H   SFRSYM    DATA     BYTE      SFRPRT0PS
      00000091H   SFRSYM    DATA     BYTE      SFRPRT1PS
      00000099H   SFRSYM    DATA     BYTE      SFRPRT2PS
      000000B1H   SFRSYM    DATA     BYTE      SFRPRT3PS
      000000C1H   SFRSYM    DATA     BYTE      SFRPRT4PS
      000000C9H   SFRSYM    DATA     BYTE      SFRPRT5PS
      000000D9H   SFRSYM    DATA     BYTE      SFRPRT6PS
      000000EAH   SFRSYM    DATA     BYTE      MXAX
      000000F0H   SFRSYM    DATA     BYTE      B
      000000E0H   SFRSYM    DATA     BYTE      ACC
      000000D0H   SFRSYM    DATA     BIT       P
      000000D0H.3 SFRSYM    DATA     BIT       RS0
      000000D0H.4 SFRSYM    DATA     BIT       RS1
      00000083H   SFRSYM    DATA     BYTE      DPH
      000000E8H   SFRSYM    DATA     BYTE      SFRPRT12DR
      00000082H   SFRSYM    DATA     BYTE      DPL
      000000F8H   SFRSYM    DATA     BYTE      SFRPRT15DR
      00000086H   SFRSYM    DATA     BYTE      DPS
      000000E9H   SFRSYM    DATA     BYTE      SFRPRT12PS
      00000093H   SFRSYM    DATA     BYTE      DPX
      000000F9H   SFRSYM    DATA     BYTE      SFRPRT15PS
      000000D0H.5 SFRSYM    DATA     BIT       F0
      000000D0H.1 SFRSYM    DATA     BIT       F1
      0000008AH   SFRSYM    DATA     BYTE      SFRPRT0SEL
      000000D0H   SFRSYM    DATA     BYTE      PSW
      000000A2H   SFRSYM    DATA     BYTE      SFRPRT1SEL
      0000009AH   SFRSYM    DATA     BYTE      SFRPRT2SEL
LX51 LINKER/LOCATER V4.64.0.0                                                         04/17/2018  14:39:23  PAGE 80


      000000B2H   SFRSYM    DATA     BYTE      SFRPRT3SEL
      000000C2H   SFRSYM    DATA     BYTE      SFRPRT4SEL

      010081A8H   BLOCK     CODE     ---       LVL=0
      010081CBH   BLOCK     CODE     NEAR LAB  LVL=1
      00000006H   SYMBOL    DATA     BYTE      readData
      00000007H   SYMBOL    DATA     BYTE      readStatus
      00000003H   SYMBOL    DATA     BYTE      increment_pointer
      00000002H   SYMBOL    DATA     BYTE      int_en
      ---         BLOCKEND  ---      ---       LVL=1
      010081A8H   LINE      CODE     ---       #59
      010081CBH   LINE      CODE     ---       #63
      010081CDH   LINE      CODE     ---       #79
      010081D1H   LINE      CODE     ---       #80
      010081D9H   LINE      CODE     ---       #84
      010081D9H   LINE      CODE     ---       #86
      010081DEH   LINE      CODE     ---       #90
      010081DFH   LINE      CODE     ---       #95
      010081E4H   LINE      CODE     ---       #96
      010081E4H   LINE      CODE     ---       #101
      010081EAH   LINE      CODE     ---       #109
      010081EAH   LINE      CODE     ---       #111
      010081EEH   LINE      CODE     ---       #112
      010081EEH   LINE      CODE     ---       #114
      010081F3H   LINE      CODE     ---       #141
      01008202H   LINE      CODE     ---       #142
      01008204H   LINE      CODE     ---       #146
      01008207H   LINE      CODE     ---       #147
      01008207H   LINE      CODE     ---       #148
      0100820DH   LINE      CODE     ---       #149
      0100820DH   LINE      CODE     ---       #150
      01008213H   LINE      CODE     ---       #151
      01008213H   LINE      CODE     ---       #153
      01008219H   LINE      CODE     ---       #156
      0100821FH   LINE      CODE     ---       #157
      0100821FH   LINE      CODE     ---       #158
      01008221H   LINE      CODE     ---       #159
      01008221H   LINE      CODE     ---       #162
      0100822DH   LINE      CODE     ---       #163
      0100822DH   LINE      CODE     ---       #164
      01008233H   LINE      CODE     ---       #172
      01008233H   LINE      CODE     ---       #173
      01008233H   LINE      CODE     ---       #174
      01008233H   LINE      CODE     ---       #175
      01008237H   LINE      CODE     ---       #187
      0100823EH   LINE      CODE     ---       #189
      ---         BLOCKEND  ---      ---       LVL=0

      ---         MODULE    ---      ---       CYPM
      000000CAH   SFRSYM    DATA     BYTE      SFRPRT5SEL
      000000DAH   SFRSYM    DATA     BYTE      SFRPRT6SEL
      000000D0H.6 SFRSYM    DATA     BIT       AC
      000000A8H.7 SFRSYM    DATA     BIT       EA
      000000A8H   SFRSYM    DATA     BYTE      IE
      00000085H   SFRSYM    DATA     BYTE      DPH1
      00000084H   SFRSYM    DATA     BYTE      DPL1
      000000D0H.7 SFRSYM    DATA     BIT       CY
      000000A0H   SFRSYM    DATA     BYTE      P2AX
      00000095H   SFRSYM    DATA     BYTE      DPX1
      00000081H   SFRSYM    DATA     BYTE      SP
      000000D0H.2 SFRSYM    DATA     BIT       OV
      00000080H   SFRSYM    DATA     BYTE      SFRPRT0DR
      00000090H   SFRSYM    DATA     BYTE      SFRPRT1DR
      000000F2H   SFRSYM    DATA     BYTE      SFRPRT12SEL
      00000098H   SFRSYM    DATA     BYTE      SFRPRT2DR
LX51 LINKER/LOCATER V4.64.0.0                                                         04/17/2018  14:39:23  PAGE 81


      000000B0H   SFRSYM    DATA     BYTE      SFRPRT3DR
      000000C0H   SFRSYM    DATA     BYTE      SFRPRT4DR
      000000FAH   SFRSYM    DATA     BYTE      SFRPRT15SEL
      000000C8H   SFRSYM    DATA     BYTE      SFRPRT5DR
      000000D8H   SFRSYM    DATA     BYTE      SFRPRT6DR
      00000089H   SFRSYM    DATA     BYTE      SFRPRT0PS
      00000091H   SFRSYM    DATA     BYTE      SFRPRT1PS
      00000099H   SFRSYM    DATA     BYTE      SFRPRT2PS
      000000B1H   SFRSYM    DATA     BYTE      SFRPRT3PS
      000000C1H   SFRSYM    DATA     BYTE      SFRPRT4PS
      000000C9H   SFRSYM    DATA     BYTE      SFRPRT5PS
      000000D9H   SFRSYM    DATA     BYTE      SFRPRT6PS
      000000EAH   SFRSYM    DATA     BYTE      MXAX
      000000F0H   SFRSYM    DATA     BYTE      B
      000000E0H   SFRSYM    DATA     BYTE      ACC
      000000D0H   SFRSYM    DATA     BIT       P
      000000D0H.3 SFRSYM    DATA     BIT       RS0
      000000D0H.4 SFRSYM    DATA     BIT       RS1
      00000083H   SFRSYM    DATA     BYTE      DPH
      000000E8H   SFRSYM    DATA     BYTE      SFRPRT12DR
      00000082H   SFRSYM    DATA     BYTE      DPL
      000000F8H   SFRSYM    DATA     BYTE      SFRPRT15DR
      00000086H   SFRSYM    DATA     BYTE      DPS
      000000E9H   SFRSYM    DATA     BYTE      SFRPRT12PS
      00000093H   SFRSYM    DATA     BYTE      DPX
      000000F9H   SFRSYM    DATA     BYTE      SFRPRT15PS
      000000D0H.5 SFRSYM    DATA     BIT       F0
      000000D0H.1 SFRSYM    DATA     BIT       F1
      0000008AH   SFRSYM    DATA     BYTE      SFRPRT0SEL
      000000D0H   SFRSYM    DATA     BYTE      PSW
      000000A2H   SFRSYM    DATA     BYTE      SFRPRT1SEL
      0000009AH   SFRSYM    DATA     BYTE      SFRPRT2SEL
      000000B2H   SFRSYM    DATA     BYTE      SFRPRT3SEL
      000000C2H   SFRSYM    DATA     BYTE      SFRPRT4SEL
      020015A3H   SYMBOL    XDATA    ---       cyPmClockBackup
      020015B3H   SYMBOL    XDATA    ---       cyPmBackup
      00000006H   SYMBOL    DATA     WORD      clkBusDivTmp
      020015A2H   SYMBOL    XDATA    BYTE      interruptStatus
      00000005H   SYMBOL    DATA     BYTE      interruptState

      ---         MODULE    ---      ---       CYSPC
      0200162AH   PUBLIC    XDATA    BYTE      SpcLockState
      01008F5BH   PUBLIC    CODE     ---       CySpcGetAlgorithm
      010091FFH   PUBLIC    CODE     ---       CySpcUnlock
      01008F04H   PUBLIC    CODE     ---       CySpcLock
      01008D92H   PUBLIC    CODE     ---       _CySpcGetTemp
      0200000CH   PUBLIC    XDATA    BYTE      ?_CySpcWriteRow?BYTE
      0100896FH   PUBLIC    CODE     ---       _CySpcWriteRow
      0200000CH   PUBLIC    XDATA    BYTE      ?_CySpcLoadRow?BYTE
      01008667H   PUBLIC    CODE     ---       _CySpcLoadRow
      010087ACH   PUBLIC    CODE     ---       _CySpcReadData
      01009044H   PUBLIC    CODE     ---       CySpcStart
      000000CAH   SFRSYM    DATA     BYTE      SFRPRT5SEL
      000000DAH   SFRSYM    DATA     BYTE      SFRPRT6SEL
      000000D0H.6 SFRSYM    DATA     BIT       AC
      000000A8H.7 SFRSYM    DATA     BIT       EA
      000000A8H   SFRSYM    DATA     BYTE      IE
      00000085H   SFRSYM    DATA     BYTE      DPH1
      00000084H   SFRSYM    DATA     BYTE      DPL1
      000000D0H.7 SFRSYM    DATA     BIT       CY
      000000A0H   SFRSYM    DATA     BYTE      P2AX
      00000095H   SFRSYM    DATA     BYTE      DPX1
      00000081H   SFRSYM    DATA     BYTE      SP
      000000D0H.2 SFRSYM    DATA     BIT       OV
      00000080H   SFRSYM    DATA     BYTE      SFRPRT0DR
LX51 LINKER/LOCATER V4.64.0.0                                                         04/17/2018  14:39:23  PAGE 82


      00000090H   SFRSYM    DATA     BYTE      SFRPRT1DR
      000000F2H   SFRSYM    DATA     BYTE      SFRPRT12SEL
      00000098H   SFRSYM    DATA     BYTE      SFRPRT2DR
      000000B0H   SFRSYM    DATA     BYTE      SFRPRT3DR
      000000C0H   SFRSYM    DATA     BYTE      SFRPRT4DR
      000000FAH   SFRSYM    DATA     BYTE      SFRPRT15SEL
      000000C8H   SFRSYM    DATA     BYTE      SFRPRT5DR
      000000D8H   SFRSYM    DATA     BYTE      SFRPRT6DR
      00000089H   SFRSYM    DATA     BYTE      SFRPRT0PS
      00000091H   SFRSYM    DATA     BYTE      SFRPRT1PS
      00000099H   SFRSYM    DATA     BYTE      SFRPRT2PS
      000000B1H   SFRSYM    DATA     BYTE      SFRPRT3PS
      000000C1H   SFRSYM    DATA     BYTE      SFRPRT4PS
      000000C9H   SFRSYM    DATA     BYTE      SFRPRT5PS
      000000D9H   SFRSYM    DATA     BYTE      SFRPRT6PS
      000000EAH   SFRSYM    DATA     BYTE      MXAX
      000000F0H   SFRSYM    DATA     BYTE      B
      000000E0H   SFRSYM    DATA     BYTE      ACC
      000000D0H   SFRSYM    DATA     BIT       P
      000000D0H.3 SFRSYM    DATA     BIT       RS0
      000000D0H.4 SFRSYM    DATA     BIT       RS1
      00000083H   SFRSYM    DATA     BYTE      DPH
      000000E8H   SFRSYM    DATA     BYTE      SFRPRT12DR
      00000082H   SFRSYM    DATA     BYTE      DPL
      000000F8H   SFRSYM    DATA     BYTE      SFRPRT15DR
      00000086H   SFRSYM    DATA     BYTE      DPS
      000000E9H   SFRSYM    DATA     BYTE      SFRPRT12PS
      00000093H   SFRSYM    DATA     BYTE      DPX
      000000F9H   SFRSYM    DATA     BYTE      SFRPRT15PS
      000000D0H.5 SFRSYM    DATA     BIT       F0
      000000D0H.1 SFRSYM    DATA     BIT       F1
      0000008AH   SFRSYM    DATA     BYTE      SFRPRT0SEL
      000000D0H   SFRSYM    DATA     BYTE      PSW
      000000A2H   SFRSYM    DATA     BYTE      SFRPRT1SEL
      0000009AH   SFRSYM    DATA     BYTE      SFRPRT2SEL
      000000B2H   SFRSYM    DATA     BYTE      SFRPRT3SEL
      000000C2H   SFRSYM    DATA     BYTE      SFRPRT4SEL

      01009044H   BLOCK     CODE     ---       LVL=0
      01009044H   BLOCK     CODE     NEAR LAB  LVL=1
      00000007H   SYMBOL    DATA     BYTE      interruptState
      ---         BLOCKEND  ---      ---       LVL=1
      01009044H   LINE      CODE     ---       #78
      01009044H   LINE      CODE     ---       #79
      01009044H   LINE      CODE     ---       #81
      01009047H   LINE      CODE     ---       #83
      0100904EH   LINE      CODE     ---       #84
      01009055H   LINE      CODE     ---       #87
      01009058H   LINE      CODE     ---       #88
      ---         BLOCKEND  ---      ---       LVL=0
      00000007H   SYMBOL    DATA     BYTE      interruptState

      010087ACH   BLOCK     CODE     ---       LVL=0
      02000009H   SYMBOL    XDATA    ---       buffer
      0200000CH   SYMBOL    XDATA    BYTE      size
      010087BAH   BLOCK     CODE     NEAR LAB  LVL=1
      0200000DH   SYMBOL    XDATA    BYTE      i
      ---         BLOCKEND  ---      ---       LVL=1
      010087ACH   LINE      CODE     ---       #135
      010087BAH   LINE      CODE     ---       #136
      010087BAH   LINE      CODE     ---       #139
      010087C8H   LINE      CODE     ---       #140
      010087C8H   LINE      CODE     ---       #141
      010087D6H   LINE      CODE     ---       #142
      010087D6H   LINE      CODE     ---       #143
LX51 LINKER/LOCATER V4.64.0.0                                                         04/17/2018  14:39:23  PAGE 83


      010087DDH   LINE      CODE     ---       #144
      010087DFH   LINE      CODE     ---       #145
      010087FEH   LINE      CODE     ---       #146
      01008806H   LINE      CODE     ---       #148
      0100880BH   LINE      CODE     ---       #149
      ---         BLOCKEND  ---      ---       LVL=0
      00000005H   SYMBOL    DATA     BYTE      status
      00000007H   SYMBOL    DATA     BYTE      i

      01008667H   BLOCK     CODE     ---       LVL=0
      00000007H   SYMBOL    DATA     BYTE      array
      0200000DH   SYMBOL    XDATA    ---       buffer
      02000010H   SYMBOL    XDATA    WORD      size
      01008672H   BLOCK     CODE     NEAR LAB  LVL=1
      02000012H   SYMBOL    XDATA    BYTE      status
      00000006H   SYMBOL    DATA     WORD      i
      ---         BLOCKEND  ---      ---       LVL=1
      01008667H   LINE      CODE     ---       #258
      01008672H   LINE      CODE     ---       #259
      01008672H   LINE      CODE     ---       #260
      01008678H   LINE      CODE     ---       #264
      01008680H   LINE      CODE     ---       #265
      01008680H   LINE      CODE     ---       #266
      01008686H   LINE      CODE     ---       #267
      01008689H   LINE      CODE     ---       #268
      0100868CH   LINE      CODE     ---       #271
      01008694H   LINE      CODE     ---       #272
      01008694H   LINE      CODE     ---       #273
      01008699H   LINE      CODE     ---       #275
      010086A9H   LINE      CODE     ---       #276
      010086A9H   LINE      CODE     ---       #277
      010086BFH   LINE      CODE     ---       #278
      010086C6H   LINE      CODE     ---       #279
      010086C6H   LINE      CODE     ---       #281
      010086C6H   LINE      CODE     ---       #282
      010086CCH   LINE      CODE     ---       #283
      010086CCH   LINE      CODE     ---       #284
      010086CEH   LINE      CODE     ---       #286
      010086CEH   LINE      CODE     ---       #287
      010086D4H   LINE      CODE     ---       #288
      010086D4H   LINE      CODE     ---       #290
      010086D9H   LINE      CODE     ---       #291
      ---         BLOCKEND  ---      ---       LVL=0

      0100896FH   BLOCK     CODE     ---       LVL=0
      00000004H   SYMBOL    DATA     BYTE      array
      0200000DH   SYMBOL    XDATA    WORD      address
      00000003H   SYMBOL    DATA     BYTE      tempPolarity
      02000010H   SYMBOL    XDATA    BYTE      tempMagnitude
      01008979H   BLOCK     CODE     NEAR LAB  LVL=1
      00000005H   SYMBOL    DATA     BYTE      status
      ---         BLOCKEND  ---      ---       LVL=1
      0100896FH   LINE      CODE     ---       #464
      01008979H   LINE      CODE     ---       #466
      01008979H   LINE      CODE     ---       #467
      0100897BH   LINE      CODE     ---       #470
      01008983H   LINE      CODE     ---       #471
      01008983H   LINE      CODE     ---       #472
      01008989H   LINE      CODE     ---       #473
      0100898CH   LINE      CODE     ---       #474
      0100898FH   LINE      CODE     ---       #477
      01008997H   LINE      CODE     ---       #478
      01008997H   LINE      CODE     ---       #479
      0100899CH   LINE      CODE     ---       #480
      010089A4H   LINE      CODE     ---       #481
LX51 LINKER/LOCATER V4.64.0.0                                                         04/17/2018  14:39:23  PAGE 84


      010089AEH   LINE      CODE     ---       #482
      010089B0H   LINE      CODE     ---       #483
      010089B8H   LINE      CODE     ---       #484
      010089BAH   LINE      CODE     ---       #486
      010089BAH   LINE      CODE     ---       #487
      010089BCH   LINE      CODE     ---       #488
      010089BCH   LINE      CODE     ---       #489
      010089BEH   LINE      CODE     ---       #491
      010089BEH   LINE      CODE     ---       #492
      010089C0H   LINE      CODE     ---       #493
      010089C0H   LINE      CODE     ---       #495
      010089C2H   LINE      CODE     ---       #496
      ---         BLOCKEND  ---      ---       LVL=0
      00000007H   SYMBOL    DATA     BYTE      array
      00000005H   SYMBOL    DATA     BYTE      sectorNumber
      00000006H   SYMBOL    DATA     BYTE      status

      01008D92H   BLOCK     CODE     ---       LVL=0
      00000007H   SYMBOL    DATA     BYTE      numSamples
      01008D92H   BLOCK     CODE     NEAR LAB  LVL=1
      00000006H   SYMBOL    DATA     BYTE      status
      ---         BLOCKEND  ---      ---       LVL=1
      01008D92H   LINE      CODE     ---       #573
      01008D92H   LINE      CODE     ---       #574
      01008D92H   LINE      CODE     ---       #575
      01008D94H   LINE      CODE     ---       #578
      01008D9CH   LINE      CODE     ---       #579
      01008D9CH   LINE      CODE     ---       #580
      01008DA2H   LINE      CODE     ---       #581
      01008DA5H   LINE      CODE     ---       #582
      01008DA8H   LINE      CODE     ---       #585
      01008DB0H   LINE      CODE     ---       #586
      01008DB0H   LINE      CODE     ---       #587
      01008DB5H   LINE      CODE     ---       #588
      01008DB7H   LINE      CODE     ---       #590
      01008DB7H   LINE      CODE     ---       #591
      01008DB9H   LINE      CODE     ---       #592
      01008DB9H   LINE      CODE     ---       #593
      01008DBBH   LINE      CODE     ---       #595
      01008DBBH   LINE      CODE     ---       #596
      01008DBDH   LINE      CODE     ---       #597
      01008DBDH   LINE      CODE     ---       #599
      01008DBFH   LINE      CODE     ---       #600
      ---         BLOCKEND  ---      ---       LVL=0

      01008F04H   BLOCK     CODE     ---       LVL=0
      01008F04H   BLOCK     CODE     NEAR LAB  LVL=1
      0200000CH   SYMBOL    XDATA    BYTE      status
      00000007H   SYMBOL    DATA     BYTE      interruptState
      ---         BLOCKEND  ---      ---       LVL=1
      01008F04H   LINE      CODE     ---       #618
      01008F04H   LINE      CODE     ---       #619
      01008F04H   LINE      CODE     ---       #620
      01008F0AH   LINE      CODE     ---       #624
      01008F0DH   LINE      CODE     ---       #626
      01008F13H   LINE      CODE     ---       #627
      01008F13H   LINE      CODE     ---       #628
      01008F15H   LINE      CODE     ---       #629
      01008F1AH   LINE      CODE     ---       #647
      01008F1AH   LINE      CODE     ---       #650
      01008F1DH   LINE      CODE     ---       #652
      01008F22H   LINE      CODE     ---       #653
      ---         BLOCKEND  ---      ---       LVL=0

      010091FFH   BLOCK     CODE     ---       LVL=0
LX51 LINKER/LOCATER V4.64.0.0                                                         04/17/2018  14:39:23  PAGE 85


      010091FFH   BLOCK     CODE     NEAR LAB  LVL=1
      00000007H   SYMBOL    DATA     BYTE      interruptState
      ---         BLOCKEND  ---      ---       LVL=1
      010091FFH   LINE      CODE     ---       #670
      010091FFH   LINE      CODE     ---       #671
      010091FFH   LINE      CODE     ---       #675
      01009202H   LINE      CODE     ---       #678
      01009207H   LINE      CODE     ---       #698
      0100920AH   LINE      CODE     ---       #699
      ---         BLOCKEND  ---      ---       LVL=0

      01008F5BH   BLOCK     CODE     ---       LVL=0
      01008F5BH   BLOCK     CODE     NEAR LAB  LVL=1
      00000007H   SYMBOL    DATA     BYTE      status
      ---         BLOCKEND  ---      ---       LVL=1
      01008F5BH   LINE      CODE     ---       #716
      01008F5BH   LINE      CODE     ---       #717
      01008F5BH   LINE      CODE     ---       #718
      01008F5DH   LINE      CODE     ---       #721
      01008F65H   LINE      CODE     ---       #722
      01008F65H   LINE      CODE     ---       #723
      01008F6BH   LINE      CODE     ---       #724
      01008F6EH   LINE      CODE     ---       #725
      01008F71H   LINE      CODE     ---       #726
      01008F73H   LINE      CODE     ---       #728
      01008F73H   LINE      CODE     ---       #729
      01008F75H   LINE      CODE     ---       #730
      01008F75H   LINE      CODE     ---       #732
      01008F75H   LINE      CODE     ---       #733
      ---         BLOCKEND  ---      ---       LVL=0

      ---         MODULE    ---      ---       SPI_IMU_INTCLOCK
      01009186H   PUBLIC    CODE     ---       SPI_IMU_IntClock_Start

      01009186H   BLOCK     CODE     ---       LVL=0
      01009186H   LINE      CODE     ---       #45
      01009186H   LINE      CODE     ---       #46
      01009186H   LINE      CODE     ---       #48
      0100918DH   LINE      CODE     ---       #49
      01009194H   LINE      CODE     ---       #50
      ---         BLOCKEND  ---      ---       LVL=0
      00000007H   SYMBOL    DATA     BYTE      state
      00000007H   SYMBOL    DATA     BYTE      modeBitMask
      00000007H   SYMBOL    DATA     BYTE      modeBitMask
      00000007H   SYMBOL    DATA     BYTE      oldSrc

      ---         MODULE    ---      ---       ?C?FPADD
      01004D88H   PUBLIC    CODE     ---       ?C?FPADD
      01004D84H   PUBLIC    CODE     ---       ?C?FPSUB

      ---         MODULE    ---      ---       ?C?FPMUL
      01004E79H   PUBLIC    CODE     ---       ?C?FPMUL

      ---         MODULE    ---      ---       ?C?FPDIV
      01004F82H   PUBLIC    CODE     ---       ?C?FPDIV

      ---         MODULE    ---      ---       ?C?FPCMP
      01005021H   PUBLIC    CODE     ---       ?C?FPCMP
      0100501FH   PUBLIC    CODE     ---       ?C?FPCMP3

      ---         MODULE    ---      ---       ?C?FPNEG
      01005098H   PUBLIC    CODE     ---       ?C?FPNEG

      ---         MODULE    ---      ---       ?C?FCAST
      010050B3H   PUBLIC    CODE     ---       ?C?FCASTC
LX51 LINKER/LOCATER V4.64.0.0                                                         04/17/2018  14:39:23  PAGE 86


      010050AEH   PUBLIC    CODE     ---       ?C?FCASTI
      010050A9H   PUBLIC    CODE     ---       ?C?FCASTL

      ---         MODULE    ---      ---       PRINTF
      020008AEH   PUBLIC    XDATA    ---       ?_PRINTF?BYTE
      020008AEH   PUBLIC    XDATA    ---       ?_SPRINTF?BYTE
      01005E18H   PUBLIC    CODE     ---       _PRINTF
      01005E12H   PUBLIC    CODE     ---       _SPRINTF

      ---         MODULE    ---      ---       FABS
      010091E6H   PUBLIC    CODE     ---       _FABS

      ---         MODULE    ---      ---       ?C?FPGETOPN
      010050E7H   PUBLIC    CODE     ---       ?C?FPGETOPN2
      0100511CH   PUBLIC    CODE     ---       ?C?FPNANRESULT
      01005126H   PUBLIC    CODE     ---       ?C?FPOVERFLOW
      010050FEH   PUBLIC    CODE     ---       ?C?FPRESULT
      01005112H   PUBLIC    CODE     ---       ?C?FPRESULT2
      01005123H   PUBLIC    CODE     ---       ?C?FPUNDERFLOW

      ---         MODULE    ---      ---       ?C?FPROUND
      01005131H   PUBLIC    CODE     ---       ?C?FPROUND

      ---         MODULE    ---      ---       ?C?FPCONVERT
      0100516EH   PUBLIC    CODE     ---       ?C?FPCONVERT

      ---         MODULE    ---      ---       ?C?FTNPWR
      010052A3H   PUBLIC    CODE     ---       ?C?FTNPWR

      ---         MODULE    ---      ---       ?C_INIT
      01007AECH   PUBLIC    CODE     ---       ?C_START

      ---         MODULE    ---      ---       ?C?CLDPTR
      010052E3H   PUBLIC    CODE     ---       ?C?CLDPTR

      ---         MODULE    ---      ---       ?C?CLDOPTR
      010052FCH   PUBLIC    CODE     ---       ?C?CLDOPTR

      ---         MODULE    ---      ---       ?C?CSTPTR
      01005329H   PUBLIC    CODE     ---       ?C?CSTPTR

      ---         MODULE    ---      ---       ?C?IMUL
      0100533BH   PUBLIC    CODE     ---       ?C?IMUL

      ---         MODULE    ---      ---       ?C?LMUL
      0100534DH   PUBLIC    CODE     ---       ?C?LMUL

      ---         MODULE    ---      ---       ?C?ULDIV
      010053D8H   PUBLIC    CODE     ---       ?C?ULDIV

      ---         MODULE    ---      ---       ?C?LNEG
      0100546AH   PUBLIC    CODE     ---       ?C?LNEG

      ---         MODULE    ---      ---       ?C?ULCMP
      01005478H   PUBLIC    CODE     ---       ?C?ULCMP

      ---         MODULE    ---      ---       ?C?ULSHR
      01005489H   PUBLIC    CODE     ---       ?C?ULSHR

      ---         MODULE    ---      ---       ?C?SLSHR
      0100549CH   PUBLIC    CODE     ---       ?C?SLSHR

      ---         MODULE    ---      ---       ?C?LSHL
      010054B0H   PUBLIC    CODE     ---       ?C?LSHL

LX51 LINKER/LOCATER V4.64.0.0                                                         04/17/2018  14:39:23  PAGE 87


      ---         MODULE    ---      ---       ?C?LLDPTR
      010054C3H   PUBLIC    CODE     ---       ?C?LLDPTR

      ---         MODULE    ---      ---       ?C?LSTPTR
      010054E3H   PUBLIC    CODE     ---       ?C?LSTPTR

      ---         MODULE    ---      ---       ?C?LSTXDATA
      010054FDH   PUBLIC    CODE     ---       ?C?LSTXDATA

      ---         MODULE    ---      ---       ?C?OFFX256
      01005509H   PUBLIC    CODE     ---       ?C?OFFX256

      ---         MODULE    ---      ---       ?C?OFFXADD
      0100551AH   PUBLIC    CODE     ---       ?C?OFFXADD

      ---         MODULE    ---      ---       ?C?PLDIXDATA
      01005526H   PUBLIC    CODE     ---       ?C?PLDIXDATA

      ---         MODULE    ---      ---       ?C?PSTXDATA
      0100553DH   PUBLIC    CODE     ---       ?C?PSTXDATA

      ---         MODULE    ---      ---       ?C?CCASE
      01005546H   PUBLIC    CODE     ---       ?C?CCASE

      ---         MODULE    ---      ---       ?C_XBP
      00000028H   PUBLIC    DATA     ---       ?C_XBP

      ---         MODULE    ---      ---       ?C?ADDXBP
      0100556CH   PUBLIC    CODE     ---       ?C?ADDXBP

      ---         MODULE    ---      ---       ?C?LIMUL
      01005590H   PUBLIC    CODE     ---       ?C?LIMUL

      ---         MODULE    ---      ---       PUTCHAR
      01008E19H   PUBLIC    CODE     ---       _PUTCHAR

      ---         MODULE    ---      ---       STRCAT
      020008AEH   PUBLIC    XDATA    ---       ?_STRCAT?BYTE
      010086DAH   PUBLIC    CODE     ---       _STRCAT

      ---         MODULE    ---      ---       STRLEN
      01009059H   PUBLIC    CODE     ---       _STRLEN

      ---         MODULE    ---      ---       ?C?MEMSET
      010055BDH   PUBLIC    CODE     ---       ?C?MEMSET

      ---         MODULE    ---      ---       ?C?COPYAMD
      010056A5H   PUBLIC    CODE     ---       ?C?COPYAMD

      ---         MODULE    ---      ---       ?C?STRCPYAMD
      01005783H   PUBLIC    CODE     ---       ?C?STRCPYAMD

      ---         MODULE    ---      ---       ?C?IILDX
      010057A0H   PUBLIC    CODE     ---       ?C?IILDX

      ---         MODULE    ---      ---       ?C?ILDIX
      010057B6H   PUBLIC    CODE     ---       ?C?ILDIX

      ---         MODULE    ---      ---       ?C?LLDIDATA
      010057CCH   PUBLIC    CODE     ---       ?C?LLDIDATA

      ---         MODULE    ---      ---       ?C?LLDXDATA
      010057D8H   PUBLIC    CODE     ---       ?C?LLDXDATA

      ---         MODULE    ---      ---       ?C?LLDPDATA
LX51 LINKER/LOCATER V4.64.0.0                                                         04/17/2018  14:39:23  PAGE 88


      010057E4H   PUBLIC    CODE     ---       ?C?LLDPDATA

      ---         MODULE    ---      ---       ?C?LLDCODE
      010057F0H   PUBLIC    CODE     ---       ?C?LLDCODE

      ---         MODULE    ---      ---       ?C?LSTIDATA
      01005800H   PUBLIC    CODE     ---       ?C?LSTIDATA

      ---         MODULE    ---      ---       ?C?LSTPDATA
      0100580CH   PUBLIC    CODE     ---       ?C?LSTPDATA



INTER-MODULE CROSS-REFERENCE LISTING


NAME . . . . . . . . . . . . . . . . . CLASS    MODULE NAMES
============================================================

?_Bootloadable_SetFlashByte?BYTE . . . XDATA    BOOTLOADABLE  
?_cyconfigcpy?BYTE . . . . . . . . . . XDATA    CYMEM  CYFITTER_CFG  
?_CySpcLoadMultiByte?BYTE. . . . . . . XDATA    CYSPC  EEPROM  
?_CySpcLoadRow?BYTE. . . . . . . . . . XDATA    CYSPC  EEPROM  
?_CySpcLoadRowFull?BYTE. . . . . . . . XDATA    CYSPC  CYFLASH  
?_CySpcWriteRow?BYTE . . . . . . . . . XDATA    CYSPC  CYFLASH  EEPROM  
?_CyWriteRowFull?BYTE. . . . . . . . . XDATA    CYFLASH  
?_PRINTF?BYTE. . . . . . . . . . . . . XDATA    PRINTF  
?_SPRINTF?BYTE . . . . . . . . . . . . XDATA    PRINTF  COMMAND_PROCESSING  
?_strcat?BYTE. . . . . . . . . . . . . XDATA    STRCAT  COMMAND_PROCESSING  
?C?ADDXBP. . . . . . . . . . . . . . . CODE     ?C?ADDXBP  CYLIB  
?C?CCASE . . . . . . . . . . . . . . . CODE     ?C?CCASE  COMMAND_PROCESSING  PRINTF  
?C?CLDOPTR . . . . . . . . . . . . . . CODE     ?C?CLDOPTR  PRINTF  
?C?CLDPTR. . . . . . . . . . . . . . . CODE     ?C?CLDPTR  COMMAND_PROCESSING  CYSPC  PRINTF  SPI_IMU  STRCAT  STRLEN  U
                                                ART_RS485  
?C?CODESEG . . . . . . . . . . . . . . NUMBER   ** LX51 GENERATED **  
?C?COPYAMD . . . . . . . . . . . . . . CODE     ?C?COPYAMD  COMMAND_PROCESSING  INTERRUPTIONS  
?C?CSTPTR. . . . . . . . . . . . . . . CODE     ?C?CSTPTR  CYSPC  PRINTF  STRCAT  
?C?FCASTC. . . . . . . . . . . . . . . CODE     ?C?FCAST  
?C?FCASTI. . . . . . . . . . . . . . . CODE     ?C?FCAST  IMU_FUNCTIONS  
?C?FCASTL. . . . . . . . . . . . . . . CODE     ?C?FCAST  COMMAND_PROCESSING  IMU_FUNCTIONS  
?C?FPADD . . . . . . . . . . . . . . . CODE     ?C?FPADD  ?C?FPCONVERT  IMU_FUNCTIONS  UTILS  
?C?FPCMP . . . . . . . . . . . . . . . CODE     ?C?FPCMP  
?C?FPCMP3. . . . . . . . . . . . . . . CODE     ?C?FPCMP  IMU_FUNCTIONS  
?C?FPCONVERT . . . . . . . . . . . . . CODE     ?C?FPCONVERT  PRINTF  
?C?FPDIV . . . . . . . . . . . . . . . CODE     ?C?FPDIV  ?C?FPCONVERT  COMMAND_PROCESSING  IMU_FUNCTIONS  
?C?FPGETOPN2 . . . . . . . . . . . . . CODE     ?C?FPGETOPN  ?C?FPADD  ?C?FPDIV  ?C?FPMUL  
?C?FPMUL . . . . . . . . . . . . . . . CODE     ?C?FPMUL  ?C?FPCONVERT  ?C?FTNPWR  IMU_FUNCTIONS  UTILS  
?C?FPNANRESULT . . . . . . . . . . . . CODE     ?C?FPGETOPN  ?C?FPADD  ?C?FPDIV  ?C?FPMUL  
?C?FPNEG . . . . . . . . . . . . . . . CODE     ?C?FPNEG  IMU_FUNCTIONS  
?C?FPOVERFLOW. . . . . . . . . . . . . CODE     ?C?FPGETOPN  ?C?FPADD  ?C?FPDIV  ?C?FPMUL  
?C?FPRESULT. . . . . . . . . . . . . . CODE     ?C?FPGETOPN  ?C?FPADD  ?C?FPDIV  ?C?FPMUL  
?C?FPRESULT2 . . . . . . . . . . . . . CODE     ?C?FPGETOPN  ?C?FPDIV  ?C?FPMUL  
?C?FPROUND . . . . . . . . . . . . . . CODE     ?C?FPROUND  PRINTF  
?C?FPSUB . . . . . . . . . . . . . . . CODE     ?C?FPADD  IMU_FUNCTIONS  UTILS  
?C?FPUNDERFLOW . . . . . . . . . . . . CODE     ?C?FPGETOPN  ?C?FPADD  ?C?FPDIV  ?C?FPMUL  
?C?FTNPWR. . . . . . . . . . . . . . . CODE     ?C?FTNPWR  ?C?FPCONVERT  
?C?IILDX . . . . . . . . . . . . . . . CODE     ?C?IILDX  STRCAT  
?C?ILDIX . . . . . . . . . . . . . . . CODE     ?C?ILDIX  STRCAT  
?C?IMUL. . . . . . . . . . . . . . . . CODE     ?C?IMUL  COMMAND_PROCESSING  
?C?LIMUL . . . . . . . . . . . . . . . CODE     ?C?LIMUL  CYSPC  
?C?LLDCODE . . . . . . . . . . . . . . CODE     ?C?LLDCODE  ?C?LLDPTR  
?C?LLDIDATA. . . . . . . . . . . . . . CODE     ?C?LLDIDATA  ?C?LLDPTR  
?C?LLDPDATA. . . . . . . . . . . . . . CODE     ?C?LLDPDATA  ?C?LLDPTR  
?C?LLDPTR. . . . . . . . . . . . . . . CODE     ?C?LLDPTR  CYLIB  UTILS  
?C?LLDXDATA. . . . . . . . . . . . . . CODE     ?C?LLDXDATA  ?C?LLDPTR  
LX51 LINKER/LOCATER V4.64.0.0                                                         04/17/2018  14:39:23  PAGE 89


?C?LMUL. . . . . . . . . . . . . . . . CODE     ?C?LMUL  CYLIB  CYPM  
?C?LNEG. . . . . . . . . . . . . . . . CODE     ?C?LNEG  ?C?FCAST  
?C?LSHL. . . . . . . . . . . . . . . . CODE     ?C?LSHL  CYLIB  
?C?LSTIDATA. . . . . . . . . . . . . . CODE     ?C?LSTIDATA  ?C?LSTPTR  
?C?LSTPDATA. . . . . . . . . . . . . . CODE     ?C?LSTPDATA  ?C?LSTPTR  
?C?LSTPTR. . . . . . . . . . . . . . . CODE     ?C?LSTPTR  CYLIB  UTILS  
?C?LSTXDATA. . . . . . . . . . . . . . CODE     ?C?LSTXDATA  ?C?LSTPTR  BOOTLOADABLE  COMMAND_PROCESSING  CYFITTER_CFG  
                                                CYLIB  CYSPC  IMU_FUNCTIONS  INTERRUPTIONS  UTILS  
?C?MEMSET. . . . . . . . . . . . . . . CODE     ?C?MEMSET  COMMAND_PROCESSING  IMU_FUNCTIONS  
?C?OFFX256 . . . . . . . . . . . . . . CODE     ?C?OFFX256  COMMAND_PROCESSING  
?C?OFFXADD . . . . . . . . . . . . . . CODE     ?C?OFFXADD  COMMAND_PROCESSING  IMU_FUNCTIONS  
?C?PLDIXDATA . . . . . . . . . . . . . CODE     ?C?PLDIXDATA  PRINTF  
?C?PSTXDATA. . . . . . . . . . . . . . CODE     ?C?PSTXDATA  PRINTF  
?C?SLSHR . . . . . . . . . . . . . . . CODE     ?C?SLSHR  UTILS  
?C?STRCPYAMD . . . . . . . . . . . . . CODE     ?C?STRCPYAMD  COMMAND_PROCESSING  
?C?ULCMP . . . . . . . . . . . . . . . CODE     ?C?ULCMP  CYFLASH  
?C?ULDIV . . . . . . . . . . . . . . . CODE     ?C?ULDIV  BOOTLOADABLE  CYLIB  CYPM  
?C?ULSHR . . . . . . . . . . . . . . . CODE     ?C?ULSHR  CYLIB  
?C?XDATASEG. . . . . . . . . . . . . . NUMBER   ** LX51 GENERATED **  
?C?XPAGE1RST . . . . . . . . . . . . . NUMBER   ?C_STARTUP  INTERRUPTIONS  ISR_RS485_RX  UART_RS485_INT  
?C?XPAGE1SFR . . . . . . . . . . . . . DATA     ?C_STARTUP  INTERRUPTIONS  ISR_RS485_RX  UART_RS485_INT  
?C_START . . . . . . . . . . . . . . . CODE     ?C_INIT  ?C_STARTUP  
?C_STARTUP . . . . . . . . . . . . . . CODE     ?C_STARTUP  MAIN  
?C_XBP . . . . . . . . . . . . . . . . DATA     ?C_XBP  ?C?ADDXBP  ?C_STARTUP  CYLIB  
_?CyDelay. . . . . . . . . . . . . . . CODE     CYLIB  COMMAND_PROCESSING  CYBOOTASMKEIL  IMU_FUNCTIONS  MAIN  
_?CyDelayFreq. . . . . . . . . . . . . CODE     CYLIB  
_?CyHalt . . . . . . . . . . . . . . . CODE     CYLIB  
_Bootloadable_SetFlashByte . . . . . . CODE     BOOTLOADABLE  
_cfg_write_bytes . . . . . . . . . . . CODE     CYMEM  
_cfg_write_bytes_code. . . . . . . . . CODE     CYMEM  
_Chip_Select_A_Write . . . . . . . . . CODE     CHIP_SELECT_A  IMU_FUNCTIONS  
_Chip_Select_B_Write . . . . . . . . . CODE     CHIP_SELECT_B  IMU_FUNCTIONS  
_ChipSelector. . . . . . . . . . . . . CODE     IMU_FUNCTIONS  
_CLOCK_UART_ClearModeRegister. . . . . CODE     CLOCK_UART  
_CLOCK_UART_SetDividerRegister . . . . CODE     CLOCK_UART  COMMAND_PROCESSING  
_CLOCK_UART_SetModeRegister. . . . . . CODE     CLOCK_UART  
_CLOCK_UART_SetSourceRegister. . . . . CODE     CLOCK_UART  
_CLOCK_UART_StandbyPower . . . . . . . CODE     CLOCK_UART  
_commWrite . . . . . . . . . . . . . . CODE     COMMAND_PROCESSING  
_CyBusClk_SetDivider . . . . . . . . . CODE     CYLIB  CYPM  
_cyconfigcpy . . . . . . . . . . . . . CODE     CYMEM  CYFITTER_CFG  
_cyconfigcpycode . . . . . . . . . . . CODE     CYMEM  
_CyCpuClk_SetDivider . . . . . . . . . CODE     CYLIB  
_CyDelay . . . . . . . . . . . . . . . CODE     CYBOOTASMKEIL  
_CyDelayCycles . . . . . . . . . . . . CODE     CYBOOTASMKEIL  CYFITTER_CFG  CYLIB  CYPM  
_CyDelayUs . . . . . . . . . . . . . . CODE     CYBOOTASMKEIL  CYFLASH  CYLIB  CYPM  CYSPC  IMU_FUNCTIONS  
_CyEnableInts. . . . . . . . . . . . . CODE     CYLIB  
_CyExitCriticalSection . . . . . . . . CODE     CYBOOTASMKEIL  CYFLASH  CYLIB  CYPM  CYSPC  EEPROM  FF_STATUS  MY_TIMER 
                                                 SPI_IMU  UART_RS485  
_CyFlash_SetWaitCycles . . . . . . . . CODE     CYFLASH  CYPM  
_CyGetUniqueId . . . . . . . . . . . . CODE     CYLIB  
_CyILO_SetPowerMode. . . . . . . . . . CODE     CYLIB  CYPM  
_CyILO_SetSource . . . . . . . . . . . CODE     CYLIB  
_CyIMO_SetFreq . . . . . . . . . . . . CODE     CYLIB  CYPM  
_CyIMO_SetSource . . . . . . . . . . . CODE     CYLIB  CYPM  
_CyIMO_Start . . . . . . . . . . . . . CODE     CYLIB  CYPM  
_CyIntGetPriority. . . . . . . . . . . CODE     CYLIB  
_CyIntGetState . . . . . . . . . . . . CODE     CYLIB  
_CyIntGetVector. . . . . . . . . . . . CODE     CYLIB  
_CyIntSetPriority. . . . . . . . . . . CODE     CYLIB  UART_RS485  
_CyIntSetVector. . . . . . . . . . . . CODE     CYLIB  UART_RS485  
_CyMasterClk_SetDivider. . . . . . . . CODE     CYLIB  CYPM  
_CyMasterClk_SetSource . . . . . . . . CODE     CYLIB  CYPM  
_cymemzero . . . . . . . . . . . . . . CODE     CYMEM  
_CyPLL_OUT_SetPQ . . . . . . . . . . . CODE     CYLIB  
LX51 LINKER/LOCATER V4.64.0.0                                                         04/17/2018  14:39:23  PAGE 90


_CyPLL_OUT_SetSource . . . . . . . . . CODE     CYLIB  
_CyPLL_OUT_Start . . . . . . . . . . . CODE     CYLIB  CYPM  
_CyPmAltAct. . . . . . . . . . . . . . CODE     CYPM  
_CyPmCtwSetInterval. . . . . . . . . . CODE     CYPM  
_CyPmFtwSetInterval. . . . . . . . . . CODE     CYPM  CYLIB  
_CyPmHibernateEx . . . . . . . . . . . CODE     CYPM  
_CyPmReadStatus. . . . . . . . . . . . CODE     CYPM  CYLIB  
_CyPmSleep . . . . . . . . . . . . . . CODE     CYPM  
_cyread16. . . . . . . . . . . . . . . CODE     CYMEM  
_cyread16_nodpx. . . . . . . . . . . . CODE     CYMEM  CLOCK_UART  CYLIB  ISR_RS485_RX  PACER_TIMER  SPI_IMU_INTCLOCK  
_cyread24. . . . . . . . . . . . . . . CODE     CYMEM  
_cyread24_nodpx. . . . . . . . . . . . CODE     CYMEM  MY_TIMER  
_cyread32. . . . . . . . . . . . . . . CODE     CYMEM  
_cyread32_nodpx. . . . . . . . . . . . CODE     CYMEM  
_cyread8 . . . . . . . . . . . . . . . CODE     CYMEM  CYFITTER_CFG  CYLIB  CYSPC  
_cyread8_nodpx . . . . . . . . . . . . CODE     CYMEM  
_CySetFlashEEBuffer. . . . . . . . . . CODE     CYFLASH  
_CySpcEraseSector. . . . . . . . . . . CODE     CYSPC  EEPROM  
_CySpcGetTemp. . . . . . . . . . . . . CODE     CYSPC  CYFLASH  
_CySpcLoadMultiByte. . . . . . . . . . CODE     CYSPC  EEPROM  
_CySpcLoadRow. . . . . . . . . . . . . CODE     CYSPC  EEPROM  
_CySpcLoadRowFull. . . . . . . . . . . CODE     CYSPC  CYFLASH  
_CySpcReadData . . . . . . . . . . . . CODE     CYSPC  CYFLASH  
_CySpcWriteRow . . . . . . . . . . . . CODE     CYSPC  CYFLASH  EEPROM  
_CyUsbClk_SetSource. . . . . . . . . . CODE     CYLIB  
_CyVdLvAnalogEnable. . . . . . . . . . CODE     CYLIB  CYPM  
_CyVdLvDigitEnable . . . . . . . . . . CODE     CYLIB  CYPM  
_CyVdStickyStatus. . . . . . . . . . . CODE     CYLIB  
_CyWdtStart. . . . . . . . . . . . . . CODE     CYLIB  
_cywrite16 . . . . . . . . . . . . . . CODE     CYMEM  CYFITTER_CFG  
_cywrite16_nodpx . . . . . . . . . . . CODE     CYMEM  CLOCK_UART  CYFITTER_CFG  CYLIB  ISR_RS485_RX  PACER_TIMER  SPI_I
                                                MU_INTCLOCK  
_cywrite24 . . . . . . . . . . . . . . CODE     CYMEM  
_cywrite24_nodpx . . . . . . . . . . . CODE     CYMEM  MY_TIMER  
_cywrite32 . . . . . . . . . . . . . . CODE     CYMEM  
_cywrite32_nodpx . . . . . . . . . . . CODE     CYMEM  
_cywrite8. . . . . . . . . . . . . . . CODE     CYMEM  CYFITTER_CFG  
_cywrite8_nodpx. . . . . . . . . . . . CODE     CYMEM  
_CyWriteRowData. . . . . . . . . . . . CODE     CYFLASH  BOOTLOADABLE  
_CyWriteRowFull. . . . . . . . . . . . CODE     CYFLASH  
_CyXTAL_32KHZ_SetPowerMode . . . . . . CODE     CYLIB  
_CyXTAL_SetFbVoltage . . . . . . . . . CODE     CYLIB  
_CyXTAL_SetStartup . . . . . . . . . . CODE     CYLIB  
_CyXTAL_SetWdVoltage . . . . . . . . . CODE     CYLIB  
_CyXTAL_Start. . . . . . . . . . . . . CODE     CYLIB  CYPM  
_dma_wait. . . . . . . . . . . . . . . CODE     ?C_STARTUP  
_EEPROM_ByteWritePos . . . . . . . . . CODE     EEPROM  
_EEPROM_EraseSector. . . . . . . . . . CODE     EEPROM  
_EEPROM_ReadByte . . . . . . . . . . . CODE     EEPROM  
_EEPROM_StartErase . . . . . . . . . . CODE     EEPROM  
_EEPROM_StartWrite . . . . . . . . . . CODE     EEPROM  
_EEPROM_Write. . . . . . . . . . . . . CODE     EEPROM  COMMAND_PROCESSING  
_EEPROM_WriteByte. . . . . . . . . . . CODE     EEPROM  
_FABS. . . . . . . . . . . . . . . . . CODE     FABS  IMU_FUNCTIONS  
_FF_STATUS_WriteMask . . . . . . . . . CODE     FF_STATUS  
_FTDI_ENABLE_REG_Write . . . . . . . . CODE     FTDI_ENABLE_REG  COMMAND_PROCESSING  MAIN  
_get_param_list. . . . . . . . . . . . CODE     COMMAND_PROCESSING  
_infoGet . . . . . . . . . . . . . . . CODE     COMMAND_PROCESSING  INTERRUPTIONS  
_infoPrepare . . . . . . . . . . . . . CODE     COMMAND_PROCESSING  
_infoReading . . . . . . . . . . . . . CODE     COMMAND_PROCESSING  
_invSqrt . . . . . . . . . . . . . . . CODE     UTILS  
_ISR_RS485_RX_SetPriority. . . . . . . CODE     ISR_RS485_RX  
_ISR_RS485_RX_SetVector. . . . . . . . CODE     ISR_RS485_RX  
_ISR_RS485_RX_StartEx. . . . . . . . . CODE     ISR_RS485_RX  MAIN  
_LCRChecksum . . . . . . . . . . . . . CODE     COMMAND_PROCESSING  
LX51 LINKER/LOCATER V4.64.0.0                                                         04/17/2018  14:39:23  PAGE 91


_memStore. . . . . . . . . . . . . . . CODE     COMMAND_PROCESSING  
_MY_TIMER_SetInterruptMode . . . . . . CODE     MY_TIMER  
_MY_TIMER_WriteControlRegister . . . . CODE     MY_TIMER  
_MY_TIMER_WriteCounter . . . . . . . . CODE     MY_TIMER  INTERRUPTIONS  
_MY_TIMER_WritePeriod. . . . . . . . . CODE     MY_TIMER  
_Opto_Pin_SetDriveMode . . . . . . . . CODE     OPTO_PIN  
_Opto_Pin_Write. . . . . . . . . . . . CODE     OPTO_PIN  IMU_FUNCTIONS  MAIN  
_PACER_TIMER_SetInterruptMode. . . . . CODE     PACER_TIMER  
_PACER_TIMER_WriteControlRegister. . . CODE     PACER_TIMER  
_PACER_TIMER_WriteCounter. . . . . . . CODE     PACER_TIMER  
_PACER_TIMER_WritePeriod . . . . . . . CODE     PACER_TIMER  
_PRINTF. . . . . . . . . . . . . . . . CODE     PRINTF  
_PUTCHAR . . . . . . . . . . . . . . . CODE     PUTCHAR  PRINTF  
_ReadAcc . . . . . . . . . . . . . . . CODE     IMU_FUNCTIONS  
_ReadControlRegister . . . . . . . . . CODE     IMU_FUNCTIONS  
_ReadGyro. . . . . . . . . . . . . . . CODE     IMU_FUNCTIONS  
_ReadIMU . . . . . . . . . . . . . . . CODE     IMU_FUNCTIONS  
_ReadMag . . . . . . . . . . . . . . . CODE     IMU_FUNCTIONS  
_ReadMagCal. . . . . . . . . . . . . . CODE     IMU_FUNCTIONS  
_ReadQuat. . . . . . . . . . . . . . . CODE     IMU_FUNCTIONS  
_ReadTemp. . . . . . . . . . . . . . . CODE     IMU_FUNCTIONS  
_RESET_FF_Write. . . . . . . . . . . . CODE     RESET_FF  MAIN  
_RS485_CTS_Write . . . . . . . . . . . CODE     RS485_CTS  COMMAND_PROCESSING  INTERRUPTIONS  MAIN  
_sendAcknowledgment. . . . . . . . . . CODE     COMMAND_PROCESSING  
_SetAnalogRoutingPumps . . . . . . . . CODE     CYFITTER_CFG  
_SPI_IMU_IntClock_ClearModeRegister. . CODE     SPI_IMU_INTCLOCK  
_SPI_IMU_IntClock_SetDividerRegister . CODE     SPI_IMU_INTCLOCK  
_SPI_IMU_IntClock_SetModeRegister. . . CODE     SPI_IMU_INTCLOCK  
_SPI_IMU_IntClock_SetSourceRegister. . CODE     SPI_IMU_INTCLOCK  
_SPI_IMU_IntClock_StandbyPower . . . . CODE     SPI_IMU_INTCLOCK  
_SPI_IMU_PutArray. . . . . . . . . . . CODE     SPI_IMU  
_SPI_IMU_SetInterruptMode. . . . . . . CODE     SPI_IMU  
_SPI_IMU_SetRxInterruptMode. . . . . . CODE     SPI_IMU  
_SPI_IMU_SetTxInterruptMode. . . . . . CODE     SPI_IMU  
_SPI_IMU_WriteTxData . . . . . . . . . CODE     SPI_IMU  IMU_FUNCTIONS  
_SPRINTF . . . . . . . . . . . . . . . CODE     PRINTF  COMMAND_PROCESSING  
_strcat. . . . . . . . . . . . . . . . CODE     STRCAT  COMMAND_PROCESSING  
_STRLEN. . . . . . . . . . . . . . . . CODE     STRLEN  COMMAND_PROCESSING  
_UART_RS485_PutArray . . . . . . . . . CODE     UART_RS485  
_UART_RS485_PutChar. . . . . . . . . . CODE     UART_RS485  COMMAND_PROCESSING  
_UART_RS485_PutCRLF. . . . . . . . . . CODE     UART_RS485  
_UART_RS485_PutString. . . . . . . . . CODE     UART_RS485  COMMAND_PROCESSING  
_UART_RS485_SendBreak. . . . . . . . . CODE     UART_RS485  
_UART_RS485_SetRxAddress1. . . . . . . CODE     UART_RS485  
_UART_RS485_SetRxAddress2. . . . . . . CODE     UART_RS485  
_UART_RS485_SetRxAddressMode . . . . . CODE     UART_RS485  
_UART_RS485_SetRxInterruptMode . . . . CODE     UART_RS485  
_UART_RS485_SetTxAddressMode . . . . . CODE     UART_RS485  
_UART_RS485_SetTxInterruptMode . . . . CODE     UART_RS485  
_UART_RS485_WriteControlRegister . . . CODE     UART_RS485  
_UART_RS485_WriteTxData. . . . . . . . CODE     UART_RS485  
_v3_normalize. . . . . . . . . . . . . CODE     UTILS  IMU_FUNCTIONS  
_v4_normalize. . . . . . . . . . . . . CODE     UTILS  IMU_FUNCTIONS  
_WriteControlRegister. . . . . . . . . CODE     IMU_FUNCTIONS  
AC . . . . . . . . . . . . . . . . . . DATA     COMMAND_PROCESSING  
ACC. . . . . . . . . . . . . . . . . . DATA     COMMAND_PROCESSING  
Accel. . . . . . . . . . . . . . . . . XDATA    GLOBALS  IMU_FUNCTIONS  
B. . . . . . . . . . . . . . . . . . . DATA     COMMAND_PROCESSING  
Bootloadable_Load. . . . . . . . . . . CODE     BOOTLOADABLE  COMMAND_PROCESSING  
c_mem. . . . . . . . . . . . . . . . . XDATA    GLOBALS  COMMAND_PROCESSING  IMU_FUNCTIONS  INTERRUPTIONS  
Chip_Select_A_Read . . . . . . . . . . CODE     CHIP_SELECT_A  
Chip_Select_B_Read . . . . . . . . . . CODE     CHIP_SELECT_B  
CLOCK_UART_GetDividerRegister. . . . . CODE     CLOCK_UART  
CLOCK_UART_GetModeRegister . . . . . . CODE     CLOCK_UART  
CLOCK_UART_GetSourceRegister . . . . . CODE     CLOCK_UART  
LX51 LINKER/LOCATER V4.64.0.0                                                         04/17/2018  14:39:23  PAGE 92


CLOCK_UART_Start . . . . . . . . . . . CODE     CLOCK_UART  
CLOCK_UART_Stop. . . . . . . . . . . . CODE     CLOCK_UART  
CLOCK_UART_StopBlock . . . . . . . . . CODE     CLOCK_UART  
cmd_get_imu_readings . . . . . . . . . CODE     COMMAND_PROCESSING  
cmd_ping . . . . . . . . . . . . . . . CODE     COMMAND_PROCESSING  
cmd_set_baudrate . . . . . . . . . . . CODE     COMMAND_PROCESSING  
cmd_store_params . . . . . . . . . . . CODE     COMMAND_PROCESSING  
commProcess. . . . . . . . . . . . . . CODE     COMMAND_PROCESSING  INTERRUPTIONS  
CY . . . . . . . . . . . . . . . . . . DATA     COMMAND_PROCESSING  
cydelay_32k_ms . . . . . . . . . . . . XDATA    CYLIB  
cydelay_freq_hz. . . . . . . . . . . . XDATA    CYLIB  
cydelay_freq_khz . . . . . . . . . . . XDATA    CYLIB  
cydelay_freq_mhz . . . . . . . . . . . XDATA    CYLIB  CYBOOTASMKEIL  
CyDisableInts. . . . . . . . . . . . . CODE     CYLIB  
CyEEPROM_ReadRelease . . . . . . . . . CODE     CYFLASH  EEPROM  
CyEEPROM_ReadReserve . . . . . . . . . CODE     CYFLASH  EEPROM  
CyEEPROM_Start . . . . . . . . . . . . CODE     CYFLASH  EEPROM  
CyEEPROM_Stop. . . . . . . . . . . . . CODE     CYFLASH  EEPROM  
CyEnterCriticalSection . . . . . . . . CODE     CYBOOTASMKEIL  CYFLASH  CYLIB  CYPM  CYSPC  EEPROM  FF_STATUS  MY_TIMER 
                                                 SPI_IMU  UART_RS485  
cyfitter_cfg . . . . . . . . . . . . . CODE     CYFITTER_CFG  ?C_STARTUP  
CyFlash_Start. . . . . . . . . . . . . CODE     CYFLASH  
CyFlash_Stop . . . . . . . . . . . . . CODE     CYFLASH  
CyILO_Disable33K . . . . . . . . . . . CODE     CYLIB  
CyILO_Enable33K. . . . . . . . . . . . CODE     CYLIB  
CyILO_Start100K. . . . . . . . . . . . CODE     CYLIB  CYPM  
CyILO_Start1K. . . . . . . . . . . . . CODE     CYLIB  CYPM  
CyILO_Stop100K . . . . . . . . . . . . CODE     CYLIB  
CyILO_Stop1K . . . . . . . . . . . . . CODE     CYLIB  
CyIMO_DisableDoubler . . . . . . . . . CODE     CYLIB  CYPM  
CyIMO_EnableDoubler. . . . . . . . . . CODE     CYLIB  CYPM  
CyIMO_Stop . . . . . . . . . . . . . . CODE     CYLIB  CYPM  
CyPLL_OUT_Stop . . . . . . . . . . . . CODE     CYLIB  CYPM  
CyPmHibernate. . . . . . . . . . . . . CODE     CYPM  
CyPmOppsSet. . . . . . . . . . . . . . CODE     CYPM  
CyPmRestoreClocks. . . . . . . . . . . CODE     CYPM  
CyPmSaveClocks . . . . . . . . . . . . CODE     CYPM  
CyResetStatus. . . . . . . . . . . . . XDATA    CYLIB  ?C_STARTUP  
CySetTemp. . . . . . . . . . . . . . . CODE     CYFLASH  COMMAND_PROCESSING  EEPROM  
CySoftwareReset. . . . . . . . . . . . CODE     CYLIB  BOOTLOADABLE  
CySpcGetAlgorithm. . . . . . . . . . . CODE     CYSPC  CYFLASH  
CySpcLock. . . . . . . . . . . . . . . CODE     CYSPC  CYFLASH  EEPROM  
CySpcStart . . . . . . . . . . . . . . CODE     CYSPC  CYFLASH  EEPROM  
CySpcStop. . . . . . . . . . . . . . . CODE     CYSPC  
CySpcUnlock. . . . . . . . . . . . . . CODE     CYSPC  CYFLASH  EEPROM  
CyVdHvAnalogDisable. . . . . . . . . . CODE     CYLIB  CYPM  
CyVdHvAnalogEnable . . . . . . . . . . CODE     CYLIB  CYPM  
CyVdLvAnalogDisable. . . . . . . . . . CODE     CYLIB  CYPM  
CyVdLvDigitDisable . . . . . . . . . . CODE     CYLIB  CYPM  
CyVdRealTimeStatus . . . . . . . . . . CODE     CYLIB  
CyWdtClear . . . . . . . . . . . . . . CODE     CYLIB  
CyXTAL_32KHZ_ReadStatus. . . . . . . . CODE     CYLIB  
CyXTAL_32KHZ_Start . . . . . . . . . . CODE     CYLIB  CYPM  
CyXTAL_32KHZ_Stop. . . . . . . . . . . CODE     CYLIB  
CyXTAL_DisableErrStatus. . . . . . . . CODE     CYLIB  
CyXTAL_DisableFaultRecovery. . . . . . CODE     CYLIB  
CyXTAL_EnableErrStatus . . . . . . . . CODE     CYLIB  
CyXTAL_EnableFaultRecovery . . . . . . CODE     CYLIB  
CyXTAL_ReadStatus. . . . . . . . . . . CODE     CYLIB  
CyXTAL_Stop. . . . . . . . . . . . . . CODE     CYLIB  CYPM  
dieTemperature . . . . . . . . . . . . XDATA    CYFLASH  EEPROM  
DPH. . . . . . . . . . . . . . . . . . DATA     COMMAND_PROCESSING  
DPH1 . . . . . . . . . . . . . . . . . DATA     COMMAND_PROCESSING  
DPL. . . . . . . . . . . . . . . . . . DATA     COMMAND_PROCESSING  
DPL1 . . . . . . . . . . . . . . . . . DATA     COMMAND_PROCESSING  
LX51 LINKER/LOCATER V4.64.0.0                                                         04/17/2018  14:39:23  PAGE 93


DPS. . . . . . . . . . . . . . . . . . DATA     COMMAND_PROCESSING  
DPX. . . . . . . . . . . . . . . . . . DATA     COMMAND_PROCESSING  
DPX1 . . . . . . . . . . . . . . . . . DATA     COMMAND_PROCESSING  
EA . . . . . . . . . . . . . . . . . . DATA     COMMAND_PROCESSING  
EEPROM_ADDR. . . . . . . . . . . . . . XDATA    COMMAND_PROCESSING  
EEPROM_Enable. . . . . . . . . . . . . CODE     EEPROM  
EEPROM_Query . . . . . . . . . . . . . CODE     EEPROM  
EEPROM_Start . . . . . . . . . . . . . CODE     EEPROM  MAIN  
EEPROM_Stop. . . . . . . . . . . . . . CODE     EEPROM  
EEPROM_UpdateTemperature . . . . . . . CODE     EEPROM  
F0 . . . . . . . . . . . . . . . . . . DATA     COMMAND_PROCESSING  
F1 . . . . . . . . . . . . . . . . . . DATA     COMMAND_PROCESSING  
FF_STATUS_InterruptDisable . . . . . . CODE     FF_STATUS  
FF_STATUS_InterruptEnable. . . . . . . CODE     FF_STATUS  
FF_STATUS_Read . . . . . . . . . . . . CODE     FF_STATUS  MAIN  
FF_STATUS_ReadMask . . . . . . . . . . CODE     FF_STATUS  
FTDI_ENABLE_REG_Read . . . . . . . . . CODE     FTDI_ENABLE_REG  
function_scheduler . . . . . . . . . . CODE     INTERRUPTIONS  MAIN  
g_imu. . . . . . . . . . . . . . . . . XDATA    GLOBALS  COMMAND_PROCESSING  IMU_FUNCTIONS  INTERRUPTIONS  
g_imuNew . . . . . . . . . . . . . . . XDATA    GLOBALS  IMU_FUNCTIONS  INTERRUPTIONS  
g_mem. . . . . . . . . . . . . . . . . XDATA    GLOBALS  COMMAND_PROCESSING  
g_rx . . . . . . . . . . . . . . . . . XDATA    GLOBALS  COMMAND_PROCESSING  INTERRUPTIONS  MAIN  
Gyro . . . . . . . . . . . . . . . . . XDATA    GLOBALS  IMU_FUNCTIONS  
IE . . . . . . . . . . . . . . . . . . DATA     COMMAND_PROCESSING  
IMU_connected. . . . . . . . . . . . . XDATA    GLOBALS  COMMAND_PROCESSING  IMU_FUNCTIONS  
imus_data_size . . . . . . . . . . . . XDATA    GLOBALS  COMMAND_PROCESSING  IMU_FUNCTIONS  
ImusReset. . . . . . . . . . . . . . . CODE     IMU_FUNCTIONS  
infoSend . . . . . . . . . . . . . . . CODE     COMMAND_PROCESSING  
InitIMU. . . . . . . . . . . . . . . . CODE     IMU_FUNCTIONS  
InitIMUgeneral . . . . . . . . . . . . CODE     IMU_FUNCTIONS  MAIN  
InitIMUMagCal. . . . . . . . . . . . . CODE     IMU_FUNCTIONS  
interrupt_flag . . . . . . . . . . . . BIT      GLOBALS  INTERRUPTIONS  MAIN  
interrupt_manager. . . . . . . . . . . CODE     INTERRUPTIONS  MAIN  
ISR_RS485_RX_ClearPending. . . . . . . CODE     ISR_RS485_RX  
ISR_RS485_RX_Disable . . . . . . . . . CODE     ISR_RS485_RX  COMMAND_PROCESSING  
ISR_RS485_RX_Enable. . . . . . . . . . CODE     ISR_RS485_RX  COMMAND_PROCESSING  
ISR_RS485_RX_ExInterrupt . . . . . . . CODE     INTERRUPTIONS  MAIN  
ISR_RS485_RX_GetPriority . . . . . . . CODE     ISR_RS485_RX  
ISR_RS485_RX_GetState. . . . . . . . . CODE     ISR_RS485_RX  
ISR_RS485_RX_GetVector . . . . . . . . CODE     ISR_RS485_RX  
ISR_RS485_RX_Interrupt . . . . . . . . CODE     ISR_RS485_RX  
ISR_RS485_RX_SetPending. . . . . . . . CODE     ISR_RS485_RX  
ISR_RS485_RX_Start . . . . . . . . . . CODE     ISR_RS485_RX  
ISR_RS485_RX_Stop. . . . . . . . . . . CODE     ISR_RS485_RX  
Mag. . . . . . . . . . . . . . . . . . XDATA    GLOBALS  IMU_FUNCTIONS  
MagCal . . . . . . . . . . . . . . . . XDATA    GLOBALS  COMMAND_PROCESSING  IMU_FUNCTIONS  
main . . . . . . . . . . . . . . . . . CODE     MAIN  ?C_INIT  
memInit. . . . . . . . . . . . . . . . CODE     COMMAND_PROCESSING  
memRecall. . . . . . . . . . . . . . . CODE     COMMAND_PROCESSING  MAIN  
memRestore . . . . . . . . . . . . . . CODE     COMMAND_PROCESSING  
MXAX . . . . . . . . . . . . . . . . . DATA     COMMAND_PROCESSING  
MY_TIMER_ClearFIFO . . . . . . . . . . CODE     MY_TIMER  
MY_TIMER_Enable. . . . . . . . . . . . CODE     MY_TIMER  
MY_TIMER_Init. . . . . . . . . . . . . CODE     MY_TIMER  
MY_TIMER_initVar . . . . . . . . . . . XDATA    MY_TIMER  
MY_TIMER_ReadCapture . . . . . . . . . CODE     MY_TIMER  
MY_TIMER_ReadControlRegister . . . . . CODE     MY_TIMER  
MY_TIMER_ReadCounter . . . . . . . . . CODE     MY_TIMER  INTERRUPTIONS  
MY_TIMER_ReadPeriod. . . . . . . . . . CODE     MY_TIMER  
MY_TIMER_ReadStatusRegister. . . . . . CODE     MY_TIMER  
MY_TIMER_SoftwareCapture . . . . . . . CODE     MY_TIMER  
MY_TIMER_Start . . . . . . . . . . . . CODE     MY_TIMER  MAIN  
MY_TIMER_Stop. . . . . . . . . . . . . CODE     MY_TIMER  
N_IMU_Connected. . . . . . . . . . . . XDATA    GLOBALS  COMMAND_PROCESSING  IMU_FUNCTIONS  
Opto_Pin_Read. . . . . . . . . . . . . CODE     OPTO_PIN  
LX51 LINKER/LOCATER V4.64.0.0                                                         04/17/2018  14:39:23  PAGE 94


Opto_Pin_ReadDataReg . . . . . . . . . CODE     OPTO_PIN  
OV . . . . . . . . . . . . . . . . . . DATA     COMMAND_PROCESSING  
P. . . . . . . . . . . . . . . . . . . DATA     COMMAND_PROCESSING  
P2AX . . . . . . . . . . . . . . . . . DATA     COMMAND_PROCESSING  
PACER_TIMER_Enable . . . . . . . . . . CODE     PACER_TIMER  
PACER_TIMER_Init . . . . . . . . . . . CODE     PACER_TIMER  
PACER_TIMER_initVar. . . . . . . . . . XDATA    PACER_TIMER  
PACER_TIMER_ReadCapture. . . . . . . . CODE     PACER_TIMER  
PACER_TIMER_ReadControlRegister. . . . CODE     PACER_TIMER  
PACER_TIMER_ReadCounter. . . . . . . . CODE     PACER_TIMER  
PACER_TIMER_ReadPeriod . . . . . . . . CODE     PACER_TIMER  
PACER_TIMER_ReadStatusRegister . . . . CODE     PACER_TIMER  
PACER_TIMER_SoftwareCapture. . . . . . CODE     PACER_TIMER  
PACER_TIMER_Start. . . . . . . . . . . CODE     PACER_TIMER  MAIN  
PACER_TIMER_Stop . . . . . . . . . . . CODE     PACER_TIMER  
PSW. . . . . . . . . . . . . . . . . . DATA     COMMAND_PROCESSING  
Quat . . . . . . . . . . . . . . . . . XDATA    GLOBALS  IMU_FUNCTIONS  
ReadAllIMUs. . . . . . . . . . . . . . CODE     IMU_FUNCTIONS  INTERRUPTIONS  
RESET_FF_Read. . . . . . . . . . . . . CODE     RESET_FF  
RS0. . . . . . . . . . . . . . . . . . DATA     COMMAND_PROCESSING  
RS1. . . . . . . . . . . . . . . . . . DATA     COMMAND_PROCESSING  
RS485_CTS_Read . . . . . . . . . . . . CODE     RS485_CTS  
SFRPRT0DR. . . . . . . . . . . . . . . DATA     COMMAND_PROCESSING  
SFRPRT0PS. . . . . . . . . . . . . . . DATA     COMMAND_PROCESSING  
SFRPRT0SEL . . . . . . . . . . . . . . DATA     COMMAND_PROCESSING  
SFRPRT12DR . . . . . . . . . . . . . . DATA     COMMAND_PROCESSING  
SFRPRT12PS . . . . . . . . . . . . . . DATA     COMMAND_PROCESSING  
SFRPRT12SEL. . . . . . . . . . . . . . DATA     COMMAND_PROCESSING  
SFRPRT15DR . . . . . . . . . . . . . . DATA     COMMAND_PROCESSING  
SFRPRT15PS . . . . . . . . . . . . . . DATA     COMMAND_PROCESSING  
SFRPRT15SEL. . . . . . . . . . . . . . DATA     COMMAND_PROCESSING  
SFRPRT1DR. . . . . . . . . . . . . . . DATA     COMMAND_PROCESSING  
SFRPRT1PS. . . . . . . . . . . . . . . DATA     COMMAND_PROCESSING  
SFRPRT1SEL . . . . . . . . . . . . . . DATA     COMMAND_PROCESSING  
SFRPRT2DR. . . . . . . . . . . . . . . DATA     COMMAND_PROCESSING  
SFRPRT2PS. . . . . . . . . . . . . . . DATA     COMMAND_PROCESSING  
SFRPRT2SEL . . . . . . . . . . . . . . DATA     COMMAND_PROCESSING  
SFRPRT3DR. . . . . . . . . . . . . . . DATA     COMMAND_PROCESSING  
SFRPRT3PS. . . . . . . . . . . . . . . DATA     COMMAND_PROCESSING  
SFRPRT3SEL . . . . . . . . . . . . . . DATA     COMMAND_PROCESSING  
SFRPRT4DR. . . . . . . . . . . . . . . DATA     COMMAND_PROCESSING  
SFRPRT4PS. . . . . . . . . . . . . . . DATA     COMMAND_PROCESSING  
SFRPRT4SEL . . . . . . . . . . . . . . DATA     COMMAND_PROCESSING  
SFRPRT5DR. . . . . . . . . . . . . . . DATA     COMMAND_PROCESSING  
SFRPRT5PS. . . . . . . . . . . . . . . DATA     COMMAND_PROCESSING  
SFRPRT5SEL . . . . . . . . . . . . . . DATA     COMMAND_PROCESSING  
SFRPRT6DR. . . . . . . . . . . . . . . DATA     COMMAND_PROCESSING  
SFRPRT6PS. . . . . . . . . . . . . . . DATA     COMMAND_PROCESSING  
SFRPRT6SEL . . . . . . . . . . . . . . DATA     COMMAND_PROCESSING  
single_imu_size. . . . . . . . . . . . XDATA    GLOBALS  COMMAND_PROCESSING  IMU_FUNCTIONS  
SP . . . . . . . . . . . . . . . . . . DATA     COMMAND_PROCESSING  
SpcLockState . . . . . . . . . . . . . XDATA    CYSPC  
SPI_delay. . . . . . . . . . . . . . . CODE     IMU_FUNCTIONS  
SPI_IMU_ClearFIFO. . . . . . . . . . . CODE     SPI_IMU  IMU_FUNCTIONS  MAIN  
SPI_IMU_ClearRxBuffer. . . . . . . . . CODE     SPI_IMU  IMU_FUNCTIONS  MAIN  
SPI_IMU_ClearTxBuffer. . . . . . . . . CODE     SPI_IMU  IMU_FUNCTIONS  MAIN  
SPI_IMU_DisableInt . . . . . . . . . . CODE     SPI_IMU  
SPI_IMU_DisableRxInt . . . . . . . . . CODE     SPI_IMU  
SPI_IMU_DisableTxInt . . . . . . . . . CODE     SPI_IMU  
SPI_IMU_Enable . . . . . . . . . . . . CODE     SPI_IMU  MAIN  
SPI_IMU_EnableInt. . . . . . . . . . . CODE     SPI_IMU  
SPI_IMU_EnableRxInt. . . . . . . . . . CODE     SPI_IMU  
SPI_IMU_EnableTxInt. . . . . . . . . . CODE     SPI_IMU  
SPI_IMU_GetRxBufferSize. . . . . . . . CODE     SPI_IMU  
SPI_IMU_GetTxBufferSize. . . . . . . . CODE     SPI_IMU  
LX51 LINKER/LOCATER V4.64.0.0                                                         04/17/2018  14:39:23  PAGE 95


SPI_IMU_Init . . . . . . . . . . . . . CODE     SPI_IMU  MAIN  
SPI_IMU_initVar. . . . . . . . . . . . XDATA    SPI_IMU  
SPI_IMU_IntClock_GetDividerRegister. . CODE     SPI_IMU_INTCLOCK  
SPI_IMU_IntClock_GetModeRegister . . . CODE     SPI_IMU_INTCLOCK  
SPI_IMU_IntClock_GetSourceRegister . . CODE     SPI_IMU_INTCLOCK  
SPI_IMU_IntClock_Start . . . . . . . . CODE     SPI_IMU_INTCLOCK  SPI_IMU  
SPI_IMU_IntClock_Stop. . . . . . . . . CODE     SPI_IMU_INTCLOCK  SPI_IMU  
SPI_IMU_IntClock_StopBlock . . . . . . CODE     SPI_IMU_INTCLOCK  
SPI_IMU_ReadRxData . . . . . . . . . . CODE     SPI_IMU  IMU_FUNCTIONS  
SPI_IMU_ReadRxStatus . . . . . . . . . CODE     SPI_IMU  
SPI_IMU_ReadStatus . . . . . . . . . . CODE     SPI_IMU  IMU_FUNCTIONS  
SPI_IMU_ReadTxStatus . . . . . . . . . CODE     SPI_IMU  
SPI_IMU_Start. . . . . . . . . . . . . CODE     SPI_IMU  MAIN  
SPI_IMU_Stop . . . . . . . . . . . . . CODE     SPI_IMU  
SPI_IMU_swStatusRx . . . . . . . . . . XDATA    SPI_IMU  
SPI_IMU_swStatusTx . . . . . . . . . . XDATA    SPI_IMU  
STARTUP1 . . . . . . . . . . . . . . . CODE     ?C_STARTUP  
Temp . . . . . . . . . . . . . . . . . XDATA    GLOBALS  IMU_FUNCTIONS  
timer_value. . . . . . . . . . . . . . XDATA    GLOBALS  COMMAND_PROCESSING  IMU_FUNCTIONS  INTERRUPTIONS  
timer_value0 . . . . . . . . . . . . . XDATA    GLOBALS  COMMAND_PROCESSING  IMU_FUNCTIONS  INTERRUPTIONS  
UART_RS485_ClearRxBuffer . . . . . . . CODE     UART_RS485  MAIN  
UART_RS485_ClearTxBuffer . . . . . . . CODE     UART_RS485  COMMAND_PROCESSING  MAIN  
UART_RS485_Enable. . . . . . . . . . . CODE     UART_RS485  
UART_RS485_errorStatus . . . . . . . . XDATA    UART_RS485  UART_RS485_INT  
UART_RS485_GetByte . . . . . . . . . . CODE     UART_RS485  
UART_RS485_GetChar . . . . . . . . . . CODE     UART_RS485  INTERRUPTIONS  
UART_RS485_GetRxBufferSize . . . . . . CODE     UART_RS485  INTERRUPTIONS  
UART_RS485_GetTxBufferSize . . . . . . CODE     UART_RS485  
UART_RS485_Init. . . . . . . . . . . . CODE     UART_RS485  MAIN  
UART_RS485_initVar . . . . . . . . . . XDATA    UART_RS485  
UART_RS485_ReadControlRegister . . . . CODE     UART_RS485  
UART_RS485_ReadRxData. . . . . . . . . CODE     UART_RS485  
UART_RS485_ReadRxStatus. . . . . . . . CODE     UART_RS485  MAIN  
UART_RS485_ReadTxStatus. . . . . . . . CODE     UART_RS485  COMMAND_PROCESSING  
UART_RS485_rxBuffer. . . . . . . . . . XDATA    UART_RS485  UART_RS485_INT  
UART_RS485_rxBufferLoopDetect. . . . . XDATA    UART_RS485  UART_RS485_INT  
UART_RS485_rxBufferOverflow. . . . . . XDATA    UART_RS485  UART_RS485_INT  
UART_RS485_rxBufferRead. . . . . . . . XDATA    UART_RS485  UART_RS485_INT  
UART_RS485_rxBufferWrite . . . . . . . XDATA    UART_RS485  UART_RS485_INT  
UART_RS485_RXISR . . . . . . . . . . . CODE     UART_RS485_INT  UART_RS485  
UART_RS485_Start . . . . . . . . . . . CODE     UART_RS485  MAIN  
UART_RS485_Stop. . . . . . . . . . . . CODE     UART_RS485  MAIN  

Program Size: data=41.3 xdata=5675 const=981 code=27855
LX51 RUN COMPLETE.  0 WARNING(S),  0 ERROR(S)
