LX51 LINKER/LOCATER V4.64.0.0                                                           01/24/2017  11:05:18  PAGE 1


LX51 LINKER/LOCATER V4.64.0.0, INVOKED BY:
C:\PROGRAM FILES (X86)\CYPRESS\PSOC CREATOR\3.3\PSOC CREATOR\IMPORT\KEIL\PK51\9.51\C51\BIN\LX51.EXE .\DP8051_Keil_951\Re
>> lease\command_processing.obj, .\DP8051_Keil_951\Release\globals.obj, .\DP8051_Keil_951\Release\interruptions.obj, .\D
>> P8051_Keil_951\Release\main.obj, .\DP8051_Keil_951\Release\utils.obj, .\DP8051_Keil_951\Release\IMU_functions.obj, .\
>> DP8051_Keil_951\Release\firmware.lib, C:\Program Files (x86)\Cypress\PSoC Creator\3.3\PSoC Creator\psoc\content\cycom
>> ponentlibrary\CyComponentLibrary.cylib\DP8051\DP8051_Keil_951\Release\CyComponentLibrary.lib TO .\DP8051_Keil_951\Rel
>> ease\firmware.omf CODE RU RC (10) DW (16) WL (2) PR (.\DP8051_Keil_951\Release/firmware.map) IX CL (XDATA (X:0X0000-X
>> :0X1FFF)) CL (CODE (C:0X2600-C:0XFFBF)) CL (CONST (C:0X2600-C:0XFFBF))


CPU MODE:     8051 MODE
MEMORY MODEL: LARGE WITH FLOATING POINT ARITHMETIC


INPUT MODULES INCLUDED:
  .\DP8051_Keil_951\Release\command_processing.obj (COMMAND_PROCESSING)
         COMMENT TYPE 0: C51 V9.51
  .\DP8051_Keil_951\Release\globals.obj (GLOBALS)
         COMMENT TYPE 0: C51 V9.51
  .\DP8051_Keil_951\Release\interruptions.obj (INTERRUPTIONS)
         COMMENT TYPE 0: C51 V9.51
  .\DP8051_Keil_951\Release\main.obj (MAIN)
         COMMENT TYPE 0: C51 V9.51
  .\DP8051_Keil_951\Release\utils.obj (UTILS)
         COMMENT TYPE 0: C51 V9.51
  .\DP8051_Keil_951\Release\IMU_functions.obj (IMU_FUNCTIONS)
         COMMENT TYPE 0: C51 V9.51
  .\DP8051_Keil_951\Release\firmware.lib (UART_RS485)
         COMMENT TYPE 0: C51 V9.51
  .\DP8051_Keil_951\Release\firmware.lib (ISR_RS485_RX)
         COMMENT TYPE 0: C51 V9.51
  .\DP8051_Keil_951\Release\firmware.lib (PACER_TIMER)
         COMMENT TYPE 0: C51 V9.51
  .\DP8051_Keil_951\Release\firmware.lib (CLOCK_UART)
         COMMENT TYPE 0: C51 V9.51
  .\DP8051_Keil_951\Release\firmware.lib (EEPROM)
         COMMENT TYPE 0: C51 V9.51
  .\DP8051_Keil_951\Release\firmware.lib (RS485_CTS)
         COMMENT TYPE 0: C51 V9.51
  .\DP8051_Keil_951\Release\firmware.lib (BOOTLOADABLE)
         COMMENT TYPE 0: C51 V9.51
  .\DP8051_Keil_951\Release\firmware.lib (FTDI_ENABLE_REG)
         COMMENT TYPE 0: C51 V9.51
  .\DP8051_Keil_951\Release\firmware.lib (RESET_FF)
         COMMENT TYPE 0: C51 V9.51
  .\DP8051_Keil_951\Release\firmware.lib (FF_STATUS)
         COMMENT TYPE 0: C51 V9.51
  .\DP8051_Keil_951\Release\firmware.lib (MY_TIMER)
         COMMENT TYPE 0: C51 V9.51
  .\DP8051_Keil_951\Release\firmware.lib (CYFLASH)
         COMMENT TYPE 0: C51 V9.51
  .\DP8051_Keil_951\Release\firmware.lib (CYLIB)
         COMMENT TYPE 0: C51 V9.51
  .\DP8051_Keil_951\Release\firmware.lib (?C_STARTUP)
         COMMENT TYPE 0: AX51 V3.07d
  .\DP8051_Keil_951\Release\firmware.lib (ISR_WATCHDOG)
         COMMENT TYPE 0: C51 V9.51
  .\DP8051_Keil_951\Release\firmware.lib (WATCHDOG_COUNTER)
         COMMENT TYPE 0: C51 V9.51
  .\DP8051_Keil_951\Release\firmware.lib (WATCHDOG_ENABLER)
         COMMENT TYPE 0: C51 V9.51
  .\DP8051_Keil_951\Release\firmware.lib (WATCHDOG_REFRESH)
         COMMENT TYPE 0: C51 V9.51
  .\DP8051_Keil_951\Release\firmware.lib (SPI_IMU)
         COMMENT TYPE 0: C51 V9.51
  .\DP8051_Keil_951\Release\firmware.lib (ISR_IMU)
LX51 LINKER/LOCATER V4.64.0.0                                                         01/24/2017  11:05:18  PAGE 2


         COMMENT TYPE 0: C51 V9.51
  .\DP8051_Keil_951\Release\firmware.lib (OPTO_PIN)
         COMMENT TYPE 0: C51 V9.51
  .\DP8051_Keil_951\Release\firmware.lib (CHIP_SELECT_A)
         COMMENT TYPE 0: C51 V9.51
  .\DP8051_Keil_951\Release\firmware.lib (CHIP_SELECT_B)
         COMMENT TYPE 0: C51 V9.51
  .\DP8051_Keil_951\Release\firmware.lib (CYFITTER_CFG)
         COMMENT TYPE 0: C51 V9.51
  .\DP8051_Keil_951\Release\firmware.lib (UART_RS485_INT)
         COMMENT TYPE 0: C51 V9.51
  .\DP8051_Keil_951\Release\firmware.lib (CYBOOTASMKEIL)
         COMMENT TYPE 0: AX51 V3.07d
  .\DP8051_Keil_951\Release\firmware.lib (CYMEM)
         COMMENT TYPE 0: AX51 V3.07d
  .\DP8051_Keil_951\Release\firmware.lib (CYPM)
         COMMENT TYPE 0: C51 V9.51
  .\DP8051_Keil_951\Release\firmware.lib (CYSPC)
         COMMENT TYPE 0: C51 V9.51
  .\DP8051_Keil_951\Release\firmware.lib (SPI_IMU_INTCLOCK)
         COMMENT TYPE 0: C51 V9.51
  C:\PROGRAM FILES (X86)\CYPRESS\PSOC CREATOR\3.3\PSOC CREATOR\IMPORT\KEIL\PK51\9.51\C51\LIB\C51FPL.LIB (?C?FPADD)
         COMMENT TYPE 1: A51 / ASM51 Assembler
  C:\PROGRAM FILES (X86)\CYPRESS\PSOC CREATOR\3.3\PSOC CREATOR\IMPORT\KEIL\PK51\9.51\C51\LIB\C51FPL.LIB (?C?FPCMP)
         COMMENT TYPE 1: A51 / ASM51 Assembler
  C:\PROGRAM FILES (X86)\CYPRESS\PSOC CREATOR\3.3\PSOC CREATOR\IMPORT\KEIL\PK51\9.51\C51\LIB\C51FPL.LIB (?C?CASTF)
         COMMENT TYPE 1: A51 / ASM51 Assembler
  C:\PROGRAM FILES (X86)\CYPRESS\PSOC CREATOR\3.3\PSOC CREATOR\IMPORT\KEIL\PK51\9.51\C51\LIB\C51FPL.LIB (PRINTF)
         COMMENT TYPE 1: A51 / ASM51 Assembler
  C:\PROGRAM FILES (X86)\CYPRESS\PSOC CREATOR\3.3\PSOC CREATOR\IMPORT\KEIL\PK51\9.51\C51\LIB\C51FPL.LIB (?C?FPGETOPN)
         COMMENT TYPE 1: A51 / ASM51 Assembler
  C:\PROGRAM FILES (X86)\CYPRESS\PSOC CREATOR\3.3\PSOC CREATOR\IMPORT\KEIL\PK51\9.51\C51\LIB\C51FPL.LIB (?C?FPROUND)
         COMMENT TYPE 1: A51 / ASM51 Assembler
  C:\PROGRAM FILES (X86)\CYPRESS\PSOC CREATOR\3.3\PSOC CREATOR\IMPORT\KEIL\PK51\9.51\C51\LIB\C51FPL.LIB (?C?FPCONVERT)
         COMMENT TYPE 1: A51 / ASM51 Assembler
  C:\PROGRAM FILES (X86)\CYPRESS\PSOC CREATOR\3.3\PSOC CREATOR\IMPORT\KEIL\PK51\9.51\C51\LIB\C51FPL.LIB (?C?FPMUL)
         COMMENT TYPE 1: A51 / ASM51 Assembler
  C:\PROGRAM FILES (X86)\CYPRESS\PSOC CREATOR\3.3\PSOC CREATOR\IMPORT\KEIL\PK51\9.51\C51\LIB\C51FPL.LIB (?C?FPDIV)
         COMMENT TYPE 1: A51 / ASM51 Assembler
  C:\PROGRAM FILES (X86)\CYPRESS\PSOC CREATOR\3.3\PSOC CREATOR\IMPORT\KEIL\PK51\9.51\C51\LIB\C51FPL.LIB (?C?FTNPWR)
         COMMENT TYPE 1: A51 / ASM51 Assembler
  C:\PROGRAM FILES (X86)\CYPRESS\PSOC CREATOR\3.3\PSOC CREATOR\IMPORT\KEIL\PK51\9.51\C51\LIB\C51L.LIB (?C_INIT)
         COMMENT TYPE 1: A51 / ASM51 Assembler
  C:\PROGRAM FILES (X86)\CYPRESS\PSOC CREATOR\3.3\PSOC CREATOR\IMPORT\KEIL\PK51\9.51\C51\LIB\C51L.LIB (?C?CLDPTR)
         COMMENT TYPE 1: A51 / ASM51 Assembler
  C:\PROGRAM FILES (X86)\CYPRESS\PSOC CREATOR\3.3\PSOC CREATOR\IMPORT\KEIL\PK51\9.51\C51\LIB\C51L.LIB (?C?CLDOPTR)
         COMMENT TYPE 1: A51 / ASM51 Assembler
  C:\PROGRAM FILES (X86)\CYPRESS\PSOC CREATOR\3.3\PSOC CREATOR\IMPORT\KEIL\PK51\9.51\C51\LIB\C51L.LIB (?C?CSTPTR)
         COMMENT TYPE 1: A51 / ASM51 Assembler
  C:\PROGRAM FILES (X86)\CYPRESS\PSOC CREATOR\3.3\PSOC CREATOR\IMPORT\KEIL\PK51\9.51\C51\LIB\C51L.LIB (?C?IMUL)
         COMMENT TYPE 1: A51 / ASM51 Assembler
  C:\PROGRAM FILES (X86)\CYPRESS\PSOC CREATOR\3.3\PSOC CREATOR\IMPORT\KEIL\PK51\9.51\C51\LIB\C51L.LIB (?C?LMUL)
         COMMENT TYPE 1: A51 / ASM51 Assembler
  C:\PROGRAM FILES (X86)\CYPRESS\PSOC CREATOR\3.3\PSOC CREATOR\IMPORT\KEIL\PK51\9.51\C51\LIB\C51L.LIB (?C?ULDIV)
         COMMENT TYPE 1: A51 / ASM51 Assembler
  C:\PROGRAM FILES (X86)\CYPRESS\PSOC CREATOR\3.3\PSOC CREATOR\IMPORT\KEIL\PK51\9.51\C51\LIB\C51L.LIB (?C?SLDIV)
         COMMENT TYPE 1: A51 / ASM51 Assembler
  C:\PROGRAM FILES (X86)\CYPRESS\PSOC CREATOR\3.3\PSOC CREATOR\IMPORT\KEIL\PK51\9.51\C51\LIB\C51L.LIB (?C?LNEG)
         COMMENT TYPE 1: A51 / ASM51 Assembler
  C:\PROGRAM FILES (X86)\CYPRESS\PSOC CREATOR\3.3\PSOC CREATOR\IMPORT\KEIL\PK51\9.51\C51\LIB\C51L.LIB (?C?SLCMP)
         COMMENT TYPE 1: A51 / ASM51 Assembler
  C:\PROGRAM FILES (X86)\CYPRESS\PSOC CREATOR\3.3\PSOC CREATOR\IMPORT\KEIL\PK51\9.51\C51\LIB\C51L.LIB (?C?ULCMP)
         COMMENT TYPE 1: A51 / ASM51 Assembler
  C:\PROGRAM FILES (X86)\CYPRESS\PSOC CREATOR\3.3\PSOC CREATOR\IMPORT\KEIL\PK51\9.51\C51\LIB\C51L.LIB (?C?ULSHR)
         COMMENT TYPE 1: A51 / ASM51 Assembler
LX51 LINKER/LOCATER V4.64.0.0                                                         01/24/2017  11:05:18  PAGE 3


  C:\PROGRAM FILES (X86)\CYPRESS\PSOC CREATOR\3.3\PSOC CREATOR\IMPORT\KEIL\PK51\9.51\C51\LIB\C51L.LIB (?C?SLSHR)
         COMMENT TYPE 1: A51 / ASM51 Assembler
  C:\PROGRAM FILES (X86)\CYPRESS\PSOC CREATOR\3.3\PSOC CREATOR\IMPORT\KEIL\PK51\9.51\C51\LIB\C51L.LIB (?C?LSHL)
         COMMENT TYPE 1: A51 / ASM51 Assembler
  C:\PROGRAM FILES (X86)\CYPRESS\PSOC CREATOR\3.3\PSOC CREATOR\IMPORT\KEIL\PK51\9.51\C51\LIB\C51L.LIB (?C?LLDPTR)
         COMMENT TYPE 1: A51 / ASM51 Assembler
  C:\PROGRAM FILES (X86)\CYPRESS\PSOC CREATOR\3.3\PSOC CREATOR\IMPORT\KEIL\PK51\9.51\C51\LIB\C51L.LIB (?C?LSTPTR)
         COMMENT TYPE 1: A51 / ASM51 Assembler
  C:\PROGRAM FILES (X86)\CYPRESS\PSOC CREATOR\3.3\PSOC CREATOR\IMPORT\KEIL\PK51\9.51\C51\LIB\C51L.LIB (?C?LSTXDATA)
         COMMENT TYPE 1: A51 / ASM51 Assembler
  C:\PROGRAM FILES (X86)\CYPRESS\PSOC CREATOR\3.3\PSOC CREATOR\IMPORT\KEIL\PK51\9.51\C51\LIB\C51L.LIB (?C?OFFXADD)
         COMMENT TYPE 1: A51 / ASM51 Assembler
  C:\PROGRAM FILES (X86)\CYPRESS\PSOC CREATOR\3.3\PSOC CREATOR\IMPORT\KEIL\PK51\9.51\C51\LIB\C51L.LIB (?C?PLDIXDATA)
         COMMENT TYPE 1: A51 / ASM51 Assembler
  C:\PROGRAM FILES (X86)\CYPRESS\PSOC CREATOR\3.3\PSOC CREATOR\IMPORT\KEIL\PK51\9.51\C51\LIB\C51L.LIB (?C?PSTXDATA)
         COMMENT TYPE 1: A51 / ASM51 Assembler
  C:\PROGRAM FILES (X86)\CYPRESS\PSOC CREATOR\3.3\PSOC CREATOR\IMPORT\KEIL\PK51\9.51\C51\LIB\C51L.LIB (?C?CCASE)
         COMMENT TYPE 1: A51 / ASM51 Assembler
  C:\PROGRAM FILES (X86)\CYPRESS\PSOC CREATOR\3.3\PSOC CREATOR\IMPORT\KEIL\PK51\9.51\C51\LIB\C51L.LIB (?C_XBP)
         COMMENT TYPE 1: A51 / ASM51 Assembler
  C:\PROGRAM FILES (X86)\CYPRESS\PSOC CREATOR\3.3\PSOC CREATOR\IMPORT\KEIL\PK51\9.51\C51\LIB\C51L.LIB (?C?ADDXBP)
         COMMENT TYPE 1: A51 / ASM51 Assembler
  C:\PROGRAM FILES (X86)\CYPRESS\PSOC CREATOR\3.3\PSOC CREATOR\IMPORT\KEIL\PK51\9.51\C51\LIB\C51L.LIB (?C?LIMUL)
         COMMENT TYPE 1: A51 / ASM51 Assembler
  C:\PROGRAM FILES (X86)\CYPRESS\PSOC CREATOR\3.3\PSOC CREATOR\IMPORT\KEIL\PK51\9.51\C51\LIB\C51L.LIB (PUTCHAR)
         COMMENT TYPE 1: A51 / ASM51 Assembler
  C:\PROGRAM FILES (X86)\CYPRESS\PSOC CREATOR\3.3\PSOC CREATOR\IMPORT\KEIL\PK51\9.51\C51\LIB\C51L.LIB (STRCAT)
         COMMENT TYPE 1: C51 Compiler
  C:\PROGRAM FILES (X86)\CYPRESS\PSOC CREATOR\3.3\PSOC CREATOR\IMPORT\KEIL\PK51\9.51\C51\LIB\C51L.LIB (STRLEN)
         COMMENT TYPE 1: A51 / ASM51 Assembler
  C:\PROGRAM FILES (X86)\CYPRESS\PSOC CREATOR\3.3\PSOC CREATOR\IMPORT\KEIL\PK51\9.51\C51\LIB\C51L.LIB (?C?MEMSET)
         COMMENT TYPE 1: A51 / ASM51 Assembler
  C:\PROGRAM FILES (X86)\CYPRESS\PSOC CREATOR\3.3\PSOC CREATOR\IMPORT\KEIL\PK51\9.51\C51\LIB\C51L.LIB (?C?COPYAMD)
         COMMENT TYPE 1: A51 / ASM51 Assembler
  C:\PROGRAM FILES (X86)\CYPRESS\PSOC CREATOR\3.3\PSOC CREATOR\IMPORT\KEIL\PK51\9.51\C51\LIB\C51L.LIB (?C?STRCPYAMD)
         COMMENT TYPE 1: A51 / ASM51 Assembler
  C:\PROGRAM FILES (X86)\CYPRESS\PSOC CREATOR\3.3\PSOC CREATOR\IMPORT\KEIL\PK51\9.51\C51\LIB\C51L.LIB (?C?IILDX)
         COMMENT TYPE 1: A51 / ASM51 Assembler
  C:\PROGRAM FILES (X86)\CYPRESS\PSOC CREATOR\3.3\PSOC CREATOR\IMPORT\KEIL\PK51\9.51\C51\LIB\C51L.LIB (?C?ILDIX)
         COMMENT TYPE 1: A51 / ASM51 Assembler
  C:\PROGRAM FILES (X86)\CYPRESS\PSOC CREATOR\3.3\PSOC CREATOR\IMPORT\KEIL\PK51\9.51\C51\LIB\C51L.LIB (?C?LLDIDATA)
         COMMENT TYPE 1: A51 / ASM51 Assembler
  C:\PROGRAM FILES (X86)\CYPRESS\PSOC CREATOR\3.3\PSOC CREATOR\IMPORT\KEIL\PK51\9.51\C51\LIB\C51L.LIB (?C?LLDXDATA)
         COMMENT TYPE 1: A51 / ASM51 Assembler
  C:\PROGRAM FILES (X86)\CYPRESS\PSOC CREATOR\3.3\PSOC CREATOR\IMPORT\KEIL\PK51\9.51\C51\LIB\C51L.LIB (?C?LLDPDATA)
         COMMENT TYPE 1: A51 / ASM51 Assembler
  C:\PROGRAM FILES (X86)\CYPRESS\PSOC CREATOR\3.3\PSOC CREATOR\IMPORT\KEIL\PK51\9.51\C51\LIB\C51L.LIB (?C?LLDCODE)
         COMMENT TYPE 1: A51 / ASM51 Assembler
  C:\PROGRAM FILES (X86)\CYPRESS\PSOC CREATOR\3.3\PSOC CREATOR\IMPORT\KEIL\PK51\9.51\C51\LIB\C51L.LIB (?C?LSTIDATA)
         COMMENT TYPE 1: A51 / ASM51 Assembler
  C:\PROGRAM FILES (X86)\CYPRESS\PSOC CREATOR\3.3\PSOC CREATOR\IMPORT\KEIL\PK51\9.51\C51\LIB\C51L.LIB (?C?LSTPDATA)
         COMMENT TYPE 1: A51 / ASM51 Assembler


ACTIVE MEMORY CLASSES OF MODULE:  .\DP8051_Keil_951\Release\firmware.omf (COMMAND_PROCESSING)

BASE        START       END         USED      MEMORY CLASS
==========================================================
X:000000H   X:000000H   X:001FFFH   00113BH   XDATA
C:000000H   C:002600H   C:00FFBFH   00511CH   CODE
C:000000H   C:002600H   C:00FFBFH   0002DFH   CONST
I:000000H   I:000000H   I:00007FH   000021H   DATA
I:000020H.0 I:000020H.0 I:00002FH.7 000001H.6 BIT
I:000000H   I:000000H   I:0000FFH   000001H   IDATA

LX51 LINKER/LOCATER V4.64.0.0                                                         01/24/2017  11:05:18  PAGE 4



MEMORY MAP OF MODULE:  .\DP8051_Keil_951\Release\firmware.omf (COMMAND_PROCESSING)


START     STOP      LENGTH    ALIGN  RELOC    MEMORY CLASS   SEGMENT NAME
=========================================================================

* * * * * * * * * * *   D A T A   M E M O R Y   * * * * * * * * * * * * *
000000H   000007H   000008H   ---    AT..     DATA           "REG BANK 0"
000008H   000018H   000011H   BYTE   UNIT     DATA           _DATA_GROUP_
000019H   00001EH   000006H   BYTE   UNIT     DATA           ?DT?INTERRUPTIONS
00001FH.0 00001FH.7 000001H.0 ---    ---      **GAP**
000020H.0 000021H.1 000001H.2 BIT    UNIT     BIT            _BIT_GROUP_
000021H.2 000021H.5 000000H.4 BIT    UNIT     BIT            ?BI?GLOBALS
000021H.6 000021H   000000H.2 ---    ---      **GAP**
000022H   000023H   000002H   BYTE   UNIT     DATA           ?C?LIB_DATA
000024H   000024H   000001H   BYTE   UNIT     IDATA          ?STACK

* * * * * * * * * * *   C O D E   M E M O R Y   * * * * * * * * * * * * *
002600H   002619H   00001AH   ---    OFFS..   CODE           ?CO?KEILSTART?3
00261AH   00309DH   000A84H   BYTE   UNIT     CODE           ?C?LIB_CODE
00309EH   0038B6H   000819H   BYTE   UNIT     CODE           ?PR?_INFOPREPARE?COMMAND_PROCESSING
0038B7H   003FA9H   0006F3H   BYTE   UNIT     CODE           ?PR?_GET_PARAM_LIST?COMMAND_PROCESSING
003FAAH   004594H   0005EBH   BYTE   UNIT     CODE           ?CO?COMMAND_PROCESSING
004595H   004A17H   000483H   BYTE   UNIT     CODE           ?PR?PRINTF?PRINTF
004A18H   004DA1H   00038AH   BYTE   UNIT     CODE           ?PR?ISR_IMU_INTERRUPT?ISR_IMU
004DA2H   00511CH   00037BH   BYTE   UNIT     CODE           ?PR?READALLIMUS?IMU_FUNCTIONS
00511DH   005489H   00036DH   BYTE   UNIT     CODE           ?PR?INITIMUGENERAL?IMU_FUNCTIONS
00548AH   0057AEH   000325H   BYTE   UNIT     CODE           ?PR?CMD_GET_IMU_READINGS?COMMAND_PROCESSING
0057AFH   0058F6H   000148H   BYTE   UNIT     CODE           ?PR?CLOCKSETUP?CYFITTER_CFG
0058F7H   005A26H   000130H   BYTE   UNIT     CODE           ?PR?_CLOCK_UART_SETDIVIDERREGISTER?CLOCK_UART
005A27H   005B4DH   000127H   BYTE   UNIT     CODE           ?PR?INTERRUPT_MANAGER?INTERRUPTIONS
005B4EH   005C6EH   000121H   BYTE   UNIT     CODE           ?PR?COMMPROCESS?COMMAND_PROCESSING
005C6FH   005D88H   00011AH   BYTE   UNIT     CODE           ?C_C51STARTUP
005D89H   005E93H   00010BH   BYTE   UNIT     CODE           ?PR?CYFITTER_CFG?CYFITTER_CFG
005E94H   005F8EH   0000FBH   BYTE   UNIT     CODE           ?PR?_READACC?IMU_FUNCTIONS
005F8FH   006089H   0000FBH   BYTE   UNIT     CODE           ?PR?_READGYRO?IMU_FUNCTIONS
00608AH   00617FH   0000F6H   BYTE   UNIT     CODE           ?PR?_READMAG?IMU_FUNCTIONS
006180H   006270H   0000F1H   BYTE   UNIT     CODE           ?PR?INITIMU?IMU_FUNCTIONS
006271H   006361H   0000F1H   BYTE   UNIT     CODE           ?PR?INITIMUMAGCAL?IMU_FUNCTIONS
006362H   006440H   0000DFH   BYTE   UNIT     CODE           ?PR?_EEPROM_WRITE?EEPROM
006441H   006500H   0000C0H   BYTE   UNIT     CODE           ?PR?MAIN?MAIN
006501H   0065C0H   0000C0H   BYTE   UNIT     CODE           ?PR?CFG_DMA_INIT?CYFITTER_CFG
0065C1H   006671H   0000B1H   BYTE   UNIT     CODE           ?PR?UART_RS485_RXISR?UART_RS485_INT
006672H   00671EH   0000ADH   BYTE   UNIT     CODE           ?PR?_MEMSTORE?COMMAND_PROCESSING
00671FH   0067ABH   00008DH   BYTE   UNIT     CODE           ?PR?_COMMWRITE?COMMAND_PROCESSING
0067ACH   006834H   000089H   BYTE   UNIT     CODE           ?PR?_READIMU?IMU_FUNCTIONS
006835H   0068BCH   000088H   BYTE   UNIT     CODE           ?PR?_?CYDELAY?CYLIB
0068BDH   006940H   000084H   BYTE   UNIT     CODE           ?PR?_READMAGCAL?IMU_FUNCTIONS
006941H   0069B3H   000073H   BYTE   UNIT     CODE           ?PR?_CYSPCLOADROW?CYSPC
0069B4H   006A1EH   00006BH   BYTE   UNIT     CODE           ?PR?_STRCAT?STRCAT
006A1FH   006A7FH   000061H   BYTE   UNIT     CODE           ?C_INITSEG
006A80H   006ADFH   000060H   BYTE   UNIT     CODE           ?PR?_CYSPCREADDATA?CYSPC
006AE0H   006B3AH   00005BH   BYTE   UNIT     CODE           ?PR?UART_RS485_GETCHAR?UART_RS485
006B3BH   006B90H   000056H   BYTE   UNIT     CODE           ?PR?CYSETTEMPINT?CYFLASH
006B91H   006BE4H   000054H   BYTE   UNIT     CODE           ?PR?_READTEMP?IMU_FUNCTIONS
006BE5H   006C38H   000054H   BYTE   UNIT     CODE           ?PR?_CYINTSETVECTOR?CYLIB
006C39H   006C8CH   000054H   BYTE   UNIT     CODE           ?PR?_CYSPCWRITEROW?CYSPC
006C8DH   006CDCH   000050H   BYTE   UNIT     CODE           ?PR?CYFLASHGETSPCALGORITHM?CYFLASH
006CDDH   006D2BH   00004FH   BYTE   UNIT     CODE           ?PR?UART_RS485_GETRXBUFFERSIZE?UART_RS485
006D2CH   006D78H   00004DH   BYTE   UNIT     CODE           ?PR?MEMRECALL?COMMAND_PROCESSING
006D79H   006DC1H   000049H   BYTE   UNIT     CODE           ?PR?_CHIPSELECTOR?IMU_FUNCTIONS
006DC2H   006E08H   000047H   BYTE   UNIT     CODE           ?PR?MEMRESTORE?COMMAND_PROCESSING
006E09H   006E4CH   000044H   BYTE   UNIT     CODE           ?PR?FUNCTION_SCHEDULER?INTERRUPTIONS
006E4DH   006E90H   000044H   BYTE   UNIT     CODE           ?C?LDIV
LX51 LINKER/LOCATER V4.64.0.0                                                         01/24/2017  11:05:18  PAGE 5


006E91H   006ED1H   000041H   BYTE   UNIT     CODE           ?PR?CMD_SET_WATCHDOG?COMMAND_PROCESSING
006ED2H   006F0DH   00003CH   BYTE   UNIT     CODE           ?PR?PACER_TIMER_INIT?PACER_TIMER
006F0EH   006F45H   000038H   BYTE   UNIT     CODE           ?PR?WATCHDOG_COUNTER_INIT?WATCHDOG_COUNTER
006F46H   006F79H   000034H   BYTE   UNIT     CODE           ?PR?_UART_RS485_PUTSTRING?UART_RS485
006F7AH   006FADH   000034H   BYTE   UNIT     CODE           ?PR?_CYCONFIGCPY?CYMEM
006FAEH   006FE0H   000033H   BYTE   UNIT     CODE           ?PR?UART_RS485_INIT?UART_RS485
006FE1H   006FFFH   00001FH   BYTE   UNIT     CODE           ?PR?_ISR_RS485_RX_STARTEX?ISR_RS485_RX
007000H   00703AH   00003BH   PAGE   UNIT     CODE           ?PR?CYDELAYCYCLES?CYBOOTASMKEIL
00703BH   00706CH   000032H   BYTE   UNIT     CODE           ?PR?_LCRCHECKSUM?COMMAND_PROCESSING
00706DH   00709DH   000031H   BYTE   UNIT     CODE           ?PR?CYEEPROM_START?CYFLASH
00709EH   0070CDH   000030H   BYTE   UNIT     CODE           ?PR?_WRITECONTROLREGISTER?IMU_FUNCTIONS
0070CEH   0070FCH   00002FH   BYTE   UNIT     CODE           ?PR?UART_RS485_CLEARRXBUFFER?UART_RS485
0070FDH   00712AH   00002EH   BYTE   UNIT     CODE           ?PR?_CYSPCGETTEMP?CYSPC
00712BH   00712BH   000001H   BYTE   UNIT     CODE           ?PR?SETZEROS?COMMAND_PROCESSING
00712CH   007158H   00002DH   DWORD  UNIT     CODE           ?PR?CYDELAYUS?CYBOOTASMKEIL
007159H   007184H   00002CH   BYTE   UNIT     CODE           ?PR?MY_TIMER_INIT?MY_TIMER
007185H   0071ABH   000027H   BYTE   UNIT     CODE           ?PR?PUTCHAR?PUTCHAR
0071ACH   0071D1H   000026H   BYTE   UNIT     CODE           ?PR?CYCONFIGCPYCODE?CYMEM
0071D2H   0071F6H   000025H   BYTE   UNIT     CODE           ?PR?SPI_IMU_ENABLE?SPI_IMU
0071F7H   00721AH   000024H   BYTE   UNIT     CODE           ?PR?MEMINIT?COMMAND_PROCESSING
00721BH   00723CH   000022H   BYTE   UNIT     CODE           ?PR?UART_RS485_ENABLE?UART_RS485
00723DH   00725EH   000022H   BYTE   UNIT     CODE           ?PR?UART_RS485_STOP?UART_RS485
00725FH   00727EH   000020H   BYTE   UNIT     CODE           ?PR?CMD_SET_BAUDRATE?COMMAND_PROCESSING
00727FH   00729EH   000020H   BYTE   UNIT     CODE           ?PR?SPI_IMU_CLEARFIFO?SPI_IMU
00729FH   0072BDH   00001FH   BYTE   UNIT     CODE           ?PR?_ISR_WATCHDOG_STARTEX?ISR_WATCHDOG
0072BEH   0072DCH   00001FH   BYTE   UNIT     CODE           ?PR?CYSPCLOCK?CYSPC
0072DDH   0072F9H   00001DH   BYTE   UNIT     CODE           ?PR?ANALOGSETDEFAULT?CYFITTER_CFG
0072FAH   007315H   00001CH   BYTE   UNIT     CODE           ?PR?_WATCHDOG_COUNTER_WRITECOUNTER?WATCHDOG_COUNTER
007316H   007330H   00001BH   BYTE   UNIT     CODE           ?PR?CYSPCGETALGORITHM?CYSPC
007331H   007349H   000019H   BYTE   UNIT     CODE           ?PR?_INFOGET?COMMAND_PROCESSING
00734AH   007362H   000019H   BYTE   UNIT     CODE           ?PR?_CYINTSETPRIORITY?CYLIB
007363H   00737BH   000019H   BYTE   UNIT     CODE           ?PR?SPI_IMU_INIT?SPI_IMU
00737CH   007393H   000018H   BYTE   UNIT     CODE           ?PR?CYSETTEMP?CYFLASH
007394H   0073ABH   000018H   BYTE   UNIT     CODE           ?PR?CYEXITCRITICALSECTION?CYBOOTASMKEIL
0073ACH   0073C2H   000017H   BYTE   UNIT     CODE           ?PR?_READCONTROLREGISTER?IMU_FUNCTIONS
0073C3H   0073D8H   000016H   BYTE   UNIT     CODE           ?PR?PACER_TIMER_ENABLE?PACER_TIMER
0073D9H   0073EEH   000016H   BYTE   UNIT     CODE           ?PR?WATCHDOG_COUNTER_ENABLE?WATCHDOG_COUNTER
0073EFH   007403H   000015H   BYTE   UNIT     CODE           ?PR?_SENDACKNOWLEDGMENT?COMMAND_PROCESSING
007404H   007418H   000015H   BYTE   UNIT     CODE           ?PR?CMD_STORE_PARAMS?COMMAND_PROCESSING
007419H   00742DH   000015H   BYTE   UNIT     CODE           ?PR?CYENTERCRITICALSECTION?CYBOOTASMKEIL
00742EH   007442H   000015H   BYTE   UNIT     CODE           ?PR?CYSPCSTART?CYSPC
007443H   007457H   000015H   BYTE   UNIT     CODE           ?PR?_STRLEN?STRLEN
007458H   00746BH   000014H   BYTE   UNIT     CODE           ?PR?CMD_PING?COMMAND_PROCESSING
00746CH   00747FH   000014H   BYTE   UNIT     CODE           ?PR?UART_RS485_READRXSTATUS?UART_RS485
007480H   007492H   000013H   BYTE   UNIT     CODE           ?PR?UART_RS485_START?UART_RS485
007493H   0074A5H   000013H   BYTE   UNIT     CODE           ?PR?PACER_TIMER_START?PACER_TIMER
0074A6H   0074B8H   000013H   BYTE   UNIT     CODE           ?PR?MY_TIMER_START?MY_TIMER
0074B9H   0074CBH   000013H   BYTE   UNIT     CODE           ?PR?WATCHDOG_COUNTER_START?WATCHDOG_COUNTER
0074CCH   0074DEH   000013H   BYTE   UNIT     CODE           ?PR?SPI_IMU_START?SPI_IMU
0074DFH   0074F1H   000013H   BYTE   UNIT     CODE           ?PR?CYREAD24?CYMEM
0074F2H   007503H   000012H   BYTE   UNIT     CODE           ?PR?UART_RS485_CLEARTXBUFFER?UART_RS485
007504H   007515H   000012H   BYTE   UNIT     CODE           ?PR?SPI_IMU_CLEARTXBUFFER?SPI_IMU
007516H   007527H   000012H   BYTE   UNIT     CODE           ?PR?CYWRITE24?CYMEM
007528H   007537H   000010H   BYTE   UNIT     CODE           ?PR?_OPTO_PIN_WRITE?OPTO_PIN
007538H   007546H   00000FH   BYTE   UNIT     CODE           ?PR?MY_TIMER_READCOUNTER?MY_TIMER
007547H   007555H   00000FH   BYTE   UNIT     CODE           ?PR?SPI_IMU_CLEARRXBUFFER?SPI_IMU
007556H   007564H   00000FH   BYTE   UNIT     CODE           ?PR?SPI_IMU_READSTATUS?SPI_IMU
007565H   007573H   00000FH   BYTE   UNIT     CODE           ?PR?CYREAD16?CYMEM
007574H   007582H   00000FH   BYTE   UNIT     CODE           ?PR?CYWRITE16?CYMEM
007583H   007591H   00000FH   BYTE   UNIT     CODE           ?PR?SPI_IMU_INTCLOCK_START?SPI_IMU_INTCLOCK
007592H   00759FH   00000EH   BYTE   UNIT     CODE           ?PR?_ISR_RS485_RX_SETVECTOR?ISR_RS485_RX
0075A0H   0075ADH   00000EH   BYTE   UNIT     CODE           ?PR?_PACER_TIMER_WRITEPERIOD?PACER_TIMER
0075AEH   0075BBH   00000EH   BYTE   UNIT     CODE           ?PR?_PACER_TIMER_WRITECOUNTER?PACER_TIMER
0075BCH   0075C9H   00000EH   BYTE   UNIT     CODE           ?PR?_ISR_WATCHDOG_SETVECTOR?ISR_WATCHDOG
0075CAH   0075D7H   00000EH   BYTE   UNIT     CODE           ?PR?_WATCHDOG_COUNTER_WRITEPERIOD?WATCHDOG_COUNTER
LX51 LINKER/LOCATER V4.64.0.0                                                         01/24/2017  11:05:18  PAGE 6


0075D8H   0075E4H   00000DH   BYTE   UNIT     CODE           ?PR?_UART_RS485_PUTCHAR?UART_RS485
0075E5H   0075F1H   00000DH   BYTE   UNIT     CODE           ?PR?MY_TIMER_CLEARFIFO?MY_TIMER
0075F2H   0075FEH   00000DH   BYTE   UNIT     CODE           ?PR?_SPI_IMU_WRITETXDATA?SPI_IMU
0075FFH   00760AH   00000CH   BYTE   UNIT     CODE           ?PR?CYREAD8?CYMEM
00760BH   007616H   00000CH   BYTE   UNIT     CODE           ?PR?CYWRITE8?CYMEM
007617H   007622H   00000CH   BYTE   UNIT     CODE           ?PR?CYSPCUNLOCK?CYSPC
007623H   00762CH   00000AH   BYTE   UNIT     CODE           ?PR?_ISR_RS485_RX_SETPRIORITY?ISR_RS485_RX
00762DH   007636H   00000AH   BYTE   UNIT     CODE           ?PR?CLOCK_UART_GETDIVIDERREGISTER?CLOCK_UART
007637H   007640H   00000AH   BYTE   UNIT     CODE           ?PR?BOOTLOADABLE_LOAD?BOOTLOADABLE
007641H   00764AH   00000AH   BYTE   UNIT     CODE           ?PR?_MY_TIMER_WRITEPERIOD?MY_TIMER
00764BH   007654H   00000AH   BYTE   UNIT     CODE           ?PR?MY_TIMER_READCAPTURE?MY_TIMER
007655H   00765EH   00000AH   BYTE   UNIT     CODE           ?PR?_MY_TIMER_WRITECOUNTER?MY_TIMER
00765FH   007668H   00000AH   BYTE   UNIT     CODE           ?PR?_ISR_WATCHDOG_SETPRIORITY?ISR_WATCHDOG
007669H   007670H   000008H   BYTE   UNIT     CODE           ?PR?CLOCK_UART_GETSOURCEREGISTER?CLOCK_UART
007671H   007678H   000008H   BYTE   UNIT     CODE           ?PR?MY_TIMER_ENABLE?MY_TIMER
007679H   007680H   000008H   BYTE   UNIT     CODE           ?PR?CYSOFTWARERESET?CYLIB
007681H   007687H   000007H   BYTE   UNIT     CODE           ?PR?ISR_RS485_RX_ENABLE?ISR_RS485_RX
007688H   00768EH   000007H   BYTE   UNIT     CODE           ?PR?ISR_RS485_RX_DISABLE?ISR_RS485_RX
00768FH   007695H   000007H   BYTE   UNIT     CODE           ?PR?EEPROM_ENABLE?EEPROM
007696H   00769CH   000007H   BYTE   UNIT     CODE           ?PR?ISR_WATCHDOG_ENABLE?ISR_WATCHDOG
00769DH   0076A3H   000007H   BYTE   UNIT     CODE           ?PR?ISR_WATCHDOG_DISABLE?ISR_WATCHDOG
0076A4H   0076A9H   000006H   BYTE   UNIT     CODE           ?PR?UART_RS485_READTXSTATUS?UART_RS485
0076AAH   0076AFH   000006H   BYTE   UNIT     CODE           ?PR?_PACER_TIMER_SETINTERRUPTMODE?PACER_TIMER
0076B0H   0076B5H   000006H   BYTE   UNIT     CODE           ?PR?_RS485_CTS_WRITE?RS485_CTS
0076B6H   0076BBH   000006H   BYTE   UNIT     CODE           ?PR?_FTDI_ENABLE_REG_WRITE?FTDI_ENABLE_REG
0076BCH   0076C1H   000006H   BYTE   UNIT     CODE           ?PR?_RESET_FF_WRITE?RESET_FF
0076C2H   0076C7H   000006H   BYTE   UNIT     CODE           ?PR?FF_STATUS_READ?FF_STATUS
0076C8H   0076CDH   000006H   BYTE   UNIT     CODE           ?PR?_MY_TIMER_SETINTERRUPTMODE?MY_TIMER
0076CEH   0076D3H   000006H   BYTE   UNIT     CODE           ?PR?MY_TIMER_READSTATUSREGISTER?MY_TIMER
0076D4H   0076D9H   000006H   BYTE   UNIT     CODE           ?PR?_WATCHDOG_COUNTER_SETINTERRUPTMODE?WATCHDOG_COUNTER
0076DAH   0076DFH   000006H   BYTE   UNIT     CODE           ?PR?_WATCHDOG_ENABLER_WRITE?WATCHDOG_ENABLER
0076E0H   0076E5H   000006H   BYTE   UNIT     CODE           ?PR?_WATCHDOG_REFRESH_WRITE?WATCHDOG_REFRESH
0076E6H   0076EBH   000006H   BYTE   UNIT     CODE           ?PR?SPI_IMU_READTXSTATUS?SPI_IMU
0076ECH   0076F1H   000006H   BYTE   UNIT     CODE           ?PR?SPI_IMU_READRXSTATUS?SPI_IMU
0076F2H   0076F7H   000006H   BYTE   UNIT     CODE           ?PR?SPI_IMU_READRXDATA?SPI_IMU
0076F8H   0076FDH   000006H   BYTE   UNIT     CODE           ?PR?_CHIP_SELECT_A_WRITE?CHIP_SELECT_A
0076FEH   007703H   000006H   BYTE   UNIT     CODE           ?PR?_CHIP_SELECT_B_WRITE?CHIP_SELECT_B
007704H   007707H   000004H   BYTE   UNIT     CODE           ?PR?EEPROM_START?EEPROM
007708H   00770AH   000003H   BYTE   UNIT     CODE           ?PR?ISR_WATCHDOG_HANDLER?INTERRUPTIONS
00770BH   00770DH   000003H   BYTE   UNIT     CODE           ?PR?ISR_RS485_RX_EXINTERRUPT?INTERRUPTIONS
00770EH   007710H   000003H   BYTE   UNIT     CODE           ?PR?_CYCLOCKSTARTUPERROR?CYFITTER_CFG
007711H   007711H   000001H   BYTE   UNIT     CODE           ?PR?CMD_GET_MEASUREMENTS?COMMAND_PROCESSING
007712H   007712H   000001H   BYTE   UNIT     CODE           ?PR?CMD_SET_INPUTS?COMMAND_PROCESSING
007713H   007713H   000001H   BYTE   UNIT     CODE           ?PR?CMD_ACTIVATE?COMMAND_PROCESSING
007714H   007714H   000001H   BYTE   UNIT     CODE           ?PR?CMD_GET_ACTIVATE?COMMAND_PROCESSING
007715H   007715H   000001H   BYTE   UNIT     CODE           ?PR?CMD_GET_CURRENTS?COMMAND_PROCESSING
007716H   007716H   000001H   BYTE   UNIT     CODE           ?PR?CMD_GET_INPUTS?COMMAND_PROCESSING
007717H   007717H   000001H   BYTE   UNIT     CODE           ?PR?CMD_GET_EMG?COMMAND_PROCESSING
007718H   007718H   000001H   BYTE   UNIT     CODE           ?PR?ISR_RS485_RX_INTERRUPT?ISR_RS485_RX
007719H   007719H   000001H   BYTE   UNIT     CODE           ?PR?ISR_WATCHDOG_INTERRUPT?ISR_WATCHDOG
00771AH   00771AH   000001H   BYTE   UNIT     CODE           ?PR?SPI_IMU_ENABLETXINT?SPI_IMU
00771BH   00771BH   000001H   BYTE   UNIT     CODE           ?PR?SPI_IMU_ENABLERXINT?SPI_IMU
00771CH   0079FAH   0002DFH   BYTE   UNIT     CONST          ?CO?CYFITTER_CFG

* * * * * * * * * * *  X D A T A   M E M O R Y  * * * * * * * * * * * * *
000000H   000582H   000583H   BYTE   UNIT     XDATA          ?XD?GLOBALS
000583H   000A5AH   0004D8H   BYTE   UNIT     XDATA          _XDATA_GROUP_
000A5BH   000EA8H   00044EH   BYTE   UNIT     XDATA          ?XD?COMMAND_PROCESSING
000EA9H   00100EH   000166H   BYTE   UNIT     XDATA          ?XD?ISR_IMU
00100FH   001090H   000082H   BYTE   UNIT     XDATA          ?XD?INTERRUPTIONS
001091H   0010D3H   000043H   BYTE   UNIT     XDATA          ?XD?CYPM
0010D4H   0010FAH   000027H   BYTE   UNIT     XDATA          ?XD?UART_RS485
0010FBH   00111AH   000020H   BYTE   UNIT     XDATA          ?XD?UTILS
00111BH   001129H   00000FH   BYTE   UNIT     XDATA          ?XD?CYLIB
00112AH   00112EH   000005H   BYTE   UNIT     XDATA          ?XD?CYFLASH
LX51 LINKER/LOCATER V4.64.0.0                                                         01/24/2017  11:05:18  PAGE 7


00112FH   001132H   000004H   BYTE   UNIT     XDATA          ?XD?CYFITTER_CFG
001133H   001135H   000003H   BYTE   UNIT     XDATA          ?XD?SPI_IMU
001136H   001136H   000001H   BYTE   UNIT     XDATA          ?XD?IMU_FUNCTIONS
001137H   001137H   000001H   BYTE   UNIT     XDATA          ?XD?PACER_TIMER
001138H   001138H   000001H   BYTE   UNIT     XDATA          ?XD?MY_TIMER
001139H   001139H   000001H   BYTE   UNIT     XDATA          ?XD?WATCHDOG_COUNTER
00113AH   00113AH   000001H   BYTE   UNIT     XDATA          ?XD?CYSPC

* * * * * * * * *   R E M O V E D     S E G M E N T S   * * * * * * * *
   *DEL*:           000013H   BYTE   UNIT     CODE           ?PR?INFOSEND?COMMAND_PROCESSING
   *DEL*:           00044CH   BYTE   UNIT     XDATA          ?XD?INFOSEND?COMMAND_PROCESSING
   *DEL*:           000001H   BYTE   UNIT     CODE           ?PR?CMD_GET_CURR_AND_MEAS?COMMAND_PROCESSING
   *DEL*:           000075H   BYTE   UNIT     CODE           ?PR?_FILTER_V?UTILS
   *DEL*:           000075H   BYTE   UNIT     CODE           ?PR?_FILTER_I1?UTILS
   *DEL*:           000079H   BYTE   UNIT     CODE           ?PR?_FILTER_CH1?UTILS
   *DEL*:           000079H   BYTE   UNIT     CODE           ?PR?_FILTER_CH2?UTILS
   *DEL*:           00006BH   BYTE   UNIT     CODE           ?PR?_CHECK_ENC_DATA?UTILS
   *DEL*:           000054H   BYTE   UNIT     CODE           ?PR?_MY_ROUND?UTILS
   *DEL*:           000004H   BYTE   UNIT     XDATA          ?XD?_MY_ROUND?UTILS
   *DEL*:           000081H   BYTE   UNIT     CODE           ?PR?_MY_MOD?UTILS
   *DEL*:           000008H   BYTE   UNIT     XDATA          ?XD?_MY_MOD?UTILS
   *DEL*:           000001H   BYTE   UNIT     CODE           ?PR?CALIBRATION?UTILS
   *DEL*:           0000DBH   BYTE   UNIT     CODE           ?PR?_CALC_TURNS_FCN?UTILS
   *DEL*:           000008H   BYTE   UNIT     XDATA          ?XD?_CALC_TURNS_FCN?UTILS
   *DEL*:           000003H   BYTE   UNIT     IDATA          ?ID?_CHECK_ENC_DATA?UTILS
   *DEL*:           000001H   BYTE   UNIT     DATA           ?DT?_CHECK_ENC_DATA?UTILS
   *DEL*:           000035H   BYTE   UNIT     CODE           ?PR?IMUSRESET?IMU_FUNCTIONS
   *DEL*:           000002H   BYTE   UNIT     XDATA          ?XD?IMUSRESET?IMU_FUNCTIONS
   *DEL*:           000003H   BYTE   UNIT     CODE           ?PR?UART_RS485_READCONTROLREGISTER?UART_RS485
   *DEL*:           000006H   BYTE   UNIT     CODE           ?PR?_UART_RS485_WRITECONTROLREGISTER?UART_RS485
   *DEL*:           000001H   BYTE   UNIT     XDATA          ?XD?_UART_RS485_WRITECONTROLREGISTER?UART_RS485
   *DEL*:           000006H   BYTE   UNIT     CODE           ?PR?_UART_RS485_SETRXINTERRUPTMODE?UART_RS485
   *DEL*:           00004AH   BYTE   UNIT     CODE           ?PR?UART_RS485_READRXDATA?UART_RS485
   *DEL*:           00001FH   BYTE   UNIT     CODE           ?PR?UART_RS485_GETBYTE?UART_RS485
   *DEL*:           000006H   BYTE   UNIT     CODE           ?PR?_UART_RS485_SETRXADDRESSMODE?UART_RS485
   *DEL*:           000001H   BYTE   UNIT     XDATA          ?XD?_UART_RS485_SETRXADDRESSMODE?UART_RS485
   *DEL*:           000006H   BYTE   UNIT     CODE           ?PR?_UART_RS485_SETRXADDRESS1?UART_RS485
   *DEL*:           000006H   BYTE   UNIT     CODE           ?PR?_UART_RS485_SETRXADDRESS2?UART_RS485
   *DEL*:           000006H   BYTE   UNIT     CODE           ?PR?_UART_RS485_SETTXINTERRUPTMODE?UART_RS485
   *DEL*:           00000CH   BYTE   UNIT     CODE           ?PR?_UART_RS485_WRITETXDATA?UART_RS485
   *DEL*:           000032H   BYTE   UNIT     CODE           ?PR?_UART_RS485_PUTARRAY?UART_RS485
   *DEL*:           000003H   BYTE   UNIT     XDATA          ?XD?_UART_RS485_PUTARRAY?UART_RS485
   *DEL*:           000014H   BYTE   UNIT     CODE           ?PR?_UART_RS485_PUTCRLF?UART_RS485
   *DEL*:           000017H   BYTE   UNIT     CODE           ?PR?UART_RS485_GETTXBUFFERSIZE?UART_RS485
   *DEL*:           000059H   BYTE   UNIT     CODE           ?PR?_UART_RS485_SENDBREAK?UART_RS485
   *DEL*:           000001H   BYTE   UNIT     XDATA          ?XD?_UART_RS485_SENDBREAK?UART_RS485
   *DEL*:           000006H   BYTE   UNIT     CODE           ?PR?_UART_RS485_SETTXADDRESSMODE?UART_RS485
   *DEL*:           000001H   BYTE   UNIT     XDATA          ?XD?_UART_RS485_SETTXADDRESSMODE?UART_RS485
   *DEL*:           000013H   BYTE   UNIT     CODE           ?PR?ISR_RS485_RX_START?ISR_RS485_RX
   *DEL*:           000004H   BYTE   UNIT     CODE           ?PR?ISR_RS485_RX_STOP?ISR_RS485_RX
   *DEL*:           00000AH   BYTE   UNIT     CODE           ?PR?ISR_RS485_RX_GETVECTOR?ISR_RS485_RX
   *DEL*:           00000BH   BYTE   UNIT     CODE           ?PR?ISR_RS485_RX_GETPRIORITY?ISR_RS485_RX
   *DEL*:           00000EH   BYTE   UNIT     CODE           ?PR?ISR_RS485_RX_GETSTATE?ISR_RS485_RX
   *DEL*:           000007H   BYTE   UNIT     CODE           ?PR?ISR_RS485_RX_SETPENDING?ISR_RS485_RX
   *DEL*:           000007H   BYTE   UNIT     CODE           ?PR?ISR_RS485_RX_CLEARPENDING?ISR_RS485_RX
   *DEL*:           000016H   BYTE   UNIT     CODE           ?PR?PACER_TIMER_STOP?PACER_TIMER
   *DEL*:           00000AH   BYTE   UNIT     CODE           ?PR?PACER_TIMER_SOFTWARECAPTURE?PACER_TIMER
   *DEL*:           000006H   BYTE   UNIT     CODE           ?PR?PACER_TIMER_READSTATUSREGISTER?PACER_TIMER
   *DEL*:           000006H   BYTE   UNIT     CODE           ?PR?PACER_TIMER_READCONTROLREGISTER?PACER_TIMER
   *DEL*:           000006H   BYTE   UNIT     CODE           ?PR?_PACER_TIMER_WRITECONTROLREGISTER?PACER_TIMER
   *DEL*:           00000AH   BYTE   UNIT     CODE           ?PR?PACER_TIMER_READPERIOD?PACER_TIMER
   *DEL*:           00000AH   BYTE   UNIT     CODE           ?PR?PACER_TIMER_READCAPTURE?PACER_TIMER
   *DEL*:           000013H   BYTE   UNIT     CODE           ?PR?PACER_TIMER_READCOUNTER?PACER_TIMER
   *DEL*:           00000FH   BYTE   UNIT     CODE           ?PR?CLOCK_UART_START?CLOCK_UART
   *DEL*:           00000FH   BYTE   UNIT     CODE           ?PR?CLOCK_UART_STOP?CLOCK_UART
LX51 LINKER/LOCATER V4.64.0.0                                                         01/24/2017  11:05:18  PAGE 8


   *DEL*:           00006DH   BYTE   UNIT     CODE           ?PR?CLOCK_UART_STOPBLOCK?CLOCK_UART
   *DEL*:           000002H   BYTE   UNIT     XDATA          ?XD?CLOCK_UART_STOPBLOCK?CLOCK_UART
   *DEL*:           000013H   BYTE   UNIT     CODE           ?PR?_CLOCK_UART_STANDBYPOWER?CLOCK_UART
   *DEL*:           00000DH   BYTE   UNIT     CODE           ?PR?_CLOCK_UART_SETMODEREGISTER?CLOCK_UART
   *DEL*:           00000EH   BYTE   UNIT     CODE           ?PR?_CLOCK_UART_CLEARMODEREGISTER?CLOCK_UART
   *DEL*:           000008H   BYTE   UNIT     CODE           ?PR?CLOCK_UART_GETMODEREGISTER?CLOCK_UART
   *DEL*:           000062H   BYTE   UNIT     CODE           ?PR?_CLOCK_UART_SETSOURCEREGISTER?CLOCK_UART
   *DEL*:           000003H   BYTE   UNIT     XDATA          ?XD?_CLOCK_UART_SETSOURCEREGISTER?CLOCK_UART
   *DEL*:           000004H   BYTE   UNIT     CODE           ?PR?EEPROM_STOP?EEPROM
   *DEL*:           000124H   BYTE   UNIT     CODE           ?PR?_EEPROM_WRITEBYTE?EEPROM
   *DEL*:           000008H   BYTE   UNIT     XDATA          ?XD?_EEPROM_WRITEBYTE?EEPROM
   *DEL*:           00003AH   BYTE   UNIT     CODE           ?PR?_EEPROM_READBYTE?EEPROM
   *DEL*:           000004H   BYTE   UNIT     XDATA          ?XD?_EEPROM_READBYTE?EEPROM
   *DEL*:           000004H   BYTE   UNIT     CODE           ?PR?EEPROM_UPDATETEMPERATURE?EEPROM
   *DEL*:           00006FH   BYTE   UNIT     CODE           ?PR?_EEPROM_ERASESECTOR?EEPROM
   *DEL*:           000002H   BYTE   UNIT     XDATA          ?XD?_EEPROM_ERASESECTOR?EEPROM
   *DEL*:           0000B9H   BYTE   UNIT     CODE           ?PR?_EEPROM_STARTWRITE?EEPROM
   *DEL*:           000005H   BYTE   UNIT     XDATA          ?XD?_EEPROM_STARTWRITE?EEPROM
   *DEL*:           000046H   BYTE   UNIT     CODE           ?PR?_EEPROM_STARTERASE?EEPROM
   *DEL*:           000002H   BYTE   UNIT     XDATA          ?XD?_EEPROM_STARTERASE?EEPROM
   *DEL*:           00003BH   BYTE   UNIT     CODE           ?PR?EEPROM_QUERY?EEPROM
   *DEL*:           000001H   BYTE   UNIT     XDATA          ?XD?EEPROM_QUERY?EEPROM
   *DEL*:           0000E5H   BYTE   UNIT     CODE           ?PR?_EEPROM_BYTEWRITEPOS?EEPROM
   *DEL*:           000004H   BYTE   UNIT     XDATA          ?XD?_EEPROM_BYTEWRITEPOS?EEPROM
   *DEL*:           000006H   BYTE   UNIT     CODE           ?PR?RS485_CTS_READ?RS485_CTS
   *DEL*:           0000FBH   BYTE   UNIT     CODE           ?PR?_BOOTLOADABLE_SETFLASHBYTE?BOOTLOADABLE
   *DEL*:           000110H   BYTE   UNIT     XDATA          ?XD?_BOOTLOADABLE_SETFLASHBYTE?BOOTLOADABLE
   *DEL*:           000006H   BYTE   UNIT     CODE           ?PR?FTDI_ENABLE_REG_READ?FTDI_ENABLE_REG
   *DEL*:           000006H   BYTE   UNIT     CODE           ?PR?RESET_FF_READ?RESET_FF
   *DEL*:           00000EH   BYTE   UNIT     CODE           ?PR?FF_STATUS_INTERRUPTENABLE?FF_STATUS
   *DEL*:           00000EH   BYTE   UNIT     CODE           ?PR?FF_STATUS_INTERRUPTDISABLE?FF_STATUS
   *DEL*:           000009H   BYTE   UNIT     CODE           ?PR?_FF_STATUS_WRITEMASK?FF_STATUS
   *DEL*:           000006H   BYTE   UNIT     CODE           ?PR?FF_STATUS_READMASK?FF_STATUS
   *DEL*:           000008H   BYTE   UNIT     CODE           ?PR?MY_TIMER_STOP?MY_TIMER
   *DEL*:           000006H   BYTE   UNIT     CODE           ?PR?MY_TIMER_SOFTWARECAPTURE?MY_TIMER
   *DEL*:           000006H   BYTE   UNIT     CODE           ?PR?MY_TIMER_READCONTROLREGISTER?MY_TIMER
   *DEL*:           000006H   BYTE   UNIT     CODE           ?PR?_MY_TIMER_WRITECONTROLREGISTER?MY_TIMER
   *DEL*:           00000AH   BYTE   UNIT     CODE           ?PR?MY_TIMER_READPERIOD?MY_TIMER
   *DEL*:           000031H   BYTE   UNIT     CODE           ?PR?CYFLASH_START?CYFLASH
   *DEL*:           000015H   BYTE   UNIT     CODE           ?PR?CYFLASH_STOP?CYFLASH
   *DEL*:           00007DH   BYTE   UNIT     CODE           ?PR?_CYSETFLASHEEBUFFER?CYFLASH
   *DEL*:           000004H   BYTE   UNIT     XDATA          ?XD?_CYSETFLASHEEBUFFER?CYFLASH
   *DEL*:           000034H   BYTE   UNIT     CODE           ?PR?_CYWRITEROWDATA?CYFLASH
   *DEL*:           000003H   BYTE   UNIT     XDATA          ?XD?_CYWRITEROWDATA?CYFLASH
   *DEL*:           000190H   BYTE   UNIT     CODE           ?PR?_CYWRITEROWFULL?CYFLASH
   *DEL*:           000009H   BYTE   UNIT     XDATA          ?XD?_CYWRITEROWFULL?CYFLASH
   *DEL*:           000044H   BYTE   UNIT     CODE           ?PR?_CYFLASH_SETWAITCYCLES?CYFLASH
   *DEL*:           000001H   BYTE   UNIT     XDATA          ?XD?_CYFLASH_SETWAITCYCLES?CYFLASH
   *DEL*:           000015H   BYTE   UNIT     CODE           ?PR?CYEEPROM_STOP?CYFLASH
   *DEL*:           000010H   BYTE   UNIT     CODE           ?PR?CYEEPROM_READRESERVE?CYFLASH
   *DEL*:           000008H   BYTE   UNIT     CODE           ?PR?CYEEPROM_READRELEASE?CYFLASH
   *DEL*:           00006EH   BYTE   UNIT     CODE           ?PR?_CYPLL_OUT_START?CYLIB
   *DEL*:           000004H   BYTE   UNIT     XDATA          ?XD?_CYPLL_OUT_START?CYLIB
   *DEL*:           000008H   BYTE   UNIT     CODE           ?PR?CYPLL_OUT_STOP?CYLIB
   *DEL*:           000036H   BYTE   UNIT     CODE           ?PR?_CYPLL_OUT_SETPQ?CYLIB
   *DEL*:           000010H   BYTE   UNIT     CODE           ?PR?_CYPLL_OUT_SETSOURCE?CYLIB
   *DEL*:           000053H   BYTE   UNIT     CODE           ?PR?_CYIMO_START?CYLIB
   *DEL*:           000003H   BYTE   UNIT     XDATA          ?XD?_CYIMO_START?CYLIB
   *DEL*:           00000FH   BYTE   UNIT     CODE           ?PR?CYIMO_STOP?CYLIB
   *DEL*:           000027H   BYTE   UNIT     CODE           ?PR?CYUSB_POWERONCHECK?CYLIB
   *DEL*:           0000B6H   BYTE   UNIT     CODE           ?PR?_CYIMO_SETTRIMVALUE?CYLIB
   *DEL*:           000001H   BYTE   UNIT     XDATA          ?XD?_CYIMO_SETTRIMVALUE?CYLIB
   *DEL*:           000118H   BYTE   UNIT     CODE           ?PR?_CYIMO_SETFREQ?CYLIB
   *DEL*:           000003H   BYTE   UNIT     XDATA          ?XD?_CYIMO_SETFREQ?CYLIB
   *DEL*:           00002FH   BYTE   UNIT     CODE           ?PR?_CYIMO_SETSOURCE?CYLIB
LX51 LINKER/LOCATER V4.64.0.0                                                         01/24/2017  11:05:18  PAGE 9


   *DEL*:           000008H   BYTE   UNIT     CODE           ?PR?CYIMO_ENABLEDOUBLER?CYLIB
   *DEL*:           000008H   BYTE   UNIT     CODE           ?PR?CYIMO_DISABLEDOUBLER?CYLIB
   *DEL*:           00000DH   BYTE   UNIT     CODE           ?PR?_CYMASTERCLK_SETSOURCE?CYLIB
   *DEL*:           000006H   BYTE   UNIT     CODE           ?PR?_CYMASTERCLK_SETDIVIDER?CYLIB
   *DEL*:           000023H   BYTE   UNIT     CODE           ?PR?_CYBUSCLK_INTERNAL_SETDIVIDER?CYLIB
   *DEL*:           00007AH   BYTE   UNIT     CODE           ?PR?_CYBUSCLK_SETDIVIDER?CYLIB
   *DEL*:           000002H   BYTE   UNIT     XDATA          ?XD?_CYBUSCLK_SETDIVIDER?CYLIB
   *DEL*:           00000EH   BYTE   UNIT     CODE           ?PR?_CYCPUCLK_SETDIVIDER?CYLIB
   *DEL*:           00000DH   BYTE   UNIT     CODE           ?PR?_CYUSBCLK_SETSOURCE?CYLIB
   *DEL*:           000008H   BYTE   UNIT     CODE           ?PR?CYILO_START1K?CYLIB
   *DEL*:           000008H   BYTE   UNIT     CODE           ?PR?CYILO_STOP1K?CYLIB
   *DEL*:           000008H   BYTE   UNIT     CODE           ?PR?CYILO_START100K?CYLIB
   *DEL*:           000008H   BYTE   UNIT     CODE           ?PR?CYILO_STOP100K?CYLIB
   *DEL*:           000008H   BYTE   UNIT     CODE           ?PR?CYILO_ENABLE33K?CYLIB
   *DEL*:           000008H   BYTE   UNIT     CODE           ?PR?CYILO_DISABLE33K?CYLIB
   *DEL*:           000011H   BYTE   UNIT     CODE           ?PR?_CYILO_SETSOURCE?CYLIB
   *DEL*:           000029H   BYTE   UNIT     CODE           ?PR?_CYILO_SETPOWERMODE?CYLIB
   *DEL*:           00005EH   BYTE   UNIT     CODE           ?PR?CYXTAL_32KHZ_START?CYLIB
   *DEL*:           000002H   BYTE   UNIT     XDATA          ?XD?CYXTAL_32KHZ_START?CYLIB
   *DEL*:           000020H   BYTE   UNIT     CODE           ?PR?CYXTAL_32KHZ_STOP?CYLIB
   *DEL*:           000008H   BYTE   UNIT     CODE           ?PR?CYXTAL_32KHZ_READSTATUS?CYLIB
   *DEL*:           000066H   BYTE   UNIT     CODE           ?PR?_CYXTAL_32KHZ_SETPOWERMODE?CYLIB
   *DEL*:           000001H   BYTE   UNIT     XDATA          ?XD?_CYXTAL_32KHZ_SETPOWERMODE?CYLIB
   *DEL*:           0000A0H   BYTE   UNIT     CODE           ?PR?_CYXTAL_START?CYLIB
   *DEL*:           000006H   BYTE   UNIT     XDATA          ?XD?_CYXTAL_START?CYLIB
   *DEL*:           000008H   BYTE   UNIT     CODE           ?PR?CYXTAL_STOP?CYLIB
   *DEL*:           000008H   BYTE   UNIT     CODE           ?PR?CYXTAL_ENABLEERRSTATUS?CYLIB
   *DEL*:           000008H   BYTE   UNIT     CODE           ?PR?CYXTAL_DISABLEERRSTATUS?CYLIB
   *DEL*:           00000FH   BYTE   UNIT     CODE           ?PR?CYXTAL_READSTATUS?CYLIB
   *DEL*:           000008H   BYTE   UNIT     CODE           ?PR?CYXTAL_ENABLEFAULTRECOVERY?CYLIB
   *DEL*:           000008H   BYTE   UNIT     CODE           ?PR?CYXTAL_DISABLEFAULTRECOVERY?CYLIB
   *DEL*:           00000DH   BYTE   UNIT     CODE           ?PR?_CYXTAL_SETSTARTUP?CYLIB
   *DEL*:           00000DH   BYTE   UNIT     CODE           ?PR?_CYXTAL_SETFBVOLTAGE?CYLIB
   *DEL*:           00000EH   BYTE   UNIT     CODE           ?PR?_CYXTAL_SETWDVOLTAGE?CYLIB
   *DEL*:           000015H   BYTE   UNIT     CODE           ?PR?_?CYHALT?CYLIB
   *DEL*:           0000B8H   BYTE   UNIT     CODE           ?PR?_?CYDELAYFREQ?CYLIB
   *DEL*:           000026H   BYTE   UNIT     CODE           ?PR?_CYWDTSTART?CYLIB
   *DEL*:           000007H   BYTE   UNIT     CODE           ?PR?CYWDTCLEAR?CYLIB
   *DEL*:           000084H   BYTE   UNIT     CODE           ?PR?_CYVDLVDIGITENABLE?CYLIB
   *DEL*:           000007H   BYTE   UNIT     XDATA          ?XD?_CYVDLVDIGITENABLE?CYLIB
   *DEL*:           000083H   BYTE   UNIT     CODE           ?PR?_CYVDLVANALOGENABLE?CYLIB
   *DEL*:           000007H   BYTE   UNIT     XDATA          ?XD?_CYVDLVANALOGENABLE?CYLIB
   *DEL*:           00001DH   BYTE   UNIT     CODE           ?PR?CYVDLVDIGITDISABLE?CYLIB
   *DEL*:           000018H   BYTE   UNIT     CODE           ?PR?CYVDLVANALOGDISABLE?CYLIB
   *DEL*:           000056H   BYTE   UNIT     CODE           ?PR?CYVDHVANALOGENABLE?CYLIB
   *DEL*:           000005H   BYTE   UNIT     XDATA          ?XD?CYVDHVANALOGENABLE?CYLIB
   *DEL*:           000011H   BYTE   UNIT     CODE           ?PR?CYVDHVANALOGDISABLE?CYLIB
   *DEL*:           000039H   BYTE   UNIT     CODE           ?PR?_CYVDSTICKYSTATUS?CYLIB
   *DEL*:           000002H   BYTE   UNIT     XDATA          ?XD?_CYVDSTICKYSTATUS?CYLIB
   *DEL*:           000018H   BYTE   UNIT     CODE           ?PR?CYVDREALTIMESTATUS?CYLIB
   *DEL*:           000001H   BYTE   UNIT     XDATA          ?XD?CYVDREALTIMESTATUS?CYLIB
   *DEL*:           0000D0H   BYTE   UNIT     CODE           ?PR?CYDISABLEINTS?CYLIB
   *DEL*:           000005H   BYTE   UNIT     XDATA          ?XD?CYDISABLEINTS?CYLIB
   *DEL*:           000067H   BYTE   UNIT     CODE           ?PR?_CYENABLEINTS?CYLIB
   *DEL*:           000004H   BYTE   UNIT     XDATA          ?XD?_CYENABLEINTS?CYLIB
   *DEL*:           000018H   BYTE   UNIT     CODE           ?PR?_CYINTGETVECTOR?CYLIB
   *DEL*:           000014H   BYTE   UNIT     CODE           ?PR?_CYINTGETPRIORITY?CYLIB
   *DEL*:           000036H   BYTE   UNIT     CODE           ?PR?_CYINTGETSTATE?CYLIB
   *DEL*:           000248H   BYTE   UNIT     CODE           ?PR?_CYGETUNIQUEID?CYLIB
   *DEL*:           000003H   BYTE   UNIT     XDATA          ?XD?_CYGETUNIQUEID?CYLIB
   *DEL*:           000013H   BYTE   UNIT     CODE           ?PR?ISR_WATCHDOG_START?ISR_WATCHDOG
   *DEL*:           000004H   BYTE   UNIT     CODE           ?PR?ISR_WATCHDOG_STOP?ISR_WATCHDOG
   *DEL*:           00000AH   BYTE   UNIT     CODE           ?PR?ISR_WATCHDOG_GETVECTOR?ISR_WATCHDOG
   *DEL*:           00000BH   BYTE   UNIT     CODE           ?PR?ISR_WATCHDOG_GETPRIORITY?ISR_WATCHDOG
   *DEL*:           00000EH   BYTE   UNIT     CODE           ?PR?ISR_WATCHDOG_GETSTATE?ISR_WATCHDOG
LX51 LINKER/LOCATER V4.64.0.0                                                         01/24/2017  11:05:18  PAGE 10


   *DEL*:           000007H   BYTE   UNIT     CODE           ?PR?ISR_WATCHDOG_SETPENDING?ISR_WATCHDOG
   *DEL*:           000007H   BYTE   UNIT     CODE           ?PR?ISR_WATCHDOG_CLEARPENDING?ISR_WATCHDOG
   *DEL*:           000016H   BYTE   UNIT     CODE           ?PR?WATCHDOG_COUNTER_STOP?WATCHDOG_COUNTER
   *DEL*:           000006H   BYTE   UNIT     CODE           ?PR?WATCHDOG_COUNTER_READSTATUSREGISTER?WATCHDOG_COUNTER
   *DEL*:           000006H   BYTE   UNIT     CODE           ?PR?WATCHDOG_COUNTER_READCONTROLREGISTER?WATCHDOG_COUNTER
   *DEL*:           000006H   BYTE   UNIT     CODE           ?PR?_WATCHDOG_COUNTER_WRITECONTROLREGISTER?WATCHDOG_COUNTE
                                                             -R
   *DEL*:           000013H   BYTE   UNIT     CODE           ?PR?WATCHDOG_COUNTER_READCOUNTER?WATCHDOG_COUNTER
   *DEL*:           00000AH   BYTE   UNIT     CODE           ?PR?WATCHDOG_COUNTER_READCAPTURE?WATCHDOG_COUNTER
   *DEL*:           00000AH   BYTE   UNIT     CODE           ?PR?WATCHDOG_COUNTER_READPERIOD?WATCHDOG_COUNTER
   *DEL*:           000006H   BYTE   UNIT     CODE           ?PR?WATCHDOG_ENABLER_READ?WATCHDOG_ENABLER
   *DEL*:           000006H   BYTE   UNIT     CODE           ?PR?WATCHDOG_REFRESH_READ?WATCHDOG_REFRESH
   *DEL*:           00001EH   BYTE   UNIT     CODE           ?PR?SPI_IMU_STOP?SPI_IMU
   *DEL*:           000001H   BYTE   UNIT     CODE           ?PR?SPI_IMU_DISABLETXINT?SPI_IMU
   *DEL*:           000001H   BYTE   UNIT     CODE           ?PR?SPI_IMU_DISABLERXINT?SPI_IMU
   *DEL*:           000006H   BYTE   UNIT     CODE           ?PR?_SPI_IMU_SETTXINTERRUPTMODE?SPI_IMU
   *DEL*:           000006H   BYTE   UNIT     CODE           ?PR?_SPI_IMU_SETRXINTERRUPTMODE?SPI_IMU
   *DEL*:           00000EH   BYTE   UNIT     CODE           ?PR?SPI_IMU_GETRXBUFFERSIZE?SPI_IMU
   *DEL*:           000017H   BYTE   UNIT     CODE           ?PR?SPI_IMU_GETTXBUFFERSIZE?SPI_IMU
   *DEL*:           00002EH   BYTE   UNIT     CODE           ?PR?_SPI_IMU_PUTARRAY?SPI_IMU
   *DEL*:           000003H   BYTE   UNIT     XDATA          ?XD?_SPI_IMU_PUTARRAY?SPI_IMU
   *DEL*:           000007H   BYTE   UNIT     CODE           ?PR?SPI_IMU_ENABLEINT?SPI_IMU
   *DEL*:           000007H   BYTE   UNIT     CODE           ?PR?SPI_IMU_DISABLEINT?SPI_IMU
   *DEL*:           00000DH   BYTE   UNIT     CODE           ?PR?_SPI_IMU_SETINTERRUPTMODE?SPI_IMU
   *DEL*:           000013H   BYTE   UNIT     CODE           ?PR?ISR_IMU_START?ISR_IMU
   *DEL*:           00001FH   BYTE   UNIT     CODE           ?PR?_ISR_IMU_STARTEX?ISR_IMU
   *DEL*:           000002H   BYTE   UNIT     XDATA          ?XD?_ISR_IMU_STARTEX?ISR_IMU
   *DEL*:           000004H   BYTE   UNIT     CODE           ?PR?ISR_IMU_STOP?ISR_IMU
   *DEL*:           00000EH   BYTE   UNIT     CODE           ?PR?_ISR_IMU_SETVECTOR?ISR_IMU
   *DEL*:           00000AH   BYTE   UNIT     CODE           ?PR?ISR_IMU_GETVECTOR?ISR_IMU
   *DEL*:           00000AH   BYTE   UNIT     CODE           ?PR?_ISR_IMU_SETPRIORITY?ISR_IMU
   *DEL*:           00000BH   BYTE   UNIT     CODE           ?PR?ISR_IMU_GETPRIORITY?ISR_IMU
   *DEL*:           000007H   BYTE   UNIT     CODE           ?PR?ISR_IMU_ENABLE?ISR_IMU
   *DEL*:           00000EH   BYTE   UNIT     CODE           ?PR?ISR_IMU_GETSTATE?ISR_IMU
   *DEL*:           000007H   BYTE   UNIT     CODE           ?PR?ISR_IMU_DISABLE?ISR_IMU
   *DEL*:           000007H   BYTE   UNIT     CODE           ?PR?ISR_IMU_SETPENDING?ISR_IMU
   *DEL*:           000007H   BYTE   UNIT     CODE           ?PR?ISR_IMU_CLEARPENDING?ISR_IMU
   *DEL*:           00000DH   BYTE   UNIT     CODE           ?PR?_OPTO_PIN_SETDRIVEMODE?OPTO_PIN
   *DEL*:           000013H   BYTE   UNIT     CODE           ?PR?OPTO_PIN_READ?OPTO_PIN
   *DEL*:           000013H   BYTE   UNIT     CODE           ?PR?OPTO_PIN_READDATAREG?OPTO_PIN
   *DEL*:           000006H   BYTE   UNIT     CODE           ?PR?CHIP_SELECT_A_READ?CHIP_SELECT_A
   *DEL*:           000006H   BYTE   UNIT     CODE           ?PR?CHIP_SELECT_B_READ?CHIP_SELECT_B
   *DEL*:           000014H   BYTE   UNIT     CODE           ?PR?_SETANALOGROUTINGPUMPS?CYFITTER_CFG
   *DEL*:           000004H   BYTE   UNIT     CODE           ?PR?_CyDelay?CYBOOTASMKEIL
   *DEL*:           000019H   BYTE   UNIT     CODE           ?PR?CYMEMZERO?CYMEM
   *DEL*:           00002DH   BYTE   UNIT     CODE           ?PR?CFG_WRITE_BYTES?CYMEM
   *DEL*:           00002EH   BYTE   UNIT     CODE           ?PR?CY_WRITE_BYTES_CODE?CYMEM
   *DEL*:           000015H   BYTE   UNIT     CODE           ?PR?CYREAD32?CYMEM
   *DEL*:           000015H   BYTE   UNIT     CODE           ?PR?CYWRITE32?CYMEM
   *DEL*:           0001A9H   BYTE   UNIT     CODE           ?PR?CYPMSAVECLOCKS?CYPM
   *DEL*:           00024CH   BYTE   UNIT     CODE           ?PR?CYPMRESTORECLOCKS?CYPM
   *DEL*:           000003H   BYTE   UNIT     XDATA          ?XD?CYPMRESTORECLOCKS?CYPM
   *DEL*:           0000E0H   BYTE   UNIT     CODE           ?PR?_CYPMALTACT?CYPM
   *DEL*:           000004H   BYTE   UNIT     XDATA          ?XD?_CYPMALTACT?CYPM
   *DEL*:           000160H   BYTE   UNIT     CODE           ?PR?_CYPMSLEEP?CYPM
   *DEL*:           000004H   BYTE   UNIT     XDATA          ?XD?_CYPMSLEEP?CYPM
   *DEL*:           000008H   BYTE   UNIT     CODE           ?PR?CYPMHIBERNATE?CYPM
   *DEL*:           0000D6H   BYTE   UNIT     CODE           ?PR?_CYPMHIBERNATEEX?CYPM
   *DEL*:           000003H   BYTE   UNIT     XDATA          ?XD?_CYPMHIBERNATEEX?CYPM
   *DEL*:           000039H   BYTE   UNIT     CODE           ?PR?_CYPMREADSTATUS?CYPM
   *DEL*:           000002H   BYTE   UNIT     XDATA          ?XD?_CYPMREADSTATUS?CYPM
   *DEL*:           000076H   BYTE   UNIT     CODE           ?PR?CYPMHIBSAVESET?CYPM
   *DEL*:           000040H   BYTE   UNIT     CODE           ?PR?CYPMHIBRESTORE?CYPM
   *DEL*:           000049H   BYTE   UNIT     CODE           ?PR?_CYPMCTWSETINTERVAL?CYPM
   *DEL*:           000001H   BYTE   UNIT     XDATA          ?XD?_CYPMCTWSETINTERVAL?CYPM
LX51 LINKER/LOCATER V4.64.0.0                                                         01/24/2017  11:05:18  PAGE 11


   *DEL*:           000017H   BYTE   UNIT     CODE           ?PR?CYPMOPPSSET?CYPM
   *DEL*:           00004DH   BYTE   UNIT     CODE           ?PR?_CYPMFTWSETINTERVAL?CYPM
   *DEL*:           000001H   BYTE   UNIT     XDATA          ?XD?_CYPMFTWSETINTERVAL?CYPM
   *DEL*:           00018CH   BYTE   UNIT     CODE           ?PR?CYPMHIBSLPSAVESET?CYPM
   *DEL*:           00010DH   BYTE   UNIT     CODE           ?PR?CYPMHIBSLPRESTORE?CYPM
   *DEL*:           000082H   BYTE   UNIT     CODE           ?PR?CYPMHVILVISAVEDISABLE?CYPM
   *DEL*:           000033H   BYTE   UNIT     CODE           ?PR?CYPMHVILVIRESTORE?CYPM
   *DEL*:           00000EH   BYTE   UNIT     CONST          ?CO?CYPM
   *DEL*:           000015H   BYTE   UNIT     CODE           ?PR?CYSPCSTOP?CYSPC
   *DEL*:           0000A7H   BYTE   UNIT     CODE           ?PR?_CYSPCLOADMULTIBYTE?CYSPC
   *DEL*:           000007H   BYTE   UNIT     XDATA          ?XD?_CYSPCLOADMULTIBYTE?CYSPC
   *DEL*:           000143H   BYTE   UNIT     CODE           ?PR?_CYSPCLOADROWFULL?CYSPC
   *DEL*:           00000FH   BYTE   UNIT     XDATA          ?XD?_CYSPCLOADROWFULL?CYSPC
   *DEL*:           000030H   BYTE   UNIT     CODE           ?PR?_CYSPCERASESECTOR?CYSPC
   *DEL*:           00000FH   BYTE   UNIT     CODE           ?PR?SPI_IMU_INTCLOCK_STOP?SPI_IMU_INTCLOCK
   *DEL*:           00006EH   BYTE   UNIT     CODE           ?PR?SPI_IMU_INTCLOCK_STOPBLOCK?SPI_IMU_INTCLOCK
   *DEL*:           000002H   BYTE   UNIT     XDATA          ?XD?SPI_IMU_INTCLOCK_STOPBLOCK?SPI_IMU_INTCLOCK
   *DEL*:           000013H   BYTE   UNIT     CODE           ?PR?_SPI_IMU_INTCLOCK_STANDBYPOWER?SPI_IMU_INTCLOCK
   *DEL*:           000131H   BYTE   UNIT     CODE           ?PR?_SPI_IMU_INTCLOCK_SETDIVIDERREGISTER?SPI_IMU_INTCLOCK
   *DEL*:           000007H   BYTE   UNIT     XDATA          ?XD?_SPI_IMU_INTCLOCK_SETDIVIDERREGISTER?SPI_IMU_INTCLOCK
   *DEL*:           00000AH   BYTE   UNIT     CODE           ?PR?SPI_IMU_INTCLOCK_GETDIVIDERREGISTER?SPI_IMU_INTCLOCK
   *DEL*:           00000DH   BYTE   UNIT     CODE           ?PR?_SPI_IMU_INTCLOCK_SETMODEREGISTER?SPI_IMU_INTCLOCK
   *DEL*:           00000EH   BYTE   UNIT     CODE           ?PR?_SPI_IMU_INTCLOCK_CLEARMODEREGISTER?SPI_IMU_INTCLOCK
   *DEL*:           000008H   BYTE   UNIT     CODE           ?PR?SPI_IMU_INTCLOCK_GETMODEREGISTER?SPI_IMU_INTCLOCK
   *DEL*:           000062H   BYTE   UNIT     CODE           ?PR?_SPI_IMU_INTCLOCK_SETSOURCEREGISTER?SPI_IMU_INTCLOCK
   *DEL*:           000003H   BYTE   UNIT     XDATA          ?XD?_SPI_IMU_INTCLOCK_SETSOURCEREGISTER?SPI_IMU_INTCLOCK
   *DEL*:           000008H   BYTE   UNIT     CODE           ?PR?SPI_IMU_INTCLOCK_GETSOURCEREGISTER?SPI_IMU_INTCLOCK



OVERLAY MAP OF MODULE:   .\DP8051_Keil_951\Release\firmware.omf (COMMAND_PROCESSING)


FUNCTION/MODULE                                BIT_GROUP   DATA_GROUP   XDATA_GROUP
--> CALLED FUNCTION/MODULE                    START  STOP  START  STOP  START  STOP
===================================================================================
ISR_WATCHDOG_HANDLER/INTERRUPTIONS            ----- -----  ----- -----  ----- -----

*** NEW ROOT ********************************

ISR_RS485_RX_EXINTERRUPT/INTERRUPTIONS        ----- -----  ----- -----  ----- -----

*** NEW ROOT ********************************

ISR_RS485_RX_INTERRUPT/ISR_RS485_RX           ----- -----  ----- -----  ----- -----

*** NEW ROOT ********************************

?C_C51STARTUP                                 ----- -----  ----- -----  ----- -----
  +--> ?CO?KEILSTART?3
  +--> CYFITTER_CFG/CYFITTER_CFG
  +--> MAIN/MAIN
  +--> ?C_INITSEG

?CO?KEILSTART?3                               ----- -----  ----- -----  ----- -----

CYFITTER_CFG/CYFITTER_CFG                     ----- -----  ----- -----  ----- -----
  +--> CYREAD8/CYMEM
  +--> CYWRITE8/CYMEM
  +--> CFG_DMA_INIT/CYFITTER_CFG
  +--> _CYCONFIGCPY/CYMEM
  +--> ?CO?CYFITTER_CFG
  +--> CYCONFIGCPYCODE/CYMEM
  +--> CLOCKSETUP/CYFITTER_CFG
  +--> ANALOGSETDEFAULT/CYFITTER_CFG
LX51 LINKER/LOCATER V4.64.0.0                                                         01/24/2017  11:05:18  PAGE 12



CYREAD8/CYMEM                                 ----- -----  ----- -----  ----- -----

CYWRITE8/CYMEM                                ----- -----  ----- -----  ----- -----

CFG_DMA_INIT/CYFITTER_CFG                     ----- -----  ----- -----  ----- -----
  +--> CYWRITE16/CYMEM
  +--> ?CO?CYFITTER_CFG

CYWRITE16/CYMEM                               ----- -----  ----- -----  ----- -----

?CO?CYFITTER_CFG                              ----- -----  ----- -----  ----- -----

_CYCONFIGCPY/CYMEM                            ----- -----  ----- -----  0583H 058AH

CYCONFIGCPYCODE/CYMEM                         ----- -----  ----- -----  ----- -----

CLOCKSETUP/CYFITTER_CFG                       ----- -----  ----- -----  0583H 0587H
  +--> CYWRITE16/CYMEM
  +--> CYREAD8/CYMEM
  +--> CYDELAYCYCLES/CYBOOTASMKEIL
  +--> _CYCLOCKSTARTUPERROR/CYFITTER_CFG

CYDELAYCYCLES/CYBOOTASMKEIL                   ----- -----  ----- -----  ----- -----

_CYCLOCKSTARTUPERROR/CYFITTER_CFG             ----- -----  ----- -----  ----- -----

ANALOGSETDEFAULT/CYFITTER_CFG                 ----- -----  ----- -----  ----- -----
  +--> CYREAD8/CYMEM

MAIN/MAIN                                     ----- -----  ----- -----  0583H 0587H
  +--> EEPROM_START/EEPROM
  +--> MEMRECALL/COMMAND_PROCESSING
  +--> _?CYDELAY/CYLIB
  +--> _FTDI_ENABLE_REG_WRITE/FTDI_ENABLE_REG
  +--> UART_RS485_STOP/UART_RS485
  +--> UART_RS485_START/UART_RS485
  +--> UART_RS485_INIT/UART_RS485
  +--> UART_RS485_CLEARRXBUFFER/UART_RS485
  +--> UART_RS485_CLEARTXBUFFER/UART_RS485
  +--> _ISR_RS485_RX_STARTEX/ISR_RS485_RX
  +--> WATCHDOG_COUNTER_START/WATCHDOG_COUNTER
  +--> _ISR_WATCHDOG_STARTEX/ISR_WATCHDOG
  +--> _RS485_CTS_WRITE/RS485_CTS
  +--> MY_TIMER_START/MY_TIMER
  +--> PACER_TIMER_START/PACER_TIMER
  +--> SPI_IMU_START/SPI_IMU
  +--> SPI_IMU_INIT/SPI_IMU
  +--> SPI_IMU_ENABLE/SPI_IMU
  +--> SPI_IMU_CLEARRXBUFFER/SPI_IMU
  +--> SPI_IMU_CLEARTXBUFFER/SPI_IMU
  +--> SPI_IMU_CLEARFIFO/SPI_IMU
  +--> _OPTO_PIN_WRITE/OPTO_PIN
  +--> INITIMUGENERAL/IMU_FUNCTIONS
  +--> _RESET_FF_WRITE/RESET_FF
  +--> FUNCTION_SCHEDULER/INTERRUPTIONS
  +--> FF_STATUS_READ/FF_STATUS
  +--> _WATCHDOG_REFRESH_WRITE/WATCHDOG_REFRESH
  +--> INTERRUPT_MANAGER/INTERRUPTIONS
  +--> UART_RS485_READRXSTATUS/UART_RS485

EEPROM_START/EEPROM                           ----- -----  ----- -----  ----- -----
  +--> EEPROM_ENABLE/EEPROM

EEPROM_ENABLE/EEPROM                          ----- -----  ----- -----  ----- -----
LX51 LINKER/LOCATER V4.64.0.0                                                         01/24/2017  11:05:18  PAGE 13


  +--> CYSETTEMP/CYFLASH
  +--> CYEEPROM_START/CYFLASH

CYSETTEMP/CYFLASH                             ----- -----  ----- -----  058FH 058FH
  +--> CYFLASHGETSPCALGORITHM/CYFLASH
  +--> CYSETTEMPINT/CYFLASH

CYFLASHGETSPCALGORITHM/CYFLASH                ----- -----  ----- -----  0590H 0590H
  +--> CYSPCSTART/CYSPC
  +--> CYSPCLOCK/CYSPC
  +--> CYSPCGETALGORITHM/CYSPC
  +--> CYDELAYUS/CYBOOTASMKEIL
  +--> CYSPCUNLOCK/CYSPC

CYSPCSTART/CYSPC                              ----- -----  ----- -----  ----- -----
  +--> CYENTERCRITICALSECTION/CYBOOTASMKEIL
  +--> CYEXITCRITICALSECTION/CYBOOTASMKEIL

CYENTERCRITICALSECTION/CYBOOTASMKEIL          ----- -----  ----- -----  ----- -----

CYEXITCRITICALSECTION/CYBOOTASMKEIL           ----- -----  ----- -----  ----- -----

CYSPCLOCK/CYSPC                               ----- -----  ----- -----  0594H 0594H
  +--> CYENTERCRITICALSECTION/CYBOOTASMKEIL
  +--> CYEXITCRITICALSECTION/CYBOOTASMKEIL

CYSPCGETALGORITHM/CYSPC                       ----- -----  ----- -----  ----- -----

CYDELAYUS/CYBOOTASMKEIL                       ----- -----  ----- -----  ----- -----
  +--> CYDELAYCYCLES/CYBOOTASMKEIL

CYSPCUNLOCK/CYSPC                             ----- -----  ----- -----  ----- -----
  +--> CYENTERCRITICALSECTION/CYBOOTASMKEIL
  +--> CYEXITCRITICALSECTION/CYBOOTASMKEIL

CYSETTEMPINT/CYFLASH                          ----- -----  ----- -----  0590H 0590H
  +--> CYSPCSTART/CYSPC
  +--> CYSPCLOCK/CYSPC
  +--> _CYSPCGETTEMP/CYSPC
  +--> _CYSPCREADDATA/CYSPC
  +--> CYDELAYUS/CYBOOTASMKEIL
  +--> CYSPCUNLOCK/CYSPC

_CYSPCGETTEMP/CYSPC                           ----- -----  ----- -----  ----- -----

_CYSPCREADDATA/CYSPC                          ----- -----  ----- -----  0591H 0595H
  +--> CYDELAYUS/CYBOOTASMKEIL

CYEEPROM_START/CYFLASH                        ----- -----  ----- -----  ----- -----
  +--> CYENTERCRITICALSECTION/CYBOOTASMKEIL
  +--> CYEXITCRITICALSECTION/CYBOOTASMKEIL

MEMRECALL/COMMAND_PROCESSING                  ----- -----  ----- -----  ----- -----
  +--> MEMRESTORE/COMMAND_PROCESSING

MEMRESTORE/COMMAND_PROCESSING                 ----- -----  ----- -----  ----- -----
  +--> MEMINIT/COMMAND_PROCESSING
  +--> _MEMSTORE/COMMAND_PROCESSING

MEMINIT/COMMAND_PROCESSING                    ----- -----  ----- -----  ----- -----
  +--> _MEMSTORE/COMMAND_PROCESSING

_MEMSTORE/COMMAND_PROCESSING                  ----- -----  ----- -----  0588H 058EH
  +--> ISR_RS485_RX_DISABLE/ISR_RS485_RX
  +--> CYSETTEMP/CYFLASH
LX51 LINKER/LOCATER V4.64.0.0                                                         01/24/2017  11:05:18  PAGE 14


  +--> _EEPROM_WRITE/EEPROM
  +--> ISR_RS485_RX_ENABLE/ISR_RS485_RX

ISR_RS485_RX_DISABLE/ISR_RS485_RX             ----- -----  ----- -----  ----- -----

_EEPROM_WRITE/EEPROM                          ----- -----  ----- -----  058FH 0593H
  +--> CYSPCSTART/CYSPC
  +--> CYSPCLOCK/CYSPC
  +--> _CYSPCLOADROW/CYSPC
  +--> _CYSPCWRITEROW/CYSPC
  +--> CYSPCUNLOCK/CYSPC

_CYSPCLOADROW/CYSPC                           ----- -----  ----- -----  0594H 059AH

_CYSPCWRITEROW/CYSPC                          ----- -----  ----- -----  0594H 0598H

ISR_RS485_RX_ENABLE/ISR_RS485_RX              ----- -----  ----- -----  ----- -----

_?CYDELAY/CYLIB                               ----- -----  ----- -----  ----- -----
  +--> CYDELAYCYCLES/CYBOOTASMKEIL

_FTDI_ENABLE_REG_WRITE/FTDI_ENABLE_REG        ----- -----  ----- -----  ----- -----

UART_RS485_STOP/UART_RS485                    ----- -----  ----- -----  ----- -----
  +--> CYENTERCRITICALSECTION/CYBOOTASMKEIL
  +--> CYEXITCRITICALSECTION/CYBOOTASMKEIL

UART_RS485_START/UART_RS485                   ----- -----  ----- -----  ----- -----
  +--> UART_RS485_INIT/UART_RS485
  +--> UART_RS485_ENABLE/UART_RS485

UART_RS485_INIT/UART_RS485                    ----- -----  ----- -----  ----- -----
  +--> _CYINTSETVECTOR/CYLIB
  +--> _CYINTSETPRIORITY/CYLIB

_CYINTSETVECTOR/CYLIB                         ----- -----  ----- -----  0588H 058CH
  +--> CYREAD16/CYMEM
  +--> CYWRITE16/CYMEM

CYREAD16/CYMEM                                ----- -----  ----- -----  ----- -----

_CYINTSETPRIORITY/CYLIB                       ----- -----  ----- -----  ----- -----

UART_RS485_ENABLE/UART_RS485                  ----- -----  ----- -----  ----- -----
  +--> CYENTERCRITICALSECTION/CYBOOTASMKEIL
  +--> CYEXITCRITICALSECTION/CYBOOTASMKEIL

UART_RS485_CLEARRXBUFFER/UART_RS485           ----- -----  ----- -----  ----- -----
  +--> CYENTERCRITICALSECTION/CYBOOTASMKEIL
  +--> CYEXITCRITICALSECTION/CYBOOTASMKEIL

UART_RS485_CLEARTXBUFFER/UART_RS485           ----- -----  ----- -----  ----- -----
  +--> CYENTERCRITICALSECTION/CYBOOTASMKEIL
  +--> CYEXITCRITICALSECTION/CYBOOTASMKEIL

_ISR_RS485_RX_STARTEX/ISR_RS485_RX            ----- -----  ----- -----  0588H 0589H
  +--> ISR_RS485_RX_DISABLE/ISR_RS485_RX
  +--> _ISR_RS485_RX_SETVECTOR/ISR_RS485_RX
  +--> _ISR_RS485_RX_SETPRIORITY/ISR_RS485_RX
  +--> ISR_RS485_RX_ENABLE/ISR_RS485_RX

_ISR_RS485_RX_SETVECTOR/ISR_RS485_RX          ----- -----  ----- -----  ----- -----
  +--> CYWRITE16/CYMEM

_ISR_RS485_RX_SETPRIORITY/ISR_RS485_RX        ----- -----  ----- -----  ----- -----
LX51 LINKER/LOCATER V4.64.0.0                                                         01/24/2017  11:05:18  PAGE 15



WATCHDOG_COUNTER_START/WATCHDOG_COUNTER       ----- -----  ----- -----  ----- -----
  +--> WATCHDOG_COUNTER_INIT/WATCHDOG_COUNTER
  +--> WATCHDOG_COUNTER_ENABLE/WATCHDOG_COUNTER

WATCHDOG_COUNTER_INIT/WATCHDOG_COUNTER        ----- -----  ----- -----  ----- -----
  +--> _WATCHDOG_COUNTER_WRITEPERIOD/WATCHDOG_COUNTER
  +--> _WATCHDOG_COUNTER_WRITECOUNTER/WATCHDOG_COUNTER
  +--> _WATCHDOG_COUNTER_SETINTERRUPTMODE/WATCHDOG_COUNTER

_WATCHDOG_COUNTER_WRITEPERIOD/WATCHDOG_C+     ----- -----  ----- -----  ----- -----
... OUNTER
  +--> CYWRITE16/CYMEM

_WATCHDOG_COUNTER_WRITECOUNTER/WATCHDOG_+     ----- -----  ----- -----  ----- -----
... COUNTER
  +--> CYWRITE16/CYMEM

_WATCHDOG_COUNTER_SETINTERRUPTMODE/WATCH+     ----- -----  ----- -----  ----- -----
... DOG_COUNTER

WATCHDOG_COUNTER_ENABLE/WATCHDOG_COUNTER      ----- -----  ----- -----  ----- -----

_ISR_WATCHDOG_STARTEX/ISR_WATCHDOG            ----- -----  ----- -----  0588H 0589H
  +--> ISR_WATCHDOG_DISABLE/ISR_WATCHDOG
  +--> _ISR_WATCHDOG_SETVECTOR/ISR_WATCHDOG
  +--> _ISR_WATCHDOG_SETPRIORITY/ISR_WATCHDOG
  +--> ISR_WATCHDOG_ENABLE/ISR_WATCHDOG

ISR_WATCHDOG_DISABLE/ISR_WATCHDOG             ----- -----  ----- -----  ----- -----

_ISR_WATCHDOG_SETVECTOR/ISR_WATCHDOG          ----- -----  ----- -----  ----- -----
  +--> CYWRITE16/CYMEM

_ISR_WATCHDOG_SETPRIORITY/ISR_WATCHDOG        ----- -----  ----- -----  ----- -----

ISR_WATCHDOG_ENABLE/ISR_WATCHDOG              ----- -----  ----- -----  ----- -----

_RS485_CTS_WRITE/RS485_CTS                    ----- -----  ----- -----  ----- -----

MY_TIMER_START/MY_TIMER                       ----- -----  ----- -----  ----- -----
  +--> MY_TIMER_INIT/MY_TIMER
  +--> MY_TIMER_ENABLE/MY_TIMER

MY_TIMER_INIT/MY_TIMER                        ----- -----  ----- -----  ----- -----
  +--> _MY_TIMER_WRITEPERIOD/MY_TIMER
  +--> _MY_TIMER_WRITECOUNTER/MY_TIMER
  +--> CYENTERCRITICALSECTION/CYBOOTASMKEIL
  +--> CYEXITCRITICALSECTION/CYBOOTASMKEIL
  +--> MY_TIMER_CLEARFIFO/MY_TIMER
  +--> _MY_TIMER_SETINTERRUPTMODE/MY_TIMER

_MY_TIMER_WRITEPERIOD/MY_TIMER                ----- -----  ----- -----  ----- -----
  +--> CYWRITE24/CYMEM

CYWRITE24/CYMEM                               ----- -----  ----- -----  ----- -----

_MY_TIMER_WRITECOUNTER/MY_TIMER               ----- -----  ----- -----  ----- -----
  +--> CYWRITE24/CYMEM

MY_TIMER_CLEARFIFO/MY_TIMER                   ----- -----  ----- -----  ----- -----
  +--> MY_TIMER_READSTATUSREGISTER/MY_TIMER
  +--> MY_TIMER_READCAPTURE/MY_TIMER

MY_TIMER_READSTATUSREGISTER/MY_TIMER          ----- -----  ----- -----  ----- -----
LX51 LINKER/LOCATER V4.64.0.0                                                         01/24/2017  11:05:18  PAGE 16



MY_TIMER_READCAPTURE/MY_TIMER                 ----- -----  ----- -----  ----- -----
  +--> CYREAD24/CYMEM

CYREAD24/CYMEM                                ----- -----  ----- -----  ----- -----

_MY_TIMER_SETINTERRUPTMODE/MY_TIMER           ----- -----  ----- -----  ----- -----

MY_TIMER_ENABLE/MY_TIMER                      ----- -----  ----- -----  ----- -----

PACER_TIMER_START/PACER_TIMER                 ----- -----  ----- -----  ----- -----
  +--> PACER_TIMER_INIT/PACER_TIMER
  +--> PACER_TIMER_ENABLE/PACER_TIMER

PACER_TIMER_INIT/PACER_TIMER                  ----- -----  ----- -----  ----- -----
  +--> _PACER_TIMER_WRITEPERIOD/PACER_TIMER
  +--> _PACER_TIMER_WRITECOUNTER/PACER_TIMER
  +--> _PACER_TIMER_SETINTERRUPTMODE/PACER_TIMER

_PACER_TIMER_WRITEPERIOD/PACER_TIMER          ----- -----  ----- -----  ----- -----
  +--> CYWRITE16/CYMEM

_PACER_TIMER_WRITECOUNTER/PACER_TIMER         ----- -----  ----- -----  ----- -----
  +--> CYWRITE16/CYMEM

_PACER_TIMER_SETINTERRUPTMODE/PACER_TIME+     ----- -----  ----- -----  ----- -----
... R

PACER_TIMER_ENABLE/PACER_TIMER                ----- -----  ----- -----  ----- -----

SPI_IMU_START/SPI_IMU                         ----- -----  ----- -----  ----- -----
  +--> SPI_IMU_INIT/SPI_IMU
  +--> SPI_IMU_ENABLE/SPI_IMU

SPI_IMU_INIT/SPI_IMU                          ----- -----  ----- -----  ----- -----
  +--> SPI_IMU_CLEARFIFO/SPI_IMU
  +--> SPI_IMU_READTXSTATUS/SPI_IMU
  +--> SPI_IMU_READRXSTATUS/SPI_IMU

SPI_IMU_CLEARFIFO/SPI_IMU                     ----- -----  ----- -----  ----- -----
  +--> CYENTERCRITICALSECTION/CYBOOTASMKEIL
  +--> CYEXITCRITICALSECTION/CYBOOTASMKEIL

SPI_IMU_READTXSTATUS/SPI_IMU                  ----- -----  ----- -----  ----- -----

SPI_IMU_READRXSTATUS/SPI_IMU                  ----- -----  ----- -----  ----- -----

SPI_IMU_ENABLE/SPI_IMU                        ----- -----  ----- -----  ----- -----
  +--> CYENTERCRITICALSECTION/CYBOOTASMKEIL
  +--> CYEXITCRITICALSECTION/CYBOOTASMKEIL
  +--> SPI_IMU_INTCLOCK_START/SPI_IMU_INTCLOCK
  +--> SPI_IMU_ENABLETXINT/SPI_IMU
  +--> SPI_IMU_ENABLERXINT/SPI_IMU

SPI_IMU_INTCLOCK_START/SPI_IMU_INTCLOCK       ----- -----  ----- -----  ----- -----

SPI_IMU_ENABLETXINT/SPI_IMU                   ----- -----  ----- -----  ----- -----

SPI_IMU_ENABLERXINT/SPI_IMU                   ----- -----  ----- -----  ----- -----

SPI_IMU_CLEARRXBUFFER/SPI_IMU                 ----- -----  ----- -----  ----- -----

SPI_IMU_CLEARTXBUFFER/SPI_IMU                 ----- -----  ----- -----  ----- -----
  +--> CYENTERCRITICALSECTION/CYBOOTASMKEIL
  +--> CYEXITCRITICALSECTION/CYBOOTASMKEIL
LX51 LINKER/LOCATER V4.64.0.0                                                         01/24/2017  11:05:18  PAGE 17



_OPTO_PIN_WRITE/OPTO_PIN                      ----- -----  ----- -----  ----- -----

INITIMUGENERAL/IMU_FUNCTIONS                  ----- -----  ----- -----  0588H 05ADH
  +--> _CHIPSELECTOR/IMU_FUNCTIONS
  +--> _?CYDELAY/CYLIB
  +--> INITIMUMAGCAL/IMU_FUNCTIONS
  +--> _READMAGCAL/IMU_FUNCTIONS
  +--> _READCONTROLREGISTER/IMU_FUNCTIONS
  +--> _OPTO_PIN_WRITE/OPTO_PIN
  +--> INITIMU/IMU_FUNCTIONS

_CHIPSELECTOR/IMU_FUNCTIONS                   ----- -----  ----- -----  0A55H 0A56H
  +--> _CHIP_SELECT_A_WRITE/CHIP_SELECT_A
  +--> _CHIP_SELECT_B_WRITE/CHIP_SELECT_B

_CHIP_SELECT_A_WRITE/CHIP_SELECT_A            ----- -----  ----- -----  ----- -----

_CHIP_SELECT_B_WRITE/CHIP_SELECT_B            ----- -----  ----- -----  ----- -----

INITIMUMAGCAL/IMU_FUNCTIONS                   ----- -----  ----- -----  ----- -----
  +--> _WRITECONTROLREGISTER/IMU_FUNCTIONS
  +--> _?CYDELAY/CYLIB

_WRITECONTROLREGISTER/IMU_FUNCTIONS           ----- -----  ----- -----  05AEH 05AFH
  +--> SPI_IMU_CLEARRXBUFFER/SPI_IMU
  +--> SPI_IMU_CLEARTXBUFFER/SPI_IMU
  +--> SPI_IMU_CLEARFIFO/SPI_IMU
  +--> _SPI_IMU_WRITETXDATA/SPI_IMU
  +--> SPI_IMU_READSTATUS/SPI_IMU

_SPI_IMU_WRITETXDATA/SPI_IMU                  ----- -----  ----- -----  ----- -----

SPI_IMU_READSTATUS/SPI_IMU                    ----- -----  ----- -----  ----- -----

_READMAGCAL/IMU_FUNCTIONS                     ----- -----  ----- -----  05AEH 05B0H
  +--> _READCONTROLREGISTER/IMU_FUNCTIONS

_READCONTROLREGISTER/IMU_FUNCTIONS            ----- -----  ----- -----  ----- -----
  +--> _SPI_IMU_WRITETXDATA/SPI_IMU
  +--> SPI_IMU_READSTATUS/SPI_IMU
  +--> SPI_IMU_READRXDATA/SPI_IMU

SPI_IMU_READRXDATA/SPI_IMU                    ----- -----  ----- -----  ----- -----

INITIMU/IMU_FUNCTIONS                         ----- -----  ----- -----  ----- -----
  +--> _WRITECONTROLREGISTER/IMU_FUNCTIONS
  +--> _?CYDELAY/CYLIB

_RESET_FF_WRITE/RESET_FF                      ----- -----  ----- -----  ----- -----

FUNCTION_SCHEDULER/INTERRUPTIONS              ----- -----  ----- -----  ----- -----
  +--> MY_TIMER_READCOUNTER/MY_TIMER
  +--> INTERRUPT_MANAGER/INTERRUPTIONS
  +--> READALLIMUS/IMU_FUNCTIONS
  +--> _MY_TIMER_WRITECOUNTER/MY_TIMER

MY_TIMER_READCOUNTER/MY_TIMER                 ----- -----  ----- -----  ----- -----
  +--> CYREAD24/CYMEM

INTERRUPT_MANAGER/INTERRUPTIONS               20H.0 20H.0  0008H 0009H  ----- -----
  +--> UART_RS485_GETRXBUFFERSIZE/UART_RS485
  +--> UART_RS485_GETCHAR/UART_RS485
  +--> _INFOGET/COMMAND_PROCESSING
  +--> COMMPROCESS/COMMAND_PROCESSING
LX51 LINKER/LOCATER V4.64.0.0                                                         01/24/2017  11:05:18  PAGE 18


  +--> _RS485_CTS_WRITE/RS485_CTS

UART_RS485_GETRXBUFFERSIZE/UART_RS485         ----- -----  ----- -----  ----- -----

UART_RS485_GETCHAR/UART_RS485                 ----- -----  ----- -----  ----- -----

_INFOGET/COMMAND_PROCESSING                   ----- -----  ----- -----  ----- -----
  +--> _INFOPREPARE/COMMAND_PROCESSING
  +--> _UART_RS485_PUTSTRING/UART_RS485

_INFOPREPARE/COMMAND_PROCESSING               ----- -----  ----- -----  0588H 05F0H
  +--> ?CO?COMMAND_PROCESSING
  +--> _STRCAT/STRCAT
  +--> PRINTF/PRINTF

?CO?COMMAND_PROCESSING                        ----- -----  ----- -----  ----- -----

_STRCAT/STRCAT                                ----- -----  ----- -----  05F1H 05F9H

PRINTF/PRINTF                                 20H.1 21H.1  0014H 0018H  0A23H 0A52H
  +--> PUTCHAR/PUTCHAR

PUTCHAR/PUTCHAR                               ----- -----  ----- -----  ----- -----

_UART_RS485_PUTSTRING/UART_RS485              ----- -----  ----- -----  0588H 058AH
  +--> _UART_RS485_PUTCHAR/UART_RS485

_UART_RS485_PUTCHAR/UART_RS485                ----- -----  ----- -----  ----- -----

COMMPROCESS/COMMAND_PROCESSING                ----- -----  000AH 000AH  ----- -----
  +--> _LCRCHECKSUM/COMMAND_PROCESSING
  +--> CMD_ACTIVATE/COMMAND_PROCESSING
  +--> CMD_SET_INPUTS/COMMAND_PROCESSING
  +--> CMD_GET_MEASUREMENTS/COMMAND_PROCESSING
  +--> CMD_GET_CURRENTS/COMMAND_PROCESSING
  +--> CMD_GET_EMG/COMMAND_PROCESSING
  +--> CMD_SET_WATCHDOG/COMMAND_PROCESSING
  +--> CMD_GET_ACTIVATE/COMMAND_PROCESSING
  +--> CMD_SET_BAUDRATE/COMMAND_PROCESSING
  +--> CMD_GET_INPUTS/COMMAND_PROCESSING
  +--> _INFOGET/COMMAND_PROCESSING
  +--> SETZEROS/COMMAND_PROCESSING
  +--> _GET_PARAM_LIST/COMMAND_PROCESSING
  +--> CMD_PING/COMMAND_PROCESSING
  +--> CMD_STORE_PARAMS/COMMAND_PROCESSING
  +--> _MEMSTORE/COMMAND_PROCESSING
  +--> _SENDACKNOWLEDGMENT/COMMAND_PROCESSING
  +--> MEMRESTORE/COMMAND_PROCESSING
  +--> MEMINIT/COMMAND_PROCESSING
  +--> _?CYDELAY/CYLIB
  +--> _FTDI_ENABLE_REG_WRITE/FTDI_ENABLE_REG
  +--> BOOTLOADABLE_LOAD/BOOTLOADABLE
  +--> CMD_GET_IMU_READINGS/COMMAND_PROCESSING

_LCRCHECKSUM/COMMAND_PROCESSING               ----- -----  0014H 0015H  0A23H 0A25H

CMD_ACTIVATE/COMMAND_PROCESSING               ----- -----  ----- -----  ----- -----

CMD_SET_INPUTS/COMMAND_PROCESSING             ----- -----  ----- -----  ----- -----

CMD_GET_MEASUREMENTS/COMMAND_PROCESSING       ----- -----  ----- -----  ----- -----

CMD_GET_CURRENTS/COMMAND_PROCESSING           ----- -----  ----- -----  ----- -----

CMD_GET_EMG/COMMAND_PROCESSING                ----- -----  ----- -----  ----- -----
LX51 LINKER/LOCATER V4.64.0.0                                                         01/24/2017  11:05:18  PAGE 19



CMD_SET_WATCHDOG/COMMAND_PROCESSING           ----- -----  ----- -----  ----- -----
  +--> _WATCHDOG_ENABLER_WRITE/WATCHDOG_ENABLER
  +--> _WATCHDOG_COUNTER_WRITEPERIOD/WATCHDOG_COUNTER

_WATCHDOG_ENABLER_WRITE/WATCHDOG_ENABLER      ----- -----  ----- -----  ----- -----

CMD_GET_ACTIVATE/COMMAND_PROCESSING           ----- -----  ----- -----  ----- -----

CMD_SET_BAUDRATE/COMMAND_PROCESSING           ----- -----  ----- -----  ----- -----
  +--> _CLOCK_UART_SETDIVIDERREGISTER/CLOCK_UART

_CLOCK_UART_SETDIVIDERREGISTER/CLOCK_UAR+     ----- -----  ----- -----  0588H 058EH
... T
  +--> CLOCK_UART_GETSOURCEREGISTER/CLOCK_UART
  +--> CLOCK_UART_GETDIVIDERREGISTER/CLOCK_UART
  +--> CYWRITE16/CYMEM

CLOCK_UART_GETSOURCEREGISTER/CLOCK_UART       ----- -----  ----- -----  ----- -----

CLOCK_UART_GETDIVIDERREGISTER/CLOCK_UART      ----- -----  ----- -----  ----- -----
  +--> CYREAD16/CYMEM

CMD_GET_INPUTS/COMMAND_PROCESSING             ----- -----  ----- -----  ----- -----

SETZEROS/COMMAND_PROCESSING                   ----- -----  ----- -----  ----- -----

_GET_PARAM_LIST/COMMAND_PROCESSING            ----- -----  000BH 0013H  0588H 0A22H
  +--> ?CO?COMMAND_PROCESSING
  +--> _STRLEN/STRLEN
  +--> PRINTF/PRINTF
  +--> _LCRCHECKSUM/COMMAND_PROCESSING
  +--> _COMMWRITE/COMMAND_PROCESSING
  +--> UART_RS485_CLEARTXBUFFER/UART_RS485

_STRLEN/STRLEN                                ----- -----  ----- -----  ----- -----

_COMMWRITE/COMMAND_PROCESSING                 ----- -----  0014H 0015H  0A23H 0A27H
  +--> _UART_RS485_PUTCHAR/UART_RS485
  +--> UART_RS485_READTXSTATUS/UART_RS485
  +--> _RS485_CTS_WRITE/RS485_CTS

UART_RS485_READTXSTATUS/UART_RS485            ----- -----  ----- -----  ----- -----

CMD_PING/COMMAND_PROCESSING                   ----- -----  ----- -----  0588H 0589H
  +--> _COMMWRITE/COMMAND_PROCESSING

CMD_STORE_PARAMS/COMMAND_PROCESSING           ----- -----  ----- -----  ----- -----
  +--> _MEMSTORE/COMMAND_PROCESSING
  +--> _SENDACKNOWLEDGMENT/COMMAND_PROCESSING

_SENDACKNOWLEDGMENT/COMMAND_PROCESSING        ----- -----  ----- -----  0588H 0589H
  +--> _COMMWRITE/COMMAND_PROCESSING

BOOTLOADABLE_LOAD/BOOTLOADABLE                ----- -----  ----- -----  ----- -----
  +--> CYSOFTWARERESET/CYLIB

CYSOFTWARERESET/CYLIB                         ----- -----  ----- -----  ----- -----

CMD_GET_IMU_READINGS/COMMAND_PROCESSING       ----- -----  ----- -----  0588H 06FFH
  +--> _LCRCHECKSUM/COMMAND_PROCESSING
  +--> _COMMWRITE/COMMAND_PROCESSING

READALLIMUS/IMU_FUNCTIONS                     ----- -----  ----- -----  0588H 0589H
  +--> _CHIPSELECTOR/IMU_FUNCTIONS
LX51 LINKER/LOCATER V4.64.0.0                                                         01/24/2017  11:05:18  PAGE 20


  +--> _READIMU/IMU_FUNCTIONS

_READIMU/IMU_FUNCTIONS                        ----- -----  ----- -----  0A55H 0A56H
  +--> _READACC/IMU_FUNCTIONS
  +--> _READGYRO/IMU_FUNCTIONS
  +--> _READMAG/IMU_FUNCTIONS
  +--> _READTEMP/IMU_FUNCTIONS

_READACC/IMU_FUNCTIONS                        ----- -----  ----- -----  0A57H 0A5AH
  +--> _READCONTROLREGISTER/IMU_FUNCTIONS

_READGYRO/IMU_FUNCTIONS                       ----- -----  ----- -----  0A57H 0A5AH
  +--> _READCONTROLREGISTER/IMU_FUNCTIONS

_READMAG/IMU_FUNCTIONS                        ----- -----  ----- -----  0A57H 0A5AH
  +--> _READCONTROLREGISTER/IMU_FUNCTIONS

_READTEMP/IMU_FUNCTIONS                       ----- -----  ----- -----  0A57H 0A5AH
  +--> _READCONTROLREGISTER/IMU_FUNCTIONS

FF_STATUS_READ/FF_STATUS                      ----- -----  ----- -----  ----- -----

_WATCHDOG_REFRESH_WRITE/WATCHDOG_REFRESH      ----- -----  ----- -----  ----- -----

UART_RS485_READRXSTATUS/UART_RS485            ----- -----  ----- -----  ----- -----

?C_INITSEG                                    ----- -----  ----- -----  ----- -----

*** NEW ROOT ********************************

ISR_WATCHDOG_INTERRUPT/ISR_WATCHDOG           ----- -----  ----- -----  ----- -----

*** NEW ROOT ********************************

ISR_IMU_INTERRUPT/ISR_IMU                     ----- -----  ----- -----  0A53H 0A54H
  +--> _CHIPSELECTOR/IMU_FUNCTIONS
  +--> _READIMU/IMU_FUNCTIONS

*** NEW ROOT ********************************

UART_RS485_RXISR/UART_RS485_INT               ----- -----  ----- -----  ----- -----



PUBLIC SYMBOLS OF MODULE:  .\DP8051_Keil_951\Release\firmware.omf (COMMAND_PROCESSING)


      VALUE       CLASS    TYPE      PUBLIC SYMBOL NAME
      =================================================
*DEL*:00000000H   XDATA    BYTE      ?_Bootloadable_SetFlashByte?BYTE
*DEL*:00000000H   XDATA    BYTE      ?_calc_turns_fcn?BYTE
      02000583H   XDATA    BYTE      ?_cyconfigcpy?BYTE
*DEL*:00000000H   XDATA    BYTE      ?_CySpcLoadMultiByte?BYTE
      02000594H   XDATA    BYTE      ?_CySpcLoadRow?BYTE
*DEL*:00000000H   XDATA    BYTE      ?_CySpcLoadRowFull?BYTE
      02000594H   XDATA    BYTE      ?_CySpcWriteRow?BYTE
*DEL*:00000000H   XDATA    BYTE      ?_CyWriteRowFull?BYTE
*DEL*:00000000H   XDATA    BYTE      ?_my_mod?BYTE
      02000A23H   XDATA    ---       ?_PRINTF?BYTE
      02000A23H   XDATA    ---       ?_SPRINTF?BYTE
      020005F1H   XDATA    ---       ?_strcat?BYTE
      01002DF2H   CODE     ---       ?C?ADDXBP
      0100278BH   CODE     ---       ?C?CASTF
      01002DCCH   CODE     ---       ?C?CCASE
      01002B7DH   CODE     ---       ?C?CLDOPTR
LX51 LINKER/LOCATER V4.64.0.0                                                         01/24/2017  11:05:18  PAGE 21


      01002B64H   CODE     ---       ?C?CLDPTR
      00000000H   NUMBER   ---       ?C?CODESEG
      01002F2BH   CODE     ---       ?C?COPYAMD
      01002BAAH   CODE     ---       ?C?CSTPTR
      01002621H   CODE     ---       ?C?FPADD
      01002714H   CODE     ---       ?C?FPCMP
      01002712H   CODE     ---       ?C?FPCMP3
      01002849H   CODE     ---       ?C?FPCONVERT
      01002A57H   CODE     ---       ?C?FPDIV
      010027C2H   CODE     ---       ?C?FPGETOPN2
      0100294EH   CODE     ---       ?C?FPMUL
      010027F7H   CODE     ---       ?C?FPNANRESULT
      01002801H   CODE     ---       ?C?FPOVERFLOW
      010027D9H   CODE     ---       ?C?FPRESULT
      010027EDH   CODE     ---       ?C?FPRESULT2
      0100280CH   CODE     ---       ?C?FPROUND
      0100261DH   CODE     ---       ?C?FPSUB
      010027FEH   CODE     ---       ?C?FPUNDERFLOW
      01002B24H   CODE     ---       ?C?FTNPWR
      01003026H   CODE     ---       ?C?IILDX
      0100303CH   CODE     ---       ?C?ILDIX
      01002BBCH   CODE     ---       ?C?IMUL
      01002E16H   CODE     ---       ?C?LIMUL
      01003076H   CODE     ---       ?C?LLDCODE
      01003052H   CODE     ---       ?C?LLDIDATA
      0100306AH   CODE     ---       ?C?LLDPDATA
      01002D5AH   CODE     ---       ?C?LLDPTR
      0100305EH   CODE     ---       ?C?LLDXDATA
      01002BCEH   CODE     ---       ?C?LMUL
      01002CEBH   CODE     ---       ?C?LNEG
      01002D47H   CODE     ---       ?C?LSHL
      01003086H   CODE     ---       ?C?LSTIDATA
      01003092H   CODE     ---       ?C?LSTPDATA
      01002D7AH   CODE     ---       ?C?LSTPTR
      01002D94H   CODE     ---       ?C?LSTXDATA
      01002E43H   CODE     ---       ?C?MEMSET
      01002DA0H   CODE     ---       ?C?OFFXADD
      01002DACH   CODE     ---       ?C?PLDIXDATA
      01002DC3H   CODE     ---       ?C?PSTXDATA
      01002CF9H   CODE     ---       ?C?SLCMP
      01006E4DH   CODE     ---       ?C?SLDIV
      01002D33H   CODE     ---       ?C?SLSHR
      01003009H   CODE     ---       ?C?STRCPYAMD
      01002D0FH   CODE     ---       ?C?ULCMP
      01002C59H   CODE     ---       ?C?ULDIV
      01002D20H   CODE     ---       ?C?ULSHR
      00000000H   NUMBER   ---       ?C?XDATASEG
      00000000H   NUMBER   ---       ?C?XPAGE1RST
      00000093H   DATA     BYTE      ?C?XPAGE1SFR
      01005D44H   CODE     ---       ?C_START
      01002600H   CODE     NEAR LAB  ?C_STARTUP
      00000022H   DATA     ---       ?C_XBP
      01006835H   CODE     ---       _?CyDelay
*DEL*:00000000H   CODE     ---       _?CyDelayFreq
*DEL*:00000000H   CODE     ---       _?CyHalt
*DEL*:00000000H   CODE     ---       _Bootloadable_SetFlashByte
*DEL*:00000000H   CODE     ---       _calc_turns_fcn
*DEL*:00000000H   CODE     NEAR LAB  _cfg_write_bytes
*DEL*:00000000H   CODE     NEAR LAB  _cfg_write_bytes_code
*DEL*:00000000H   CODE     ---       _check_enc_data
      010076F8H   CODE     ---       _Chip_Select_A_Write
      010076FEH   CODE     ---       _Chip_Select_B_Write
      01006D79H   CODE     ---       _ChipSelector
*DEL*:00000000H   CODE     ---       _CLOCK_UART_ClearModeRegister
      010058F7H   CODE     ---       _CLOCK_UART_SetDividerRegister
LX51 LINKER/LOCATER V4.64.0.0                                                         01/24/2017  11:05:18  PAGE 22


*DEL*:00000000H   CODE     ---       _CLOCK_UART_SetModeRegister
*DEL*:00000000H   CODE     ---       _CLOCK_UART_SetSourceRegister
*DEL*:00000000H   CODE     ---       _CLOCK_UART_StandbyPower
      0100671FH   CODE     ---       _commWrite
*DEL*:00000000H   CODE     ---       _CyBusClk_SetDivider
      01006F7AH   CODE     NEAR LAB  _cyconfigcpy
      010071ACH   CODE     NEAR LAB  _cyconfigcpycode
*DEL*:00000000H   CODE     ---       _CyCpuClk_SetDivider
*DEL*:00000000H   CODE     NEAR LAB  _CyDelay
      01007000H   CODE     NEAR LAB  _CyDelayCycles
      0100712CH   CODE     NEAR LAB  _CyDelayUs
*DEL*:00000000H   CODE     ---       _CyEnableInts
      01007394H   CODE     NEAR LAB  _CyExitCriticalSection
*DEL*:00000000H   CODE     ---       _CyFlash_SetWaitCycles
*DEL*:00000000H   CODE     ---       _CyGetUniqueId
*DEL*:00000000H   CODE     ---       _CyILO_SetPowerMode
*DEL*:00000000H   CODE     ---       _CyILO_SetSource
*DEL*:00000000H   CODE     ---       _CyIMO_SetFreq
*DEL*:00000000H   CODE     ---       _CyIMO_SetSource
*DEL*:00000000H   CODE     ---       _CyIMO_Start
*DEL*:00000000H   CODE     ---       _CyIntGetPriority
*DEL*:00000000H   CODE     ---       _CyIntGetState
*DEL*:00000000H   CODE     ---       _CyIntGetVector
      0100734AH   CODE     ---       _CyIntSetPriority
      01006BE5H   CODE     ---       _CyIntSetVector
*DEL*:00000000H   CODE     ---       _CyMasterClk_SetDivider
*DEL*:00000000H   CODE     ---       _CyMasterClk_SetSource
*DEL*:00000000H   CODE     NEAR LAB  _cymemzero
*DEL*:00000000H   CODE     ---       _CyPLL_OUT_SetPQ
*DEL*:00000000H   CODE     ---       _CyPLL_OUT_SetSource
*DEL*:00000000H   CODE     ---       _CyPLL_OUT_Start
*DEL*:00000000H   CODE     ---       _CyPmAltAct
*DEL*:00000000H   CODE     ---       _CyPmCtwSetInterval
*DEL*:00000000H   CODE     ---       _CyPmFtwSetInterval
*DEL*:00000000H   CODE     ---       _CyPmHibernateEx
*DEL*:00000000H   CODE     ---       _CyPmReadStatus
*DEL*:00000000H   CODE     ---       _CyPmSleep
      01007565H   CODE     NEAR LAB  _cyread16
      01007567H   CODE     NEAR LAB  _cyread16_nodpx
      010074DFH   CODE     NEAR LAB  _cyread24
      010074E1H   CODE     NEAR LAB  _cyread24_nodpx
*DEL*:00000000H   CODE     NEAR LAB  _cyread32
*DEL*:00000002H   CODE     NEAR LAB  _cyread32_nodpx
      010075FFH   CODE     NEAR LAB  _cyread8
      01007601H   CODE     NEAR LAB  _cyread8_nodpx
*DEL*:00000000H   CODE     ---       _CySetFlashEEBuffer
*DEL*:00000000H   CODE     ---       _CySpcEraseSector
      010070FDH   CODE     ---       _CySpcGetTemp
*DEL*:00000000H   CODE     ---       _CySpcLoadMultiByte
      01006941H   CODE     ---       _CySpcLoadRow
*DEL*:00000000H   CODE     ---       _CySpcLoadRowFull
      01006A80H   CODE     ---       _CySpcReadData
      01006C39H   CODE     ---       _CySpcWriteRow
*DEL*:00000000H   CODE     ---       _CyUsbClk_SetSource
*DEL*:00000000H   CODE     ---       _CyVdLvAnalogEnable
*DEL*:00000000H   CODE     ---       _CyVdLvDigitEnable
*DEL*:00000000H   CODE     ---       _CyVdStickyStatus
*DEL*:00000000H   CODE     ---       _CyWdtStart
      01007574H   CODE     NEAR LAB  _cywrite16
      01007576H   CODE     NEAR LAB  _cywrite16_nodpx
      01007516H   CODE     NEAR LAB  _cywrite24
      01007518H   CODE     NEAR LAB  _cywrite24_nodpx
*DEL*:00000000H   CODE     NEAR LAB  _cywrite32
*DEL*:00000002H   CODE     NEAR LAB  _cywrite32_nodpx
      0100760BH   CODE     NEAR LAB  _cywrite8
LX51 LINKER/LOCATER V4.64.0.0                                                         01/24/2017  11:05:18  PAGE 23


      0100760DH   CODE     NEAR LAB  _cywrite8_nodpx
*DEL*:00000000H   CODE     ---       _CyWriteRowData
*DEL*:00000000H   CODE     ---       _CyWriteRowFull
*DEL*:00000000H   CODE     ---       _CyXTAL_32KHZ_SetPowerMode
*DEL*:00000000H   CODE     ---       _CyXTAL_SetFbVoltage
*DEL*:00000000H   CODE     ---       _CyXTAL_SetStartup
*DEL*:00000000H   CODE     ---       _CyXTAL_SetWdVoltage
*DEL*:00000000H   CODE     ---       _CyXTAL_Start
      01002604H   CODE     NEAR LAB  _dma_wait
*DEL*:00000000H   CODE     ---       _EEPROM_ByteWritePos
*DEL*:00000000H   CODE     ---       _EEPROM_EraseSector
*DEL*:00000000H   CODE     ---       _EEPROM_ReadByte
*DEL*:00000000H   CODE     ---       _EEPROM_StartErase
*DEL*:00000000H   CODE     ---       _EEPROM_StartWrite
      01006362H   CODE     ---       _EEPROM_Write
*DEL*:00000000H   CODE     ---       _EEPROM_WriteByte
*DEL*:00000000H   CODE     ---       _FF_STATUS_WriteMask
*DEL*:00000000H   CODE     ---       _filter_ch1
*DEL*:00000000H   CODE     ---       _filter_ch2
*DEL*:00000000H   CODE     ---       _filter_i1
*DEL*:00000000H   CODE     ---       _filter_v
      010076B6H   CODE     ---       _FTDI_ENABLE_REG_Write
      010038B7H   CODE     ---       _get_param_list
      01007331H   CODE     ---       _infoGet
      0100309EH   CODE     ---       _infoPrepare
*DEL*:00000000H   CODE     ---       _isr_imu_SetPriority
*DEL*:00000000H   CODE     ---       _isr_imu_SetVector
*DEL*:00000000H   CODE     ---       _isr_imu_StartEx
      01007623H   CODE     ---       _ISR_RS485_RX_SetPriority
      01007592H   CODE     ---       _ISR_RS485_RX_SetVector
      01006FE1H   CODE     ---       _ISR_RS485_RX_StartEx
      0100765FH   CODE     ---       _ISR_WATCHDOG_SetPriority
      010075BCH   CODE     ---       _ISR_WATCHDOG_SetVector
      0100729FH   CODE     ---       _ISR_WATCHDOG_StartEx
      0100703BH   CODE     ---       _LCRChecksum
      01006672H   CODE     ---       _memStore
*DEL*:00000000H   CODE     ---       _my_mod
*DEL*:00000000H   CODE     ---       _my_round
      010076C8H   CODE     ---       _MY_TIMER_SetInterruptMode
*DEL*:00000000H   CODE     ---       _MY_TIMER_WriteControlRegister
      01007655H   CODE     ---       _MY_TIMER_WriteCounter
      01007641H   CODE     ---       _MY_TIMER_WritePeriod
*DEL*:00000000H   CODE     ---       _Opto_Pin_SetDriveMode
      01007528H   CODE     ---       _Opto_Pin_Write
      010076AAH   CODE     ---       _PACER_TIMER_SetInterruptMode
*DEL*:00000000H   CODE     ---       _PACER_TIMER_WriteControlRegister
      010075AEH   CODE     ---       _PACER_TIMER_WriteCounter
      010075A0H   CODE     ---       _PACER_TIMER_WritePeriod
      01004600H   CODE     ---       _PRINTF
      01007185H   CODE     ---       _PUTCHAR
      01005E94H   CODE     ---       _ReadAcc
      010073ACH   CODE     ---       _ReadControlRegister
      01005F8FH   CODE     ---       _ReadGyro
      010067ACH   CODE     ---       _ReadIMU
      0100608AH   CODE     ---       _ReadMag
      010068BDH   CODE     ---       _ReadMagCal
      01006B91H   CODE     ---       _ReadTemp
      010076BCH   CODE     ---       _RESET_FF_Write
      010076B0H   CODE     ---       _RS485_CTS_Write
      010073EFH   CODE     ---       _sendAcknowledgment
*DEL*:00000000H   CODE     ---       _SetAnalogRoutingPumps
*DEL*:00000000H   CODE     ---       _SPI_IMU_IntClock_ClearModeRegister
*DEL*:00000000H   CODE     ---       _SPI_IMU_IntClock_SetDividerRegister
*DEL*:00000000H   CODE     ---       _SPI_IMU_IntClock_SetModeRegister
*DEL*:00000000H   CODE     ---       _SPI_IMU_IntClock_SetSourceRegister
LX51 LINKER/LOCATER V4.64.0.0                                                         01/24/2017  11:05:18  PAGE 24


*DEL*:00000000H   CODE     ---       _SPI_IMU_IntClock_StandbyPower
*DEL*:00000000H   CODE     ---       _SPI_IMU_PutArray
*DEL*:00000000H   CODE     ---       _SPI_IMU_SetInterruptMode
*DEL*:00000000H   CODE     ---       _SPI_IMU_SetRxInterruptMode
*DEL*:00000000H   CODE     ---       _SPI_IMU_SetTxInterruptMode
      010075F2H   CODE     ---       _SPI_IMU_WriteTxData
      010045FAH   CODE     ---       _SPRINTF
      010069B4H   CODE     ---       _strcat
      01007443H   CODE     ---       _STRLEN
*DEL*:00000000H   CODE     ---       _UART_RS485_PutArray
      010075D8H   CODE     ---       _UART_RS485_PutChar
*DEL*:00000000H   CODE     ---       _UART_RS485_PutCRLF
      01006F46H   CODE     ---       _UART_RS485_PutString
*DEL*:00000000H   CODE     ---       _UART_RS485_SendBreak
*DEL*:00000000H   CODE     ---       _UART_RS485_SetRxAddress1
*DEL*:00000000H   CODE     ---       _UART_RS485_SetRxAddress2
*DEL*:00000000H   CODE     ---       _UART_RS485_SetRxAddressMode
*DEL*:00000000H   CODE     ---       _UART_RS485_SetRxInterruptMode
*DEL*:00000000H   CODE     ---       _UART_RS485_SetTxAddressMode
*DEL*:00000000H   CODE     ---       _UART_RS485_SetTxInterruptMode
*DEL*:00000000H   CODE     ---       _UART_RS485_WriteControlRegister
*DEL*:00000000H   CODE     ---       _UART_RS485_WriteTxData
      010076D4H   CODE     ---       _WATCHDOG_COUNTER_SetInterruptMode
*DEL*:00000000H   CODE     ---       _WATCHDOG_COUNTER_WriteControlRegister
      010072FAH   CODE     ---       _WATCHDOG_COUNTER_WriteCounter
      010075CAH   CODE     ---       _WATCHDOG_COUNTER_WritePeriod
      010076DAH   CODE     ---       _WATCHDOG_ENABLER_Write
      010076E0H   CODE     ---       _WATCHDOG_REFRESH_Write
      0100709EH   CODE     ---       _WriteControlRegister
*SFR* 000000D0H.6 DATA     BIT       AC
*SFR* 000000E0H   DATA     BYTE      ACC
      020004C0H   XDATA    ---       Accel
      02000528H   XDATA    ---       ADC_buf
*SFR* 000000F0H   DATA     BYTE      B
      01007637H   CODE     ---       Bootloadable_Load
      02000000H   XDATA    ---       c_mem
*DEL*:00000000H   CODE     ---       calibration
*DEL*:00000000H   CODE     ---       Chip_Select_A_Read
*DEL*:00000000H   CODE     ---       Chip_Select_B_Read
      0100762DH   CODE     ---       CLOCK_UART_GetDividerRegister
*DEL*:00000000H   CODE     ---       CLOCK_UART_GetModeRegister
      01007669H   CODE     ---       CLOCK_UART_GetSourceRegister
*DEL*:00000000H   CODE     ---       CLOCK_UART_Start
*DEL*:00000000H   CODE     ---       CLOCK_UART_Stop
*DEL*:00000000H   CODE     ---       CLOCK_UART_StopBlock
      01007713H   CODE     ---       cmd_activate
      01007714H   CODE     ---       cmd_get_activate
*DEL*:00000000H   CODE     ---       cmd_get_curr_and_meas
      01007715H   CODE     ---       cmd_get_currents
      01007717H   CODE     ---       cmd_get_emg
      0100548AH   CODE     ---       cmd_get_imu_readings
      01007716H   CODE     ---       cmd_get_inputs
      01007711H   CODE     ---       cmd_get_measurements
      01007458H   CODE     ---       cmd_ping
      0100725FH   CODE     ---       cmd_set_baudrate
      01007712H   CODE     ---       cmd_set_inputs
      01006E91H   CODE     ---       cmd_set_watchdog
      01007404H   CODE     ---       cmd_store_params
      01005B4EH   CODE     ---       commProcess
*SFR* 000000D0H.7 DATA     BIT       CY
      02001126H   XDATA    DWORD     cydelay_32k_ms
      02001121H   XDATA    DWORD     cydelay_freq_hz
      0200111CH   XDATA    DWORD     cydelay_freq_khz
      02001120H   XDATA    BYTE      cydelay_freq_mhz
*DEL*:00000000H   CODE     ---       CyDisableInts
LX51 LINKER/LOCATER V4.64.0.0                                                         01/24/2017  11:05:18  PAGE 25


*DEL*:00000000H   CODE     ---       CyEEPROM_ReadRelease
*DEL*:00000000H   CODE     ---       CyEEPROM_ReadReserve
      0100706DH   CODE     ---       CyEEPROM_Start
*DEL*:00000000H   CODE     ---       CyEEPROM_Stop
      01007419H   CODE     NEAR LAB  CyEnterCriticalSection
      01005D89H   CODE     ---       cyfitter_cfg
*DEL*:00000000H   CODE     ---       CyFlash_Start
*DEL*:00000000H   CODE     ---       CyFlash_Stop
*DEL*:00000000H   CODE     ---       CyILO_Disable33K
*DEL*:00000000H   CODE     ---       CyILO_Enable33K
*DEL*:00000000H   CODE     ---       CyILO_Start100K
*DEL*:00000000H   CODE     ---       CyILO_Start1K
*DEL*:00000000H   CODE     ---       CyILO_Stop100K
*DEL*:00000000H   CODE     ---       CyILO_Stop1K
*DEL*:00000000H   CODE     ---       CyIMO_DisableDoubler
*DEL*:00000000H   CODE     ---       CyIMO_EnableDoubler
*DEL*:00000000H   CODE     ---       CyIMO_Stop
*DEL*:00000000H   CODE     ---       CyPLL_OUT_Stop
*DEL*:00000000H   CODE     ---       CyPmHibernate
*DEL*:00000000H   CODE     ---       CyPmOppsSet
*DEL*:00000000H   CODE     ---       CyPmRestoreClocks
*DEL*:00000000H   CODE     ---       CyPmSaveClocks
      02001125H   XDATA    BYTE      CyResetStatus
      0100737CH   CODE     ---       CySetTemp
      01007679H   CODE     ---       CySoftwareReset
      01007316H   CODE     ---       CySpcGetAlgorithm
      010072BEH   CODE     ---       CySpcLock
      0100742EH   CODE     ---       CySpcStart
*DEL*:00000000H   CODE     ---       CySpcStop
      01007617H   CODE     ---       CySpcUnlock
*DEL*:00000000H   CODE     ---       CyVdHvAnalogDisable
*DEL*:00000000H   CODE     ---       CyVdHvAnalogEnable
*DEL*:00000000H   CODE     ---       CyVdLvAnalogDisable
*DEL*:00000000H   CODE     ---       CyVdLvDigitDisable
*DEL*:00000000H   CODE     ---       CyVdRealTimeStatus
*DEL*:00000000H   CODE     ---       CyWdtClear
*DEL*:00000000H   CODE     ---       CyXTAL_32KHZ_ReadStatus
*DEL*:00000000H   CODE     ---       CyXTAL_32KHZ_Start
*DEL*:00000000H   CODE     ---       CyXTAL_32KHZ_Stop
*DEL*:00000000H   CODE     ---       CyXTAL_DisableErrStatus
*DEL*:00000000H   CODE     ---       CyXTAL_DisableFaultRecovery
*DEL*:00000000H   CODE     ---       CyXTAL_EnableErrStatus
*DEL*:00000000H   CODE     ---       CyXTAL_EnableFaultRecovery
*DEL*:00000000H   CODE     ---       CyXTAL_ReadStatus
*DEL*:00000000H   CODE     ---       CyXTAL_Stop
      02000582H   XDATA    BYTE      dev_pwm_limit
      02000273H   XDATA    LONG      dev_tension
      0200112DH   XDATA    ---       dieTemperature
*SFR* 00000083H   DATA     BYTE      DPH
*SFR* 00000085H   DATA     BYTE      DPH1
*SFR* 00000082H   DATA     BYTE      DPL
*SFR* 00000084H   DATA     BYTE      DPL1
*SFR* 00000086H   DATA     BYTE      DPS
*SFR* 00000093H   DATA     BYTE      DPX
*SFR* 00000095H   DATA     BYTE      DPX1
*SFR* 000000A8H.7 DATA     BIT       EA
      02000EA7H   XDATA    ---       EEPROM_ADDR
      0100768FH   CODE     ---       EEPROM_Enable
*DEL*:00000000H   CODE     ---       EEPROM_Query
      01007704H   CODE     ---       EEPROM_Start
*DEL*:00000000H   CODE     ---       EEPROM_Stop
*DEL*:00000000H   CODE     ---       EEPROM_UpdateTemperature
*SFR* 000000D0H.5 DATA     BIT       F0
*SFR* 000000D0H.1 DATA     BIT       F1
*DEL*:00000000H   CODE     ---       FF_STATUS_InterruptDisable
LX51 LINKER/LOCATER V4.64.0.0                                                         01/24/2017  11:05:18  PAGE 26


*DEL*:00000000H   CODE     ---       FF_STATUS_InterruptEnable
      010076C2H   CODE     ---       FF_STATUS_Read
*DEL*:00000000H   CODE     ---       FF_STATUS_ReadMask
      02000580H   XDATA    INT       frsAccReg
      02000019H   XDATA    INT       frsGyroReg
*DEL*:00000000H   CODE     ---       FTDI_ENABLE_REG_Read
      01006E09H   CODE     ---       function_scheduler
      0200001BH   XDATA    ---       g_imu
      02000330H   XDATA    ---       g_imuNew
      02000015H   XDATA    ---       g_mem
      020002AAH   XDATA    ---       g_rx
      02000209H   XDATA    ---       Gyro
*SFR* 000000A8H   DATA     BYTE      IE
      0200052BH   XDATA    ---       IMU_conf
      02000004H   XDATA    ---       IMU_connected
      02000526H   XDATA    INT       imus_data_size
*DEL*:00000000H   CODE     ---       ImusReset
*DEL*:00000000H   CODE     ---       infoSend
      01006180H   CODE     ---       InitIMU
      0100511DH   CODE     ---       InitIMUgeneral
      01006271H   CODE     ---       InitIMUMagCal
      00000021H.4 BIT      BIT       interrupt_flag
      01005A27H   CODE     ---       interrupt_manager
*DEL*:00000000H   CODE     ---       isr_imu_ClearPending
*DEL*:00000000H   CODE     ---       isr_imu_Disable
*DEL*:00000000H   CODE     ---       isr_imu_Enable
*DEL*:00000000H   CODE     ---       isr_imu_GetPriority
*DEL*:00000000H   CODE     ---       isr_imu_GetState
*DEL*:00000000H   CODE     ---       isr_imu_GetVector
      01004A18H   CODE     ---       isr_imu_Interrupt
*DEL*:00000000H   CODE     ---       isr_imu_SetPending
*DEL*:00000000H   CODE     ---       isr_imu_Start
*DEL*:00000000H   CODE     ---       isr_imu_Stop
*DEL*:00000000H   CODE     ---       ISR_RS485_RX_ClearPending
      01007688H   CODE     ---       ISR_RS485_RX_Disable
      01007681H   CODE     ---       ISR_RS485_RX_Enable
      0100770BH   CODE     ---       ISR_RS485_RX_ExInterrupt
*DEL*:00000000H   CODE     ---       ISR_RS485_RX_GetPriority
*DEL*:00000000H   CODE     ---       ISR_RS485_RX_GetState
*DEL*:00000000H   CODE     ---       ISR_RS485_RX_GetVector
      01007718H   CODE     ---       ISR_RS485_RX_Interrupt
*DEL*:00000000H   CODE     ---       ISR_RS485_RX_SetPending
*DEL*:00000000H   CODE     ---       ISR_RS485_RX_Start
*DEL*:00000000H   CODE     ---       ISR_RS485_RX_Stop
*DEL*:00000000H   CODE     ---       ISR_WATCHDOG_ClearPending
      0100769DH   CODE     ---       ISR_WATCHDOG_Disable
      01007696H   CODE     ---       ISR_WATCHDOG_Enable
*DEL*:00000000H   CODE     ---       ISR_WATCHDOG_GetPriority
*DEL*:00000000H   CODE     ---       ISR_WATCHDOG_GetState
*DEL*:00000000H   CODE     ---       ISR_WATCHDOG_GetVector
      01007708H   CODE     ---       ISR_WATCHDOG_Handler
      01007719H   CODE     ---       ISR_WATCHDOG_Interrupt
*DEL*:00000000H   CODE     ---       ISR_WATCHDOG_SetPending
*DEL*:00000000H   CODE     ---       ISR_WATCHDOG_Start
*DEL*:00000000H   CODE     ---       ISR_WATCHDOG_Stop
      02000181H   XDATA    ---       Mag
      02000277H   XDATA    ---       MagCal
      01006441H   CODE     ---       main
      010071F7H   CODE     ---       memInit
      01006D2CH   CODE     ---       memRecall
      01006DC2H   CODE     ---       memRestore
*SFR* 000000EAH   DATA     BYTE      MXAX
      010075E5H   CODE     ---       MY_TIMER_ClearFIFO
      01007671H   CODE     ---       MY_TIMER_Enable
      01007159H   CODE     ---       MY_TIMER_Init
LX51 LINKER/LOCATER V4.64.0.0                                                         01/24/2017  11:05:18  PAGE 27


      02001138H   XDATA    BYTE      MY_TIMER_initVar
      0100764BH   CODE     ---       MY_TIMER_ReadCapture
*DEL*:00000000H   CODE     ---       MY_TIMER_ReadControlRegister
      01007538H   CODE     ---       MY_TIMER_ReadCounter
*DEL*:00000000H   CODE     ---       MY_TIMER_ReadPeriod
      010076CEH   CODE     ---       MY_TIMER_ReadStatusRegister
*DEL*:00000000H   CODE     ---       MY_TIMER_SoftwareCapture
      010074A6H   CODE     ---       MY_TIMER_Start
*DEL*:00000000H   CODE     ---       MY_TIMER_Stop
      02000180H   XDATA    BYTE      N_IMU_Connected
*DEL*:00000000H   CODE     ---       Opto_Pin_Read
*DEL*:00000000H   CODE     ---       Opto_Pin_ReadDataReg
*SFR* 000000D0H.2 DATA     BIT       OV
*SFR* 000000D0H   DATA     BIT       P
*SFR* 000000A0H   DATA     BYTE      P2AX
      010073C3H   CODE     ---       PACER_TIMER_Enable
      01006ED2H   CODE     ---       PACER_TIMER_Init
      02001137H   XDATA    BYTE      PACER_TIMER_initVar
*DEL*:00000000H   CODE     ---       PACER_TIMER_ReadCapture
*DEL*:00000000H   CODE     ---       PACER_TIMER_ReadControlRegister
*DEL*:00000000H   CODE     ---       PACER_TIMER_ReadCounter
*DEL*:00000000H   CODE     ---       PACER_TIMER_ReadPeriod
*DEL*:00000000H   CODE     ---       PACER_TIMER_ReadStatusRegister
*DEL*:00000000H   CODE     ---       PACER_TIMER_SoftwareCapture
      01007493H   CODE     ---       PACER_TIMER_Start
*DEL*:00000000H   CODE     ---       PACER_TIMER_Stop
*SFR* 000000D0H   DATA     BYTE      PSW
      0200052AH   XDATA    CHAR      pwm_sign
      0200032FH   XDATA    BYTE      rateAcc
      020004B7H   XDATA    BYTE      rateGyro
      01004DA2H   CODE     ---       readAllIMUs
*DEL*:00000000H   CODE     ---       RESET_FF_Read
      00000021H.2 BIT      BIT       reset_last_value_flag
*SFR* 000000D0H.3 DATA     BIT       RS0
*SFR* 000000D0H.4 DATA     BIT       RS1
*DEL*:00000000H   CODE     ---       RS485_CTS_Read
      0100712BH   CODE     ---       setZeros
*SFR* 00000080H   DATA     BYTE      SFRPRT0DR
*SFR* 00000089H   DATA     BYTE      SFRPRT0PS
*SFR* 0000008AH   DATA     BYTE      SFRPRT0SEL
*SFR* 000000E8H   DATA     BYTE      SFRPRT12DR
*SFR* 000000E9H   DATA     BYTE      SFRPRT12PS
*SFR* 000000F2H   DATA     BYTE      SFRPRT12SEL
*SFR* 000000F8H   DATA     BYTE      SFRPRT15DR
*SFR* 000000F9H   DATA     BYTE      SFRPRT15PS
*SFR* 000000FAH   DATA     BYTE      SFRPRT15SEL
*SFR* 00000090H   DATA     BYTE      SFRPRT1DR
*SFR* 00000091H   DATA     BYTE      SFRPRT1PS
*SFR* 000000A2H   DATA     BYTE      SFRPRT1SEL
*SFR* 00000098H   DATA     BYTE      SFRPRT2DR
*SFR* 00000099H   DATA     BYTE      SFRPRT2PS
*SFR* 0000009AH   DATA     BYTE      SFRPRT2SEL
*SFR* 000000B0H   DATA     BYTE      SFRPRT3DR
*SFR* 000000B1H   DATA     BYTE      SFRPRT3PS
*SFR* 000000B2H   DATA     BYTE      SFRPRT3SEL
*SFR* 000000C0H   DATA     BYTE      SFRPRT4DR
*SFR* 000000C1H   DATA     BYTE      SFRPRT4PS
*SFR* 000000C2H   DATA     BYTE      SFRPRT4SEL
*SFR* 000000C8H   DATA     BYTE      SFRPRT5DR
*SFR* 000000C9H   DATA     BYTE      SFRPRT5PS
*SFR* 000000CAH   DATA     BYTE      SFRPRT5SEL
*SFR* 000000D8H   DATA     BYTE      SFRPRT6DR
*SFR* 000000D9H   DATA     BYTE      SFRPRT6PS
*SFR* 000000DAH   DATA     BYTE      SFRPRT6SEL
      02000495H   XDATA    ---       single_imu_size
LX51 LINKER/LOCATER V4.64.0.0                                                         01/24/2017  11:05:18  PAGE 28


*SFR* 00000081H   DATA     BYTE      SP
      0200113AH   XDATA    BYTE      SpcLockState
      0100727FH   CODE     ---       SPI_IMU_ClearFIFO
      01007547H   CODE     ---       SPI_IMU_ClearRxBuffer
      01007504H   CODE     ---       SPI_IMU_ClearTxBuffer
*DEL*:00000000H   CODE     ---       SPI_IMU_DisableInt
*DEL*:00000000H   CODE     ---       SPI_IMU_DisableRxInt
*DEL*:00000000H   CODE     ---       SPI_IMU_DisableTxInt
      010071D2H   CODE     ---       SPI_IMU_Enable
*DEL*:00000000H   CODE     ---       SPI_IMU_EnableInt
      0100771BH   CODE     ---       SPI_IMU_EnableRxInt
      0100771AH   CODE     ---       SPI_IMU_EnableTxInt
*DEL*:00000000H   CODE     ---       SPI_IMU_GetRxBufferSize
*DEL*:00000000H   CODE     ---       SPI_IMU_GetTxBufferSize
      01007363H   CODE     ---       SPI_IMU_Init
      02001135H   XDATA    BYTE      SPI_IMU_initVar
*DEL*:00000000H   CODE     ---       SPI_IMU_IntClock_GetDividerRegister
*DEL*:00000000H   CODE     ---       SPI_IMU_IntClock_GetModeRegister
*DEL*:00000000H   CODE     ---       SPI_IMU_IntClock_GetSourceRegister
      01007583H   CODE     ---       SPI_IMU_IntClock_Start
*DEL*:00000000H   CODE     ---       SPI_IMU_IntClock_Stop
*DEL*:00000000H   CODE     ---       SPI_IMU_IntClock_StopBlock
      010076F2H   CODE     ---       SPI_IMU_ReadRxData
      010076ECH   CODE     ---       SPI_IMU_ReadRxStatus
      01007556H   CODE     ---       SPI_IMU_ReadStatus
      010076E6H   CODE     ---       SPI_IMU_ReadTxStatus
      010074CCH   CODE     ---       SPI_IMU_Start
*DEL*:00000000H   CODE     ---       SPI_IMU_Stop
      02001133H   XDATA    BYTE      SPI_IMU_swStatusRx
      02001134H   XDATA    BYTE      SPI_IMU_swStatusTx
      01005C6FH   CODE     NEAR LAB  STARTUP1
      020004BCH   XDATA    FLOAT     tau_feedback
      020001E7H   XDATA    ---       Temp
      00000021H.5 BIT      BIT       tension_valid
      0200026FH   XDATA    DWORD     timer_value
      020004B8H   XDATA    DWORD     timer_value0
      010070CEH   CODE     ---       UART_RS485_ClearRxBuffer
      010074F2H   CODE     ---       UART_RS485_ClearTxBuffer
      0100721BH   CODE     ---       UART_RS485_Enable
      020010FAH   XDATA    BYTE      UART_RS485_errorStatus
*DEL*:00000000H   CODE     ---       UART_RS485_GetByte
      01006AE0H   CODE     ---       UART_RS485_GetChar
      01006CDDH   CODE     ---       UART_RS485_GetRxBufferSize
*DEL*:00000000H   CODE     ---       UART_RS485_GetTxBufferSize
      01006FAEH   CODE     ---       UART_RS485_Init
      020010F8H   XDATA    BYTE      UART_RS485_initVar
*DEL*:00000000H   CODE     ---       UART_RS485_ReadControlRegister
*DEL*:00000000H   CODE     ---       UART_RS485_ReadRxData
      0100746CH   CODE     ---       UART_RS485_ReadRxStatus
      010076A4H   CODE     ---       UART_RS485_ReadTxStatus
      020010D7H   XDATA    ---       UART_RS485_rxBuffer
      020010D5H   XDATA    BYTE      UART_RS485_rxBufferLoopDetect
      020010F9H   XDATA    BYTE      UART_RS485_rxBufferOverflow
      020010D6H   XDATA    BYTE      UART_RS485_rxBufferRead
      020010F7H   XDATA    BYTE      UART_RS485_rxBufferWrite
      010065C1H   CODE     ---       UART_RS485_RXISR
      01007480H   CODE     ---       UART_RS485_Start
      0100723DH   CODE     ---       UART_RS485_Stop
      010073D9H   CODE     ---       WATCHDOG_COUNTER_Enable
      01006F0EH   CODE     ---       WATCHDOG_COUNTER_Init
      02001139H   XDATA    BYTE      WATCHDOG_COUNTER_initVar
*DEL*:00000000H   CODE     ---       WATCHDOG_COUNTER_ReadCapture
*DEL*:00000000H   CODE     ---       WATCHDOG_COUNTER_ReadControlRegister
*DEL*:00000000H   CODE     ---       WATCHDOG_COUNTER_ReadCounter
*DEL*:00000000H   CODE     ---       WATCHDOG_COUNTER_ReadPeriod
LX51 LINKER/LOCATER V4.64.0.0                                                         01/24/2017  11:05:18  PAGE 29


*DEL*:00000000H   CODE     ---       WATCHDOG_COUNTER_ReadStatusRegister
      010074B9H   CODE     ---       WATCHDOG_COUNTER_Start
*DEL*:00000000H   CODE     ---       WATCHDOG_COUNTER_Stop
*DEL*:00000000H   CODE     ---       WATCHDOG_ENABLER_Read
      00000021H.3 BIT      BIT       watchdog_flag
*DEL*:00000000H   CODE     ---       WATCHDOG_REFRESH_Read



SYMBOL TABLE OF MODULE:  .\DP8051_Keil_951\Release\firmware.omf (COMMAND_PROCESSING)

      VALUE       REP       CLASS    TYPE      SYMBOL NAME
      ====================================================
      ---         MODULE    ---      ---       COMMAND_PROCESSING
      02000EA7H   PUBLIC    XDATA    ---       EEPROM_ADDR
      0100548AH   PUBLIC    CODE     ---       cmd_get_imu_readings
      01007717H   PUBLIC    CODE     ---       cmd_get_emg
      01007404H   PUBLIC    CODE     ---       cmd_store_params
      01007716H   PUBLIC    CODE     ---       cmd_get_inputs
      01006E91H   PUBLIC    CODE     ---       cmd_set_watchdog
      01007458H   PUBLIC    CODE     ---       cmd_ping
      0100725FH   PUBLIC    CODE     ---       cmd_set_baudrate
      01007715H   PUBLIC    CODE     ---       cmd_get_currents
      01007714H   PUBLIC    CODE     ---       cmd_get_activate
      01007713H   PUBLIC    CODE     ---       cmd_activate
      01007712H   PUBLIC    CODE     ---       cmd_set_inputs
      01007711H   PUBLIC    CODE     ---       cmd_get_measurements
      010071F7H   PUBLIC    CODE     ---       memInit
      01006DC2H   PUBLIC    CODE     ---       memRestore
      01006D2CH   PUBLIC    CODE     ---       memRecall
      01006672H   PUBLIC    CODE     ---       _memStore
      010073EFH   PUBLIC    CODE     ---       _sendAcknowledgment
      0100703BH   PUBLIC    CODE     ---       _LCRChecksum
      0100671FH   PUBLIC    CODE     ---       _commWrite
      0100309EH   PUBLIC    CODE     ---       _infoPrepare
      010038B7H   PUBLIC    CODE     ---       _get_param_list
      0100712BH   PUBLIC    CODE     ---       setZeros
      01007331H   PUBLIC    CODE     ---       _infoGet
      01005B4EH   PUBLIC    CODE     ---       commProcess
      000000CAH   SFRSYM    DATA     BYTE      SFRPRT5SEL
      000000DAH   SFRSYM    DATA     BYTE      SFRPRT6SEL
      000000D0H.6 SFRSYM    DATA     BIT       AC
      000000A8H.7 SFRSYM    DATA     BIT       EA
      000000A8H   SFRSYM    DATA     BYTE      IE
      00000085H   SFRSYM    DATA     BYTE      DPH1
      00000084H   SFRSYM    DATA     BYTE      DPL1
      000000D0H.7 SFRSYM    DATA     BIT       CY
      000000A0H   SFRSYM    DATA     BYTE      P2AX
      00000095H   SFRSYM    DATA     BYTE      DPX1
      00000081H   SFRSYM    DATA     BYTE      SP
      000000D0H.2 SFRSYM    DATA     BIT       OV
      00000080H   SFRSYM    DATA     BYTE      SFRPRT0DR
      00000090H   SFRSYM    DATA     BYTE      SFRPRT1DR
      000000F2H   SFRSYM    DATA     BYTE      SFRPRT12SEL
      00000098H   SFRSYM    DATA     BYTE      SFRPRT2DR
      000000B0H   SFRSYM    DATA     BYTE      SFRPRT3DR
      000000C0H   SFRSYM    DATA     BYTE      SFRPRT4DR
      000000FAH   SFRSYM    DATA     BYTE      SFRPRT15SEL
      000000C8H   SFRSYM    DATA     BYTE      SFRPRT5DR
      000000D8H   SFRSYM    DATA     BYTE      SFRPRT6DR
      00000089H   SFRSYM    DATA     BYTE      SFRPRT0PS
      00000091H   SFRSYM    DATA     BYTE      SFRPRT1PS
      00000099H   SFRSYM    DATA     BYTE      SFRPRT2PS
      000000B1H   SFRSYM    DATA     BYTE      SFRPRT3PS
      000000C1H   SFRSYM    DATA     BYTE      SFRPRT4PS
LX51 LINKER/LOCATER V4.64.0.0                                                         01/24/2017  11:05:18  PAGE 30


      000000C9H   SFRSYM    DATA     BYTE      SFRPRT5PS
      000000D9H   SFRSYM    DATA     BYTE      SFRPRT6PS
      000000EAH   SFRSYM    DATA     BYTE      MXAX
      000000F0H   SFRSYM    DATA     BYTE      B
      000000E0H   SFRSYM    DATA     BYTE      ACC
      000000D0H   SFRSYM    DATA     BIT       P
      000000D0H.3 SFRSYM    DATA     BIT       RS0
      000000D0H.4 SFRSYM    DATA     BIT       RS1
      00000083H   SFRSYM    DATA     BYTE      DPH
      000000E8H   SFRSYM    DATA     BYTE      SFRPRT12DR
      00000082H   SFRSYM    DATA     BYTE      DPL
      000000F8H   SFRSYM    DATA     BYTE      SFRPRT15DR
      00000086H   SFRSYM    DATA     BYTE      DPS
      000000E9H   SFRSYM    DATA     BYTE      SFRPRT12PS
      00000093H   SFRSYM    DATA     BYTE      DPX
      000000F9H   SFRSYM    DATA     BYTE      SFRPRT15PS
      000000D0H.5 SFRSYM    DATA     BIT       F0
      000000D0H.1 SFRSYM    DATA     BIT       F1
      0000008AH   SFRSYM    DATA     BYTE      SFRPRT0SEL
      000000D0H   SFRSYM    DATA     BYTE      PSW
      000000A2H   SFRSYM    DATA     BYTE      SFRPRT1SEL
      0000009AH   SFRSYM    DATA     BYTE      SFRPRT2SEL
      000000B2H   SFRSYM    DATA     BYTE      SFRPRT3SEL
      000000C2H   SFRSYM    DATA     BYTE      SFRPRT4SEL
      010040FEH   SYMBOL    CODE     ---       _?ix1000
      01004519H   SYMBOL    CODE     ---       _?ix1001
      01004528H   SYMBOL    CODE     ---       _?ix1002
      01004546H   SYMBOL    CODE     ---       _?ix1003
      01004553H   SYMBOL    CODE     ---       _?ix1004
      0100456BH   SYMBOL    CODE     ---       _?ix1005

      01005B4EH   BLOCK     CODE     ---       LVL=0
      01005B4EH   BLOCK     CODE     NEAR LAB  LVL=1
      0000000AH   SYMBOL    DATA     BYTE      rx_cmd
      ---         BLOCKEND  ---      ---       LVL=1
      01005B4EH   LINE      CODE     ---       #39
      01005B4EH   LINE      CODE     ---       #43
      01005B54H   LINE      CODE     ---       #47
      01005B7FH   LINE      CODE     ---       #49
      01005B85H   LINE      CODE     ---       #51
      01005B85H   LINE      CODE     ---       #54
      01005BC7H   LINE      CODE     ---       #57
      01005BC7H   LINE      CODE     ---       #58
      01005BCAH   LINE      CODE     ---       #59
      01005BCBH   LINE      CODE     ---       #63
      01005BCBH   LINE      CODE     ---       #64
      01005BCEH   LINE      CODE     ---       #65
      01005BCFH   LINE      CODE     ---       #69
      01005BCFH   LINE      CODE     ---       #70
      01005BD2H   LINE      CODE     ---       #71
      01005BD3H   LINE      CODE     ---       #75
      01005BD3H   LINE      CODE     ---       #76
      01005BD6H   LINE      CODE     ---       #77
      01005BD7H   LINE      CODE     ---       #82
      01005BD7H   LINE      CODE     ---       #83
      01005BDAH   LINE      CODE     ---       #84
      01005BDBH   LINE      CODE     ---       #88
      01005BDBH   LINE      CODE     ---       #89
      01005BDEH   LINE      CODE     ---       #90
      01005BDFH   LINE      CODE     ---       #94
      01005BDFH   LINE      CODE     ---       #95
      01005BE2H   LINE      CODE     ---       #96
      01005BE3H   LINE      CODE     ---       #100
      01005BE3H   LINE      CODE     ---       #101
      01005BE6H   LINE      CODE     ---       #102
LX51 LINKER/LOCATER V4.64.0.0                                                         01/24/2017  11:05:18  PAGE 31


      01005BE7H   LINE      CODE     ---       #106
      01005BE7H   LINE      CODE     ---       #107
      01005BEAH   LINE      CODE     ---       #108
      01005BEBH   LINE      CODE     ---       #112
      01005BEBH   LINE      CODE     ---       #113
      01005BF6H   LINE      CODE     ---       #114
      01005BF7H   LINE      CODE     ---       #118
      01005BF7H   LINE      CODE     ---       #119
      01005BFAH   LINE      CODE     ---       #120
      01005BFBH   LINE      CODE     ---       #124
      01005BFBH   LINE      CODE     ---       #125
      01005C06H   LINE      CODE     ---       #126
      01005C07H   LINE      CODE     ---       #130
      01005C07H   LINE      CODE     ---       #131
      01005C0AH   LINE      CODE     ---       #132
      01005C0BH   LINE      CODE     ---       #136
      01005C0BH   LINE      CODE     ---       #137
      01005C0EH   LINE      CODE     ---       #138
      01005C0FH   LINE      CODE     ---       #142
      01005C0FH   LINE      CODE     ---       #143
      01005C19H   LINE      CODE     ---       #144
      01005C1FH   LINE      CODE     ---       #146
      01005C24H   LINE      CODE     ---       #147
      01005C25H   LINE      CODE     ---       #151
      01005C25H   LINE      CODE     ---       #152
      01005C2BH   LINE      CODE     ---       #153
      01005C31H   LINE      CODE     ---       #155
      01005C36H   LINE      CODE     ---       #156
      01005C37H   LINE      CODE     ---       #160
      01005C37H   LINE      CODE     ---       #161
      01005C3DH   LINE      CODE     ---       #162
      01005C43H   LINE      CODE     ---       #164
      01005C48H   LINE      CODE     ---       #165
      01005C49H   LINE      CODE     ---       #169
      01005C49H   LINE      CODE     ---       #171
      01005C4EH   LINE      CODE     ---       #172
      01005C58H   LINE      CODE     ---       #173
      01005C5DH   LINE      CODE     ---       #174
      01005C67H   LINE      CODE     ---       #175
      01005C6AH   LINE      CODE     ---       #176
      01005C6BH   LINE      CODE     ---       #180
      01005C6BH   LINE      CODE     ---       #181
      01005C6BH   LINE      CODE     ---       #185
      01005C6BH   LINE      CODE     ---       #186
      01005C6EH   LINE      CODE     ---       #187
      01005C6EH   LINE      CODE     ---       #191
      01005C6EH   LINE      CODE     ---       #192
      01005C6EH   LINE      CODE     ---       #194
      01005C6EH   LINE      CODE     ---       #196
      ---         BLOCKEND  ---      ---       LVL=0

      01007331H   BLOCK     CODE     ---       LVL=0
      00000006H   SYMBOL    DATA     WORD      info_type
      01007331H   BLOCK     CODE     NEAR LAB  LVL=1
      02000A5BH   SYMBOL    XDATA    ---       packet_string
      ---         BLOCKEND  ---      ---       LVL=1
      01007331H   LINE      CODE     ---       #214
      01007331H   LINE      CODE     ---       #219
      01007337H   LINE      CODE     ---       #220
      01007337H   LINE      CODE     ---       #221
      01007340H   LINE      CODE     ---       #222
      01007349H   LINE      CODE     ---       #223
      01007349H   LINE      CODE     ---       #225
      01007349H   LINE      CODE     ---       #226
      01007349H   LINE      CODE     ---       #227
LX51 LINKER/LOCATER V4.64.0.0                                                         01/24/2017  11:05:18  PAGE 32


      01007349H   LINE      CODE     ---       #228
      ---         BLOCKEND  ---      ---       LVL=0

      0100712BH   BLOCK     CODE     ---       LVL=0
      0100712BH   LINE      CODE     ---       #234
      0100712BH   LINE      CODE     ---       #235
      0100712BH   LINE      CODE     ---       #237
      ---         BLOCKEND  ---      ---       LVL=0

      010038B7H   BLOCK     CODE     ---       LVL=0
      02000588H   SYMBOL    XDATA    WORD      index
      010038BFH   BLOCK     CODE     NEAR LAB  LVL=1
      0200058AH   SYMBOL    XDATA    ---       packet_data
      020009A5H   SYMBOL    XDATA    WORD      packet_lenght
      0000000BH   SYMBOL    DATA     WORD      i
      0000000DH   SYMBOL    DATA     WORD      j
      020009A7H   SYMBOL    XDATA    ---       id_str
      020009B6H   SYMBOL    XDATA    ---       n_imu_str
      020009D4H   SYMBOL    XDATA    ---       ids_str
      020009E1H   SYMBOL    XDATA    ---       mag_param_str
      020009F9H   SYMBOL    XDATA    ---       imu_table_str
      0000000FH   SYMBOL    DATA     BYTE      id_str_len
      00000010H   SYMBOL    DATA     BYTE      n_imu_str_len
      00000011H   SYMBOL    DATA     BYTE      ids_str_len
      00000012H   SYMBOL    DATA     BYTE      mag_param_str_len
      00000013H   SYMBOL    DATA     BYTE      imu_table_str_len
      ---         BLOCKEND  ---      ---       LVL=1
      010038B7H   LINE      CODE     ---       #243
      010038BFH   LINE      CODE     ---       #244
      010038BFH   LINE      CODE     ---       #246
      010038D2H   LINE      CODE     ---       #247
      010038E7H   LINE      CODE     ---       #253
      010038FAH   LINE      CODE     ---       #254
      0100390DH   LINE      CODE     ---       #255
      01003920H   LINE      CODE     ---       #256
      01003933H   LINE      CODE     ---       #257
      01003946H   LINE      CODE     ---       #260
      01003951H   LINE      CODE     ---       #261
      0100395CH   LINE      CODE     ---       #262
      01003967H   LINE      CODE     ---       #263
      01003972H   LINE      CODE     ---       #264
      0100397DH   LINE      CODE     ---       #266
      01003983H   LINE      CODE     ---       #267
      0100398DH   LINE      CODE     ---       #269
      010039B0H   LINE      CODE     ---       #270
      010039B0H   LINE      CODE     ---       #273
      010039B6H   LINE      CODE     ---       #274
      010039B9H   LINE      CODE     ---       #275
      010039C1H   LINE      CODE     ---       #276
      010039CDH   LINE      CODE     ---       #277
      010039F9H   LINE      CODE     ---       #281
      010039FFH   LINE      CODE     ---       #282
      01003A02H   LINE      CODE     ---       #283
      01003A0AH   LINE      CODE     ---       #284
      01003A16H   LINE      CODE     ---       #285
      01003A42H   LINE      CODE     ---       #289
      01003A48H   LINE      CODE     ---       #290
      01003A50H   LINE      CODE     ---       #291
      01003A64H   LINE      CODE     ---       #292
      01003A80H   LINE      CODE     ---       #293
      01003A8AH   LINE      CODE     ---       #294
      01003A96H   LINE      CODE     ---       #295
      01003AD7H   LINE      CODE     ---       #299
      01003ADDH   LINE      CODE     ---       #300
      01003AE9H   LINE      CODE     ---       #301
LX51 LINKER/LOCATER V4.64.0.0                                                         01/24/2017  11:05:18  PAGE 33


      01003B00H   LINE      CODE     ---       #302
      01003B33H   LINE      CODE     ---       #303
      01003B66H   LINE      CODE     ---       #304
      01003B99H   LINE      CODE     ---       #305
      01003BA4H   LINE      CODE     ---       #306
      01003BB0H   LINE      CODE     ---       #307
      01003BF6H   LINE      CODE     ---       #310
      01003C0DH   LINE      CODE     ---       #312
      01003C49H   LINE      CODE     ---       #313
      01003C54H   LINE      CODE     ---       #315
      01003C6CH   LINE      CODE     ---       #316
      01003C84H   LINE      CODE     ---       #318
      01003CB7H   LINE      CODE     ---       #319
      01003CEAH   LINE      CODE     ---       #320
      01003D1DH   LINE      CODE     ---       #321
      01003D50H   LINE      CODE     ---       #322
      01003D83H   LINE      CODE     ---       #324
      01003D8FH   LINE      CODE     ---       #325
      01003DD6H   LINE      CODE     ---       #326
      01003DE1H   LINE      CODE     ---       #331
      01003E05H   LINE      CODE     ---       #332
      01003E0EH   LINE      CODE     ---       #333
      01003E11H   LINE      CODE     ---       #334
      01003E12H   LINE      CODE     ---       #337
      01003E12H   LINE      CODE     ---       #338
      01003E1AH   LINE      CODE     ---       #339
      01003E1BH   LINE      CODE     ---       #342
      01003E1BH   LINE      CODE     ---       #343
      01003E1BH   LINE      CODE     ---       #346
      01003E1BH   LINE      CODE     ---       #347
      01003E1CH   LINE      CODE     ---       #350
      01003E1CH   LINE      CODE     ---       #351
      01003E1CH   LINE      CODE     ---       #354
      01003E1CH   LINE      CODE     ---       #355
      01003E42H   LINE      CODE     ---       #356
      01003E61H   LINE      CODE     ---       #357
      01003E80H   LINE      CODE     ---       #358
      01003E9FH   LINE      CODE     ---       #359
      01003EBEH   LINE      CODE     ---       #362
      01003EC6H   LINE      CODE     ---       #363
      01003EDDH   LINE      CODE     ---       #364
      01003EDDH   LINE      CODE     ---       #365
      01003F67H   LINE      CODE     ---       #366
      01003F90H   LINE      CODE     ---       #367
      01003F9BH   LINE      CODE     ---       #368
      01003FA9H   LINE      CODE     ---       #370
      01003FA9H   LINE      CODE     ---       #372
      01003FA9H   LINE      CODE     ---       #373
      ---         BLOCKEND  ---      ---       LVL=0

      0100309EH   BLOCK     CODE     ---       LVL=0
      02000588H   SYMBOL    XDATA    ---       info_string
      010030A9H   BLOCK     CODE     NEAR LAB  LVL=1
      0200058BH   SYMBOL    XDATA    INT       i
      010030B4H   BLOCK     CODE     NEAR LAB  LVL=2
      0200058DH   SYMBOL    XDATA    ---       str
      ---         BLOCKEND  ---      ---       LVL=2
      ---         BLOCKEND  ---      ---       LVL=1
      0100309EH   LINE      CODE     ---       #380
      010030A9H   LINE      CODE     ---       #381
      010030A9H   LINE      CODE     ---       #383
      010030B4H   LINE      CODE     ---       #385
      010030CCH   LINE      CODE     ---       #386
      010030E8H   LINE      CODE     ---       #387
      01003104H   LINE      CODE     ---       #388
LX51 LINKER/LOCATER V4.64.0.0                                                         01/24/2017  11:05:18  PAGE 34


      01003120H   LINE      CODE     ---       #389
      0100313CH   LINE      CODE     ---       #391
      01003158H   LINE      CODE     ---       #392
      0100317CH   LINE      CODE     ---       #393
      01003198H   LINE      CODE     ---       #395
      010031BCH   LINE      CODE     ---       #396
      010031D8H   LINE      CODE     ---       #398
      010031F4H   LINE      CODE     ---       #401
      01003210H   LINE      CODE     ---       #402
      01003231H   LINE      CODE     ---       #403
      0100326BH   LINE      CODE     ---       #404
      01003287H   LINE      CODE     ---       #406
      0100329EH   LINE      CODE     ---       #407
      010032BFH   LINE      CODE     ---       #408
      010032D8H   LINE      CODE     ---       #410
      010032EFH   LINE      CODE     ---       #411
      01003306H   LINE      CODE     ---       #412
      01003327H   LINE      CODE     ---       #413
      01003340H   LINE      CODE     ---       #415
      01003357H   LINE      CODE     ---       #416
      0100336EH   LINE      CODE     ---       #417
      0100338FH   LINE      CODE     ---       #418
      010033A8H   LINE      CODE     ---       #420
      010033BFH   LINE      CODE     ---       #421
      010033D6H   LINE      CODE     ---       #422
      010033F7H   LINE      CODE     ---       #423
      01003410H   LINE      CODE     ---       #425
      01003427H   LINE      CODE     ---       #426
      0100343EH   LINE      CODE     ---       #427
      0100345FH   LINE      CODE     ---       #428
      01003478H   LINE      CODE     ---       #430
      0100348FH   LINE      CODE     ---       #432
      010034ABH   LINE      CODE     ---       #433
      010034BCH   LINE      CODE     ---       #435
      010034D8H   LINE      CODE     ---       #437
      010034F4H   LINE      CODE     ---       #438
      01003515H   LINE      CODE     ---       #439
      0100354FH   LINE      CODE     ---       #440
      0100356BH   LINE      CODE     ---       #442
      01003590H   LINE      CODE     ---       #443
      01003609H   LINE      CODE     ---       #444
      01003625H   LINE      CODE     ---       #445
      01003625H   LINE      CODE     ---       #447
      0100364AH   LINE      CODE     ---       #448
      010036C3H   LINE      CODE     ---       #449
      010036DFH   LINE      CODE     ---       #450
      010036DFH   LINE      CODE     ---       #452
      01003704H   LINE      CODE     ---       #453
      0100377DH   LINE      CODE     ---       #454
      01003799H   LINE      CODE     ---       #455
      01003799H   LINE      CODE     ---       #457
      010037BBH   LINE      CODE     ---       #458
      010037F1H   LINE      CODE     ---       #459
      0100380DH   LINE      CODE     ---       #460
      0100380DH   LINE      CODE     ---       #462
      0100381EH   LINE      CODE     ---       #464
      01003862H   LINE      CODE     ---       #465
      0100387EH   LINE      CODE     ---       #466
      0100389AH   LINE      CODE     ---       #467
      010038B6H   LINE      CODE     ---       #468
      010038B6H   LINE      CODE     ---       #469
      ---         BLOCKEND  ---      ---       LVL=0

      0100671FH   BLOCK     CODE     ---       LVL=0
      02000A23H   SYMBOL    XDATA    ---       packet_data
LX51 LINKER/LOCATER V4.64.0.0                                                         01/24/2017  11:05:18  PAGE 35


      02000A26H   SYMBOL    XDATA    WORD      packet_lenght
      01006730H   BLOCK     CODE     NEAR LAB  LVL=1
      00000014H   SYMBOL    DATA     WORD      index
      ---         BLOCKEND  ---      ---       LVL=1
      0100671FH   LINE      CODE     ---       #475
      01006730H   LINE      CODE     ---       #476
      01006730H   LINE      CODE     ---       #480
      01006735H   LINE      CODE     ---       #481
      0100673AH   LINE      CODE     ---       #484
      01006742H   LINE      CODE     ---       #487
      0100674CH   LINE      CODE     ---       #490
      01006760H   LINE      CODE     ---       #491
      01006782H   LINE      CODE     ---       #493
      01006787H   LINE      CODE     ---       #495
      010067A1H   LINE      CODE     ---       #497
      010067A6H   LINE      CODE     ---       #498
      010067ABH   LINE      CODE     ---       #499
      ---         BLOCKEND  ---      ---       LVL=0

      0100703BH   BLOCK     CODE     ---       LVL=0
      02000A23H   SYMBOL    XDATA    ---       data_array
      00000005H   SYMBOL    DATA     BYTE      data_length
      01007046H   BLOCK     CODE     NEAR LAB  LVL=1
      00000014H   SYMBOL    DATA     BYTE      i
      00000015H   SYMBOL    DATA     BYTE      checksum
      ---         BLOCKEND  ---      ---       LVL=1
      0100703BH   LINE      CODE     ---       #508
      01007046H   LINE      CODE     ---       #511
      01007049H   LINE      CODE     ---       #513
      01007051H   LINE      CODE     ---       #514
      0100706AH   LINE      CODE     ---       #516
      0100706CH   LINE      CODE     ---       #517
      ---         BLOCKEND  ---      ---       LVL=0

      010073EFH   BLOCK     CODE     ---       LVL=0
      00000007H   SYMBOL    DATA     BYTE      value
      010073EFH   BLOCK     CODE     NEAR LAB  LVL=1
      00000004H   SYMBOL    DATA     INT       packet_lenght
      02000588H   SYMBOL    XDATA    ---       packet_data
      ---         BLOCKEND  ---      ---       LVL=1
      010073EFH   LINE      CODE     ---       #523
      010073EFH   LINE      CODE     ---       #524
      010073F3H   LINE      CODE     ---       #527
      010073F8H   LINE      CODE     ---       #528
      010073FAH   LINE      CODE     ---       #530
      01007403H   LINE      CODE     ---       #531
      ---         BLOCKEND  ---      ---       LVL=0

      01006672H   BLOCK     CODE     ---       LVL=0
      02000588H   SYMBOL    XDATA    INT       displacement
      0100667AH   BLOCK     CODE     NEAR LAB  LVL=1
      0200058AH   SYMBOL    XDATA    INT       i
      00000007H   SYMBOL    DATA     BYTE      writeStatus
      0200058CH   SYMBOL    XDATA    INT       pages
      0200058EH   SYMBOL    XDATA    BYTE      ret_val
      ---         BLOCKEND  ---      ---       LVL=1
      01006672H   LINE      CODE     ---       #542
      0100667AH   LINE      CODE     ---       #543
      0100667AH   LINE      CODE     ---       #547
      01006680H   LINE      CODE     ---       #550
      01006683H   LINE      CODE     ---       #554
      01006686H   LINE      CODE     ---       #556
      01006699H   LINE      CODE     ---       #558
      010066A1H   LINE      CODE     ---       #560
      010066C4H   LINE      CODE     ---       #561
LX51 LINKER/LOCATER V4.64.0.0                                                         01/24/2017  11:05:18  PAGE 36


      010066E9H   LINE      CODE     ---       #562
      010066ECH   LINE      CODE     ---       #563
      010066F1H   LINE      CODE     ---       #564
      010066F3H   LINE      CODE     ---       #565
      010066F3H   LINE      CODE     ---       #566
      01006703H   LINE      CODE     ---       #568
      01006716H   LINE      CODE     ---       #571
      01006719H   LINE      CODE     ---       #573
      0100671EH   LINE      CODE     ---       #574
      ---         BLOCKEND  ---      ---       LVL=0

      01006D2CH   BLOCK     CODE     ---       LVL=0
      01006D2CH   BLOCK     CODE     NEAR LAB  LVL=1
      00000006H   SYMBOL    DATA     WORD      i
      ---         BLOCKEND  ---      ---       LVL=1
      01006D2CH   LINE      CODE     ---       #585
      01006D2CH   LINE      CODE     ---       #586
      01006D2CH   LINE      CODE     ---       #589
      01006D38H   LINE      CODE     ---       #590
      01006D54H   LINE      CODE     ---       #591
      01006D5BH   LINE      CODE     ---       #594
      01006D61H   LINE      CODE     ---       #595
      01006D64H   LINE      CODE     ---       #596
      01006D65H   LINE      CODE     ---       #597
      01006D78H   LINE      CODE     ---       #598
      01006D78H   LINE      CODE     ---       #599
      ---         BLOCKEND  ---      ---       LVL=0

      01006DC2H   BLOCK     CODE     ---       LVL=0
      01006DC2H   BLOCK     CODE     NEAR LAB  LVL=1
      00000006H   SYMBOL    DATA     WORD      i
      ---         BLOCKEND  ---      ---       LVL=1
      01006DC2H   LINE      CODE     ---       #610
      01006DC2H   LINE      CODE     ---       #613
      01006DCEH   LINE      CODE     ---       #614
      01006DF1H   LINE      CODE     ---       #615
      01006DF8H   LINE      CODE     ---       #618
      01006DFEH   LINE      CODE     ---       #619
      01006E02H   LINE      CODE     ---       #620
      01006E02H   LINE      CODE     ---       #621
      01006E08H   LINE      CODE     ---       #622
      01006E08H   LINE      CODE     ---       #623
      ---         BLOCKEND  ---      ---       LVL=0

      010071F7H   BLOCK     CODE     ---       LVL=0
      010071F7H   LINE      CODE     ---       #633
      010071F7H   LINE      CODE     ---       #634
      010071F7H   LINE      CODE     ---       #637
      010071FDH   LINE      CODE     ---       #641
      01007201H   LINE      CODE     ---       #644
      0100721AH   LINE      CODE     ---       #645
      ---         BLOCKEND  ---      ---       LVL=0

      01007711H   BLOCK     CODE     ---       LVL=0
      01007711H   LINE      CODE     ---       #654
      01007711H   LINE      CODE     ---       #656
      ---         BLOCKEND  ---      ---       LVL=0

      01007712H   BLOCK     CODE     ---       LVL=0
      01007712H   LINE      CODE     ---       #658
      01007712H   LINE      CODE     ---       #660
      ---         BLOCKEND  ---      ---       LVL=0

      01007713H   BLOCK     CODE     ---       LVL=0
      01007713H   LINE      CODE     ---       #662
LX51 LINKER/LOCATER V4.64.0.0                                                         01/24/2017  11:05:18  PAGE 37


      01007713H   LINE      CODE     ---       #664
      ---         BLOCKEND  ---      ---       LVL=0

      01007714H   BLOCK     CODE     ---       LVL=0
      01007714H   LINE      CODE     ---       #666
      01007714H   LINE      CODE     ---       #668
      ---         BLOCKEND  ---      ---       LVL=0

      01007715H   BLOCK     CODE     ---       LVL=0
      01007715H   LINE      CODE     ---       #674
      01007715H   LINE      CODE     ---       #676
      ---         BLOCKEND  ---      ---       LVL=0

      0100725FH   BLOCK     CODE     ---       LVL=0
      0100725FH   LINE      CODE     ---       #678
      0100725FH   LINE      CODE     ---       #681
      01007267H   LINE      CODE     ---       #683
      0100726BH   LINE      CODE     ---       #684
      0100726BH   LINE      CODE     ---       #685
      01007274H   LINE      CODE     ---       #686
      01007275H   LINE      CODE     ---       #687
      01007275H   LINE      CODE     ---       #688
      0100727EH   LINE      CODE     ---       #689
      0100727EH   LINE      CODE     ---       #690
      ---         BLOCKEND  ---      ---       LVL=0

      01007458H   BLOCK     CODE     ---       LVL=0
      01007458H   BLOCK     CODE     NEAR LAB  LVL=1
      02000588H   SYMBOL    XDATA    ---       packet_data
      ---         BLOCKEND  ---      ---       LVL=1
      01007458H   LINE      CODE     ---       #692
      01007458H   LINE      CODE     ---       #697
      0100745DH   LINE      CODE     ---       #700
      0100745FH   LINE      CODE     ---       #703
      0100746BH   LINE      CODE     ---       #704
      ---         BLOCKEND  ---      ---       LVL=0

      01006E91H   BLOCK     CODE     ---       LVL=0
      01006E91H   LINE      CODE     ---       #706
      01006E91H   LINE      CODE     ---       #708
      01006E9AH   LINE      CODE     ---       #710
      01006E9FH   LINE      CODE     ---       #711
      01006EA4H   LINE      CODE     ---       #712
      01006EA5H   LINE      CODE     ---       #713
      01006EA5H   LINE      CODE     ---       #715
      01006EAEH   LINE      CODE     ---       #716
      01006EB1H   LINE      CODE     ---       #721
      01006EC9H   LINE      CODE     ---       #722
      01006ECCH   LINE      CODE     ---       #723
      01006ED1H   LINE      CODE     ---       #724
      01006ED1H   LINE      CODE     ---       #725
      ---         BLOCKEND  ---      ---       LVL=0

      01007716H   BLOCK     CODE     ---       LVL=0
      01007716H   LINE      CODE     ---       #727
      01007716H   LINE      CODE     ---       #729
      ---         BLOCKEND  ---      ---       LVL=0

      01007404H   BLOCK     CODE     ---       LVL=0
      01007404H   LINE      CODE     ---       #731
      01007404H   LINE      CODE     ---       #733
      0100740DH   LINE      CODE     ---       #734
      01007413H   LINE      CODE     ---       #736
      01007418H   LINE      CODE     ---       #737
      ---         BLOCKEND  ---      ---       LVL=0
LX51 LINKER/LOCATER V4.64.0.0                                                         01/24/2017  11:05:18  PAGE 38



      01007717H   BLOCK     CODE     ---       LVL=0
      01007717H   LINE      CODE     ---       #739
      01007717H   LINE      CODE     ---       #741
      ---         BLOCKEND  ---      ---       LVL=0

      0100548AH   BLOCK     CODE     ---       LVL=0
      0100548AH   BLOCK     CODE     NEAR LAB  LVL=1
      02000588H   SYMBOL    XDATA    BYTE      k_imu
      02000589H   SYMBOL    XDATA    BYTE      c
      0200058AH   SYMBOL    XDATA    BYTE      k
      0200058BH   SYMBOL    XDATA    BYTE      gl_c
      0200058CH   SYMBOL    XDATA    ---       packet_data
      020006EAH   SYMBOL    XDATA    ---       single_packet
      ---         BLOCKEND  ---      ---       LVL=1
      0100548AH   LINE      CODE     ---       #743
      0100548AH   LINE      CODE     ---       #747
      01005490H   LINE      CODE     ---       #748
      01005493H   LINE      CODE     ---       #749
      01005496H   LINE      CODE     ---       #759
      0100549AH   LINE      CODE     ---       #761
      010054B0H   LINE      CODE     ---       #762
      010054B0H   LINE      CODE     ---       #764
      010054B6H   LINE      CODE     ---       #765
      010054D1H   LINE      CODE     ---       #766
      010054FCH   LINE      CODE     ---       #767
      0100551FH   LINE      CODE     ---       #768
      01005545H   LINE      CODE     ---       #769
      0100554CH   LINE      CODE     ---       #770
      0100554CH   LINE      CODE     ---       #771
      0100556BH   LINE      CODE     ---       #772
      01005596H   LINE      CODE     ---       #773
      010055B9H   LINE      CODE     ---       #774
      010055DCH   LINE      CODE     ---       #775
      010055E3H   LINE      CODE     ---       #776
      010055E3H   LINE      CODE     ---       #777
      01005602H   LINE      CODE     ---       #778
      0100562DH   LINE      CODE     ---       #779
      01005650H   LINE      CODE     ---       #780
      01005673H   LINE      CODE     ---       #781
      0100567AH   LINE      CODE     ---       #782
      0100567AH   LINE      CODE     ---       #783
      01005699H   LINE      CODE     ---       #784
      010056BFH   LINE      CODE     ---       #785
      010056C6H   LINE      CODE     ---       #786
      010056C6H   LINE      CODE     ---       #787
      010056EFH   LINE      CODE     ---       #788
      010056F5H   LINE      CODE     ---       #790
      01005728H   LINE      CODE     ---       #791
      0100574BH   LINE      CODE     ---       #792
      01005753H   LINE      CODE     ---       #793
      01005769H   LINE      CODE     ---       #795
      01005778H   LINE      CODE     ---       #797
      01005781H   LINE      CODE     ---       #800
      010057A5H   LINE      CODE     ---       #801
      010057AEH   LINE      CODE     ---       #804
      ---         BLOCKEND  ---      ---       LVL=0

      ---         MODULE    ---      ---       GLOBALS
      02000582H   PUBLIC    XDATA    BYTE      dev_pwm_limit
      00000021H.5 PUBLIC    BIT      BIT       tension_valid
      02000580H   PUBLIC    XDATA    INT       frsAccReg
      0200052BH   PUBLIC    XDATA    ---       IMU_conf
      00000021H.4 PUBLIC    BIT      BIT       interrupt_flag
      0200052AH   PUBLIC    XDATA    CHAR      pwm_sign
LX51 LINKER/LOCATER V4.64.0.0                                                         01/24/2017  11:05:18  PAGE 39


      02000528H   PUBLIC    XDATA    ---       ADC_buf
      02000526H   PUBLIC    XDATA    INT       imus_data_size
      020004C0H   PUBLIC    XDATA    ---       Accel
      020004BCH   PUBLIC    XDATA    FLOAT     tau_feedback
      020004B8H   PUBLIC    XDATA    DWORD     timer_value0
      00000021H.3 PUBLIC    BIT      BIT       watchdog_flag
      020004B7H   PUBLIC    XDATA    BYTE      rateGyro
      02000495H   PUBLIC    XDATA    ---       single_imu_size
      02000330H   PUBLIC    XDATA    ---       g_imuNew
      00000021H.2 PUBLIC    BIT      BIT       reset_last_value_flag
      0200032FH   PUBLIC    XDATA    BYTE      rateAcc
      020002AAH   PUBLIC    XDATA    ---       g_rx
      02000277H   PUBLIC    XDATA    ---       MagCal
      02000273H   PUBLIC    XDATA    LONG      dev_tension
      0200026FH   PUBLIC    XDATA    DWORD     timer_value
      02000209H   PUBLIC    XDATA    ---       Gyro
      020001E7H   PUBLIC    XDATA    ---       Temp
      02000181H   PUBLIC    XDATA    ---       Mag
      02000180H   PUBLIC    XDATA    BYTE      N_IMU_Connected
      0200001BH   PUBLIC    XDATA    ---       g_imu
      02000019H   PUBLIC    XDATA    INT       frsGyroReg
      02000015H   PUBLIC    XDATA    ---       g_mem
      02000004H   PUBLIC    XDATA    ---       IMU_connected
      02000000H   PUBLIC    XDATA    ---       c_mem
      000000CAH   SFRSYM    DATA     BYTE      SFRPRT5SEL
      000000DAH   SFRSYM    DATA     BYTE      SFRPRT6SEL
      000000D0H.6 SFRSYM    DATA     BIT       AC
      000000A8H.7 SFRSYM    DATA     BIT       EA
      000000A8H   SFRSYM    DATA     BYTE      IE
      00000085H   SFRSYM    DATA     BYTE      DPH1
      00000084H   SFRSYM    DATA     BYTE      DPL1
      000000D0H.7 SFRSYM    DATA     BIT       CY
      000000A0H   SFRSYM    DATA     BYTE      P2AX
      00000095H   SFRSYM    DATA     BYTE      DPX1
      00000081H   SFRSYM    DATA     BYTE      SP
      000000D0H.2 SFRSYM    DATA     BIT       OV
      00000080H   SFRSYM    DATA     BYTE      SFRPRT0DR
      00000090H   SFRSYM    DATA     BYTE      SFRPRT1DR
      000000F2H   SFRSYM    DATA     BYTE      SFRPRT12SEL
      00000098H   SFRSYM    DATA     BYTE      SFRPRT2DR
      000000B0H   SFRSYM    DATA     BYTE      SFRPRT3DR
      000000C0H   SFRSYM    DATA     BYTE      SFRPRT4DR
      000000FAH   SFRSYM    DATA     BYTE      SFRPRT15SEL
      000000C8H   SFRSYM    DATA     BYTE      SFRPRT5DR
      000000D8H   SFRSYM    DATA     BYTE      SFRPRT6DR
      00000089H   SFRSYM    DATA     BYTE      SFRPRT0PS
      00000091H   SFRSYM    DATA     BYTE      SFRPRT1PS
      00000099H   SFRSYM    DATA     BYTE      SFRPRT2PS
      000000B1H   SFRSYM    DATA     BYTE      SFRPRT3PS
      000000C1H   SFRSYM    DATA     BYTE      SFRPRT4PS
      000000C9H   SFRSYM    DATA     BYTE      SFRPRT5PS
      000000D9H   SFRSYM    DATA     BYTE      SFRPRT6PS
      000000EAH   SFRSYM    DATA     BYTE      MXAX
      000000F0H   SFRSYM    DATA     BYTE      B
      000000E0H   SFRSYM    DATA     BYTE      ACC
      000000D0H   SFRSYM    DATA     BIT       P
      000000D0H.3 SFRSYM    DATA     BIT       RS0
      000000D0H.4 SFRSYM    DATA     BIT       RS1
      00000083H   SFRSYM    DATA     BYTE      DPH
      000000E8H   SFRSYM    DATA     BYTE      SFRPRT12DR
      00000082H   SFRSYM    DATA     BYTE      DPL
      000000F8H   SFRSYM    DATA     BYTE      SFRPRT15DR
      00000086H   SFRSYM    DATA     BYTE      DPS
      000000E9H   SFRSYM    DATA     BYTE      SFRPRT12PS
      00000093H   SFRSYM    DATA     BYTE      DPX
LX51 LINKER/LOCATER V4.64.0.0                                                         01/24/2017  11:05:18  PAGE 40


      000000F9H   SFRSYM    DATA     BYTE      SFRPRT15PS
      000000D0H.5 SFRSYM    DATA     BIT       F0
      000000D0H.1 SFRSYM    DATA     BIT       F1
      0000008AH   SFRSYM    DATA     BYTE      SFRPRT0SEL
      000000D0H   SFRSYM    DATA     BYTE      PSW
      000000A2H   SFRSYM    DATA     BYTE      SFRPRT1SEL
      0000009AH   SFRSYM    DATA     BYTE      SFRPRT2SEL
      000000B2H   SFRSYM    DATA     BYTE      SFRPRT3SEL
      000000C2H   SFRSYM    DATA     BYTE      SFRPRT4SEL

      ---         MODULE    ---      ---       INTERRUPTIONS
      01006E09H   PUBLIC    CODE     ---       function_scheduler
      01005A27H   PUBLIC    CODE     ---       interrupt_manager
      0100770BH   PUBLIC    CODE     ---       ISR_RS485_RX_ExInterrupt
      01007708H   PUBLIC    CODE     ---       ISR_WATCHDOG_Handler
      000000CAH   SFRSYM    DATA     BYTE      SFRPRT5SEL
      000000DAH   SFRSYM    DATA     BYTE      SFRPRT6SEL
      000000D0H.6 SFRSYM    DATA     BIT       AC
      000000A8H.7 SFRSYM    DATA     BIT       EA
      000000A8H   SFRSYM    DATA     BYTE      IE
      00000085H   SFRSYM    DATA     BYTE      DPH1
      00000084H   SFRSYM    DATA     BYTE      DPL1
      000000D0H.7 SFRSYM    DATA     BIT       CY
      000000A0H   SFRSYM    DATA     BYTE      P2AX
      00000095H   SFRSYM    DATA     BYTE      DPX1
      00000081H   SFRSYM    DATA     BYTE      SP
      000000D0H.2 SFRSYM    DATA     BIT       OV
      00000080H   SFRSYM    DATA     BYTE      SFRPRT0DR
      00000090H   SFRSYM    DATA     BYTE      SFRPRT1DR
      000000F2H   SFRSYM    DATA     BYTE      SFRPRT12SEL
      00000098H   SFRSYM    DATA     BYTE      SFRPRT2DR
      000000B0H   SFRSYM    DATA     BYTE      SFRPRT3DR
      000000C0H   SFRSYM    DATA     BYTE      SFRPRT4DR
      000000FAH   SFRSYM    DATA     BYTE      SFRPRT15SEL
      000000C8H   SFRSYM    DATA     BYTE      SFRPRT5DR
      000000D8H   SFRSYM    DATA     BYTE      SFRPRT6DR
      00000089H   SFRSYM    DATA     BYTE      SFRPRT0PS
      00000091H   SFRSYM    DATA     BYTE      SFRPRT1PS
      00000099H   SFRSYM    DATA     BYTE      SFRPRT2PS
      000000B1H   SFRSYM    DATA     BYTE      SFRPRT3PS
      000000C1H   SFRSYM    DATA     BYTE      SFRPRT4PS
      000000C9H   SFRSYM    DATA     BYTE      SFRPRT5PS
      000000D9H   SFRSYM    DATA     BYTE      SFRPRT6PS
      000000EAH   SFRSYM    DATA     BYTE      MXAX
      000000F0H   SFRSYM    DATA     BYTE      B
      000000E0H   SFRSYM    DATA     BYTE      ACC
      000000D0H   SFRSYM    DATA     BIT       P
      000000D0H.3 SFRSYM    DATA     BIT       RS0
      000000D0H.4 SFRSYM    DATA     BIT       RS1
      00000083H   SFRSYM    DATA     BYTE      DPH
      000000E8H   SFRSYM    DATA     BYTE      SFRPRT12DR
      00000082H   SFRSYM    DATA     BYTE      DPL
      000000F8H   SFRSYM    DATA     BYTE      SFRPRT15DR
      00000086H   SFRSYM    DATA     BYTE      DPS
      000000E9H   SFRSYM    DATA     BYTE      SFRPRT12PS
      00000093H   SFRSYM    DATA     BYTE      DPX
      000000F9H   SFRSYM    DATA     BYTE      SFRPRT15PS
      000000D0H.5 SFRSYM    DATA     BIT       F0
      000000D0H.1 SFRSYM    DATA     BIT       F1
      0000008AH   SFRSYM    DATA     BYTE      SFRPRT0SEL
      000000D0H   SFRSYM    DATA     BYTE      PSW
      000000A2H   SFRSYM    DATA     BYTE      SFRPRT1SEL
      0000009AH   SFRSYM    DATA     BYTE      SFRPRT2SEL
      000000B2H   SFRSYM    DATA     BYTE      SFRPRT3SEL
      000000C2H   SFRSYM    DATA     BYTE      SFRPRT4SEL
LX51 LINKER/LOCATER V4.64.0.0                                                         01/24/2017  11:05:18  PAGE 41



      01007708H   BLOCK     CODE     ---       LVL=0
      01007708H   LINE      CODE     ---       #41
      01007708H   LINE      CODE     ---       #45
      0100770AH   LINE      CODE     ---       #47
      ---         BLOCKEND  ---      ---       LVL=0

      0100770BH   BLOCK     CODE     ---       LVL=0
      0100770BH   LINE      CODE     ---       #53
      0100770BH   LINE      CODE     ---       #57
      0100770DH   LINE      CODE     ---       #59
      ---         BLOCKEND  ---      ---       LVL=0

      01005A27H   BLOCK     CODE     ---       LVL=0
      01005A27H   BLOCK     CODE     NEAR LAB  LVL=1
      00000019H   SYMBOL    DATA     BYTE      state
      0000001AH   SYMBOL    DATA     BYTE      data_packet_index
      0000001BH   SYMBOL    DATA     BYTE      data_packet_length
      0200100FH   SYMBOL    XDATA    ---       data_packet_buffer
      0000001CH   SYMBOL    DATA     ---       rx_queue
      00000008H   SYMBOL    DATA     BYTE      rx_data
      00000020H.0 SYMBOL    BIT      BIT       rx_data_type
      00000009H   SYMBOL    DATA     BYTE      package_count
      ---         BLOCKEND  ---      ---       LVL=1
      01005A27H   LINE      CODE     ---       #76
      01005A27H   LINE      CODE     ---       #92
      01005A2AH   LINE      CODE     ---       #98
      01005A3DH   LINE      CODE     ---       #102
      01005A42H   LINE      CODE     ---       #104
      01005A5AH   LINE      CODE     ---       #106
      01005A5AH   LINE      CODE     ---       #108
      01005A5DH   LINE      CODE     ---       #109
      01005A60H   LINE      CODE     ---       #110
      01005A63H   LINE      CODE     ---       #113
      01005A6DH   LINE      CODE     ---       #114
      01005A70H   LINE      CODE     ---       #115
      01005A72H   LINE      CODE     ---       #116
      01005A74H   LINE      CODE     ---       #117
      01005A77H   LINE      CODE     ---       #118
      01005A79H   LINE      CODE     ---       #119
      01005A89H   LINE      CODE     ---       #122
      01005A8EH   LINE      CODE     ---       #123
      01005A90H   LINE      CODE     ---       #126
      01005A90H   LINE      CODE     ---       #129
      01005A9CH   LINE      CODE     ---       #130
      01005AA0H   LINE      CODE     ---       #132
      01005AA2H   LINE      CODE     ---       #134
      01005AA5H   LINE      CODE     ---       #135
      01005AA8H   LINE      CODE     ---       #136
      01005AAAH   LINE      CODE     ---       #139
      01005AAAH   LINE      CODE     ---       #142
      01005AADH   LINE      CODE     ---       #144
      01005AB4H   LINE      CODE     ---       #145
      01005AB7H   LINE      CODE     ---       #146
      01005AB9H   LINE      CODE     ---       #147
      01005AC3H   LINE      CODE     ---       #148
      01005AC6H   LINE      CODE     ---       #149
      01005AC8H   LINE      CODE     ---       #150
      01005ACBH   LINE      CODE     ---       #151
      01005ACEH   LINE      CODE     ---       #153
      01005AD1H   LINE      CODE     ---       #154
      01005AD7H   LINE      CODE     ---       #156
      01005ADAH   LINE      CODE     ---       #157
      01005ADAH   LINE      CODE     ---       #158
      01005ADDH   LINE      CODE     ---       #161
LX51 LINKER/LOCATER V4.64.0.0                                                         01/24/2017  11:05:18  PAGE 42


      01005ADDH   LINE      CODE     ---       #163
      01005AEBH   LINE      CODE     ---       #164
      01005AEDH   LINE      CODE     ---       #167
      01005AF7H   LINE      CODE     ---       #169
      01005AFAH   LINE      CODE     ---       #171
      01005B0DH   LINE      CODE     ---       #172
      01005B16H   LINE      CODE     ---       #173
      01005B1CH   LINE      CODE     ---       #174
      01005B1FH   LINE      CODE     ---       #175
      01005B1FH   LINE      CODE     ---       #177
      01005B22H   LINE      CODE     ---       #178
      01005B24H   LINE      CODE     ---       #179
      01005B26H   LINE      CODE     ---       #180
      01005B28H   LINE      CODE     ---       #182
      01005B28H   LINE      CODE     ---       #183
      01005B2BH   LINE      CODE     ---       #186
      01005B2BH   LINE      CODE     ---       #187
      01005B34H   LINE      CODE     ---       #188
      01005B36H   LINE      CODE     ---       #189
      01005B38H   LINE      CODE     ---       #190
      01005B3DH   LINE      CODE     ---       #191
      01005B42H   LINE      CODE     ---       #192
      01005B45H   LINE      CODE     ---       #193
      01005B47H   LINE      CODE     ---       #194
      01005B47H   LINE      CODE     ---       #195
      01005B4AH   LINE      CODE     ---       #196
      01005B4AH   LINE      CODE     ---       #197
      01005B4DH   LINE      CODE     ---       #198
      ---         BLOCKEND  ---      ---       LVL=0

      01006E09H   BLOCK     CODE     ---       LVL=0
      01006E09H   BLOCK     CODE     NEAR LAB  LVL=1
      0200108FH   SYMBOL    XDATA    WORD      counter_calibration
      ---         BLOCKEND  ---      ---       LVL=1
      01006E09H   LINE      CODE     ---       #207
      01006E09H   LINE      CODE     ---       #211
      01006E12H   LINE      CODE     ---       #215
      01006E15H   LINE      CODE     ---       #216
      01006E17H   LINE      CODE     ---       #217
      01006E1AH   LINE      CODE     ---       #218
      01006E1AH   LINE      CODE     ---       #220
      01006E1DH   LINE      CODE     ---       #232
      01006E30H   LINE      CODE     ---       #234
      01006E33H   LINE      CODE     ---       #235
      01006E35H   LINE      CODE     ---       #236
      01006E38H   LINE      CODE     ---       #237
      01006E38H   LINE      CODE     ---       #239
      01006E41H   LINE      CODE     ---       #240
      01006E4CH   LINE      CODE     ---       #242
      ---         BLOCKEND  ---      ---       LVL=0

      ---         MODULE    ---      ---       MAIN
      01006441H   PUBLIC    CODE     ---       main
      000000CAH   SFRSYM    DATA     BYTE      SFRPRT5SEL
      000000DAH   SFRSYM    DATA     BYTE      SFRPRT6SEL
      000000D0H.6 SFRSYM    DATA     BIT       AC
      000000A8H.7 SFRSYM    DATA     BIT       EA
      000000A8H   SFRSYM    DATA     BYTE      IE
      00000085H   SFRSYM    DATA     BYTE      DPH1
      00000084H   SFRSYM    DATA     BYTE      DPL1
      000000D0H.7 SFRSYM    DATA     BIT       CY
      000000A0H   SFRSYM    DATA     BYTE      P2AX
      00000095H   SFRSYM    DATA     BYTE      DPX1
      00000081H   SFRSYM    DATA     BYTE      SP
      000000D0H.2 SFRSYM    DATA     BIT       OV
LX51 LINKER/LOCATER V4.64.0.0                                                         01/24/2017  11:05:18  PAGE 43


      00000080H   SFRSYM    DATA     BYTE      SFRPRT0DR
      00000090H   SFRSYM    DATA     BYTE      SFRPRT1DR
      000000F2H   SFRSYM    DATA     BYTE      SFRPRT12SEL
      00000098H   SFRSYM    DATA     BYTE      SFRPRT2DR
      000000B0H   SFRSYM    DATA     BYTE      SFRPRT3DR
      000000C0H   SFRSYM    DATA     BYTE      SFRPRT4DR
      000000FAH   SFRSYM    DATA     BYTE      SFRPRT15SEL
      000000C8H   SFRSYM    DATA     BYTE      SFRPRT5DR
      000000D8H   SFRSYM    DATA     BYTE      SFRPRT6DR
      00000089H   SFRSYM    DATA     BYTE      SFRPRT0PS
      00000091H   SFRSYM    DATA     BYTE      SFRPRT1PS
      00000099H   SFRSYM    DATA     BYTE      SFRPRT2PS
      000000B1H   SFRSYM    DATA     BYTE      SFRPRT3PS
      000000C1H   SFRSYM    DATA     BYTE      SFRPRT4PS
      000000C9H   SFRSYM    DATA     BYTE      SFRPRT5PS
      000000D9H   SFRSYM    DATA     BYTE      SFRPRT6PS
      000000EAH   SFRSYM    DATA     BYTE      MXAX
      000000F0H   SFRSYM    DATA     BYTE      B
      000000E0H   SFRSYM    DATA     BYTE      ACC
      000000D0H   SFRSYM    DATA     BIT       P
      000000D0H.3 SFRSYM    DATA     BIT       RS0
      000000D0H.4 SFRSYM    DATA     BIT       RS1
      00000083H   SFRSYM    DATA     BYTE      DPH
      000000E8H   SFRSYM    DATA     BYTE      SFRPRT12DR
      00000082H   SFRSYM    DATA     BYTE      DPL
      000000F8H   SFRSYM    DATA     BYTE      SFRPRT15DR
      00000086H   SFRSYM    DATA     BYTE      DPS
      000000E9H   SFRSYM    DATA     BYTE      SFRPRT12PS
      00000093H   SFRSYM    DATA     BYTE      DPX
      000000F9H   SFRSYM    DATA     BYTE      SFRPRT15PS
      000000D0H.5 SFRSYM    DATA     BIT       F0
      000000D0H.1 SFRSYM    DATA     BIT       F1
      0000008AH   SFRSYM    DATA     BYTE      SFRPRT0SEL
      000000D0H   SFRSYM    DATA     BYTE      PSW
      000000A2H   SFRSYM    DATA     BYTE      SFRPRT1SEL
      0000009AH   SFRSYM    DATA     BYTE      SFRPRT2SEL
      000000B2H   SFRSYM    DATA     BYTE      SFRPRT3SEL
      000000C2H   SFRSYM    DATA     BYTE      SFRPRT4SEL

      01006441H   BLOCK     CODE     ---       LVL=0
      01006441H   BLOCK     CODE     NEAR LAB  LVL=1
      02000583H   SYMBOL    XDATA    BYTE      i
      02000584H   SYMBOL    XDATA    BYTE      DMA_Chan
      02000585H   SYMBOL    XDATA    ---       DMA_TD
      02000586H   SYMBOL    XDATA    INT       k_imu
      ---         BLOCKEND  ---      ---       LVL=1
      01006441H   LINE      CODE     ---       #50
      01006441H   LINE      CODE     ---       #51
      01006441H   LINE      CODE     ---       #67
      01006444H   LINE      CODE     ---       #68
      01006447H   LINE      CODE     ---       #72
      01006450H   LINE      CODE     ---       #73
      01006455H   LINE      CODE     ---       #77
      01006458H   LINE      CODE     ---       #78
      0100645BH   LINE      CODE     ---       #79
      0100645EH   LINE      CODE     ---       #81
      01006461H   LINE      CODE     ---       #82
      01006464H   LINE      CODE     ---       #84
      0100646BH   LINE      CODE     ---       #88
      0100646EH   LINE      CODE     ---       #90
      01006475H   LINE      CODE     ---       #92
      0100647AH   LINE      CODE     ---       #96
      0100647DH   LINE      CODE     ---       #97
      01006480H   LINE      CODE     ---       #99
      01006488H   LINE      CODE     ---       #102
LX51 LINKER/LOCATER V4.64.0.0                                                         01/24/2017  11:05:18  PAGE 44


      0100648BH   LINE      CODE     ---       #103
      0100648EH   LINE      CODE     ---       #104
      01006491H   LINE      CODE     ---       #105
      01006494H   LINE      CODE     ---       #106
      01006497H   LINE      CODE     ---       #107
      0100649AH   LINE      CODE     ---       #108
      010064A3H   LINE      CODE     ---       #110
      010064A8H   LINE      CODE     ---       #113
      010064ABH   LINE      CODE     ---       #135
      010064B0H   LINE      CODE     ---       #136
      010064B2H   LINE      CODE     ---       #138
      010064B4H   LINE      CODE     ---       #141
      010064BAH   LINE      CODE     ---       #142
      010064BEH   LINE      CODE     ---       #146
      010064BEH   LINE      CODE     ---       #147
      010064BEH   LINE      CODE     ---       #149
      010064C3H   LINE      CODE     ---       #152
      010064C6H   LINE      CODE     ---       #155
      010064CCH   LINE      CODE     ---       #157
      010064CFH   LINE      CODE     ---       #159
      010064D4H   LINE      CODE     ---       #161
      010064D6H   LINE      CODE     ---       #162
      010064D8H   LINE      CODE     ---       #164
      010064DBH   LINE      CODE     ---       #165
      010064DDH   LINE      CODE     ---       #167
      010064DDH   LINE      CODE     ---       #168
      010064E0H   LINE      CODE     ---       #170
      010064E5H   LINE      CODE     ---       #172
      010064E5H   LINE      CODE     ---       #173
      010064E5H   LINE      CODE     ---       #174
      010064E7H   LINE      CODE     ---       #177
      010064ECH   LINE      CODE     ---       #180
      010064F4H   LINE      CODE     ---       #182
      010064FBH   LINE      CODE     ---       #183
      010064FEH   LINE      CODE     ---       #184
      01006500H   LINE      CODE     ---       #185
      01006500H   LINE      CODE     ---       #186
      ---         BLOCKEND  ---      ---       LVL=0

      ---         MODULE    ---      ---       UTILS
      000000CAH   SFRSYM    DATA     BYTE      SFRPRT5SEL
      000000DAH   SFRSYM    DATA     BYTE      SFRPRT6SEL
      000000D0H.6 SFRSYM    DATA     BIT       AC
      000000A8H.7 SFRSYM    DATA     BIT       EA
      000000A8H   SFRSYM    DATA     BYTE      IE
      00000085H   SFRSYM    DATA     BYTE      DPH1
      00000084H   SFRSYM    DATA     BYTE      DPL1
      000000D0H.7 SFRSYM    DATA     BIT       CY
      000000A0H   SFRSYM    DATA     BYTE      P2AX
      00000095H   SFRSYM    DATA     BYTE      DPX1
      00000081H   SFRSYM    DATA     BYTE      SP
      000000D0H.2 SFRSYM    DATA     BIT       OV
      00000080H   SFRSYM    DATA     BYTE      SFRPRT0DR
      00000090H   SFRSYM    DATA     BYTE      SFRPRT1DR
      000000F2H   SFRSYM    DATA     BYTE      SFRPRT12SEL
      00000098H   SFRSYM    DATA     BYTE      SFRPRT2DR
      000000B0H   SFRSYM    DATA     BYTE      SFRPRT3DR
      000000C0H   SFRSYM    DATA     BYTE      SFRPRT4DR
      000000FAH   SFRSYM    DATA     BYTE      SFRPRT15SEL
      000000C8H   SFRSYM    DATA     BYTE      SFRPRT5DR
      000000D8H   SFRSYM    DATA     BYTE      SFRPRT6DR
      00000089H   SFRSYM    DATA     BYTE      SFRPRT0PS
      00000091H   SFRSYM    DATA     BYTE      SFRPRT1PS
      00000099H   SFRSYM    DATA     BYTE      SFRPRT2PS
      000000B1H   SFRSYM    DATA     BYTE      SFRPRT3PS
LX51 LINKER/LOCATER V4.64.0.0                                                         01/24/2017  11:05:18  PAGE 45


      000000C1H   SFRSYM    DATA     BYTE      SFRPRT4PS
      000000C9H   SFRSYM    DATA     BYTE      SFRPRT5PS
      000000D9H   SFRSYM    DATA     BYTE      SFRPRT6PS
      000000EAH   SFRSYM    DATA     BYTE      MXAX
      000000F0H   SFRSYM    DATA     BYTE      B
      000000E0H   SFRSYM    DATA     BYTE      ACC
      000000D0H   SFRSYM    DATA     BIT       P
      000000D0H.3 SFRSYM    DATA     BIT       RS0
      000000D0H.4 SFRSYM    DATA     BIT       RS1
      00000083H   SFRSYM    DATA     BYTE      DPH
      000000E8H   SFRSYM    DATA     BYTE      SFRPRT12DR
      00000082H   SFRSYM    DATA     BYTE      DPL
      000000F8H   SFRSYM    DATA     BYTE      SFRPRT15DR
      00000086H   SFRSYM    DATA     BYTE      DPS
      000000E9H   SFRSYM    DATA     BYTE      SFRPRT12PS
      00000093H   SFRSYM    DATA     BYTE      DPX
      000000F9H   SFRSYM    DATA     BYTE      SFRPRT15PS
      000000D0H.5 SFRSYM    DATA     BIT       F0
      000000D0H.1 SFRSYM    DATA     BIT       F1
      0000008AH   SFRSYM    DATA     BYTE      SFRPRT0SEL
      000000D0H   SFRSYM    DATA     BYTE      PSW
      000000A2H   SFRSYM    DATA     BYTE      SFRPRT1SEL
      0000009AH   SFRSYM    DATA     BYTE      SFRPRT2SEL
      000000B2H   SFRSYM    DATA     BYTE      SFRPRT3SEL
      000000C2H   SFRSYM    DATA     BYTE      SFRPRT4SEL
      00000004H   SYMBOL    DATA     LONG      new_value
      020010FBH   SYMBOL    XDATA    LONG      old_value
      020010FFH   SYMBOL    XDATA    LONG      aux
      00000004H   SYMBOL    DATA     LONG      new_value
      02001103H   SYMBOL    XDATA    LONG      old_value
      02001107H   SYMBOL    XDATA    LONG      aux
      00000004H   SYMBOL    DATA     LONG      new_value
      0200110BH   SYMBOL    XDATA    LONG      old_value
      0200110FH   SYMBOL    XDATA    LONG      aux
      00000004H   SYMBOL    DATA     LONG      new_value
      02001113H   SYMBOL    XDATA    LONG      old_value
      02001117H   SYMBOL    XDATA    LONG      aux
      00000001H   SYMBOL    DATA     ---       value
      00000004H   SYMBOL    DATA     LONG      x
      00000004H   SYMBOL    DATA     LONG      aux

      ---         MODULE    ---      ---       IMU_FUNCTIONS
      010073ACH   PUBLIC    CODE     ---       _ReadControlRegister
      0100709EH   PUBLIC    CODE     ---       _WriteControlRegister
      01006B91H   PUBLIC    CODE     ---       _ReadTemp
      01004DA2H   PUBLIC    CODE     ---       ReadAllIMUs
      010068BDH   PUBLIC    CODE     ---       _ReadMagCal
      0100608AH   PUBLIC    CODE     ---       _ReadMag
      01005F8FH   PUBLIC    CODE     ---       _ReadGyro
      01005E94H   PUBLIC    CODE     ---       _ReadAcc
      010067ACH   PUBLIC    CODE     ---       _ReadIMU
      0100511DH   PUBLIC    CODE     ---       InitIMUgeneral
      01006D79H   PUBLIC    CODE     ---       _ChipSelector
      01006271H   PUBLIC    CODE     ---       InitIMUMagCal
      01006180H   PUBLIC    CODE     ---       InitIMU
      000000CAH   SFRSYM    DATA     BYTE      SFRPRT5SEL
      000000DAH   SFRSYM    DATA     BYTE      SFRPRT6SEL
      000000D0H.6 SFRSYM    DATA     BIT       AC
      000000A8H.7 SFRSYM    DATA     BIT       EA
      000000A8H   SFRSYM    DATA     BYTE      IE
      00000085H   SFRSYM    DATA     BYTE      DPH1
      00000084H   SFRSYM    DATA     BYTE      DPL1
      000000D0H.7 SFRSYM    DATA     BIT       CY
      000000A0H   SFRSYM    DATA     BYTE      P2AX
      00000095H   SFRSYM    DATA     BYTE      DPX1
LX51 LINKER/LOCATER V4.64.0.0                                                         01/24/2017  11:05:18  PAGE 46


      00000081H   SFRSYM    DATA     BYTE      SP
      000000D0H.2 SFRSYM    DATA     BIT       OV
      00000080H   SFRSYM    DATA     BYTE      SFRPRT0DR
      00000090H   SFRSYM    DATA     BYTE      SFRPRT1DR
      000000F2H   SFRSYM    DATA     BYTE      SFRPRT12SEL
      00000098H   SFRSYM    DATA     BYTE      SFRPRT2DR
      000000B0H   SFRSYM    DATA     BYTE      SFRPRT3DR
      000000C0H   SFRSYM    DATA     BYTE      SFRPRT4DR
      000000FAH   SFRSYM    DATA     BYTE      SFRPRT15SEL
      000000C8H   SFRSYM    DATA     BYTE      SFRPRT5DR
      000000D8H   SFRSYM    DATA     BYTE      SFRPRT6DR
      00000089H   SFRSYM    DATA     BYTE      SFRPRT0PS
      00000091H   SFRSYM    DATA     BYTE      SFRPRT1PS
      00000099H   SFRSYM    DATA     BYTE      SFRPRT2PS
      000000B1H   SFRSYM    DATA     BYTE      SFRPRT3PS
      000000C1H   SFRSYM    DATA     BYTE      SFRPRT4PS
      000000C9H   SFRSYM    DATA     BYTE      SFRPRT5PS
      000000D9H   SFRSYM    DATA     BYTE      SFRPRT6PS
      000000EAH   SFRSYM    DATA     BYTE      MXAX
      000000F0H   SFRSYM    DATA     BYTE      B
      000000E0H   SFRSYM    DATA     BYTE      ACC
      000000D0H   SFRSYM    DATA     BIT       P
      000000D0H.3 SFRSYM    DATA     BIT       RS0
      000000D0H.4 SFRSYM    DATA     BIT       RS1
      00000083H   SFRSYM    DATA     BYTE      DPH
      000000E8H   SFRSYM    DATA     BYTE      SFRPRT12DR
      00000082H   SFRSYM    DATA     BYTE      DPL
      000000F8H   SFRSYM    DATA     BYTE      SFRPRT15DR
      00000086H   SFRSYM    DATA     BYTE      DPS
      000000E9H   SFRSYM    DATA     BYTE      SFRPRT12PS
      00000093H   SFRSYM    DATA     BYTE      DPX
      000000F9H   SFRSYM    DATA     BYTE      SFRPRT15PS
      000000D0H.5 SFRSYM    DATA     BIT       F0
      000000D0H.1 SFRSYM    DATA     BIT       F1
      0000008AH   SFRSYM    DATA     BYTE      SFRPRT0SEL
      000000D0H   SFRSYM    DATA     BYTE      PSW
      000000A2H   SFRSYM    DATA     BYTE      SFRPRT1SEL
      0000009AH   SFRSYM    DATA     BYTE      SFRPRT2SEL
      000000B2H   SFRSYM    DATA     BYTE      SFRPRT3SEL
      000000C2H   SFRSYM    DATA     BYTE      SFRPRT4SEL

      01006180H   BLOCK     CODE     ---       LVL=0
      01006180H   LINE      CODE     ---       #45
      01006180H   LINE      CODE     ---       #47
      01006187H   LINE      CODE     ---       #48
      01006190H   LINE      CODE     ---       #49
      01006197H   LINE      CODE     ---       #50
      010061A0H   LINE      CODE     ---       #51
      010061A7H   LINE      CODE     ---       #52
      010061B0H   LINE      CODE     ---       #53
      010061B7H   LINE      CODE     ---       #54
      010061C0H   LINE      CODE     ---       #55
      010061C7H   LINE      CODE     ---       #56
      010061D0H   LINE      CODE     ---       #57
      010061D7H   LINE      CODE     ---       #58
      010061E0H   LINE      CODE     ---       #60
      010061E7H   LINE      CODE     ---       #61
      010061F0H   LINE      CODE     ---       #63
      010061F7H   LINE      CODE     ---       #64
      01006200H   LINE      CODE     ---       #65
      01006207H   LINE      CODE     ---       #66
      01006210H   LINE      CODE     ---       #68
      01006217H   LINE      CODE     ---       #69
      01006220H   LINE      CODE     ---       #70
      01006227H   LINE      CODE     ---       #71
LX51 LINKER/LOCATER V4.64.0.0                                                         01/24/2017  11:05:18  PAGE 47


      01006230H   LINE      CODE     ---       #73
      01006237H   LINE      CODE     ---       #74
      01006240H   LINE      CODE     ---       #76
      01006247H   LINE      CODE     ---       #77
      01006250H   LINE      CODE     ---       #79
      01006257H   LINE      CODE     ---       #80
      01006260H   LINE      CODE     ---       #81
      01006267H   LINE      CODE     ---       #82
      01006270H   LINE      CODE     ---       #83
      ---         BLOCKEND  ---      ---       LVL=0

      01006271H   BLOCK     CODE     ---       LVL=0
      01006271H   LINE      CODE     ---       #88
      01006271H   LINE      CODE     ---       #90
      01006278H   LINE      CODE     ---       #91
      01006281H   LINE      CODE     ---       #92
      01006288H   LINE      CODE     ---       #93
      01006291H   LINE      CODE     ---       #94
      01006298H   LINE      CODE     ---       #95
      010062A1H   LINE      CODE     ---       #96
      010062A8H   LINE      CODE     ---       #97
      010062B1H   LINE      CODE     ---       #98
      010062B8H   LINE      CODE     ---       #99
      010062C1H   LINE      CODE     ---       #100
      010062C8H   LINE      CODE     ---       #101
      010062D1H   LINE      CODE     ---       #103
      010062D8H   LINE      CODE     ---       #104
      010062E1H   LINE      CODE     ---       #106
      010062E8H   LINE      CODE     ---       #107
      010062F1H   LINE      CODE     ---       #108
      010062F8H   LINE      CODE     ---       #109
      01006301H   LINE      CODE     ---       #110
      01006308H   LINE      CODE     ---       #111
      01006311H   LINE      CODE     ---       #112
      01006318H   LINE      CODE     ---       #113
      01006321H   LINE      CODE     ---       #115
      01006328H   LINE      CODE     ---       #116
      01006331H   LINE      CODE     ---       #117
      01006338H   LINE      CODE     ---       #118
      01006341H   LINE      CODE     ---       #119
      01006348H   LINE      CODE     ---       #120
      01006351H   LINE      CODE     ---       #121
      01006358H   LINE      CODE     ---       #122
      01006361H   LINE      CODE     ---       #123
      ---         BLOCKEND  ---      ---       LVL=0

      01006D79H   BLOCK     CODE     ---       LVL=0
      02000A55H   SYMBOL    XDATA    INT       n
      01006D79H   LINE      CODE     ---       #128
      01006D81H   LINE      CODE     ---       #129
      01006D81H   LINE      CODE     ---       #130
      01006D86H   LINE      CODE     ---       #131
      01006D8BH   LINE      CODE     ---       #133
      01006D9DH   LINE      CODE     ---       #134
      01006DA0H   LINE      CODE     ---       #135
      01006DACH   LINE      CODE     ---       #136
      01006DB0H   LINE      CODE     ---       #137
      01006DBCH   LINE      CODE     ---       #138
      01006DC1H   LINE      CODE     ---       #139
      ---         BLOCKEND  ---      ---       LVL=0

      0100511DH   BLOCK     CODE     ---       LVL=0
      0100511DH   BLOCK     CODE     NEAR LAB  LVL=1
      02000588H   SYMBOL    XDATA    BYTE      k_imu
      02000589H   SYMBOL    XDATA    BYTE      count
LX51 LINKER/LOCATER V4.64.0.0                                                         01/24/2017  11:05:18  PAGE 48


      0200058AH   SYMBOL    XDATA    INT       IMU_ack
      0200058CH   SYMBOL    XDATA    ---       tmp
      ---         BLOCKEND  ---      ---       LVL=1
      0100511DH   LINE      CODE     ---       #144
      0100511DH   LINE      CODE     ---       #145
      0100511DH   LINE      CODE     ---       #147
      01005122H   LINE      CODE     ---       #152
      0100512FH   LINE      CODE     ---       #153
      0100513EH   LINE      CODE     ---       #157
      0100514DH   LINE      CODE     ---       #158
      0100514DH   LINE      CODE     ---       #159
      01005152H   LINE      CODE     ---       #160
      0100515BH   LINE      CODE     ---       #161
      0100515EH   LINE      CODE     ---       #162
      01005167H   LINE      CODE     ---       #163
      0100517CH   LINE      CODE     ---       #164
      0100518DH   LINE      CODE     ---       #165
      0100519DH   LINE      CODE     ---       #166
      010051ADH   LINE      CODE     ---       #167
      010051BEH   LINE      CODE     ---       #168
      010051C7H   LINE      CODE     ---       #171
      010051D0H   LINE      CODE     ---       #172
      010051DFH   LINE      CODE     ---       #173
      010051E4H   LINE      CODE     ---       #174
      010051EEH   LINE      CODE     ---       #175
      010051F6H   LINE      CODE     ---       #178
      010051FCH   LINE      CODE     ---       #179
      01005205H   LINE      CODE     ---       #180
      01005212H   LINE      CODE     ---       #181
      01005219H   LINE      CODE     ---       #182
      0100521DH   LINE      CODE     ---       #183
      0100522BH   LINE      CODE     ---       #184
      0100522BH   LINE      CODE     ---       #185
      01005230H   LINE      CODE     ---       #186
      01005239H   LINE      CODE     ---       #187
      01005248H   LINE      CODE     ---       #188
      0100524CH   LINE      CODE     ---       #189
      0100524CH   LINE      CODE     ---       #190
      01005252H   LINE      CODE     ---       #191
      01005259H   LINE      CODE     ---       #192
      0100526DH   LINE      CODE     ---       #193
      0100526FH   LINE      CODE     ---       #195
      01005282H   LINE      CODE     ---       #196
      0100528AH   LINE      CODE     ---       #197
      01005299H   LINE      CODE     ---       #198
      010052A8H   LINE      CODE     ---       #199
      010052B7H   LINE      CODE     ---       #200
      010052C6H   LINE      CODE     ---       #201
      010052C6H   LINE      CODE     ---       #202
      010052DBH   LINE      CODE     ---       #203
      010052DBH   LINE      CODE     ---       #204
      010052ECH   LINE      CODE     ---       #205
      010052F2H   LINE      CODE     ---       #206
      010052F2H   LINE      CODE     ---       #207
      010052FAH   LINE      CODE     ---       #210
      010052FFH   LINE      CODE     ---       #211
      01005308H   LINE      CODE     ---       #212
      0100530DH   LINE      CODE     ---       #213
      01005316H   LINE      CODE     ---       #214
      01005325H   LINE      CODE     ---       #215
      01005325H   LINE      CODE     ---       #216
      0100532AH   LINE      CODE     ---       #217
      01005333H   LINE      CODE     ---       #218
      01005336H   LINE      CODE     ---       #219
      0100533FH   LINE      CODE     ---       #220
LX51 LINKER/LOCATER V4.64.0.0                                                         01/24/2017  11:05:18  PAGE 49


      01005354H   LINE      CODE     ---       #221
      01005365H   LINE      CODE     ---       #222
      01005375H   LINE      CODE     ---       #223
      01005385H   LINE      CODE     ---       #224
      01005396H   LINE      CODE     ---       #225
      0100539FH   LINE      CODE     ---       #226
      010053A8H   LINE      CODE     ---       #229
      010053B0H   LINE      CODE     ---       #230
      010053C6H   LINE      CODE     ---       #231
      010053C6H   LINE      CODE     ---       #232
      0100544BH   LINE      CODE     ---       #233
      01005472H   LINE      CODE     ---       #234
      0100547BH   LINE      CODE     ---       #235
      01005489H   LINE      CODE     ---       #238
      ---         BLOCKEND  ---      ---       LVL=0

      010067ACH   BLOCK     CODE     ---       LVL=0
      02000A55H   SYMBOL    XDATA    INT       n
      010067ACH   LINE      CODE     ---       #243
      010067B4H   LINE      CODE     ---       #244
      010067B4H   LINE      CODE     ---       #245
      010067D4H   LINE      CODE     ---       #246
      010067F4H   LINE      CODE     ---       #247
      01006814H   LINE      CODE     ---       #249
      01006834H   LINE      CODE     ---       #250
      ---         BLOCKEND  ---      ---       LVL=0

      01005E94H   BLOCK     CODE     ---       LVL=0
      00000006H   SYMBOL    DATA     INT       n
      01005E94H   BLOCK     CODE     NEAR LAB  LVL=1
      02000A57H   SYMBOL    XDATA    BYTE      low
      02000A58H   SYMBOL    XDATA    BYTE      high
      02000A59H   SYMBOL    XDATA    INT       row
      ---         BLOCKEND  ---      ---       LVL=1
      01005E94H   LINE      CODE     ---       #255
      01005E94H   LINE      CODE     ---       #256
      01005E94H   LINE      CODE     ---       #257
      01005E9BH   LINE      CODE     ---       #259
      01005EA1H   LINE      CODE     ---       #262
      01005EABH   LINE      CODE     ---       #263
      01005EB5H   LINE      CODE     ---       #265
      01005ECFH   LINE      CODE     ---       #266
      01005EE9H   LINE      CODE     ---       #267
      01005EF0H   LINE      CODE     ---       #270
      01005EFAH   LINE      CODE     ---       #271
      01005F04H   LINE      CODE     ---       #273
      01005F1EH   LINE      CODE     ---       #274
      01005F38H   LINE      CODE     ---       #275
      01005F3FH   LINE      CODE     ---       #278
      01005F49H   LINE      CODE     ---       #279
      01005F53H   LINE      CODE     ---       #281
      01005F6DH   LINE      CODE     ---       #282
      01005F87H   LINE      CODE     ---       #283
      01005F8EH   LINE      CODE     ---       #285
      ---         BLOCKEND  ---      ---       LVL=0

      01005F8FH   BLOCK     CODE     ---       LVL=0
      00000006H   SYMBOL    DATA     INT       n
      01005F8FH   BLOCK     CODE     NEAR LAB  LVL=1
      02000A57H   SYMBOL    XDATA    BYTE      low
      02000A58H   SYMBOL    XDATA    BYTE      high
      02000A59H   SYMBOL    XDATA    INT       row
      ---         BLOCKEND  ---      ---       LVL=1
      01005F8FH   LINE      CODE     ---       #290
      01005F8FH   LINE      CODE     ---       #291
LX51 LINKER/LOCATER V4.64.0.0                                                         01/24/2017  11:05:18  PAGE 50


      01005F96H   LINE      CODE     ---       #293
      01005F9CH   LINE      CODE     ---       #296
      01005FA6H   LINE      CODE     ---       #297
      01005FB0H   LINE      CODE     ---       #299
      01005FCAH   LINE      CODE     ---       #300
      01005FE4H   LINE      CODE     ---       #301
      01005FEBH   LINE      CODE     ---       #303
      01005FF5H   LINE      CODE     ---       #304
      01005FFFH   LINE      CODE     ---       #306
      01006019H   LINE      CODE     ---       #307
      01006033H   LINE      CODE     ---       #308
      0100603AH   LINE      CODE     ---       #311
      01006044H   LINE      CODE     ---       #312
      0100604EH   LINE      CODE     ---       #314
      01006068H   LINE      CODE     ---       #315
      01006082H   LINE      CODE     ---       #317
      01006089H   LINE      CODE     ---       #318
      ---         BLOCKEND  ---      ---       LVL=0

      0100608AH   BLOCK     CODE     ---       LVL=0
      00000006H   SYMBOL    DATA     INT       n
      0100608AH   BLOCK     CODE     NEAR LAB  LVL=1
      02000A57H   SYMBOL    XDATA    BYTE      low
      02000A58H   SYMBOL    XDATA    BYTE      high
      02000A59H   SYMBOL    XDATA    INT       row
      ---         BLOCKEND  ---      ---       LVL=1
      0100608AH   LINE      CODE     ---       #322
      0100608AH   LINE      CODE     ---       #325
      01006092H   LINE      CODE     ---       #327
      0100609CH   LINE      CODE     ---       #328
      010060A6H   LINE      CODE     ---       #330
      010060C0H   LINE      CODE     ---       #331
      010060DAH   LINE      CODE     ---       #332
      010060E1H   LINE      CODE     ---       #334
      010060EBH   LINE      CODE     ---       #335
      010060F5H   LINE      CODE     ---       #337
      0100610FH   LINE      CODE     ---       #338
      01006129H   LINE      CODE     ---       #339
      01006130H   LINE      CODE     ---       #341
      0100613AH   LINE      CODE     ---       #342
      01006144H   LINE      CODE     ---       #344
      0100615EH   LINE      CODE     ---       #345
      01006178H   LINE      CODE     ---       #346
      0100617FH   LINE      CODE     ---       #347
      ---         BLOCKEND  ---      ---       LVL=0

      010068BDH   BLOCK     CODE     ---       LVL=0
      00000006H   SYMBOL    DATA     INT       n
      010068BDH   BLOCK     CODE     NEAR LAB  LVL=1
      020005AEH   SYMBOL    XDATA    BYTE      read
      020005AFH   SYMBOL    XDATA    INT       row
      ---         BLOCKEND  ---      ---       LVL=1
      010068BDH   LINE      CODE     ---       #351
      010068BDH   LINE      CODE     ---       #353
      010068C2H   LINE      CODE     ---       #354
      010068C8H   LINE      CODE     ---       #356
      010068D2H   LINE      CODE     ---       #357
      010068EBH   LINE      CODE     ---       #358
      010068F0H   LINE      CODE     ---       #360
      010068FAH   LINE      CODE     ---       #361
      01006913H   LINE      CODE     ---       #362
      01006918H   LINE      CODE     ---       #364
      01006922H   LINE      CODE     ---       #365
      0100693BH   LINE      CODE     ---       #366
      01006940H   LINE      CODE     ---       #368
LX51 LINKER/LOCATER V4.64.0.0                                                         01/24/2017  11:05:18  PAGE 51


      ---         BLOCKEND  ---      ---       LVL=0

      01004DA2H   BLOCK     CODE     ---       LVL=0
      01004DA2H   BLOCK     CODE     NEAR LAB  LVL=1
      02001136H   SYMBOL    XDATA    BYTE      k_imu
      02000588H   SYMBOL    XDATA    WORD      tmp
      ---         BLOCKEND  ---      ---       LVL=1
      01004DA2H   LINE      CODE     ---       #373
      01004DA2H   LINE      CODE     ---       #375
      01004DA9H   LINE      CODE     ---       #378
      01004DBEH   LINE      CODE     ---       #380
      01004DCFH   LINE      CODE     ---       #381
      01004DE3H   LINE      CODE     ---       #383
      01004E0AH   LINE      CODE     ---       #384
      01004E35H   LINE      CODE     ---       #385
      01004E5CH   LINE      CODE     ---       #386
      01004E87H   LINE      CODE     ---       #387
      01004EAEH   LINE      CODE     ---       #388
      01004ED9H   LINE      CODE     ---       #390
      01004F00H   LINE      CODE     ---       #391
      01004F2BH   LINE      CODE     ---       #392
      01004F52H   LINE      CODE     ---       #393
      01004F7DH   LINE      CODE     ---       #394
      01004FA4H   LINE      CODE     ---       #395
      01004FCFH   LINE      CODE     ---       #397
      01004FF6H   LINE      CODE     ---       #398
      01005021H   LINE      CODE     ---       #399
      01005048H   LINE      CODE     ---       #400
      01005073H   LINE      CODE     ---       #401
      0100509AH   LINE      CODE     ---       #402
      010050C5H   LINE      CODE     ---       #404
      010050EAH   LINE      CODE     ---       #405
      01005113H   LINE      CODE     ---       #406
      0100511CH   LINE      CODE     ---       #407
      ---         BLOCKEND  ---      ---       LVL=0

      01006B91H   BLOCK     CODE     ---       LVL=0
      00000006H   SYMBOL    DATA     INT       n
      01006B91H   BLOCK     CODE     NEAR LAB  LVL=1
      02000A57H   SYMBOL    XDATA    BYTE      low
      02000A58H   SYMBOL    XDATA    BYTE      high
      02000A59H   SYMBOL    XDATA    INT       row
      ---         BLOCKEND  ---      ---       LVL=1
      01006B91H   LINE      CODE     ---       #413
      01006B91H   LINE      CODE     ---       #414
      01006B91H   LINE      CODE     ---       #415
      01006B98H   LINE      CODE     ---       #417
      01006B9EH   LINE      CODE     ---       #420
      01006BA8H   LINE      CODE     ---       #421
      01006BB3H   LINE      CODE     ---       #423
      01006BCCH   LINE      CODE     ---       #424
      01006BDDH   LINE      CODE     ---       #425
      01006BE4H   LINE      CODE     ---       #426
      ---         BLOCKEND  ---      ---       LVL=0

      0100709EH   BLOCK     CODE     ---       LVL=0
      020005AEH   SYMBOL    XDATA    BYTE      address
      020005AFH   SYMBOL    XDATA    BYTE      dta
      0100709EH   LINE      CODE     ---       #539
      010070A6H   LINE      CODE     ---       #541
      010070A9H   LINE      CODE     ---       #542
      010070ACH   LINE      CODE     ---       #543
      010070AFH   LINE      CODE     ---       #544
      010070B7H   LINE      CODE     ---       #545
      010070BEH   LINE      CODE     ---       #546
LX51 LINKER/LOCATER V4.64.0.0                                                         01/24/2017  11:05:18  PAGE 52


      010070C6H   LINE      CODE     ---       #547
      010070CDH   LINE      CODE     ---       #548
      ---         BLOCKEND  ---      ---       LVL=0

      010073ACH   BLOCK     CODE     ---       LVL=0
      00000007H   SYMBOL    DATA     BYTE      address
      010073ACH   BLOCK     CODE     NEAR LAB  LVL=1
      00000007H   SYMBOL    DATA     BYTE      controlreg
      ---         BLOCKEND  ---      ---       LVL=1
      010073ACH   LINE      CODE     ---       #553
      010073ACH   LINE      CODE     ---       #557
      010073B3H   LINE      CODE     ---       #558
      010073B8H   LINE      CODE     ---       #559
      010073BFH   LINE      CODE     ---       #560
      010073C2H   LINE      CODE     ---       #561
      010073C2H   LINE      CODE     ---       #562
      ---         BLOCKEND  ---      ---       LVL=0

      ---         MODULE    ---      ---       UART_RS485
      020010FAH   PUBLIC    XDATA    BYTE      UART_RS485_errorStatus
      020010F9H   PUBLIC    XDATA    BYTE      UART_RS485_rxBufferOverflow
      020010F8H   PUBLIC    XDATA    BYTE      UART_RS485_initVar
      020010F7H   PUBLIC    XDATA    BYTE      UART_RS485_rxBufferWrite
      020010D7H   PUBLIC    XDATA    ---       UART_RS485_rxBuffer
      020010D6H   PUBLIC    XDATA    BYTE      UART_RS485_rxBufferRead
      020010D5H   PUBLIC    XDATA    BYTE      UART_RS485_rxBufferLoopDetect
      010074F2H   PUBLIC    CODE     ---       UART_RS485_ClearTxBuffer
      01006F46H   PUBLIC    CODE     ---       _UART_RS485_PutString
      010075D8H   PUBLIC    CODE     ---       _UART_RS485_PutChar
      010076A4H   PUBLIC    CODE     ---       UART_RS485_ReadTxStatus
      010070CEH   PUBLIC    CODE     ---       UART_RS485_ClearRxBuffer
      01006CDDH   PUBLIC    CODE     ---       UART_RS485_GetRxBufferSize
      01006AE0H   PUBLIC    CODE     ---       UART_RS485_GetChar
      0100746CH   PUBLIC    CODE     ---       UART_RS485_ReadRxStatus
      0100723DH   PUBLIC    CODE     ---       UART_RS485_Stop
      0100721BH   PUBLIC    CODE     ---       UART_RS485_Enable
      01006FAEH   PUBLIC    CODE     ---       UART_RS485_Init
      01007480H   PUBLIC    CODE     ---       UART_RS485_Start
      000000CAH   SFRSYM    DATA     BYTE      SFRPRT5SEL
      000000DAH   SFRSYM    DATA     BYTE      SFRPRT6SEL
      000000D0H.6 SFRSYM    DATA     BIT       AC
      000000A8H.7 SFRSYM    DATA     BIT       EA
      000000A8H   SFRSYM    DATA     BYTE      IE
      00000085H   SFRSYM    DATA     BYTE      DPH1
      00000084H   SFRSYM    DATA     BYTE      DPL1
      000000D0H.7 SFRSYM    DATA     BIT       CY
      000000A0H   SFRSYM    DATA     BYTE      P2AX
      00000095H   SFRSYM    DATA     BYTE      DPX1
      00000081H   SFRSYM    DATA     BYTE      SP
      000000D0H.2 SFRSYM    DATA     BIT       OV
      00000080H   SFRSYM    DATA     BYTE      SFRPRT0DR
      00000090H   SFRSYM    DATA     BYTE      SFRPRT1DR
      000000F2H   SFRSYM    DATA     BYTE      SFRPRT12SEL
      00000098H   SFRSYM    DATA     BYTE      SFRPRT2DR
      000000B0H   SFRSYM    DATA     BYTE      SFRPRT3DR
      000000C0H   SFRSYM    DATA     BYTE      SFRPRT4DR
      000000FAH   SFRSYM    DATA     BYTE      SFRPRT15SEL
      000000C8H   SFRSYM    DATA     BYTE      SFRPRT5DR
      000000D8H   SFRSYM    DATA     BYTE      SFRPRT6DR
      00000089H   SFRSYM    DATA     BYTE      SFRPRT0PS
      00000091H   SFRSYM    DATA     BYTE      SFRPRT1PS
      00000099H   SFRSYM    DATA     BYTE      SFRPRT2PS
      000000B1H   SFRSYM    DATA     BYTE      SFRPRT3PS
      000000C1H   SFRSYM    DATA     BYTE      SFRPRT4PS
      000000C9H   SFRSYM    DATA     BYTE      SFRPRT5PS
LX51 LINKER/LOCATER V4.64.0.0                                                         01/24/2017  11:05:18  PAGE 53


      000000D9H   SFRSYM    DATA     BYTE      SFRPRT6PS
      000000EAH   SFRSYM    DATA     BYTE      MXAX
      000000F0H   SFRSYM    DATA     BYTE      B
      000000E0H   SFRSYM    DATA     BYTE      ACC
      000000D0H   SFRSYM    DATA     BIT       P
      000000D0H.3 SFRSYM    DATA     BIT       RS0
      000000D0H.4 SFRSYM    DATA     BIT       RS1
      00000083H   SFRSYM    DATA     BYTE      DPH
      000000E8H   SFRSYM    DATA     BYTE      SFRPRT12DR
      00000082H   SFRSYM    DATA     BYTE      DPL
      000000F8H   SFRSYM    DATA     BYTE      SFRPRT15DR
      00000086H   SFRSYM    DATA     BYTE      DPS
      000000E9H   SFRSYM    DATA     BYTE      SFRPRT12PS
      00000093H   SFRSYM    DATA     BYTE      DPX
      000000F9H   SFRSYM    DATA     BYTE      SFRPRT15PS
      000000D0H.5 SFRSYM    DATA     BIT       F0
      000000D0H.1 SFRSYM    DATA     BIT       F1
      0000008AH   SFRSYM    DATA     BYTE      SFRPRT0SEL
      000000D0H   SFRSYM    DATA     BYTE      PSW
      000000A2H   SFRSYM    DATA     BYTE      SFRPRT1SEL
      0000009AH   SFRSYM    DATA     BYTE      SFRPRT2SEL
      000000B2H   SFRSYM    DATA     BYTE      SFRPRT3SEL
      000000C2H   SFRSYM    DATA     BYTE      SFRPRT4SEL

      01007480H   BLOCK     CODE     ---       LVL=0
      01007480H   LINE      CODE     ---       #76
      01007480H   LINE      CODE     ---       #77
      01007480H   LINE      CODE     ---       #79
      01007486H   LINE      CODE     ---       #80
      01007486H   LINE      CODE     ---       #81
      01007489H   LINE      CODE     ---       #82
      0100748FH   LINE      CODE     ---       #83
      0100748FH   LINE      CODE     ---       #85
      01007492H   LINE      CODE     ---       #86
      ---         BLOCKEND  ---      ---       LVL=0

      01006FAEH   BLOCK     CODE     ---       LVL=0
      01006FAEH   LINE      CODE     ---       #106
      01006FAEH   LINE      CODE     ---       #107
      01006FAEH   LINE      CODE     ---       #112
      01006FB7H   LINE      CODE     ---       #113
      01006FBEH   LINE      CODE     ---       #114
      01006FC3H   LINE      CODE     ---       #124
      01006FC9H   LINE      CODE     ---       #126
      01006FCFH   LINE      CODE     ---       #138
      01006FD5H   LINE      CODE     ---       #139
      01006FDBH   LINE      CODE     ---       #150
      01006FE0H   LINE      CODE     ---       #160
      ---         BLOCKEND  ---      ---       LVL=0

      0100721BH   BLOCK     CODE     ---       LVL=0
      0100721BH   BLOCK     CODE     NEAR LAB  LVL=1
      00000007H   SYMBOL    DATA     BYTE      enableInterrupts
      ---         BLOCKEND  ---      ---       LVL=1
      0100721BH   LINE      CODE     ---       #183
      0100721BH   LINE      CODE     ---       #184
      0100721BH   LINE      CODE     ---       #186
      0100721EH   LINE      CODE     ---       #190
      01007225H   LINE      CODE     ---       #193
      0100722CH   LINE      CODE     ---       #196
      01007232H   LINE      CODE     ---       #211
      01007239H   LINE      CODE     ---       #222
      0100723CH   LINE      CODE     ---       #223
      ---         BLOCKEND  ---      ---       LVL=0

LX51 LINKER/LOCATER V4.64.0.0                                                         01/24/2017  11:05:18  PAGE 54


      0100723DH   BLOCK     CODE     ---       LVL=0
      0100723DH   BLOCK     CODE     NEAR LAB  LVL=1
      00000007H   SYMBOL    DATA     BYTE      enableInterrupts
      ---         BLOCKEND  ---      ---       LVL=1
      0100723DH   LINE      CODE     ---       #240
      0100723DH   LINE      CODE     ---       #241
      0100723DH   LINE      CODE     ---       #243
      01007240H   LINE      CODE     ---       #247
      01007247H   LINE      CODE     ---       #262
      0100724EH   LINE      CODE     ---       #265
      01007254H   LINE      CODE     ---       #270
      0100725BH   LINE      CODE     ---       #277
      0100725EH   LINE      CODE     ---       #278
      ---         BLOCKEND  ---      ---       LVL=0
      00000007H   SYMBOL    DATA     BYTE      intSrc
      00000007H   SYMBOL    DATA     BYTE      rxData
      00000006H   SYMBOL    DATA     BYTE      locRxBufferRead
      00000005H   SYMBOL    DATA     BYTE      locRxBufferWrite

      0100746CH   BLOCK     CODE     ---       LVL=0
      0100746CH   BLOCK     CODE     NEAR LAB  LVL=1
      00000007H   SYMBOL    DATA     BYTE      status
      ---         BLOCKEND  ---      ---       LVL=1
      0100746CH   LINE      CODE     ---       #485
      0100746CH   LINE      CODE     ---       #486
      0100746CH   LINE      CODE     ---       #489
      01007473H   LINE      CODE     ---       #492
      01007479H   LINE      CODE     ---       #493
      01007479H   LINE      CODE     ---       #494
      0100747DH   LINE      CODE     ---       #495
      0100747FH   LINE      CODE     ---       #496
      0100747FH   LINE      CODE     ---       #499
      0100747FH   LINE      CODE     ---       #500
      ---         BLOCKEND  ---      ---       LVL=0

      01006AE0H   BLOCK     CODE     ---       LVL=0
      01006AE0H   BLOCK     CODE     NEAR LAB  LVL=1
      00000007H   SYMBOL    DATA     BYTE      rxData
      00000006H   SYMBOL    DATA     BYTE      rxStatus
      00000006H   SYMBOL    DATA     BYTE      locRxBufferRead
      00000005H   SYMBOL    DATA     BYTE      locRxBufferWrite
      ---         BLOCKEND  ---      ---       LVL=1
      01006AE0H   LINE      CODE     ---       #532
      01006AE0H   LINE      CODE     ---       #533
      01006AE0H   LINE      CODE     ---       #534
      01006AE2H   LINE      CODE     ---       #542
      01006AE8H   LINE      CODE     ---       #544
      01006AEDH   LINE      CODE     ---       #545
      01006AF2H   LINE      CODE     ---       #547
      01006AFCH   LINE      CODE     ---       #548
      01006AFCH   LINE      CODE     ---       #549
      01006B08H   LINE      CODE     ---       #550
      01006B09H   LINE      CODE     ---       #551
      01006B0FH   LINE      CODE     ---       #552
      01006B0FH   LINE      CODE     ---       #553
      01006B11H   LINE      CODE     ---       #554
      01006B11H   LINE      CODE     ---       #556
      01006B16H   LINE      CODE     ---       #558
      01006B1CH   LINE      CODE     ---       #559
      01006B1CH   LINE      CODE     ---       #560
      01006B1EH   LINE      CODE     ---       #575
      01006B1EH   LINE      CODE     ---       #577
      01006B20H   LINE      CODE     ---       #579
      01006B25H   LINE      CODE     ---       #580
      01006B28H   LINE      CODE     ---       #581
LX51 LINKER/LOCATER V4.64.0.0                                                         01/24/2017  11:05:18  PAGE 55


      01006B28H   LINE      CODE     ---       #582
      01006B2DH   LINE      CODE     ---       #585
      01006B32H   LINE      CODE     ---       #586
      01006B32H   LINE      CODE     ---       #587
      01006B34H   LINE      CODE     ---       #588
      01006B34H   LINE      CODE     ---       #589
      01006B34H   LINE      CODE     ---       #590
      01006B34H   LINE      CODE     ---       #592
      01006B3AH   LINE      CODE     ---       #611
      01006B3AH   LINE      CODE     ---       #612
      ---         BLOCKEND  ---      ---       LVL=0
      00000002H   SYMBOL    DATA     WORD      locErrorStatus

      01006CDDH   BLOCK     CODE     ---       LVL=0
      01006CDDH   BLOCK     CODE     NEAR LAB  LVL=1
      00000007H   SYMBOL    DATA     BYTE      size
      ---         BLOCKEND  ---      ---       LVL=1
      01006CDDH   LINE      CODE     ---       #683
      01006CDDH   LINE      CODE     ---       #685
      01006CDDH   LINE      CODE     ---       #691
      01006CE3H   LINE      CODE     ---       #693
      01006CEFH   LINE      CODE     ---       #694
      01006CEFH   LINE      CODE     ---       #695
      01006CF5H   LINE      CODE     ---       #696
      01006CF5H   LINE      CODE     ---       #697
      01006CF7H   LINE      CODE     ---       #698
      01006CF9H   LINE      CODE     ---       #700
      01006CF9H   LINE      CODE     ---       #701
      01006CFBH   LINE      CODE     ---       #702
      01006CFBH   LINE      CODE     ---       #703
      01006CFDH   LINE      CODE     ---       #704
      01006D0AH   LINE      CODE     ---       #705
      01006D0AH   LINE      CODE     ---       #706
      01006D13H   LINE      CODE     ---       #707
      01006D15H   LINE      CODE     ---       #709
      01006D15H   LINE      CODE     ---       #710
      01006D25H   LINE      CODE     ---       #711
      01006D25H   LINE      CODE     ---       #713
      01006D2BH   LINE      CODE     ---       #722
      01006D2BH   LINE      CODE     ---       #723
      ---         BLOCKEND  ---      ---       LVL=0

      010070CEH   BLOCK     CODE     ---       LVL=0
      010070CEH   BLOCK     CODE     NEAR LAB  LVL=1
      00000007H   SYMBOL    DATA     BYTE      enableInterrupts
      ---         BLOCKEND  ---      ---       LVL=1
      010070CEH   LINE      CODE     ---       #757
      010070CEH   LINE      CODE     ---       #758
      010070CEH   LINE      CODE     ---       #762
      010070D1H   LINE      CODE     ---       #763
      010070D8H   LINE      CODE     ---       #764
      010070DCH   LINE      CODE     ---       #765
      010070DFH   LINE      CODE     ---       #770
      010070E5H   LINE      CODE     ---       #772
      010070EAH   LINE      CODE     ---       #773
      010070EEH   LINE      CODE     ---       #774
      010070F2H   LINE      CODE     ---       #775
      010070F6H   LINE      CODE     ---       #777
      010070FCH   LINE      CODE     ---       #781
      ---         BLOCKEND  ---      ---       LVL=0
      00000007H   SYMBOL    DATA     BYTE      address
      00000007H   SYMBOL    DATA     BYTE      address
      00000007H   SYMBOL    DATA     BYTE      intSrc
      00000007H   SYMBOL    DATA     BYTE      txDataByte

LX51 LINKER/LOCATER V4.64.0.0                                                         01/24/2017  11:05:18  PAGE 56


      010076A4H   BLOCK     CODE     ---       LVL=0
      010076A4H   LINE      CODE     ---       #1003
      010076A4H   LINE      CODE     ---       #1004
      010076A4H   LINE      CODE     ---       #1005
      010076A9H   LINE      CODE     ---       #1006
      ---         BLOCKEND  ---      ---       LVL=0

      010075D8H   BLOCK     CODE     ---       LVL=0
      00000007H   SYMBOL    DATA     BYTE      txDataByte
      010075D8H   LINE      CODE     ---       #1041
      010075D8H   LINE      CODE     ---       #1042
      010075D8H   LINE      CODE     ---       #1107
      010075DFH   LINE      CODE     ---       #1108
      010075DFH   LINE      CODE     ---       #1110
      010075DFH   LINE      CODE     ---       #1113
      010075E4H   LINE      CODE     ---       #1116
      ---         BLOCKEND  ---      ---       LVL=0

      01006F46H   BLOCK     CODE     ---       LVL=0
      02000588H   SYMBOL    XDATA    ---       string
      01006F51H   BLOCK     CODE     NEAR LAB  LVL=1
      00000004H   SYMBOL    DATA     WORD      bufIndex
      ---         BLOCKEND  ---      ---       LVL=1
      01006F46H   LINE      CODE     ---       #1145
      01006F51H   LINE      CODE     ---       #1146
      01006F51H   LINE      CODE     ---       #1147
      01006F54H   LINE      CODE     ---       #1150
      01006F5AH   LINE      CODE     ---       #1151
      01006F5AH   LINE      CODE     ---       #1153
      01006F6FH   LINE      CODE     ---       #1154
      01006F6FH   LINE      CODE     ---       #1155
      01006F72H   LINE      CODE     ---       #1156
      01006F77H   LINE      CODE     ---       #1157
      01006F79H   LINE      CODE     ---       #1158
      01006F79H   LINE      CODE     ---       #1159
      ---         BLOCKEND  ---      ---       LVL=0
      00000005H   SYMBOL    DATA     BYTE      byteCount
      00000006H   SYMBOL    DATA     BYTE      bufIndex
      00000007H   SYMBOL    DATA     BYTE      txDataByte
      00000007H   SYMBOL    DATA     BYTE      size

      010074F2H   BLOCK     CODE     ---       LVL=0
      010074F2H   BLOCK     CODE     NEAR LAB  LVL=1
      00000007H   SYMBOL    DATA     BYTE      enableInterrupts
      ---         BLOCKEND  ---      ---       LVL=1
      010074F2H   LINE      CODE     ---       #1354
      010074F2H   LINE      CODE     ---       #1355
      010074F2H   LINE      CODE     ---       #1358
      010074F5H   LINE      CODE     ---       #1360
      010074FCH   LINE      CODE     ---       #1361
      01007500H   LINE      CODE     ---       #1362
      01007503H   LINE      CODE     ---       #1376
      ---         BLOCKEND  ---      ---       LVL=0
      00000007H   SYMBOL    DATA     BYTE      retMode
      020010D4H   SYMBOL    XDATA    BYTE      txPeriod

      ---         MODULE    ---      ---       ISR_RS485_RX
      01007688H   PUBLIC    CODE     ---       ISR_RS485_RX_Disable
      01007681H   PUBLIC    CODE     ---       ISR_RS485_RX_Enable
      01007623H   PUBLIC    CODE     ---       _ISR_RS485_RX_SetPriority
      01007592H   PUBLIC    CODE     ---       _ISR_RS485_RX_SetVector
      01007718H   PUBLIC    CODE     ---       ISR_RS485_RX_Interrupt
      01006FE1H   PUBLIC    CODE     ---       _ISR_RS485_RX_StartEx
      000000CAH   SFRSYM    DATA     BYTE      SFRPRT5SEL
      000000DAH   SFRSYM    DATA     BYTE      SFRPRT6SEL
LX51 LINKER/LOCATER V4.64.0.0                                                         01/24/2017  11:05:18  PAGE 57


      000000D0H.6 SFRSYM    DATA     BIT       AC
      000000A8H.7 SFRSYM    DATA     BIT       EA
      000000A8H   SFRSYM    DATA     BYTE      IE
      00000085H   SFRSYM    DATA     BYTE      DPH1
      00000084H   SFRSYM    DATA     BYTE      DPL1
      000000D0H.7 SFRSYM    DATA     BIT       CY
      000000A0H   SFRSYM    DATA     BYTE      P2AX
      00000095H   SFRSYM    DATA     BYTE      DPX1
      00000081H   SFRSYM    DATA     BYTE      SP
      000000D0H.2 SFRSYM    DATA     BIT       OV
      00000080H   SFRSYM    DATA     BYTE      SFRPRT0DR
      00000090H   SFRSYM    DATA     BYTE      SFRPRT1DR
      000000F2H   SFRSYM    DATA     BYTE      SFRPRT12SEL
      00000098H   SFRSYM    DATA     BYTE      SFRPRT2DR
      000000B0H   SFRSYM    DATA     BYTE      SFRPRT3DR
      000000C0H   SFRSYM    DATA     BYTE      SFRPRT4DR
      000000FAH   SFRSYM    DATA     BYTE      SFRPRT15SEL
      000000C8H   SFRSYM    DATA     BYTE      SFRPRT5DR
      000000D8H   SFRSYM    DATA     BYTE      SFRPRT6DR
      00000089H   SFRSYM    DATA     BYTE      SFRPRT0PS
      00000091H   SFRSYM    DATA     BYTE      SFRPRT1PS
      00000099H   SFRSYM    DATA     BYTE      SFRPRT2PS
      000000B1H   SFRSYM    DATA     BYTE      SFRPRT3PS
      000000C1H   SFRSYM    DATA     BYTE      SFRPRT4PS
      000000C9H   SFRSYM    DATA     BYTE      SFRPRT5PS
      000000D9H   SFRSYM    DATA     BYTE      SFRPRT6PS
      000000EAH   SFRSYM    DATA     BYTE      MXAX
      000000F0H   SFRSYM    DATA     BYTE      B
      000000E0H   SFRSYM    DATA     BYTE      ACC
      000000D0H   SFRSYM    DATA     BIT       P
      000000D0H.3 SFRSYM    DATA     BIT       RS0
      000000D0H.4 SFRSYM    DATA     BIT       RS1
      00000083H   SFRSYM    DATA     BYTE      DPH
      000000E8H   SFRSYM    DATA     BYTE      SFRPRT12DR
      00000082H   SFRSYM    DATA     BYTE      DPL
      000000F8H   SFRSYM    DATA     BYTE      SFRPRT15DR
      00000086H   SFRSYM    DATA     BYTE      DPS
      000000E9H   SFRSYM    DATA     BYTE      SFRPRT12PS
      00000093H   SFRSYM    DATA     BYTE      DPX
      000000F9H   SFRSYM    DATA     BYTE      SFRPRT15PS
      000000D0H.5 SFRSYM    DATA     BIT       F0
      000000D0H.1 SFRSYM    DATA     BIT       F1
      0000008AH   SFRSYM    DATA     BYTE      SFRPRT0SEL
      000000D0H   SFRSYM    DATA     BYTE      PSW
      000000A2H   SFRSYM    DATA     BYTE      SFRPRT1SEL
      0000009AH   SFRSYM    DATA     BYTE      SFRPRT2SEL
      000000B2H   SFRSYM    DATA     BYTE      SFRPRT3SEL
      000000C2H   SFRSYM    DATA     BYTE      SFRPRT4SEL

      01006FE1H   BLOCK     CODE     ---       LVL=0
      02000588H   SYMBOL    XDATA    ---       address
      01006FE1H   LINE      CODE     ---       #94
      01006FE9H   LINE      CODE     ---       #95
      01006FE9H   LINE      CODE     ---       #97
      01006FECH   LINE      CODE     ---       #100
      01006FF7H   LINE      CODE     ---       #103
      01006FFCH   LINE      CODE     ---       #106
      01006FFFH   LINE      CODE     ---       #107
      ---         BLOCKEND  ---      ---       LVL=0

      01007718H   BLOCK     CODE     ---       LVL=0
      01007718H   LINE      CODE     ---       #151
      01007718H   LINE      CODE     ---       #168
      ---         BLOCKEND  ---      ---       LVL=0

LX51 LINKER/LOCATER V4.64.0.0                                                         01/24/2017  11:05:18  PAGE 58


      01007592H   BLOCK     CODE     ---       LVL=0
      00000006H   SYMBOL    DATA     ---       address
      01007592H   LINE      CODE     ---       #198
      01007592H   LINE      CODE     ---       #199
      01007592H   LINE      CODE     ---       #200
      0100759FH   LINE      CODE     ---       #201
      ---         BLOCKEND  ---      ---       LVL=0

      01007623H   BLOCK     CODE     ---       LVL=0
      00000007H   SYMBOL    DATA     BYTE      priority
      01007623H   LINE      CODE     ---       #248
      01007623H   LINE      CODE     ---       #249
      01007623H   LINE      CODE     ---       #250
      0100762CH   LINE      CODE     ---       #251
      ---         BLOCKEND  ---      ---       LVL=0
      00000007H   SYMBOL    DATA     BYTE      priority

      01007681H   BLOCK     CODE     ---       LVL=0
      01007681H   LINE      CODE     ---       #297
      01007681H   LINE      CODE     ---       #298
      01007681H   LINE      CODE     ---       #300
      01007687H   LINE      CODE     ---       #301
      ---         BLOCKEND  ---      ---       LVL=0

      01007688H   BLOCK     CODE     ---       LVL=0
      01007688H   LINE      CODE     ---       #339
      01007688H   LINE      CODE     ---       #340
      01007688H   LINE      CODE     ---       #342
      0100768EH   LINE      CODE     ---       #343
      ---         BLOCKEND  ---      ---       LVL=0

      ---         MODULE    ---      ---       PACER_TIMER
      02001137H   PUBLIC    XDATA    BYTE      PACER_TIMER_initVar
      010075AEH   PUBLIC    CODE     ---       _PACER_TIMER_WriteCounter
      010075A0H   PUBLIC    CODE     ---       _PACER_TIMER_WritePeriod
      010076AAH   PUBLIC    CODE     ---       _PACER_TIMER_SetInterruptMode
      01007493H   PUBLIC    CODE     ---       PACER_TIMER_Start
      010073C3H   PUBLIC    CODE     ---       PACER_TIMER_Enable
      01006ED2H   PUBLIC    CODE     ---       PACER_TIMER_Init
      000000CAH   SFRSYM    DATA     BYTE      SFRPRT5SEL
      000000DAH   SFRSYM    DATA     BYTE      SFRPRT6SEL
      000000D0H.6 SFRSYM    DATA     BIT       AC
      000000A8H.7 SFRSYM    DATA     BIT       EA
      000000A8H   SFRSYM    DATA     BYTE      IE
      00000085H   SFRSYM    DATA     BYTE      DPH1
      00000084H   SFRSYM    DATA     BYTE      DPL1
      000000D0H.7 SFRSYM    DATA     BIT       CY
      000000A0H   SFRSYM    DATA     BYTE      P2AX
      00000095H   SFRSYM    DATA     BYTE      DPX1
      00000081H   SFRSYM    DATA     BYTE      SP
      000000D0H.2 SFRSYM    DATA     BIT       OV
      00000080H   SFRSYM    DATA     BYTE      SFRPRT0DR
      00000090H   SFRSYM    DATA     BYTE      SFRPRT1DR
      000000F2H   SFRSYM    DATA     BYTE      SFRPRT12SEL
      00000098H   SFRSYM    DATA     BYTE      SFRPRT2DR
      000000B0H   SFRSYM    DATA     BYTE      SFRPRT3DR
      000000C0H   SFRSYM    DATA     BYTE      SFRPRT4DR
      000000FAH   SFRSYM    DATA     BYTE      SFRPRT15SEL
      000000C8H   SFRSYM    DATA     BYTE      SFRPRT5DR
      000000D8H   SFRSYM    DATA     BYTE      SFRPRT6DR
      00000089H   SFRSYM    DATA     BYTE      SFRPRT0PS
      00000091H   SFRSYM    DATA     BYTE      SFRPRT1PS
      00000099H   SFRSYM    DATA     BYTE      SFRPRT2PS
      000000B1H   SFRSYM    DATA     BYTE      SFRPRT3PS
      000000C1H   SFRSYM    DATA     BYTE      SFRPRT4PS
LX51 LINKER/LOCATER V4.64.0.0                                                         01/24/2017  11:05:18  PAGE 59


      000000C9H   SFRSYM    DATA     BYTE      SFRPRT5PS
      000000D9H   SFRSYM    DATA     BYTE      SFRPRT6PS
      000000EAH   SFRSYM    DATA     BYTE      MXAX
      000000F0H   SFRSYM    DATA     BYTE      B
      000000E0H   SFRSYM    DATA     BYTE      ACC
      000000D0H   SFRSYM    DATA     BIT       P
      000000D0H.3 SFRSYM    DATA     BIT       RS0
      000000D0H.4 SFRSYM    DATA     BIT       RS1
      00000083H   SFRSYM    DATA     BYTE      DPH
      000000E8H   SFRSYM    DATA     BYTE      SFRPRT12DR
      00000082H   SFRSYM    DATA     BYTE      DPL
      000000F8H   SFRSYM    DATA     BYTE      SFRPRT15DR
      00000086H   SFRSYM    DATA     BYTE      DPS
      000000E9H   SFRSYM    DATA     BYTE      SFRPRT12PS
      00000093H   SFRSYM    DATA     BYTE      DPX
      000000F9H   SFRSYM    DATA     BYTE      SFRPRT15PS
      000000D0H.5 SFRSYM    DATA     BIT       F0
      000000D0H.1 SFRSYM    DATA     BIT       F1
      0000008AH   SFRSYM    DATA     BYTE      SFRPRT0SEL
      000000D0H   SFRSYM    DATA     BYTE      PSW
      000000A2H   SFRSYM    DATA     BYTE      SFRPRT1SEL
      0000009AH   SFRSYM    DATA     BYTE      SFRPRT2SEL
      000000B2H   SFRSYM    DATA     BYTE      SFRPRT3SEL
      000000C2H   SFRSYM    DATA     BYTE      SFRPRT4SEL

      01006ED2H   BLOCK     CODE     ---       LVL=0
      01006ED2H   LINE      CODE     ---       #43
      01006ED2H   LINE      CODE     ---       #44
      01006ED2H   LINE      CODE     ---       #52
      01006ED9H   LINE      CODE     ---       #60
      01006EE0H   LINE      CODE     ---       #106
      01006EE7H   LINE      CODE     ---       #107
      01006EEBH   LINE      CODE     ---       #110
      01006EEFH   LINE      CODE     ---       #111
      01006EF3H   LINE      CODE     ---       #114
      01006EFAH   LINE      CODE     ---       #118
      01006F01H   LINE      CODE     ---       #119
      01006F08H   LINE      CODE     ---       #162
      01006F0DH   LINE      CODE     ---       #163
      ---         BLOCKEND  ---      ---       LVL=0

      010073C3H   BLOCK     CODE     ---       LVL=0
      010073C3H   LINE      CODE     ---       #180
      010073C3H   LINE      CODE     ---       #181
      010073C3H   LINE      CODE     ---       #184
      010073CAH   LINE      CODE     ---       #185
      010073D1H   LINE      CODE     ---       #190
      010073D8H   LINE      CODE     ---       #192
      ---         BLOCKEND  ---      ---       LVL=0

      01007493H   BLOCK     CODE     ---       LVL=0
      01007493H   LINE      CODE     ---       #215
      01007493H   LINE      CODE     ---       #216
      01007493H   LINE      CODE     ---       #217
      01007499H   LINE      CODE     ---       #218
      01007499H   LINE      CODE     ---       #219
      0100749CH   LINE      CODE     ---       #221
      010074A2H   LINE      CODE     ---       #222
      010074A2H   LINE      CODE     ---       #225
      010074A5H   LINE      CODE     ---       #226
      ---         BLOCKEND  ---      ---       LVL=0

      010076AAH   BLOCK     CODE     ---       LVL=0
      00000007H   SYMBOL    DATA     BYTE      interruptMode
      010076AAH   LINE      CODE     ---       #279
LX51 LINKER/LOCATER V4.64.0.0                                                         01/24/2017  11:05:18  PAGE 60


      010076AAH   LINE      CODE     ---       #280
      010076AAH   LINE      CODE     ---       #281
      010076AFH   LINE      CODE     ---       #282
      ---         BLOCKEND  ---      ---       LVL=0
      00000007H   SYMBOL    DATA     BYTE      control

      010075A0H   BLOCK     CODE     ---       LVL=0
      00000006H   SYMBOL    DATA     WORD      period
      010075A0H   BLOCK     CODE     NEAR LAB  LVL=1
      00000006H   SYMBOL    DATA     WORD      period_temp
      ---         BLOCKEND  ---      ---       LVL=1
      010075A0H   LINE      CODE     ---       #431
      010075A0H   LINE      CODE     ---       #432
      010075A0H   LINE      CODE     ---       #434
      010075A0H   LINE      CODE     ---       #435
      010075ADH   LINE      CODE     ---       #439
      ---         BLOCKEND  ---      ---       LVL=0

      010075AEH   BLOCK     CODE     ---       LVL=0
      00000006H   SYMBOL    DATA     WORD      counter
      010075AEH   LINE      CODE     ---       #480
      010075AEH   LINE      CODE     ---       #481
      010075AEH   LINE      CODE     ---       #486
      010075BBH   LINE      CODE     ---       #491
      ---         BLOCKEND  ---      ---       LVL=0

      ---         MODULE    ---      ---       CLOCK_UART
      01007669H   PUBLIC    CODE     ---       CLOCK_UART_GetSourceRegister
      0100762DH   PUBLIC    CODE     ---       CLOCK_UART_GetDividerRegister
      010058F7H   PUBLIC    CODE     ---       _CLOCK_UART_SetDividerRegister
      00000007H   SYMBOL    DATA     BYTE      state

      010058F7H   BLOCK     CODE     ---       LVL=0
      02000588H   SYMBOL    XDATA    WORD      clkDivider
      0200058AH   SYMBOL    XDATA    BYTE      restart
      01005902H   BLOCK     CODE     NEAR LAB  LVL=1
      0200058BH   SYMBOL    XDATA    BYTE      enabled
      0200058CH   SYMBOL    XDATA    BYTE      currSrc
      0200058DH   SYMBOL    XDATA    WORD      oldDivider
      ---         BLOCKEND  ---      ---       LVL=1
      010058F7H   LINE      CODE     ---       #193
      01005902H   LINE      CODE     ---       #195
      01005902H   LINE      CODE     ---       #198
      0100590AH   LINE      CODE     ---       #199
      01005915H   LINE      CODE     ---       #201
      01005927H   LINE      CODE     ---       #202
      01005927H   LINE      CODE     ---       #203
      01005931H   LINE      CODE     ---       #205
      01005942H   LINE      CODE     ---       #206
      01005942H   LINE      CODE     ---       #208
      01005946H   LINE      CODE     ---       #209
      01005946H   LINE      CODE     ---       #213
      0100594FH   LINE      CODE     ---       #214
      01005956H   LINE      CODE     ---       #215
      01005957H   LINE      CODE     ---       #217
      01005957H   LINE      CODE     ---       #220
      0100595EH   LINE      CODE     ---       #221
      0100596FH   LINE      CODE     ---       #222
      0100596FH   LINE      CODE     ---       #223
      01005970H   LINE      CODE     ---       #225
      01005970H   LINE      CODE     ---       #227
      01005976H   LINE      CODE     ---       #228
      01005976H   LINE      CODE     ---       #229
      0100597BH   LINE      CODE     ---       #236
      01005980H   LINE      CODE     ---       #237
LX51 LINKER/LOCATER V4.64.0.0                                                         01/24/2017  11:05:18  PAGE 61


      01005985H   LINE      CODE     ---       #240
      0100598CH   LINE      CODE     ---       #243
      0100599EH   LINE      CODE     ---       #244
      0100599EH   LINE      CODE     ---       #246
      010059AFH   LINE      CODE     ---       #247
      010059B5H   LINE      CODE     ---       #250
      010059BDH   LINE      CODE     ---       #253
      010059C4H   LINE      CODE     ---       #257
      010059C9H   LINE      CODE     ---       #259
      010059C9H   LINE      CODE     ---       #260
      010059C9H   LINE      CODE     ---       #263
      010059D1H   LINE      CODE     ---       #264
      010059D1H   LINE      CODE     ---       #266
      010059E2H   LINE      CODE     ---       #268
      010059F5H   LINE      CODE     ---       #269
      010059FFH   LINE      CODE     ---       #270
      01005A00H   LINE      CODE     ---       #272
      01005A00H   LINE      CODE     ---       #274
      01005A11H   LINE      CODE     ---       #275
      01005A26H   LINE      CODE     ---       #276
      01005A26H   LINE      CODE     ---       #277
      01005A26H   LINE      CODE     ---       #278
      01005A26H   LINE      CODE     ---       #279
      ---         BLOCKEND  ---      ---       LVL=0

      0100762DH   BLOCK     CODE     ---       LVL=0
      0100762DH   LINE      CODE     ---       #297
      0100762DH   LINE      CODE     ---       #298
      0100762DH   LINE      CODE     ---       #299
      01007636H   LINE      CODE     ---       #300
      ---         BLOCKEND  ---      ---       LVL=0
      00000007H   SYMBOL    DATA     BYTE      modeBitMask
      00000007H   SYMBOL    DATA     BYTE      modeBitMask
      00000007H   SYMBOL    DATA     BYTE      oldSrc

      01007669H   BLOCK     CODE     ---       LVL=0
      01007669H   LINE      CODE     ---       #464
      01007669H   LINE      CODE     ---       #465
      01007669H   LINE      CODE     ---       #466
      01007670H   LINE      CODE     ---       #467
      ---         BLOCKEND  ---      ---       LVL=0

      ---         MODULE    ---      ---       EEPROM
      01006362H   PUBLIC    CODE     ---       _EEPROM_Write
      01007704H   PUBLIC    CODE     ---       EEPROM_Start
      0100768FH   PUBLIC    CODE     ---       EEPROM_Enable
      000000CAH   SFRSYM    DATA     BYTE      SFRPRT5SEL
      000000DAH   SFRSYM    DATA     BYTE      SFRPRT6SEL
      000000D0H.6 SFRSYM    DATA     BIT       AC
      000000A8H.7 SFRSYM    DATA     BIT       EA
      000000A8H   SFRSYM    DATA     BYTE      IE
      00000085H   SFRSYM    DATA     BYTE      DPH1
      00000084H   SFRSYM    DATA     BYTE      DPL1
      000000D0H.7 SFRSYM    DATA     BIT       CY
      000000A0H   SFRSYM    DATA     BYTE      P2AX
      00000095H   SFRSYM    DATA     BYTE      DPX1
      00000081H   SFRSYM    DATA     BYTE      SP
      000000D0H.2 SFRSYM    DATA     BIT       OV
      00000080H   SFRSYM    DATA     BYTE      SFRPRT0DR
      00000090H   SFRSYM    DATA     BYTE      SFRPRT1DR
      000000F2H   SFRSYM    DATA     BYTE      SFRPRT12SEL
      00000098H   SFRSYM    DATA     BYTE      SFRPRT2DR
      000000B0H   SFRSYM    DATA     BYTE      SFRPRT3DR
      000000C0H   SFRSYM    DATA     BYTE      SFRPRT4DR
      000000FAH   SFRSYM    DATA     BYTE      SFRPRT15SEL
LX51 LINKER/LOCATER V4.64.0.0                                                         01/24/2017  11:05:18  PAGE 62


      000000C8H   SFRSYM    DATA     BYTE      SFRPRT5DR
      000000D8H   SFRSYM    DATA     BYTE      SFRPRT6DR
      00000089H   SFRSYM    DATA     BYTE      SFRPRT0PS
      00000091H   SFRSYM    DATA     BYTE      SFRPRT1PS
      00000099H   SFRSYM    DATA     BYTE      SFRPRT2PS
      000000B1H   SFRSYM    DATA     BYTE      SFRPRT3PS
      000000C1H   SFRSYM    DATA     BYTE      SFRPRT4PS
      000000C9H   SFRSYM    DATA     BYTE      SFRPRT5PS
      000000D9H   SFRSYM    DATA     BYTE      SFRPRT6PS
      000000EAH   SFRSYM    DATA     BYTE      MXAX
      000000F0H   SFRSYM    DATA     BYTE      B
      000000E0H   SFRSYM    DATA     BYTE      ACC
      000000D0H   SFRSYM    DATA     BIT       P
      000000D0H.3 SFRSYM    DATA     BIT       RS0
      000000D0H.4 SFRSYM    DATA     BIT       RS1
      00000083H   SFRSYM    DATA     BYTE      DPH
      000000E8H   SFRSYM    DATA     BYTE      SFRPRT12DR
      00000082H   SFRSYM    DATA     BYTE      DPL
      000000F8H   SFRSYM    DATA     BYTE      SFRPRT15DR
      00000086H   SFRSYM    DATA     BYTE      DPS
      000000E9H   SFRSYM    DATA     BYTE      SFRPRT12PS
      00000093H   SFRSYM    DATA     BYTE      DPX
      000000F9H   SFRSYM    DATA     BYTE      SFRPRT15PS
      000000D0H.5 SFRSYM    DATA     BIT       F0
      000000D0H.1 SFRSYM    DATA     BIT       F1
      0000008AH   SFRSYM    DATA     BYTE      SFRPRT0SEL
      000000D0H   SFRSYM    DATA     BYTE      PSW
      000000A2H   SFRSYM    DATA     BYTE      SFRPRT1SEL
      0000009AH   SFRSYM    DATA     BYTE      SFRPRT2SEL
      000000B2H   SFRSYM    DATA     BYTE      SFRPRT3SEL
      000000C2H   SFRSYM    DATA     BYTE      SFRPRT4SEL

      0100768FH   BLOCK     CODE     ---       LVL=0
      0100768FH   LINE      CODE     ---       #33
      0100768FH   LINE      CODE     ---       #34
      0100768FH   LINE      CODE     ---       #36
      01007692H   LINE      CODE     ---       #39
      01007695H   LINE      CODE     ---       #40
      ---         BLOCKEND  ---      ---       LVL=0

      01007704H   BLOCK     CODE     ---       LVL=0
      01007704H   LINE      CODE     ---       #57
      01007704H   LINE      CODE     ---       #58
      01007704H   LINE      CODE     ---       #59
      01007707H   LINE      CODE     ---       #60
      ---         BLOCKEND  ---      ---       LVL=0

      01006362H   BLOCK     CODE     ---       LVL=0
      0200058FH   SYMBOL    XDATA    ---       rowData
      02000592H   SYMBOL    XDATA    BYTE      rowNumber
      01006370H   BLOCK     CODE     NEAR LAB  LVL=1
      02000593H   SYMBOL    XDATA    BYTE      status
      ---         BLOCKEND  ---      ---       LVL=1
      01006362H   LINE      CODE     ---       #345
      01006370H   LINE      CODE     ---       #346
      01006370H   LINE      CODE     ---       #349
      01006373H   LINE      CODE     ---       #351
      0100637FH   LINE      CODE     ---       #352
      0100637FH   LINE      CODE     ---       #354
      01006388H   LINE      CODE     ---       #355
      01006388H   LINE      CODE     ---       #357
      0100638EH   LINE      CODE     ---       #360
      010063ACH   LINE      CODE     ---       #361
      010063ACH   LINE      CODE     ---       #362
      010063B4H   LINE      CODE     ---       #363
LX51 LINKER/LOCATER V4.64.0.0                                                         01/24/2017  11:05:18  PAGE 63


      010063B4H   LINE      CODE     ---       #365
      010063B4H   LINE      CODE     ---       #368
      010063CAH   LINE      CODE     ---       #369
      010063CAH   LINE      CODE     ---       #370
      010063CEH   LINE      CODE     ---       #371
      010063CEH   LINE      CODE     ---       #374
      010063D4H   LINE      CODE     ---       #375
      010063D4H   LINE      CODE     ---       #376
      010063F0H   LINE      CODE     ---       #378
      010063F0H   LINE      CODE     ---       #380
      010063F6H   LINE      CODE     ---       #382
      010063FEH   LINE      CODE     ---       #383
      010063FEH   LINE      CODE     ---       #385
      010063FEH   LINE      CODE     ---       #388
      01006414H   LINE      CODE     ---       #389
      01006414H   LINE      CODE     ---       #390
      01006418H   LINE      CODE     ---       #391
      01006418H   LINE      CODE     ---       #392
      0100641AH   LINE      CODE     ---       #394
      0100641AH   LINE      CODE     ---       #395
      01006420H   LINE      CODE     ---       #396
      01006420H   LINE      CODE     ---       #397
      01006422H   LINE      CODE     ---       #399
      01006422H   LINE      CODE     ---       #400
      01006428H   LINE      CODE     ---       #401
      01006428H   LINE      CODE     ---       #402
      01006428H   LINE      CODE     ---       #405
      0100642BH   LINE      CODE     ---       #406
      0100642DH   LINE      CODE     ---       #408
      0100642DH   LINE      CODE     ---       #409
      01006433H   LINE      CODE     ---       #410
      01006433H   LINE      CODE     ---       #411
      01006435H   LINE      CODE     ---       #413
      01006435H   LINE      CODE     ---       #414
      0100643BH   LINE      CODE     ---       #415
      0100643BH   LINE      CODE     ---       #417
      01006440H   LINE      CODE     ---       #418
      ---         BLOCKEND  ---      ---       LVL=0

      ---         MODULE    ---      ---       RS485_CTS
      010076B0H   PUBLIC    CODE     ---       _RS485_CTS_Write

      010076B0H   BLOCK     CODE     ---       LVL=0
      00000007H   SYMBOL    DATA     BYTE      control
      010076B0H   LINE      CODE     ---       #37
      010076B0H   LINE      CODE     ---       #38
      010076B0H   LINE      CODE     ---       #39
      010076B5H   LINE      CODE     ---       #40
      ---         BLOCKEND  ---      ---       LVL=0

      ---         MODULE    ---      ---       BOOTLOADABLE
      01007637H   PUBLIC    CODE     ---       Bootloadable_Load
      000000CAH   SFRSYM    DATA     BYTE      SFRPRT5SEL
      000000DAH   SFRSYM    DATA     BYTE      SFRPRT6SEL
      000000D0H.6 SFRSYM    DATA     BIT       AC
      000000A8H.7 SFRSYM    DATA     BIT       EA
      000000A8H   SFRSYM    DATA     BYTE      IE
      00000085H   SFRSYM    DATA     BYTE      DPH1
      00000084H   SFRSYM    DATA     BYTE      DPL1
      000000D0H.7 SFRSYM    DATA     BIT       CY
      000000A0H   SFRSYM    DATA     BYTE      P2AX
      00000095H   SFRSYM    DATA     BYTE      DPX1
      00000081H   SFRSYM    DATA     BYTE      SP
      000000D0H.2 SFRSYM    DATA     BIT       OV
      00000080H   SFRSYM    DATA     BYTE      SFRPRT0DR
LX51 LINKER/LOCATER V4.64.0.0                                                         01/24/2017  11:05:18  PAGE 64


      00000090H   SFRSYM    DATA     BYTE      SFRPRT1DR
      000000F2H   SFRSYM    DATA     BYTE      SFRPRT12SEL
      00000098H   SFRSYM    DATA     BYTE      SFRPRT2DR
      000000B0H   SFRSYM    DATA     BYTE      SFRPRT3DR
      000000C0H   SFRSYM    DATA     BYTE      SFRPRT4DR
      000000FAH   SFRSYM    DATA     BYTE      SFRPRT15SEL
      000000C8H   SFRSYM    DATA     BYTE      SFRPRT5DR
      000000D8H   SFRSYM    DATA     BYTE      SFRPRT6DR
      00000089H   SFRSYM    DATA     BYTE      SFRPRT0PS
      00000091H   SFRSYM    DATA     BYTE      SFRPRT1PS
      00000099H   SFRSYM    DATA     BYTE      SFRPRT2PS
      000000B1H   SFRSYM    DATA     BYTE      SFRPRT3PS
      000000C1H   SFRSYM    DATA     BYTE      SFRPRT4PS
      000000C9H   SFRSYM    DATA     BYTE      SFRPRT5PS
      000000D9H   SFRSYM    DATA     BYTE      SFRPRT6PS
      000000EAH   SFRSYM    DATA     BYTE      MXAX
      000000F0H   SFRSYM    DATA     BYTE      B
      000000E0H   SFRSYM    DATA     BYTE      ACC
      000000D0H   SFRSYM    DATA     BIT       P
      000000D0H.3 SFRSYM    DATA     BIT       RS0
      000000D0H.4 SFRSYM    DATA     BIT       RS1
      00000083H   SFRSYM    DATA     BYTE      DPH
      000000E8H   SFRSYM    DATA     BYTE      SFRPRT12DR
      00000082H   SFRSYM    DATA     BYTE      DPL
      000000F8H   SFRSYM    DATA     BYTE      SFRPRT15DR
      00000086H   SFRSYM    DATA     BYTE      DPS
      000000E9H   SFRSYM    DATA     BYTE      SFRPRT12PS
      00000093H   SFRSYM    DATA     BYTE      DPX
      000000F9H   SFRSYM    DATA     BYTE      SFRPRT15PS
      000000D0H.5 SFRSYM    DATA     BIT       F0
      000000D0H.1 SFRSYM    DATA     BIT       F1
      0000008AH   SFRSYM    DATA     BYTE      SFRPRT0SEL
      000000D0H   SFRSYM    DATA     BYTE      PSW
      000000A2H   SFRSYM    DATA     BYTE      SFRPRT1SEL
      0000009AH   SFRSYM    DATA     BYTE      SFRPRT2SEL
      000000B2H   SFRSYM    DATA     BYTE      SFRPRT3SEL
      000000C2H   SFRSYM    DATA     BYTE      SFRPRT4SEL

      01007637H   BLOCK     CODE     ---       LVL=0
      01007637H   LINE      CODE     ---       #41
      01007637H   LINE      CODE     ---       #42
      01007637H   LINE      CODE     ---       #44
      0100763DH   LINE      CODE     ---       #46
      01007640H   LINE      CODE     ---       #47
      ---         BLOCKEND  ---      ---       LVL=0
      00000002H   SYMBOL    DATA     WORD      idx

      ---         MODULE    ---      ---       FTDI_ENABLE_REG
      010076B6H   PUBLIC    CODE     ---       _FTDI_ENABLE_REG_Write

      010076B6H   BLOCK     CODE     ---       LVL=0
      00000007H   SYMBOL    DATA     BYTE      control
      010076B6H   LINE      CODE     ---       #37
      010076B6H   LINE      CODE     ---       #38
      010076B6H   LINE      CODE     ---       #39
      010076BBH   LINE      CODE     ---       #40
      ---         BLOCKEND  ---      ---       LVL=0

      ---         MODULE    ---      ---       RESET_FF
      010076BCH   PUBLIC    CODE     ---       _RESET_FF_Write

      010076BCH   BLOCK     CODE     ---       LVL=0
      00000007H   SYMBOL    DATA     BYTE      control
      010076BCH   LINE      CODE     ---       #37
      010076BCH   LINE      CODE     ---       #38
LX51 LINKER/LOCATER V4.64.0.0                                                         01/24/2017  11:05:18  PAGE 65


      010076BCH   LINE      CODE     ---       #39
      010076C1H   LINE      CODE     ---       #40
      ---         BLOCKEND  ---      ---       LVL=0

      ---         MODULE    ---      ---       FF_STATUS
      010076C2H   PUBLIC    CODE     ---       FF_STATUS_Read
      000000CAH   SFRSYM    DATA     BYTE      SFRPRT5SEL
      000000DAH   SFRSYM    DATA     BYTE      SFRPRT6SEL
      000000D0H.6 SFRSYM    DATA     BIT       AC
      000000A8H.7 SFRSYM    DATA     BIT       EA
      000000A8H   SFRSYM    DATA     BYTE      IE
      00000085H   SFRSYM    DATA     BYTE      DPH1
      00000084H   SFRSYM    DATA     BYTE      DPL1
      000000D0H.7 SFRSYM    DATA     BIT       CY
      000000A0H   SFRSYM    DATA     BYTE      P2AX
      00000095H   SFRSYM    DATA     BYTE      DPX1
      00000081H   SFRSYM    DATA     BYTE      SP
      000000D0H.2 SFRSYM    DATA     BIT       OV
      00000080H   SFRSYM    DATA     BYTE      SFRPRT0DR
      00000090H   SFRSYM    DATA     BYTE      SFRPRT1DR
      000000F2H   SFRSYM    DATA     BYTE      SFRPRT12SEL
      00000098H   SFRSYM    DATA     BYTE      SFRPRT2DR
      000000B0H   SFRSYM    DATA     BYTE      SFRPRT3DR
      000000C0H   SFRSYM    DATA     BYTE      SFRPRT4DR
      000000FAH   SFRSYM    DATA     BYTE      SFRPRT15SEL
      000000C8H   SFRSYM    DATA     BYTE      SFRPRT5DR
      000000D8H   SFRSYM    DATA     BYTE      SFRPRT6DR
      00000089H   SFRSYM    DATA     BYTE      SFRPRT0PS
      00000091H   SFRSYM    DATA     BYTE      SFRPRT1PS
      00000099H   SFRSYM    DATA     BYTE      SFRPRT2PS
      000000B1H   SFRSYM    DATA     BYTE      SFRPRT3PS
      000000C1H   SFRSYM    DATA     BYTE      SFRPRT4PS
      000000C9H   SFRSYM    DATA     BYTE      SFRPRT5PS
      000000D9H   SFRSYM    DATA     BYTE      SFRPRT6PS
      000000EAH   SFRSYM    DATA     BYTE      MXAX
      000000F0H   SFRSYM    DATA     BYTE      B
      000000E0H   SFRSYM    DATA     BYTE      ACC
      000000D0H   SFRSYM    DATA     BIT       P
      000000D0H.3 SFRSYM    DATA     BIT       RS0
      000000D0H.4 SFRSYM    DATA     BIT       RS1
      00000083H   SFRSYM    DATA     BYTE      DPH
      000000E8H   SFRSYM    DATA     BYTE      SFRPRT12DR
      00000082H   SFRSYM    DATA     BYTE      DPL
      000000F8H   SFRSYM    DATA     BYTE      SFRPRT15DR
      00000086H   SFRSYM    DATA     BYTE      DPS
      000000E9H   SFRSYM    DATA     BYTE      SFRPRT12PS
      00000093H   SFRSYM    DATA     BYTE      DPX
      000000F9H   SFRSYM    DATA     BYTE      SFRPRT15PS
      000000D0H.5 SFRSYM    DATA     BIT       F0
      000000D0H.1 SFRSYM    DATA     BIT       F1
      0000008AH   SFRSYM    DATA     BYTE      SFRPRT0SEL
      000000D0H   SFRSYM    DATA     BYTE      PSW
      000000A2H   SFRSYM    DATA     BYTE      SFRPRT1SEL
      0000009AH   SFRSYM    DATA     BYTE      SFRPRT2SEL
      000000B2H   SFRSYM    DATA     BYTE      SFRPRT3SEL
      000000C2H   SFRSYM    DATA     BYTE      SFRPRT4SEL

      010076C2H   BLOCK     CODE     ---       LVL=0
      010076C2H   LINE      CODE     ---       #37
      010076C2H   LINE      CODE     ---       #38
      010076C2H   LINE      CODE     ---       #39
      010076C7H   LINE      CODE     ---       #40
      ---         BLOCKEND  ---      ---       LVL=0
      00000007H   SYMBOL    DATA     BYTE      interruptState
      00000007H   SYMBOL    DATA     BYTE      interruptState
LX51 LINKER/LOCATER V4.64.0.0                                                         01/24/2017  11:05:18  PAGE 66


      00000007H   SYMBOL    DATA     BYTE      mask

      ---         MODULE    ---      ---       MY_TIMER
      02001138H   PUBLIC    XDATA    BYTE      MY_TIMER_initVar
      010075E5H   PUBLIC    CODE     ---       MY_TIMER_ClearFIFO
      01007538H   PUBLIC    CODE     ---       MY_TIMER_ReadCounter
      01007655H   PUBLIC    CODE     ---       _MY_TIMER_WriteCounter
      0100764BH   PUBLIC    CODE     ---       MY_TIMER_ReadCapture
      01007641H   PUBLIC    CODE     ---       _MY_TIMER_WritePeriod
      010076CEH   PUBLIC    CODE     ---       MY_TIMER_ReadStatusRegister
      010076C8H   PUBLIC    CODE     ---       _MY_TIMER_SetInterruptMode
      010074A6H   PUBLIC    CODE     ---       MY_TIMER_Start
      01007671H   PUBLIC    CODE     ---       MY_TIMER_Enable
      01007159H   PUBLIC    CODE     ---       MY_TIMER_Init
      000000CAH   SFRSYM    DATA     BYTE      SFRPRT5SEL
      000000DAH   SFRSYM    DATA     BYTE      SFRPRT6SEL
      000000D0H.6 SFRSYM    DATA     BIT       AC
      000000A8H.7 SFRSYM    DATA     BIT       EA
      000000A8H   SFRSYM    DATA     BYTE      IE
      00000085H   SFRSYM    DATA     BYTE      DPH1
      00000084H   SFRSYM    DATA     BYTE      DPL1
      000000D0H.7 SFRSYM    DATA     BIT       CY
      000000A0H   SFRSYM    DATA     BYTE      P2AX
      00000095H   SFRSYM    DATA     BYTE      DPX1
      00000081H   SFRSYM    DATA     BYTE      SP
      000000D0H.2 SFRSYM    DATA     BIT       OV
      00000080H   SFRSYM    DATA     BYTE      SFRPRT0DR
      00000090H   SFRSYM    DATA     BYTE      SFRPRT1DR
      000000F2H   SFRSYM    DATA     BYTE      SFRPRT12SEL
      00000098H   SFRSYM    DATA     BYTE      SFRPRT2DR
      000000B0H   SFRSYM    DATA     BYTE      SFRPRT3DR
      000000C0H   SFRSYM    DATA     BYTE      SFRPRT4DR
      000000FAH   SFRSYM    DATA     BYTE      SFRPRT15SEL
      000000C8H   SFRSYM    DATA     BYTE      SFRPRT5DR
      000000D8H   SFRSYM    DATA     BYTE      SFRPRT6DR
      00000089H   SFRSYM    DATA     BYTE      SFRPRT0PS
      00000091H   SFRSYM    DATA     BYTE      SFRPRT1PS
      00000099H   SFRSYM    DATA     BYTE      SFRPRT2PS
      000000B1H   SFRSYM    DATA     BYTE      SFRPRT3PS
      000000C1H   SFRSYM    DATA     BYTE      SFRPRT4PS
      000000C9H   SFRSYM    DATA     BYTE      SFRPRT5PS
      000000D9H   SFRSYM    DATA     BYTE      SFRPRT6PS
      000000EAH   SFRSYM    DATA     BYTE      MXAX
      000000F0H   SFRSYM    DATA     BYTE      B
      000000E0H   SFRSYM    DATA     BYTE      ACC
      000000D0H   SFRSYM    DATA     BIT       P
      000000D0H.3 SFRSYM    DATA     BIT       RS0
      000000D0H.4 SFRSYM    DATA     BIT       RS1
      00000083H   SFRSYM    DATA     BYTE      DPH
      000000E8H   SFRSYM    DATA     BYTE      SFRPRT12DR
      00000082H   SFRSYM    DATA     BYTE      DPL
      000000F8H   SFRSYM    DATA     BYTE      SFRPRT15DR
      00000086H   SFRSYM    DATA     BYTE      DPS
      000000E9H   SFRSYM    DATA     BYTE      SFRPRT12PS
      00000093H   SFRSYM    DATA     BYTE      DPX
      000000F9H   SFRSYM    DATA     BYTE      SFRPRT15PS
      000000D0H.5 SFRSYM    DATA     BIT       F0
      000000D0H.1 SFRSYM    DATA     BIT       F1
      0000008AH   SFRSYM    DATA     BYTE      SFRPRT0SEL
      000000D0H   SFRSYM    DATA     BYTE      PSW
      000000A2H   SFRSYM    DATA     BYTE      SFRPRT1SEL
      0000009AH   SFRSYM    DATA     BYTE      SFRPRT2SEL
      000000B2H   SFRSYM    DATA     BYTE      SFRPRT3SEL
      000000C2H   SFRSYM    DATA     BYTE      SFRPRT4SEL

LX51 LINKER/LOCATER V4.64.0.0                                                         01/24/2017  11:05:18  PAGE 67


      01007159H   BLOCK     CODE     ---       LVL=0
      01007159H   BLOCK     CODE     NEAR LAB  LVL=1
      00000007H   SYMBOL    DATA     BYTE      MY_TIMER_interruptState
      ---         BLOCKEND  ---      ---       LVL=1
      01007159H   LINE      CODE     ---       #43
      01007159H   LINE      CODE     ---       #44
      01007159H   LINE      CODE     ---       #118
      01007164H   LINE      CODE     ---       #119
      0100716FH   LINE      CODE     ---       #142
      01007172H   LINE      CODE     ---       #145
      01007179H   LINE      CODE     ---       #148
      0100717CH   LINE      CODE     ---       #159
      0100717FH   LINE      CODE     ---       #162
      01007184H   LINE      CODE     ---       #163
      ---         BLOCKEND  ---      ---       LVL=0

      01007671H   BLOCK     CODE     ---       LVL=0
      01007671H   LINE      CODE     ---       #180
      01007671H   LINE      CODE     ---       #181
      01007671H   LINE      CODE     ---       #190
      01007678H   LINE      CODE     ---       #192
      ---         BLOCKEND  ---      ---       LVL=0

      010074A6H   BLOCK     CODE     ---       LVL=0
      010074A6H   LINE      CODE     ---       #215
      010074A6H   LINE      CODE     ---       #216
      010074A6H   LINE      CODE     ---       #217
      010074ACH   LINE      CODE     ---       #218
      010074ACH   LINE      CODE     ---       #219
      010074AFH   LINE      CODE     ---       #221
      010074B5H   LINE      CODE     ---       #222
      010074B5H   LINE      CODE     ---       #225
      010074B8H   LINE      CODE     ---       #226
      ---         BLOCKEND  ---      ---       LVL=0

      010076C8H   BLOCK     CODE     ---       LVL=0
      00000007H   SYMBOL    DATA     BYTE      interruptMode
      010076C8H   LINE      CODE     ---       #279
      010076C8H   LINE      CODE     ---       #280
      010076C8H   LINE      CODE     ---       #281
      010076CDH   LINE      CODE     ---       #282
      ---         BLOCKEND  ---      ---       LVL=0

      010076CEH   BLOCK     CODE     ---       LVL=0
      010076CEH   LINE      CODE     ---       #333
      010076CEH   LINE      CODE     ---       #334
      010076CEH   LINE      CODE     ---       #335
      010076D3H   LINE      CODE     ---       #336
      ---         BLOCKEND  ---      ---       LVL=0
      00000007H   SYMBOL    DATA     BYTE      control

      01007641H   BLOCK     CODE     ---       LVL=0
      00000004H   SYMBOL    DATA     DWORD     period
      01007641H   LINE      CODE     ---       #431
      01007641H   LINE      CODE     ---       #432
      01007641H   LINE      CODE     ---       #437
      0100764AH   LINE      CODE     ---       #439
      ---         BLOCKEND  ---      ---       LVL=0

      0100764BH   BLOCK     CODE     ---       LVL=0
      0100764BH   LINE      CODE     ---       #456
      0100764BH   LINE      CODE     ---       #457
      0100764BH   LINE      CODE     ---       #461
      01007654H   LINE      CODE     ---       #463
      ---         BLOCKEND  ---      ---       LVL=0
LX51 LINKER/LOCATER V4.64.0.0                                                         01/24/2017  11:05:18  PAGE 68



      01007655H   BLOCK     CODE     ---       LVL=0
      00000004H   SYMBOL    DATA     DWORD     counter
      01007655H   LINE      CODE     ---       #480
      01007655H   LINE      CODE     ---       #481
      01007655H   LINE      CODE     ---       #489
      0100765EH   LINE      CODE     ---       #491
      ---         BLOCKEND  ---      ---       LVL=0

      01007538H   BLOCK     CODE     ---       LVL=0
      01007538H   LINE      CODE     ---       #508
      01007538H   LINE      CODE     ---       #509
      01007538H   LINE      CODE     ---       #516
      0100753DH   LINE      CODE     ---       #523
      01007546H   LINE      CODE     ---       #525
      ---         BLOCKEND  ---      ---       LVL=0

      010075E5H   BLOCK     CODE     ---       LVL=0
      010075E5H   LINE      CODE     ---       #763
      010075E5H   LINE      CODE     ---       #764
      010075E5H   LINE      CODE     ---       #765
      010075ECH   LINE      CODE     ---       #766
      010075ECH   LINE      CODE     ---       #767
      010075EFH   LINE      CODE     ---       #768
      010075F1H   LINE      CODE     ---       #769
      ---         BLOCKEND  ---      ---       LVL=0

      ---         MODULE    ---      ---       CYFLASH
      0200112DH   PUBLIC    XDATA    ---       dieTemperature
      0100706DH   PUBLIC    CODE     ---       CyEEPROM_Start
      0100737CH   PUBLIC    CODE     ---       CySetTemp
      000000CAH   SFRSYM    DATA     BYTE      SFRPRT5SEL
      000000DAH   SFRSYM    DATA     BYTE      SFRPRT6SEL
      000000D0H.6 SFRSYM    DATA     BIT       AC
      000000A8H.7 SFRSYM    DATA     BIT       EA
      000000A8H   SFRSYM    DATA     BYTE      IE
      00000085H   SFRSYM    DATA     BYTE      DPH1
      00000084H   SFRSYM    DATA     BYTE      DPL1
      000000D0H.7 SFRSYM    DATA     BIT       CY
      000000A0H   SFRSYM    DATA     BYTE      P2AX
      00000095H   SFRSYM    DATA     BYTE      DPX1
      00000081H   SFRSYM    DATA     BYTE      SP
      000000D0H.2 SFRSYM    DATA     BIT       OV
      00000080H   SFRSYM    DATA     BYTE      SFRPRT0DR
      00000090H   SFRSYM    DATA     BYTE      SFRPRT1DR
      000000F2H   SFRSYM    DATA     BYTE      SFRPRT12SEL
      00000098H   SFRSYM    DATA     BYTE      SFRPRT2DR
      000000B0H   SFRSYM    DATA     BYTE      SFRPRT3DR
      000000C0H   SFRSYM    DATA     BYTE      SFRPRT4DR
      000000FAH   SFRSYM    DATA     BYTE      SFRPRT15SEL
      000000C8H   SFRSYM    DATA     BYTE      SFRPRT5DR
      000000D8H   SFRSYM    DATA     BYTE      SFRPRT6DR
      00000089H   SFRSYM    DATA     BYTE      SFRPRT0PS
      00000091H   SFRSYM    DATA     BYTE      SFRPRT1PS
      00000099H   SFRSYM    DATA     BYTE      SFRPRT2PS
      000000B1H   SFRSYM    DATA     BYTE      SFRPRT3PS
      000000C1H   SFRSYM    DATA     BYTE      SFRPRT4PS
      000000C9H   SFRSYM    DATA     BYTE      SFRPRT5PS
      000000D9H   SFRSYM    DATA     BYTE      SFRPRT6PS
      000000EAH   SFRSYM    DATA     BYTE      MXAX
      000000F0H   SFRSYM    DATA     BYTE      B
      000000E0H   SFRSYM    DATA     BYTE      ACC
      000000D0H   SFRSYM    DATA     BIT       P
      000000D0H.3 SFRSYM    DATA     BIT       RS0
      000000D0H.4 SFRSYM    DATA     BIT       RS1
LX51 LINKER/LOCATER V4.64.0.0                                                         01/24/2017  11:05:18  PAGE 69


      00000083H   SFRSYM    DATA     BYTE      DPH
      000000E8H   SFRSYM    DATA     BYTE      SFRPRT12DR
      00000082H   SFRSYM    DATA     BYTE      DPL
      000000F8H   SFRSYM    DATA     BYTE      SFRPRT15DR
      00000086H   SFRSYM    DATA     BYTE      DPS
      000000E9H   SFRSYM    DATA     BYTE      SFRPRT12PS
      00000093H   SFRSYM    DATA     BYTE      DPX
      000000F9H   SFRSYM    DATA     BYTE      SFRPRT15PS
      000000D0H.5 SFRSYM    DATA     BIT       F0
      000000D0H.1 SFRSYM    DATA     BIT       F1
      0000008AH   SFRSYM    DATA     BYTE      SFRPRT0SEL
      000000D0H   SFRSYM    DATA     BYTE      PSW
      000000A2H   SFRSYM    DATA     BYTE      SFRPRT1SEL
      0000009AH   SFRSYM    DATA     BYTE      SFRPRT2SEL
      000000B2H   SFRSYM    DATA     BYTE      SFRPRT3SEL
      000000C2H   SFRSYM    DATA     BYTE      SFRPRT4SEL
      01006C8DH   SYMBOL    CODE     ---       CyFlashGetSpcAlgorithm
      01006B3BH   SYMBOL    CODE     ---       CySetTempInt
      0200112AH   SYMBOL    XDATA    ---       rowBuffer
      00000007H   SYMBOL    DATA     BYTE      interruptState
      00000007H   SYMBOL    DATA     BYTE      interruptState

      01006B3BH   BLOCK     CODE     ---       LVL=0
      01006B3BH   BLOCK     CODE     NEAR LAB  LVL=1
      02000590H   SYMBOL    XDATA    BYTE      status
      ---         BLOCKEND  ---      ---       LVL=1
      01006B3BH   LINE      CODE     ---       #155
      01006B3BH   LINE      CODE     ---       #156
      01006B3BH   LINE      CODE     ---       #160
      01006B3EH   LINE      CODE     ---       #163
      01006B44H   LINE      CODE     ---       #165
      01006B4AH   LINE      CODE     ---       #166
      01006B4AH   LINE      CODE     ---       #168
      01006B54H   LINE      CODE     ---       #169
      01006B54H   LINE      CODE     ---       #171
      01006B54H   LINE      CODE     ---       #172
      01006B63H   LINE      CODE     ---       #173
      01006B63H   LINE      CODE     ---       #174
      01006B68H   LINE      CODE     ---       #176
      01006B70H   LINE      CODE     ---       #177
      01006B70H   LINE      CODE     ---       #179
      01006B76H   LINE      CODE     ---       #180
      01006B78H   LINE      CODE     ---       #181
      01006B78H   LINE      CODE     ---       #182
      01006B78H   LINE      CODE     ---       #184
      01006B80H   LINE      CODE     ---       #185
      01006B80H   LINE      CODE     ---       #187
      01006B83H   LINE      CODE     ---       #188
      01006B85H   LINE      CODE     ---       #190
      01006B85H   LINE      CODE     ---       #191
      01006B8BH   LINE      CODE     ---       #192
      01006B8BH   LINE      CODE     ---       #194
      01006B90H   LINE      CODE     ---       #195
      ---         BLOCKEND  ---      ---       LVL=0

      01006C8DH   BLOCK     CODE     ---       LVL=0
      01006C8DH   BLOCK     CODE     NEAR LAB  LVL=1
      02000590H   SYMBOL    XDATA    BYTE      status
      ---         BLOCKEND  ---      ---       LVL=1
      01006C8DH   LINE      CODE     ---       #215
      01006C8DH   LINE      CODE     ---       #216
      01006C8DH   LINE      CODE     ---       #220
      01006C90H   LINE      CODE     ---       #222
      01006C96H   LINE      CODE     ---       #223
      01006C96H   LINE      CODE     ---       #224
LX51 LINKER/LOCATER V4.64.0.0                                                         01/24/2017  11:05:18  PAGE 70


      01006C9EH   LINE      CODE     ---       #226
      01006CA2H   LINE      CODE     ---       #227
      01006CA2H   LINE      CODE     ---       #228
      01006CAAH   LINE      CODE     ---       #229
      01006CAAH   LINE      CODE     ---       #231
      01006CB0H   LINE      CODE     ---       #232
      01006CB2H   LINE      CODE     ---       #234
      01006CC8H   LINE      CODE     ---       #235
      01006CC8H   LINE      CODE     ---       #236
      01006CCCH   LINE      CODE     ---       #237
      01006CCCH   LINE      CODE     ---       #238
      01006CCCH   LINE      CODE     ---       #239
      01006CCFH   LINE      CODE     ---       #240
      01006CD1H   LINE      CODE     ---       #242
      01006CD1H   LINE      CODE     ---       #243
      01006CD7H   LINE      CODE     ---       #244
      01006CD7H   LINE      CODE     ---       #246
      01006CDCH   LINE      CODE     ---       #247
      ---         BLOCKEND  ---      ---       LVL=0

      0100737CH   BLOCK     CODE     ---       LVL=0
      0100737CH   BLOCK     CODE     NEAR LAB  LVL=1
      0200058FH   SYMBOL    XDATA    BYTE      status
      ---         BLOCKEND  ---      ---       LVL=1
      0100737CH   LINE      CODE     ---       #273
      0100737CH   LINE      CODE     ---       #274
      0100737CH   LINE      CODE     ---       #275
      01007384H   LINE      CODE     ---       #277
      01007386H   LINE      CODE     ---       #278
      01007386H   LINE      CODE     ---       #279
      0100738EH   LINE      CODE     ---       #280
      0100738EH   LINE      CODE     ---       #282
      01007393H   LINE      CODE     ---       #283
      ---         BLOCKEND  ---      ---       LVL=0
      00000004H   SYMBOL    DATA     WORD      rowAddress
      00000001H   SYMBOL    DATA     ---       rowData
      00000007H   SYMBOL    DATA     BYTE      status
      00000007H   SYMBOL    DATA     BYTE      interruptState

      0100706DH   BLOCK     CODE     ---       LVL=0
      0100706DH   BLOCK     CODE     NEAR LAB  LVL=1
      00000007H   SYMBOL    DATA     BYTE      interruptState
      ---         BLOCKEND  ---      ---       LVL=1
      0100706DH   LINE      CODE     ---       #636
      0100706DH   LINE      CODE     ---       #637
      0100706DH   LINE      CODE     ---       #640
      01007070H   LINE      CODE     ---       #647
      01007077H   LINE      CODE     ---       #648
      0100707EH   LINE      CODE     ---       #661
      01007084H   LINE      CODE     ---       #668
      0100708BH   LINE      CODE     ---       #669
      01007092H   LINE      CODE     ---       #671
      0100709AH   LINE      CODE     ---       #672
      0100709AH   LINE      CODE     ---       #674
      0100709AH   LINE      CODE     ---       #676
      0100709DH   LINE      CODE     ---       #677
      ---         BLOCKEND  ---      ---       LVL=0
      00000007H   SYMBOL    DATA     BYTE      interruptState

      ---         MODULE    ---      ---       CYLIB
      02001126H   PUBLIC    XDATA    DWORD     cydelay_32k_ms
      02001125H   PUBLIC    XDATA    BYTE      CyResetStatus
      02001121H   PUBLIC    XDATA    DWORD     cydelay_freq_hz
      02001120H   PUBLIC    XDATA    BYTE      cydelay_freq_mhz
      0200111CH   PUBLIC    XDATA    DWORD     cydelay_freq_khz
LX51 LINKER/LOCATER V4.64.0.0                                                         01/24/2017  11:05:18  PAGE 71


      0100734AH   PUBLIC    CODE     ---       _CyIntSetPriority
      01006BE5H   PUBLIC    CODE     ---       _CyIntSetVector
      01006835H   PUBLIC    CODE     ---       _?CyDelay
      01007679H   PUBLIC    CODE     ---       CySoftwareReset
      000000CAH   SFRSYM    DATA     BYTE      SFRPRT5SEL
      000000DAH   SFRSYM    DATA     BYTE      SFRPRT6SEL
      000000D0H.6 SFRSYM    DATA     BIT       AC
      000000A8H.7 SFRSYM    DATA     BIT       EA
      000000A8H   SFRSYM    DATA     BYTE      IE
      00000085H   SFRSYM    DATA     BYTE      DPH1
      00000084H   SFRSYM    DATA     BYTE      DPL1
      000000D0H.7 SFRSYM    DATA     BIT       CY
      000000A0H   SFRSYM    DATA     BYTE      P2AX
      00000095H   SFRSYM    DATA     BYTE      DPX1
      00000081H   SFRSYM    DATA     BYTE      SP
      000000D0H.2 SFRSYM    DATA     BIT       OV
      00000080H   SFRSYM    DATA     BYTE      SFRPRT0DR
      00000090H   SFRSYM    DATA     BYTE      SFRPRT1DR
      000000F2H   SFRSYM    DATA     BYTE      SFRPRT12SEL
      00000098H   SFRSYM    DATA     BYTE      SFRPRT2DR
      000000B0H   SFRSYM    DATA     BYTE      SFRPRT3DR
      000000C0H   SFRSYM    DATA     BYTE      SFRPRT4DR
      000000FAH   SFRSYM    DATA     BYTE      SFRPRT15SEL
      000000C8H   SFRSYM    DATA     BYTE      SFRPRT5DR
      000000D8H   SFRSYM    DATA     BYTE      SFRPRT6DR
      00000089H   SFRSYM    DATA     BYTE      SFRPRT0PS
      00000091H   SFRSYM    DATA     BYTE      SFRPRT1PS
      00000099H   SFRSYM    DATA     BYTE      SFRPRT2PS
      000000B1H   SFRSYM    DATA     BYTE      SFRPRT3PS
      000000C1H   SFRSYM    DATA     BYTE      SFRPRT4PS
      000000C9H   SFRSYM    DATA     BYTE      SFRPRT5PS
      000000D9H   SFRSYM    DATA     BYTE      SFRPRT6PS
      000000EAH   SFRSYM    DATA     BYTE      MXAX
      000000F0H   SFRSYM    DATA     BYTE      B
      000000E0H   SFRSYM    DATA     BYTE      ACC
      000000D0H   SFRSYM    DATA     BIT       P
      000000D0H.3 SFRSYM    DATA     BIT       RS0
      000000D0H.4 SFRSYM    DATA     BIT       RS1
      00000083H   SFRSYM    DATA     BYTE      DPH
      000000E8H   SFRSYM    DATA     BYTE      SFRPRT12DR
      00000082H   SFRSYM    DATA     BYTE      DPL
      000000F8H   SFRSYM    DATA     BYTE      SFRPRT15DR
      00000086H   SFRSYM    DATA     BYTE      DPS
      000000E9H   SFRSYM    DATA     BYTE      SFRPRT12PS
      00000093H   SFRSYM    DATA     BYTE      DPX
      000000F9H   SFRSYM    DATA     BYTE      SFRPRT15PS
      000000D0H.5 SFRSYM    DATA     BIT       F0
      000000D0H.1 SFRSYM    DATA     BIT       F1
      0000008AH   SFRSYM    DATA     BYTE      SFRPRT0SEL
      000000D0H   SFRSYM    DATA     BYTE      PSW
      000000A2H   SFRSYM    DATA     BYTE      SFRPRT1SEL
      0000009AH   SFRSYM    DATA     BYTE      SFRPRT2SEL
      000000B2H   SFRSYM    DATA     BYTE      SFRPRT3SEL
      000000C2H   SFRSYM    DATA     BYTE      SFRPRT4SEL
      00000007H   SYMBOL    DATA     BYTE      wait
      00000007H   SYMBOL    DATA     BYTE      pDiv
      00000005H   SYMBOL    DATA     BYTE      qDiv
      00000003H   SYMBOL    DATA     BYTE      current
      00000007H   SYMBOL    DATA     BYTE      source
      00000007H   SYMBOL    DATA     BYTE      wait
      00000007H   SYMBOL    DATA     BYTE      poweredOn
      00000006H   SYMBOL    DATA     BYTE      freq
      00000007H   SYMBOL    DATA     BYTE      source
      00000007H   SYMBOL    DATA     BYTE      source
      00000007H   SYMBOL    DATA     BYTE      divider
LX51 LINKER/LOCATER V4.64.0.0                                                         01/24/2017  11:05:18  PAGE 72


      00000006H   SYMBOL    DATA     WORD      divider
      00000005H   SYMBOL    DATA     BYTE      masterClkDiv
      00000006H   SYMBOL    DATA     WORD      busClkDiv
      00000001H   SYMBOL    DATA     BYTE      interruptState
      00000007H   SYMBOL    DATA     BYTE      divider
      00000007H   SYMBOL    DATA     BYTE      source
      00000007H   SYMBOL    DATA     BYTE      source
      00000007H   SYMBOL    DATA     BYTE      mode
      00000006H   SYMBOL    DATA     BYTE      state
      00000007H   SYMBOL    DATA     BYTE      mode
      00000007H   SYMBOL    DATA     BYTE      wait
      00000007H   SYMBOL    DATA     BYTE      setting
      00000007H   SYMBOL    DATA     BYTE      setting
      00000007H   SYMBOL    DATA     BYTE      setting
      00000000H   SYMBOL    XSTK     BYTE      reason

      01007679H   BLOCK     CODE     ---       LVL=0
      01007679H   LINE      CODE     ---       #1666
      01007679H   LINE      CODE     ---       #1667
      01007679H   LINE      CODE     ---       #1668
      01007680H   LINE      CODE     ---       #1669
      ---         BLOCKEND  ---      ---       LVL=0

      01006835H   BLOCK     CODE     ---       LVL=0
      00000000H   SYMBOL    XSTK     DWORD     milliseconds
      01006835H   LINE      CODE     ---       #1692
      0100683EH   LINE      CODE     ---       #1694
      01006854H   LINE      CODE     ---       #1695
      01006854H   LINE      CODE     ---       #1700
      01006865H   LINE      CODE     ---       #1701
      0100688FH   LINE      CODE     ---       #1702
      01006891H   LINE      CODE     ---       #1704
      010068B6H   LINE      CODE     ---       #1705
      ---         BLOCKEND  ---      ---       LVL=0
      00000000H   SYMBOL    XSTK     DWORD     freq
      00000007H   SYMBOL    DATA     BYTE      ticks
      00000005H   SYMBOL    DATA     BYTE      lpMode
      0200111BH   SYMBOL    XDATA    BYTE      interruptStatus
      00000005H   SYMBOL    DATA     BYTE      interruptState
      00000005H   SYMBOL    DATA     BYTE      interruptState
      00000003H   SYMBOL    DATA     BYTE      interruptState

      01006BE5H   BLOCK     CODE     ---       LVL=0
      02000588H   SYMBOL    XDATA    BYTE      number
      02000589H   SYMBOL    XDATA    ---       address
      01006BF2H   BLOCK     CODE     NEAR LAB  LVL=1
      0200058BH   SYMBOL    XDATA    ---       oldIsr
      ---         BLOCKEND  ---      ---       LVL=1
      01006BE5H   LINE      CODE     ---       #2641
      01006BF2H   LINE      CODE     ---       #2642
      01006BF2H   LINE      CODE     ---       #2648
      01006C10H   LINE      CODE     ---       #2652
      01006C30H   LINE      CODE     ---       #2654
      01006C38H   LINE      CODE     ---       #2655
      ---         BLOCKEND  ---      ---       LVL=0
      00000007H   SYMBOL    DATA     BYTE      number

      0100734AH   BLOCK     CODE     ---       LVL=0
      00000004H   SYMBOL    DATA     BYTE      number
      00000005H   SYMBOL    DATA     BYTE      priority
      0100734AH   LINE      CODE     ---       #2696
      0100734CH   LINE      CODE     ---       #2697
      0100734CH   LINE      CODE     ---       #2702
      01007362H   LINE      CODE     ---       #2704
      ---         BLOCKEND  ---      ---       LVL=0
LX51 LINKER/LOCATER V4.64.0.0                                                         01/24/2017  11:05:18  PAGE 73


      00000007H   SYMBOL    DATA     BYTE      number
      00000007H   SYMBOL    DATA     BYTE      priority
      00000005H   SYMBOL    DATA     BYTE      number
      00000006H   SYMBOL    DATA     ---       stateReg

      ---         MODULE    ---      ---       ?C_STARTUP
      00000000H   PUBLIC    NUMBER   ---       ?C?XPAGE1RST
      00000093H   PUBLIC    DATA     BYTE      ?C?XPAGE1SFR
      01002600H   PUBLIC    CODE     NEAR LAB  ?C_STARTUP
      01005C6FH   PUBLIC    CODE     NEAR LAB  STARTUP1
      01002604H   PUBLIC    CODE     NEAR LAB  _dma_wait

      ---         MODULE    ---      ---       ISR_WATCHDOG
      0100769DH   PUBLIC    CODE     ---       ISR_WATCHDOG_Disable
      01007696H   PUBLIC    CODE     ---       ISR_WATCHDOG_Enable
      0100765FH   PUBLIC    CODE     ---       _ISR_WATCHDOG_SetPriority
      010075BCH   PUBLIC    CODE     ---       _ISR_WATCHDOG_SetVector
      01007719H   PUBLIC    CODE     ---       ISR_WATCHDOG_Interrupt
      0100729FH   PUBLIC    CODE     ---       _ISR_WATCHDOG_StartEx
      000000CAH   SFRSYM    DATA     BYTE      SFRPRT5SEL
      000000DAH   SFRSYM    DATA     BYTE      SFRPRT6SEL
      000000D0H.6 SFRSYM    DATA     BIT       AC
      000000A8H.7 SFRSYM    DATA     BIT       EA
      000000A8H   SFRSYM    DATA     BYTE      IE
      00000085H   SFRSYM    DATA     BYTE      DPH1
      00000084H   SFRSYM    DATA     BYTE      DPL1
      000000D0H.7 SFRSYM    DATA     BIT       CY
      000000A0H   SFRSYM    DATA     BYTE      P2AX
      00000095H   SFRSYM    DATA     BYTE      DPX1
      00000081H   SFRSYM    DATA     BYTE      SP
      000000D0H.2 SFRSYM    DATA     BIT       OV
      00000080H   SFRSYM    DATA     BYTE      SFRPRT0DR
      00000090H   SFRSYM    DATA     BYTE      SFRPRT1DR
      000000F2H   SFRSYM    DATA     BYTE      SFRPRT12SEL
      00000098H   SFRSYM    DATA     BYTE      SFRPRT2DR
      000000B0H   SFRSYM    DATA     BYTE      SFRPRT3DR
      000000C0H   SFRSYM    DATA     BYTE      SFRPRT4DR
      000000FAH   SFRSYM    DATA     BYTE      SFRPRT15SEL
      000000C8H   SFRSYM    DATA     BYTE      SFRPRT5DR
      000000D8H   SFRSYM    DATA     BYTE      SFRPRT6DR
      00000089H   SFRSYM    DATA     BYTE      SFRPRT0PS
      00000091H   SFRSYM    DATA     BYTE      SFRPRT1PS
      00000099H   SFRSYM    DATA     BYTE      SFRPRT2PS
      000000B1H   SFRSYM    DATA     BYTE      SFRPRT3PS
      000000C1H   SFRSYM    DATA     BYTE      SFRPRT4PS
      000000C9H   SFRSYM    DATA     BYTE      SFRPRT5PS
      000000D9H   SFRSYM    DATA     BYTE      SFRPRT6PS
      000000EAH   SFRSYM    DATA     BYTE      MXAX
      000000F0H   SFRSYM    DATA     BYTE      B
      000000E0H   SFRSYM    DATA     BYTE      ACC
      000000D0H   SFRSYM    DATA     BIT       P
      000000D0H.3 SFRSYM    DATA     BIT       RS0
      000000D0H.4 SFRSYM    DATA     BIT       RS1
      00000083H   SFRSYM    DATA     BYTE      DPH
      000000E8H   SFRSYM    DATA     BYTE      SFRPRT12DR
      00000082H   SFRSYM    DATA     BYTE      DPL
      000000F8H   SFRSYM    DATA     BYTE      SFRPRT15DR
      00000086H   SFRSYM    DATA     BYTE      DPS
      000000E9H   SFRSYM    DATA     BYTE      SFRPRT12PS
      00000093H   SFRSYM    DATA     BYTE      DPX
      000000F9H   SFRSYM    DATA     BYTE      SFRPRT15PS
      000000D0H.5 SFRSYM    DATA     BIT       F0
      000000D0H.1 SFRSYM    DATA     BIT       F1
      0000008AH   SFRSYM    DATA     BYTE      SFRPRT0SEL
      000000D0H   SFRSYM    DATA     BYTE      PSW
LX51 LINKER/LOCATER V4.64.0.0                                                         01/24/2017  11:05:18  PAGE 74


      000000A2H   SFRSYM    DATA     BYTE      SFRPRT1SEL
      0000009AH   SFRSYM    DATA     BYTE      SFRPRT2SEL
      000000B2H   SFRSYM    DATA     BYTE      SFRPRT3SEL
      000000C2H   SFRSYM    DATA     BYTE      SFRPRT4SEL

      0100729FH   BLOCK     CODE     ---       LVL=0
      02000588H   SYMBOL    XDATA    ---       address
      0100729FH   LINE      CODE     ---       #94
      010072A7H   LINE      CODE     ---       #95
      010072A7H   LINE      CODE     ---       #97
      010072AAH   LINE      CODE     ---       #100
      010072B5H   LINE      CODE     ---       #103
      010072BAH   LINE      CODE     ---       #106
      010072BDH   LINE      CODE     ---       #107
      ---         BLOCKEND  ---      ---       LVL=0

      01007719H   BLOCK     CODE     ---       LVL=0
      01007719H   LINE      CODE     ---       #151
      01007719H   LINE      CODE     ---       #168
      ---         BLOCKEND  ---      ---       LVL=0

      010075BCH   BLOCK     CODE     ---       LVL=0
      00000006H   SYMBOL    DATA     ---       address
      010075BCH   LINE      CODE     ---       #198
      010075BCH   LINE      CODE     ---       #199
      010075BCH   LINE      CODE     ---       #200
      010075C9H   LINE      CODE     ---       #201
      ---         BLOCKEND  ---      ---       LVL=0

      0100765FH   BLOCK     CODE     ---       LVL=0
      00000007H   SYMBOL    DATA     BYTE      priority
      0100765FH   LINE      CODE     ---       #248
      0100765FH   LINE      CODE     ---       #249
      0100765FH   LINE      CODE     ---       #250
      01007668H   LINE      CODE     ---       #251
      ---         BLOCKEND  ---      ---       LVL=0
      00000007H   SYMBOL    DATA     BYTE      priority

      01007696H   BLOCK     CODE     ---       LVL=0
      01007696H   LINE      CODE     ---       #297
      01007696H   LINE      CODE     ---       #298
      01007696H   LINE      CODE     ---       #300
      0100769CH   LINE      CODE     ---       #301
      ---         BLOCKEND  ---      ---       LVL=0

      0100769DH   BLOCK     CODE     ---       LVL=0
      0100769DH   LINE      CODE     ---       #339
      0100769DH   LINE      CODE     ---       #340
      0100769DH   LINE      CODE     ---       #342
      010076A3H   LINE      CODE     ---       #343
      ---         BLOCKEND  ---      ---       LVL=0

      ---         MODULE    ---      ---       WATCHDOG_COUNTER
      02001139H   PUBLIC    XDATA    BYTE      WATCHDOG_COUNTER_initVar
      010075CAH   PUBLIC    CODE     ---       _WATCHDOG_COUNTER_WritePeriod
      010072FAH   PUBLIC    CODE     ---       _WATCHDOG_COUNTER_WriteCounter
      010076D4H   PUBLIC    CODE     ---       _WATCHDOG_COUNTER_SetInterruptMode
      010074B9H   PUBLIC    CODE     ---       WATCHDOG_COUNTER_Start
      010073D9H   PUBLIC    CODE     ---       WATCHDOG_COUNTER_Enable
      01006F0EH   PUBLIC    CODE     ---       WATCHDOG_COUNTER_Init
      000000CAH   SFRSYM    DATA     BYTE      SFRPRT5SEL
      000000DAH   SFRSYM    DATA     BYTE      SFRPRT6SEL
      000000D0H.6 SFRSYM    DATA     BIT       AC
      000000A8H.7 SFRSYM    DATA     BIT       EA
      000000A8H   SFRSYM    DATA     BYTE      IE
LX51 LINKER/LOCATER V4.64.0.0                                                         01/24/2017  11:05:18  PAGE 75


      00000085H   SFRSYM    DATA     BYTE      DPH1
      00000084H   SFRSYM    DATA     BYTE      DPL1
      000000D0H.7 SFRSYM    DATA     BIT       CY
      000000A0H   SFRSYM    DATA     BYTE      P2AX
      00000095H   SFRSYM    DATA     BYTE      DPX1
      00000081H   SFRSYM    DATA     BYTE      SP
      000000D0H.2 SFRSYM    DATA     BIT       OV
      00000080H   SFRSYM    DATA     BYTE      SFRPRT0DR
      00000090H   SFRSYM    DATA     BYTE      SFRPRT1DR
      000000F2H   SFRSYM    DATA     BYTE      SFRPRT12SEL
      00000098H   SFRSYM    DATA     BYTE      SFRPRT2DR
      000000B0H   SFRSYM    DATA     BYTE      SFRPRT3DR
      000000C0H   SFRSYM    DATA     BYTE      SFRPRT4DR
      000000FAH   SFRSYM    DATA     BYTE      SFRPRT15SEL
      000000C8H   SFRSYM    DATA     BYTE      SFRPRT5DR
      000000D8H   SFRSYM    DATA     BYTE      SFRPRT6DR
      00000089H   SFRSYM    DATA     BYTE      SFRPRT0PS
      00000091H   SFRSYM    DATA     BYTE      SFRPRT1PS
      00000099H   SFRSYM    DATA     BYTE      SFRPRT2PS
      000000B1H   SFRSYM    DATA     BYTE      SFRPRT3PS
      000000C1H   SFRSYM    DATA     BYTE      SFRPRT4PS
      000000C9H   SFRSYM    DATA     BYTE      SFRPRT5PS
      000000D9H   SFRSYM    DATA     BYTE      SFRPRT6PS
      000000EAH   SFRSYM    DATA     BYTE      MXAX
      000000F0H   SFRSYM    DATA     BYTE      B
      000000E0H   SFRSYM    DATA     BYTE      ACC
      000000D0H   SFRSYM    DATA     BIT       P
      000000D0H.3 SFRSYM    DATA     BIT       RS0
      000000D0H.4 SFRSYM    DATA     BIT       RS1
      00000083H   SFRSYM    DATA     BYTE      DPH
      000000E8H   SFRSYM    DATA     BYTE      SFRPRT12DR
      00000082H   SFRSYM    DATA     BYTE      DPL
      000000F8H   SFRSYM    DATA     BYTE      SFRPRT15DR
      00000086H   SFRSYM    DATA     BYTE      DPS
      000000E9H   SFRSYM    DATA     BYTE      SFRPRT12PS
      00000093H   SFRSYM    DATA     BYTE      DPX
      000000F9H   SFRSYM    DATA     BYTE      SFRPRT15PS
      000000D0H.5 SFRSYM    DATA     BIT       F0
      000000D0H.1 SFRSYM    DATA     BIT       F1
      0000008AH   SFRSYM    DATA     BYTE      SFRPRT0SEL
      000000D0H   SFRSYM    DATA     BYTE      PSW
      000000A2H   SFRSYM    DATA     BYTE      SFRPRT1SEL
      0000009AH   SFRSYM    DATA     BYTE      SFRPRT2SEL
      000000B2H   SFRSYM    DATA     BYTE      SFRPRT3SEL
      000000C2H   SFRSYM    DATA     BYTE      SFRPRT4SEL

      01006F0EH   BLOCK     CODE     ---       LVL=0
      01006F0EH   LINE      CODE     ---       #37
      01006F0EH   LINE      CODE     ---       #38
      01006F0EH   LINE      CODE     ---       #50
      01006F15H   LINE      CODE     ---       #57
      01006F1CH   LINE      CODE     ---       #66
      01006F23H   LINE      CODE     ---       #69
      01006F2AH   LINE      CODE     ---       #70
      01006F2EH   LINE      CODE     ---       #73
      01006F32H   LINE      CODE     ---       #74
      01006F36H   LINE      CODE     ---       #100
      01006F3BH   LINE      CODE     ---       #102
      01006F40H   LINE      CODE     ---       #104
      01006F45H   LINE      CODE     ---       #123
      ---         BLOCKEND  ---      ---       LVL=0

      010073D9H   BLOCK     CODE     ---       LVL=0
      010073D9H   LINE      CODE     ---       #143
      010073D9H   LINE      CODE     ---       #144
LX51 LINKER/LOCATER V4.64.0.0                                                         01/24/2017  11:05:18  PAGE 76


      010073D9H   LINE      CODE     ---       #147
      010073E0H   LINE      CODE     ---       #148
      010073E7H   LINE      CODE     ---       #155
      010073EEH   LINE      CODE     ---       #158
      ---         BLOCKEND  ---      ---       LVL=0

      010074B9H   BLOCK     CODE     ---       LVL=0
      010074B9H   LINE      CODE     ---       #178
      010074B9H   LINE      CODE     ---       #179
      010074B9H   LINE      CODE     ---       #180
      010074BFH   LINE      CODE     ---       #181
      010074BFH   LINE      CODE     ---       #182
      010074C2H   LINE      CODE     ---       #184
      010074C8H   LINE      CODE     ---       #185
      010074C8H   LINE      CODE     ---       #188
      010074CBH   LINE      CODE     ---       #189
      ---         BLOCKEND  ---      ---       LVL=0

      010076D4H   BLOCK     CODE     ---       LVL=0
      00000007H   SYMBOL    DATA     BYTE      interruptsMask
      010076D4H   LINE      CODE     ---       #237
      010076D4H   LINE      CODE     ---       #238
      010076D4H   LINE      CODE     ---       #239
      010076D9H   LINE      CODE     ---       #240
      ---         BLOCKEND  ---      ---       LVL=0
      00000007H   SYMBOL    DATA     BYTE      control

      010072FAH   BLOCK     CODE     ---       LVL=0
      00000007H   SYMBOL    DATA     BYTE      counter
      010072FAH   LINE      CODE     ---       #326
      010072FAH   LINE      CODE     ---       #328
      010072FAH   LINE      CODE     ---       #333
      01007301H   LINE      CODE     ---       #334
      0100730EH   LINE      CODE     ---       #335
      01007315H   LINE      CODE     ---       #339
      ---         BLOCKEND  ---      ---       LVL=0

      010075CAH   BLOCK     CODE     ---       LVL=0
      00000007H   SYMBOL    DATA     BYTE      period
      010075CAH   LINE      CODE     ---       #415
      010075CAH   LINE      CODE     ---       #416
      010075CAH   LINE      CODE     ---       #418
      010075D7H   LINE      CODE     ---       #422
      ---         BLOCKEND  ---      ---       LVL=0

      ---         MODULE    ---      ---       WATCHDOG_ENABLER
      010076DAH   PUBLIC    CODE     ---       _WATCHDOG_ENABLER_Write

      010076DAH   BLOCK     CODE     ---       LVL=0
      00000007H   SYMBOL    DATA     BYTE      control
      010076DAH   LINE      CODE     ---       #37
      010076DAH   LINE      CODE     ---       #38
      010076DAH   LINE      CODE     ---       #39
      010076DFH   LINE      CODE     ---       #40
      ---         BLOCKEND  ---      ---       LVL=0

      ---         MODULE    ---      ---       WATCHDOG_REFRESH
      010076E0H   PUBLIC    CODE     ---       _WATCHDOG_REFRESH_Write

      010076E0H   BLOCK     CODE     ---       LVL=0
      00000007H   SYMBOL    DATA     BYTE      control
      010076E0H   LINE      CODE     ---       #37
      010076E0H   LINE      CODE     ---       #38
      010076E0H   LINE      CODE     ---       #39
      010076E5H   LINE      CODE     ---       #40
LX51 LINKER/LOCATER V4.64.0.0                                                         01/24/2017  11:05:18  PAGE 77


      ---         BLOCKEND  ---      ---       LVL=0

      ---         MODULE    ---      ---       SPI_IMU
      02001135H   PUBLIC    XDATA    BYTE      SPI_IMU_initVar
      02001134H   PUBLIC    XDATA    BYTE      SPI_IMU_swStatusTx
      02001133H   PUBLIC    XDATA    BYTE      SPI_IMU_swStatusRx
      01007556H   PUBLIC    CODE     ---       SPI_IMU_ReadStatus
      0100727FH   PUBLIC    CODE     ---       SPI_IMU_ClearFIFO
      01007504H   PUBLIC    CODE     ---       SPI_IMU_ClearTxBuffer
      01007547H   PUBLIC    CODE     ---       SPI_IMU_ClearRxBuffer
      010076F2H   PUBLIC    CODE     ---       SPI_IMU_ReadRxData
      010075F2H   PUBLIC    CODE     ---       _SPI_IMU_WriteTxData
      010076ECH   PUBLIC    CODE     ---       SPI_IMU_ReadRxStatus
      010076E6H   PUBLIC    CODE     ---       SPI_IMU_ReadTxStatus
      0100771BH   PUBLIC    CODE     ---       SPI_IMU_EnableRxInt
      0100771AH   PUBLIC    CODE     ---       SPI_IMU_EnableTxInt
      010074CCH   PUBLIC    CODE     ---       SPI_IMU_Start
      010071D2H   PUBLIC    CODE     ---       SPI_IMU_Enable
      01007363H   PUBLIC    CODE     ---       SPI_IMU_Init
      000000CAH   SFRSYM    DATA     BYTE      SFRPRT5SEL
      000000DAH   SFRSYM    DATA     BYTE      SFRPRT6SEL
      000000D0H.6 SFRSYM    DATA     BIT       AC
      000000A8H.7 SFRSYM    DATA     BIT       EA
      000000A8H   SFRSYM    DATA     BYTE      IE
      00000085H   SFRSYM    DATA     BYTE      DPH1
      00000084H   SFRSYM    DATA     BYTE      DPL1
      000000D0H.7 SFRSYM    DATA     BIT       CY
      000000A0H   SFRSYM    DATA     BYTE      P2AX
      00000095H   SFRSYM    DATA     BYTE      DPX1
      00000081H   SFRSYM    DATA     BYTE      SP
      000000D0H.2 SFRSYM    DATA     BIT       OV
      00000080H   SFRSYM    DATA     BYTE      SFRPRT0DR
      00000090H   SFRSYM    DATA     BYTE      SFRPRT1DR
      000000F2H   SFRSYM    DATA     BYTE      SFRPRT12SEL
      00000098H   SFRSYM    DATA     BYTE      SFRPRT2DR
      000000B0H   SFRSYM    DATA     BYTE      SFRPRT3DR
      000000C0H   SFRSYM    DATA     BYTE      SFRPRT4DR
      000000FAH   SFRSYM    DATA     BYTE      SFRPRT15SEL
      000000C8H   SFRSYM    DATA     BYTE      SFRPRT5DR
      000000D8H   SFRSYM    DATA     BYTE      SFRPRT6DR
      00000089H   SFRSYM    DATA     BYTE      SFRPRT0PS
      00000091H   SFRSYM    DATA     BYTE      SFRPRT1PS
      00000099H   SFRSYM    DATA     BYTE      SFRPRT2PS
      000000B1H   SFRSYM    DATA     BYTE      SFRPRT3PS
      000000C1H   SFRSYM    DATA     BYTE      SFRPRT4PS
      000000C9H   SFRSYM    DATA     BYTE      SFRPRT5PS
      000000D9H   SFRSYM    DATA     BYTE      SFRPRT6PS
      000000EAH   SFRSYM    DATA     BYTE      MXAX
      000000F0H   SFRSYM    DATA     BYTE      B
      000000E0H   SFRSYM    DATA     BYTE      ACC
      000000D0H   SFRSYM    DATA     BIT       P
      000000D0H.3 SFRSYM    DATA     BIT       RS0
      000000D0H.4 SFRSYM    DATA     BIT       RS1
      00000083H   SFRSYM    DATA     BYTE      DPH
      000000E8H   SFRSYM    DATA     BYTE      SFRPRT12DR
      00000082H   SFRSYM    DATA     BYTE      DPL
      000000F8H   SFRSYM    DATA     BYTE      SFRPRT15DR
      00000086H   SFRSYM    DATA     BYTE      DPS
      000000E9H   SFRSYM    DATA     BYTE      SFRPRT12PS
      00000093H   SFRSYM    DATA     BYTE      DPX
      000000F9H   SFRSYM    DATA     BYTE      SFRPRT15PS
      000000D0H.5 SFRSYM    DATA     BIT       F0
      000000D0H.1 SFRSYM    DATA     BIT       F1
      0000008AH   SFRSYM    DATA     BYTE      SFRPRT0SEL
      000000D0H   SFRSYM    DATA     BYTE      PSW
LX51 LINKER/LOCATER V4.64.0.0                                                         01/24/2017  11:05:18  PAGE 78


      000000A2H   SFRSYM    DATA     BYTE      SFRPRT1SEL
      0000009AH   SFRSYM    DATA     BYTE      SFRPRT2SEL
      000000B2H   SFRSYM    DATA     BYTE      SFRPRT3SEL
      000000C2H   SFRSYM    DATA     BYTE      SFRPRT4SEL

      01007363H   BLOCK     CODE     ---       LVL=0
      01007363H   LINE      CODE     ---       #63
      01007363H   LINE      CODE     ---       #64
      01007363H   LINE      CODE     ---       #66
      01007369H   LINE      CODE     ---       #83
      0100736CH   LINE      CODE     ---       #97
      0100736FH   LINE      CODE     ---       #98
      01007372H   LINE      CODE     ---       #101
      01007377H   LINE      CODE     ---       #102
      0100737BH   LINE      CODE     ---       #103
      ---         BLOCKEND  ---      ---       LVL=0

      010071D2H   BLOCK     CODE     ---       LVL=0
      010071D2H   BLOCK     CODE     NEAR LAB  LVL=1
      00000007H   SYMBOL    DATA     BYTE      enableInterrupts
      ---         BLOCKEND  ---      ---       LVL=1
      010071D2H   LINE      CODE     ---       #120
      010071D2H   LINE      CODE     ---       #121
      010071D2H   LINE      CODE     ---       #124
      010071D5H   LINE      CODE     ---       #125
      010071DCH   LINE      CODE     ---       #126
      010071E3H   LINE      CODE     ---       #127
      010071EAH   LINE      CODE     ---       #128
      010071EDH   LINE      CODE     ---       #131
      010071F0H   LINE      CODE     ---       #134
      010071F3H   LINE      CODE     ---       #135
      010071F6H   LINE      CODE     ---       #136
      ---         BLOCKEND  ---      ---       LVL=0

      010074CCH   BLOCK     CODE     ---       LVL=0
      010074CCH   LINE      CODE     ---       #163
      010074CCH   LINE      CODE     ---       #164
      010074CCH   LINE      CODE     ---       #165
      010074D2H   LINE      CODE     ---       #166
      010074D2H   LINE      CODE     ---       #167
      010074D5H   LINE      CODE     ---       #168
      010074DBH   LINE      CODE     ---       #169
      010074DBH   LINE      CODE     ---       #171
      010074DEH   LINE      CODE     ---       #172
      ---         BLOCKEND  ---      ---       LVL=0
      00000007H   SYMBOL    DATA     BYTE      enableInterrupts

      0100771AH   BLOCK     CODE     ---       LVL=0
      0100771AH   LINE      CODE     ---       #227
      0100771AH   LINE      CODE     ---       #228
      0100771AH   LINE      CODE     ---       #232
      ---         BLOCKEND  ---      ---       LVL=0

      0100771BH   BLOCK     CODE     ---       LVL=0
      0100771BH   LINE      CODE     ---       #252
      0100771BH   LINE      CODE     ---       #253
      0100771BH   LINE      CODE     ---       #257
      ---         BLOCKEND  ---      ---       LVL=0
      00000007H   SYMBOL    DATA     BYTE      intSrc
      00000007H   SYMBOL    DATA     BYTE      intSrc

      010076E6H   BLOCK     CODE     ---       LVL=0
      010076E6H   BLOCK     CODE     NEAR LAB  LVL=1
      00000007H   SYMBOL    DATA     BYTE      tmpStatus
      ---         BLOCKEND  ---      ---       LVL=1
LX51 LINKER/LOCATER V4.64.0.0                                                         01/24/2017  11:05:18  PAGE 79


      010076E6H   LINE      CODE     ---       #386
      010076E6H   LINE      CODE     ---       #387
      010076E6H   LINE      CODE     ---       #401
      010076EBH   LINE      CODE     ---       #405
      010076EBH   LINE      CODE     ---       #406
      ---         BLOCKEND  ---      ---       LVL=0

      010076ECH   BLOCK     CODE     ---       LVL=0
      010076ECH   BLOCK     CODE     NEAR LAB  LVL=1
      00000007H   SYMBOL    DATA     BYTE      tmpStatus
      ---         BLOCKEND  ---      ---       LVL=1
      010076ECH   LINE      CODE     ---       #437
      010076ECH   LINE      CODE     ---       #438
      010076ECH   LINE      CODE     ---       #452
      010076F1H   LINE      CODE     ---       #456
      010076F1H   LINE      CODE     ---       #457
      ---         BLOCKEND  ---      ---       LVL=0

      010075F2H   BLOCK     CODE     ---       LVL=0
      00000007H   SYMBOL    DATA     BYTE      txData
      010075F2H   LINE      CODE     ---       #494
      010075F2H   LINE      CODE     ---       #495
      010075F2H   LINE      CODE     ---       #557
      010075F9H   LINE      CODE     ---       #558
      010075F9H   LINE      CODE     ---       #559
      010075F9H   LINE      CODE     ---       #562
      010075FEH   LINE      CODE     ---       #565
      ---         BLOCKEND  ---      ---       LVL=0

      010076F2H   BLOCK     CODE     ---       LVL=0
      010076F2H   BLOCK     CODE     NEAR LAB  LVL=1
      00000007H   SYMBOL    DATA     BYTE      rxData
      ---         BLOCKEND  ---      ---       LVL=1
      010076F2H   LINE      CODE     ---       #602
      010076F2H   LINE      CODE     ---       #603
      010076F2H   LINE      CODE     ---       #633
      010076F7H   LINE      CODE     ---       #637
      010076F7H   LINE      CODE     ---       #638
      ---         BLOCKEND  ---      ---       LVL=0
      00000007H   SYMBOL    DATA     BYTE      size
      00000007H   SYMBOL    DATA     BYTE      size

      01007547H   BLOCK     CODE     ---       LVL=0
      01007547H   LINE      CODE     ---       #806
      01007547H   LINE      CODE     ---       #807
      01007547H   LINE      CODE     ---       #809
      0100754EH   LINE      CODE     ---       #810
      0100754EH   LINE      CODE     ---       #811
      01007553H   LINE      CODE     ---       #812
      01007555H   LINE      CODE     ---       #824
      ---         BLOCKEND  ---      ---       LVL=0

      01007504H   BLOCK     CODE     ---       LVL=0
      01007504H   BLOCK     CODE     NEAR LAB  LVL=1
      00000007H   SYMBOL    DATA     BYTE      enableInterrupts
      ---         BLOCKEND  ---      ---       LVL=1
      01007504H   LINE      CODE     ---       #861
      01007504H   LINE      CODE     ---       #862
      01007504H   LINE      CODE     ---       #865
      01007507H   LINE      CODE     ---       #867
      0100750EH   LINE      CODE     ---       #868
      01007512H   LINE      CODE     ---       #875
      01007515H   LINE      CODE     ---       #890
      ---         BLOCKEND  ---      ---       LVL=0
      00000005H   SYMBOL    DATA     BYTE      byteCount
LX51 LINKER/LOCATER V4.64.0.0                                                         01/24/2017  11:05:18  PAGE 80


      00000006H   SYMBOL    DATA     BYTE      bufIndex

      0100727FH   BLOCK     CODE     ---       LVL=0
      0100727FH   BLOCK     CODE     NEAR LAB  LVL=1
      00000007H   SYMBOL    DATA     BYTE      enableInterrupts
      ---         BLOCKEND  ---      ---       LVL=1
      0100727FH   LINE      CODE     ---       #995
      0100727FH   LINE      CODE     ---       #996
      0100727FH   LINE      CODE     ---       #1000
      01007286H   LINE      CODE     ---       #1001
      01007286H   LINE      CODE     ---       #1002
      0100728BH   LINE      CODE     ---       #1003
      0100728DH   LINE      CODE     ---       #1005
      01007290H   LINE      CODE     ---       #1007
      01007297H   LINE      CODE     ---       #1008
      0100729BH   LINE      CODE     ---       #1015
      0100729EH   LINE      CODE     ---       #1016
      ---         BLOCKEND  ---      ---       LVL=0
      00000007H   SYMBOL    DATA     BYTE      intSrc

      01007556H   BLOCK     CODE     ---       LVL=0
      01007556H   BLOCK     CODE     NEAR LAB  LVL=1
      00000007H   SYMBOL    DATA     BYTE      tmpStatus
      ---         BLOCKEND  ---      ---       LVL=1
      01007556H   LINE      CODE     ---       #1125
      01007556H   LINE      CODE     ---       #1126
      01007556H   LINE      CODE     ---       #1144
      0100755BH   LINE      CODE     ---       #1145
      01007561H   LINE      CODE     ---       #1146
      01007564H   LINE      CODE     ---       #1150
      01007564H   LINE      CODE     ---       #1151
      ---         BLOCKEND  ---      ---       LVL=0

      ---         MODULE    ---      ---       ISR_IMU
      01004A18H   PUBLIC    CODE     ---       isr_imu_Interrupt
      000000CAH   SFRSYM    DATA     BYTE      SFRPRT5SEL
      000000DAH   SFRSYM    DATA     BYTE      SFRPRT6SEL
      000000D0H.6 SFRSYM    DATA     BIT       AC
      000000A8H.7 SFRSYM    DATA     BIT       EA
      000000A8H   SFRSYM    DATA     BYTE      IE
      00000085H   SFRSYM    DATA     BYTE      DPH1
      00000084H   SFRSYM    DATA     BYTE      DPL1
      000000D0H.7 SFRSYM    DATA     BIT       CY
      000000A0H   SFRSYM    DATA     BYTE      P2AX
      00000095H   SFRSYM    DATA     BYTE      DPX1
      00000081H   SFRSYM    DATA     BYTE      SP
      000000D0H.2 SFRSYM    DATA     BIT       OV
      00000080H   SFRSYM    DATA     BYTE      SFRPRT0DR
      00000090H   SFRSYM    DATA     BYTE      SFRPRT1DR
      000000F2H   SFRSYM    DATA     BYTE      SFRPRT12SEL
      00000098H   SFRSYM    DATA     BYTE      SFRPRT2DR
      000000B0H   SFRSYM    DATA     BYTE      SFRPRT3DR
      000000C0H   SFRSYM    DATA     BYTE      SFRPRT4DR
      000000FAH   SFRSYM    DATA     BYTE      SFRPRT15SEL
      000000C8H   SFRSYM    DATA     BYTE      SFRPRT5DR
      000000D8H   SFRSYM    DATA     BYTE      SFRPRT6DR
      00000089H   SFRSYM    DATA     BYTE      SFRPRT0PS
      00000091H   SFRSYM    DATA     BYTE      SFRPRT1PS
      00000099H   SFRSYM    DATA     BYTE      SFRPRT2PS
      000000B1H   SFRSYM    DATA     BYTE      SFRPRT3PS
      000000C1H   SFRSYM    DATA     BYTE      SFRPRT4PS
      000000C9H   SFRSYM    DATA     BYTE      SFRPRT5PS
      000000D9H   SFRSYM    DATA     BYTE      SFRPRT6PS
      000000EAH   SFRSYM    DATA     BYTE      MXAX
      000000F0H   SFRSYM    DATA     BYTE      B
LX51 LINKER/LOCATER V4.64.0.0                                                         01/24/2017  11:05:18  PAGE 81


      000000E0H   SFRSYM    DATA     BYTE      ACC
      000000D0H   SFRSYM    DATA     BIT       P
      000000D0H.3 SFRSYM    DATA     BIT       RS0
      000000D0H.4 SFRSYM    DATA     BIT       RS1
      00000083H   SFRSYM    DATA     BYTE      DPH
      000000E8H   SFRSYM    DATA     BYTE      SFRPRT12DR
      00000082H   SFRSYM    DATA     BYTE      DPL
      000000F8H   SFRSYM    DATA     BYTE      SFRPRT15DR
      00000086H   SFRSYM    DATA     BYTE      DPS
      000000E9H   SFRSYM    DATA     BYTE      SFRPRT12PS
      00000093H   SFRSYM    DATA     BYTE      DPX
      000000F9H   SFRSYM    DATA     BYTE      SFRPRT15PS
      000000D0H.5 SFRSYM    DATA     BIT       F0
      000000D0H.1 SFRSYM    DATA     BIT       F1
      0000008AH   SFRSYM    DATA     BYTE      SFRPRT0SEL
      000000D0H   SFRSYM    DATA     BYTE      PSW
      000000A2H   SFRSYM    DATA     BYTE      SFRPRT1SEL
      0000009AH   SFRSYM    DATA     BYTE      SFRPRT2SEL
      000000B2H   SFRSYM    DATA     BYTE      SFRPRT3SEL
      000000C2H   SFRSYM    DATA     BYTE      SFRPRT4SEL

      01004A18H   BLOCK     CODE     ---       LVL=0
      01004A43H   BLOCK     CODE     NEAR LAB  LVL=1
      02000EA9H   SYMBOL    XDATA    BYTE      k_imu
      02000EAAH   SYMBOL    XDATA    ---       g_imuTMP
      02000A53H   SYMBOL    XDATA    WORD      tmp
      ---         BLOCKEND  ---      ---       LVL=1
      01004A18H   LINE      CODE     ---       #168
      01004A43H   LINE      CODE     ---       #178
      01004A4AH   LINE      CODE     ---       #181
      01004A5EH   LINE      CODE     ---       #182
      01004A72H   LINE      CODE     ---       #184
      01004A99H   LINE      CODE     ---       #185
      01004AC4H   LINE      CODE     ---       #186
      01004AEBH   LINE      CODE     ---       #187
      01004B16H   LINE      CODE     ---       #188
      01004B3DH   LINE      CODE     ---       #189
      01004B68H   LINE      CODE     ---       #191
      01004B8FH   LINE      CODE     ---       #192
      01004BBAH   LINE      CODE     ---       #193
      01004BE1H   LINE      CODE     ---       #194
      01004C0CH   LINE      CODE     ---       #195
      01004C33H   LINE      CODE     ---       #196
      01004C5EH   LINE      CODE     ---       #198
      01004C85H   LINE      CODE     ---       #199
      01004CB0H   LINE      CODE     ---       #200
      01004CD7H   LINE      CODE     ---       #201
      01004D02H   LINE      CODE     ---       #202
      01004D29H   LINE      CODE     ---       #203
      01004D54H   LINE      CODE     ---       #205
      01004D6AH   LINE      CODE     ---       #208
      01004D6CH   LINE      CODE     ---       #209
      01004D7FH   LINE      CODE     ---       #210
      01004D7FH   LINE      CODE     ---       #220
      ---         BLOCKEND  ---      ---       LVL=0
      00000006H   SYMBOL    DATA     ---       address
      00000007H   SYMBOL    DATA     BYTE      priority
      00000007H   SYMBOL    DATA     BYTE      priority

      ---         MODULE    ---      ---       OPTO_PIN
      01007528H   PUBLIC    CODE     ---       _Opto_Pin_Write

      01007528H   BLOCK     CODE     ---       LVL=0
      00000007H   SYMBOL    DATA     BYTE      value
      01007528H   BLOCK     CODE     NEAR LAB  LVL=1
LX51 LINKER/LOCATER V4.64.0.0                                                         01/24/2017  11:05:18  PAGE 82


      00000006H   SYMBOL    DATA     BYTE      staticBits
      ---         BLOCKEND  ---      ---       LVL=1
      01007528H   LINE      CODE     ---       #53
      01007528H   LINE      CODE     ---       #54
      01007528H   LINE      CODE     ---       #55
      0100752FH   LINE      CODE     ---       #56
      01007537H   LINE      CODE     ---       #57
      ---         BLOCKEND  ---      ---       LVL=0
      00000007H   SYMBOL    DATA     BYTE      mode

      ---         MODULE    ---      ---       CHIP_SELECT_A
      010076F8H   PUBLIC    CODE     ---       _Chip_Select_A_Write

      010076F8H   BLOCK     CODE     ---       LVL=0
      00000007H   SYMBOL    DATA     BYTE      control
      010076F8H   LINE      CODE     ---       #37
      010076F8H   LINE      CODE     ---       #38
      010076F8H   LINE      CODE     ---       #39
      010076FDH   LINE      CODE     ---       #40
      ---         BLOCKEND  ---      ---       LVL=0

      ---         MODULE    ---      ---       CHIP_SELECT_B
      010076FEH   PUBLIC    CODE     ---       _Chip_Select_B_Write

      010076FEH   BLOCK     CODE     ---       LVL=0
      00000007H   SYMBOL    DATA     BYTE      control
      010076FEH   LINE      CODE     ---       #37
      010076FEH   LINE      CODE     ---       #38
      010076FEH   LINE      CODE     ---       #39
      01007703H   LINE      CODE     ---       #40
      ---         BLOCKEND  ---      ---       LVL=0

      ---         MODULE    ---      ---       CYFITTER_CFG
      01005D89H   PUBLIC    CODE     ---       cyfitter_cfg
      000000CAH   SFRSYM    DATA     BYTE      SFRPRT5SEL
      000000DAH   SFRSYM    DATA     BYTE      SFRPRT6SEL
      000000D0H.6 SFRSYM    DATA     BIT       AC
      000000A8H.7 SFRSYM    DATA     BIT       EA
      000000A8H   SFRSYM    DATA     BYTE      IE
      00000085H   SFRSYM    DATA     BYTE      DPH1
      00000084H   SFRSYM    DATA     BYTE      DPL1
      000000D0H.7 SFRSYM    DATA     BIT       CY
      000000A0H   SFRSYM    DATA     BYTE      P2AX
      00000095H   SFRSYM    DATA     BYTE      DPX1
      00000081H   SFRSYM    DATA     BYTE      SP
      000000D0H.2 SFRSYM    DATA     BIT       OV
      00000080H   SFRSYM    DATA     BYTE      SFRPRT0DR
      00000090H   SFRSYM    DATA     BYTE      SFRPRT1DR
      000000F2H   SFRSYM    DATA     BYTE      SFRPRT12SEL
      00000098H   SFRSYM    DATA     BYTE      SFRPRT2DR
      000000B0H   SFRSYM    DATA     BYTE      SFRPRT3DR
      000000C0H   SFRSYM    DATA     BYTE      SFRPRT4DR
      000000FAH   SFRSYM    DATA     BYTE      SFRPRT15SEL
      000000C8H   SFRSYM    DATA     BYTE      SFRPRT5DR
      000000D8H   SFRSYM    DATA     BYTE      SFRPRT6DR
      00000089H   SFRSYM    DATA     BYTE      SFRPRT0PS
      00000091H   SFRSYM    DATA     BYTE      SFRPRT1PS
      00000099H   SFRSYM    DATA     BYTE      SFRPRT2PS
      000000B1H   SFRSYM    DATA     BYTE      SFRPRT3PS
      000000C1H   SFRSYM    DATA     BYTE      SFRPRT4PS
      000000C9H   SFRSYM    DATA     BYTE      SFRPRT5PS
      000000D9H   SFRSYM    DATA     BYTE      SFRPRT6PS
      000000EAH   SFRSYM    DATA     BYTE      MXAX
      000000F0H   SFRSYM    DATA     BYTE      B
      000000E0H   SFRSYM    DATA     BYTE      ACC
LX51 LINKER/LOCATER V4.64.0.0                                                         01/24/2017  11:05:18  PAGE 83


      000000D0H   SFRSYM    DATA     BIT       P
      000000D0H.3 SFRSYM    DATA     BIT       RS0
      000000D0H.4 SFRSYM    DATA     BIT       RS1
      00000083H   SFRSYM    DATA     BYTE      DPH
      000000E8H   SFRSYM    DATA     BYTE      SFRPRT12DR
      00000082H   SFRSYM    DATA     BYTE      DPL
      000000F8H   SFRSYM    DATA     BYTE      SFRPRT15DR
      00000086H   SFRSYM    DATA     BYTE      DPS
      000000E9H   SFRSYM    DATA     BYTE      SFRPRT12PS
      00000093H   SFRSYM    DATA     BYTE      DPX
      000000F9H   SFRSYM    DATA     BYTE      SFRPRT15PS
      000000D0H.5 SFRSYM    DATA     BIT       F0
      000000D0H.1 SFRSYM    DATA     BIT       F1
      0000008AH   SFRSYM    DATA     BYTE      SFRPRT0SEL
      000000D0H   SFRSYM    DATA     BYTE      PSW
      000000A2H   SFRSYM    DATA     BYTE      SFRPRT1SEL
      0000009AH   SFRSYM    DATA     BYTE      SFRPRT2SEL
      000000B2H   SFRSYM    DATA     BYTE      SFRPRT3SEL
      000000C2H   SFRSYM    DATA     BYTE      SFRPRT4SEL
      010057AFH   SYMBOL    CODE     ---       ClockSetup
      0100770EH   SYMBOL    CODE     ---       _CyClockStartupError
      010072DDH   SYMBOL    CODE     ---       AnalogSetDefault
      01006501H   SYMBOL    CODE     ---       cfg_dma_init

      0100770EH   BLOCK     CODE     ---       LVL=0
      02000000H   SYMBOL    XDATA    BYTE      errorCode
      0100770EH   LINE      CODE     ---       #72
      0100770EH   LINE      CODE     ---       #73
      0100770EH   LINE      CODE     ---       #75
      0100770EH   LINE      CODE     ---       #87
      ---         BLOCKEND  ---      ---       LVL=0

      01006501H   BLOCK     CODE     ---       LVL=0
      01006501H   BLOCK     CODE     NEAR LAB  LVL=1
      0100771CH   SYMBOL    CONST    ---       CH1_ADDR_DATA0
      01007724H   SYMBOL    CONST    ---       CH2_ADDR_DATA0
      0100772CH   SYMBOL    CONST    ---       CH5_ADDR_DATA0
      01007734H   SYMBOL    CONST    ---       CH6_ADDR_DATA0
      0100773CH   SYMBOL    CONST    ---       DMA_TD_START_CMD
      0200112FH   SYMBOL    XDATA    DWORD     DMA_ZERO_VAL
      01007741H   SYMBOL    CONST    ---       CFG_TD_LIST0
      ---         BLOCKEND  ---      ---       LVL=1
      01006501H   LINE      CODE     ---       #309
      01006501H   LINE      CODE     ---       #310
      01006501H   LINE      CODE     ---       #427
      0100650CH   LINE      CODE     ---       #428
      01006512H   LINE      CODE     ---       #429
      01006518H   LINE      CODE     ---       #430
      0100651DH   LINE      CODE     ---       #431
      01006529H   LINE      CODE     ---       #432
      0100652FH   LINE      CODE     ---       #433
      01006533H   LINE      CODE     ---       #434
      01006555H   LINE      CODE     ---       #435
      01006562H   LINE      CODE     ---       #436
      0100656FH   LINE      CODE     ---       #437
      0100657BH   LINE      CODE     ---       #438
      01006581H   LINE      CODE     ---       #439
      01006586H   LINE      CODE     ---       #440
      0100658CH   LINE      CODE     ---       #441
      01006592H   LINE      CODE     ---       #443
      01006592H   LINE      CODE     ---       #444
      01006598H   LINE      CODE     ---       #445
      01006598H   LINE      CODE     ---       #448
      010065A0H   LINE      CODE     ---       #449
      010065A8H   LINE      CODE     ---       #450
LX51 LINKER/LOCATER V4.64.0.0                                                         01/24/2017  11:05:18  PAGE 84


      010065B0H   LINE      CODE     ---       #451
      010065B8H   LINE      CODE     ---       #452
      010065C0H   LINE      CODE     ---       #455
      ---         BLOCKEND  ---      ---       LVL=0

      010057AFH   BLOCK     CODE     ---       LVL=0
      010057AFH   BLOCK     CODE     NEAR LAB  LVL=1
      02000583H   SYMBOL    XDATA    DWORD     timeout
      02000587H   SYMBOL    XDATA    BYTE      pllLock
      ---         BLOCKEND  ---      ---       LVL=1
      010057AFH   LINE      CODE     ---       #473
      010057AFH   LINE      CODE     ---       #474
      010057AFH   LINE      CODE     ---       #480
      010057BCH   LINE      CODE     ---       #481
      010057C2H   LINE      CODE     ---       #482
      010057CFH   LINE      CODE     ---       #483
      010057D5H   LINE      CODE     ---       #484
      010057E2H   LINE      CODE     ---       #485
      010057E8H   LINE      CODE     ---       #486
      010057F5H   LINE      CODE     ---       #487
      010057FBH   LINE      CODE     ---       #488
      01005808H   LINE      CODE     ---       #489
      0100580EH   LINE      CODE     ---       #492
      01005814H   LINE      CODE     ---       #495
      0100581AH   LINE      CODE     ---       #496
      01005828H   LINE      CODE     ---       #499
      01005835H   LINE      CODE     ---       #500
      01005842H   LINE      CODE     ---       #502
      01005847H   LINE      CODE     ---       #503
      0100586CH   LINE      CODE     ---       #504
      0100586CH   LINE      CODE     ---       #505
      0100587DH   LINE      CODE     ---       #506
      01005887H   LINE      CODE     ---       #507
      010058AFH   LINE      CODE     ---       #509
      010058BDH   LINE      CODE     ---       #510
      010058BDH   LINE      CODE     ---       #511
      010058C2H   LINE      CODE     ---       #512
      010058C2H   LINE      CODE     ---       #515
      010058CFH   LINE      CODE     ---       #516
      010058D5H   LINE      CODE     ---       #517
      010058DAH   LINE      CODE     ---       #518
      010058E0H   LINE      CODE     ---       #519
      010058E5H   LINE      CODE     ---       #522
      010058E9H   LINE      CODE     ---       #523
      010058EFH   LINE      CODE     ---       #525
      010058F6H   LINE      CODE     ---       #526
      ---         BLOCKEND  ---      ---       LVL=0

      010072DDH   BLOCK     CODE     ---       LVL=0
      010072DDH   BLOCK     CODE     NEAR LAB  LVL=1
      00000007H   SYMBOL    DATA     BYTE      bg_xover_inl_trim
      ---         BLOCKEND  ---      ---       LVL=1
      010072DDH   LINE      CODE     ---       #548
      010072DDH   LINE      CODE     ---       #549
      010072DDH   LINE      CODE     ---       #550
      010072E6H   LINE      CODE     ---       #551
      010072EDH   LINE      CODE     ---       #552
      010072F3H   LINE      CODE     ---       #553
      010072F9H   LINE      CODE     ---       #554
      ---         BLOCKEND  ---      ---       LVL=0
      00000007H   SYMBOL    DATA     BYTE      enabled
      00000006H   SYMBOL    DATA     BYTE      regValue

      01005D89H   BLOCK     CODE     ---       LVL=0
      01005D89H   BLOCK     CODE     NEAR LAB  LVL=1
LX51 LINKER/LOCATER V4.64.0.0                                                         01/24/2017  11:05:18  PAGE 85


      010079E1H   SYMBOL    CONST    ---       BS_IOPINS0_8_VAL
      010079E9H   SYMBOL    CONST    ---       BS_IOPINS0_1_VAL
      010079F3H   SYMBOL    CONST    ---       BS_IOPINS0_2_VAL
      ---         BLOCKEND  ---      ---       LVL=1
      01005D89H   LINE      CODE     ---       #608
      01005D89H   LINE      CODE     ---       #609
      01005D89H   LINE      CODE     ---       #623
      01005D9FH   LINE      CODE     ---       #625
      01005D9FH   LINE      CODE     ---       #626
      01005DA2H   LINE      CODE     ---       #629
      01005DB8H   LINE      CODE     ---       #630
      01005DCEH   LINE      CODE     ---       #633
      01005DD5H   LINE      CODE     ---       #634
      01005DDCH   LINE      CODE     ---       #635
      01005DDCH   LINE      CODE     ---       #639
      01005DF6H   LINE      CODE     ---       #640
      01005E10H   LINE      CODE     ---       #641
      01005E21H   LINE      CODE     ---       #642
      01005E32H   LINE      CODE     ---       #643
      01005E43H   LINE      CODE     ---       #644
      01005E49H   LINE      CODE     ---       #646
      01005E50H   LINE      CODE     ---       #647
      01005E59H   LINE      CODE     ---       #648
      01005E59H   LINE      CODE     ---       #649
      01005E5FH   LINE      CODE     ---       #650
      01005E5FH   LINE      CODE     ---       #654
      01005E65H   LINE      CODE     ---       #656
      01005E68H   LINE      CODE     ---       #659
      01005E6BH   LINE      CODE     ---       #662
      01005E8CH   LINE      CODE     ---       #663
      01005E93H   LINE      CODE     ---       #664
      ---         BLOCKEND  ---      ---       LVL=0

      ---         MODULE    ---      ---       UART_RS485_INT
      010065C1H   PUBLIC    CODE     ---       UART_RS485_RXISR
      000000CAH   SFRSYM    DATA     BYTE      SFRPRT5SEL
      000000DAH   SFRSYM    DATA     BYTE      SFRPRT6SEL
      000000D0H.6 SFRSYM    DATA     BIT       AC
      000000A8H.7 SFRSYM    DATA     BIT       EA
      000000A8H   SFRSYM    DATA     BYTE      IE
      00000085H   SFRSYM    DATA     BYTE      DPH1
      00000084H   SFRSYM    DATA     BYTE      DPL1
      000000D0H.7 SFRSYM    DATA     BIT       CY
      000000A0H   SFRSYM    DATA     BYTE      P2AX
      00000095H   SFRSYM    DATA     BYTE      DPX1
      00000081H   SFRSYM    DATA     BYTE      SP
      000000D0H.2 SFRSYM    DATA     BIT       OV
      00000080H   SFRSYM    DATA     BYTE      SFRPRT0DR
      00000090H   SFRSYM    DATA     BYTE      SFRPRT1DR
      000000F2H   SFRSYM    DATA     BYTE      SFRPRT12SEL
      00000098H   SFRSYM    DATA     BYTE      SFRPRT2DR
      000000B0H   SFRSYM    DATA     BYTE      SFRPRT3DR
      000000C0H   SFRSYM    DATA     BYTE      SFRPRT4DR
      000000FAH   SFRSYM    DATA     BYTE      SFRPRT15SEL
      000000C8H   SFRSYM    DATA     BYTE      SFRPRT5DR
      000000D8H   SFRSYM    DATA     BYTE      SFRPRT6DR
      00000089H   SFRSYM    DATA     BYTE      SFRPRT0PS
      00000091H   SFRSYM    DATA     BYTE      SFRPRT1PS
      00000099H   SFRSYM    DATA     BYTE      SFRPRT2PS
      000000B1H   SFRSYM    DATA     BYTE      SFRPRT3PS
      000000C1H   SFRSYM    DATA     BYTE      SFRPRT4PS
      000000C9H   SFRSYM    DATA     BYTE      SFRPRT5PS
      000000D9H   SFRSYM    DATA     BYTE      SFRPRT6PS
      000000EAH   SFRSYM    DATA     BYTE      MXAX
      000000F0H   SFRSYM    DATA     BYTE      B
LX51 LINKER/LOCATER V4.64.0.0                                                         01/24/2017  11:05:18  PAGE 86


      000000E0H   SFRSYM    DATA     BYTE      ACC
      000000D0H   SFRSYM    DATA     BIT       P
      000000D0H.3 SFRSYM    DATA     BIT       RS0
      000000D0H.4 SFRSYM    DATA     BIT       RS1
      00000083H   SFRSYM    DATA     BYTE      DPH
      000000E8H   SFRSYM    DATA     BYTE      SFRPRT12DR
      00000082H   SFRSYM    DATA     BYTE      DPL
      000000F8H   SFRSYM    DATA     BYTE      SFRPRT15DR
      00000086H   SFRSYM    DATA     BYTE      DPS
      000000E9H   SFRSYM    DATA     BYTE      SFRPRT12PS
      00000093H   SFRSYM    DATA     BYTE      DPX
      000000F9H   SFRSYM    DATA     BYTE      SFRPRT15PS
      000000D0H.5 SFRSYM    DATA     BIT       F0
      000000D0H.1 SFRSYM    DATA     BIT       F1
      0000008AH   SFRSYM    DATA     BYTE      SFRPRT0SEL
      000000D0H   SFRSYM    DATA     BYTE      PSW
      000000A2H   SFRSYM    DATA     BYTE      SFRPRT1SEL
      0000009AH   SFRSYM    DATA     BYTE      SFRPRT2SEL
      000000B2H   SFRSYM    DATA     BYTE      SFRPRT3SEL
      000000C2H   SFRSYM    DATA     BYTE      SFRPRT4SEL

      010065C1H   BLOCK     CODE     ---       LVL=0
      010065E4H   BLOCK     CODE     NEAR LAB  LVL=1
      00000006H   SYMBOL    DATA     BYTE      readData
      00000007H   SYMBOL    DATA     BYTE      readStatus
      00000003H   SYMBOL    DATA     BYTE      increment_pointer
      00000002H   SYMBOL    DATA     BYTE      int_en
      ---         BLOCKEND  ---      ---       LVL=1
      010065C1H   LINE      CODE     ---       #59
      010065E4H   LINE      CODE     ---       #63
      010065E6H   LINE      CODE     ---       #79
      010065EAH   LINE      CODE     ---       #80
      010065F2H   LINE      CODE     ---       #84
      010065F2H   LINE      CODE     ---       #86
      010065F7H   LINE      CODE     ---       #90
      010065F8H   LINE      CODE     ---       #95
      010065FDH   LINE      CODE     ---       #96
      010065FDH   LINE      CODE     ---       #101
      01006603H   LINE      CODE     ---       #109
      01006603H   LINE      CODE     ---       #111
      01006607H   LINE      CODE     ---       #112
      01006607H   LINE      CODE     ---       #114
      0100660CH   LINE      CODE     ---       #141
      0100661BH   LINE      CODE     ---       #142
      0100661DH   LINE      CODE     ---       #146
      01006620H   LINE      CODE     ---       #147
      01006620H   LINE      CODE     ---       #148
      01006626H   LINE      CODE     ---       #149
      01006626H   LINE      CODE     ---       #150
      0100662CH   LINE      CODE     ---       #151
      0100662CH   LINE      CODE     ---       #153
      01006632H   LINE      CODE     ---       #156
      01006638H   LINE      CODE     ---       #157
      01006638H   LINE      CODE     ---       #158
      0100663AH   LINE      CODE     ---       #159
      0100663AH   LINE      CODE     ---       #162
      01006646H   LINE      CODE     ---       #163
      01006646H   LINE      CODE     ---       #164
      0100664CH   LINE      CODE     ---       #172
      0100664CH   LINE      CODE     ---       #173
      0100664CH   LINE      CODE     ---       #174
      0100664CH   LINE      CODE     ---       #175
      01006650H   LINE      CODE     ---       #187
      01006657H   LINE      CODE     ---       #189
      ---         BLOCKEND  ---      ---       LVL=0
LX51 LINKER/LOCATER V4.64.0.0                                                         01/24/2017  11:05:18  PAGE 87



      ---         MODULE    ---      ---       CYBOOTASMKEIL
      01007419H   PUBLIC    CODE     NEAR LAB  CyEnterCriticalSection
      01007000H   PUBLIC    CODE     NEAR LAB  _CyDelayCycles
      0100712CH   PUBLIC    CODE     NEAR LAB  _CyDelayUs
      01007394H   PUBLIC    CODE     NEAR LAB  _CyExitCriticalSection

      ---         MODULE    ---      ---       CYMEM
      02000583H   PUBLIC    XDATA    BYTE      ?_cyconfigcpy?BYTE
      01006F7AH   PUBLIC    CODE     NEAR LAB  _cyconfigcpy
      010071ACH   PUBLIC    CODE     NEAR LAB  _cyconfigcpycode
      01007565H   PUBLIC    CODE     NEAR LAB  _cyread16
      01007567H   PUBLIC    CODE     NEAR LAB  _cyread16_nodpx
      010074DFH   PUBLIC    CODE     NEAR LAB  _cyread24
      010074E1H   PUBLIC    CODE     NEAR LAB  _cyread24_nodpx
      010075FFH   PUBLIC    CODE     NEAR LAB  _cyread8
      01007601H   PUBLIC    CODE     NEAR LAB  _cyread8_nodpx
      01007574H   PUBLIC    CODE     NEAR LAB  _cywrite16
      01007576H   PUBLIC    CODE     NEAR LAB  _cywrite16_nodpx
      01007516H   PUBLIC    CODE     NEAR LAB  _cywrite24
      01007518H   PUBLIC    CODE     NEAR LAB  _cywrite24_nodpx
      0100760BH   PUBLIC    CODE     NEAR LAB  _cywrite8
      0100760DH   PUBLIC    CODE     NEAR LAB  _cywrite8_nodpx

      ---         MODULE    ---      ---       CYPM
      000000CAH   SFRSYM    DATA     BYTE      SFRPRT5SEL
      000000DAH   SFRSYM    DATA     BYTE      SFRPRT6SEL
      000000D0H.6 SFRSYM    DATA     BIT       AC
      000000A8H.7 SFRSYM    DATA     BIT       EA
      000000A8H   SFRSYM    DATA     BYTE      IE
      00000085H   SFRSYM    DATA     BYTE      DPH1
      00000084H   SFRSYM    DATA     BYTE      DPL1
      000000D0H.7 SFRSYM    DATA     BIT       CY
      000000A0H   SFRSYM    DATA     BYTE      P2AX
      00000095H   SFRSYM    DATA     BYTE      DPX1
      00000081H   SFRSYM    DATA     BYTE      SP
      000000D0H.2 SFRSYM    DATA     BIT       OV
      00000080H   SFRSYM    DATA     BYTE      SFRPRT0DR
      00000090H   SFRSYM    DATA     BYTE      SFRPRT1DR
      000000F2H   SFRSYM    DATA     BYTE      SFRPRT12SEL
      00000098H   SFRSYM    DATA     BYTE      SFRPRT2DR
      000000B0H   SFRSYM    DATA     BYTE      SFRPRT3DR
      000000C0H   SFRSYM    DATA     BYTE      SFRPRT4DR
      000000FAH   SFRSYM    DATA     BYTE      SFRPRT15SEL
      000000C8H   SFRSYM    DATA     BYTE      SFRPRT5DR
      000000D8H   SFRSYM    DATA     BYTE      SFRPRT6DR
      00000089H   SFRSYM    DATA     BYTE      SFRPRT0PS
      00000091H   SFRSYM    DATA     BYTE      SFRPRT1PS
      00000099H   SFRSYM    DATA     BYTE      SFRPRT2PS
      000000B1H   SFRSYM    DATA     BYTE      SFRPRT3PS
      000000C1H   SFRSYM    DATA     BYTE      SFRPRT4PS
      000000C9H   SFRSYM    DATA     BYTE      SFRPRT5PS
      000000D9H   SFRSYM    DATA     BYTE      SFRPRT6PS
      000000EAH   SFRSYM    DATA     BYTE      MXAX
      000000F0H   SFRSYM    DATA     BYTE      B
      000000E0H   SFRSYM    DATA     BYTE      ACC
      000000D0H   SFRSYM    DATA     BIT       P
      000000D0H.3 SFRSYM    DATA     BIT       RS0
      000000D0H.4 SFRSYM    DATA     BIT       RS1
      00000083H   SFRSYM    DATA     BYTE      DPH
      000000E8H   SFRSYM    DATA     BYTE      SFRPRT12DR
      00000082H   SFRSYM    DATA     BYTE      DPL
      000000F8H   SFRSYM    DATA     BYTE      SFRPRT15DR
      00000086H   SFRSYM    DATA     BYTE      DPS
      000000E9H   SFRSYM    DATA     BYTE      SFRPRT12PS
LX51 LINKER/LOCATER V4.64.0.0                                                         01/24/2017  11:05:18  PAGE 88


      00000093H   SFRSYM    DATA     BYTE      DPX
      000000F9H   SFRSYM    DATA     BYTE      SFRPRT15PS
      000000D0H.5 SFRSYM    DATA     BIT       F0
      000000D0H.1 SFRSYM    DATA     BIT       F1
      0000008AH   SFRSYM    DATA     BYTE      SFRPRT0SEL
      000000D0H   SFRSYM    DATA     BYTE      PSW
      000000A2H   SFRSYM    DATA     BYTE      SFRPRT1SEL
      0000009AH   SFRSYM    DATA     BYTE      SFRPRT2SEL
      000000B2H   SFRSYM    DATA     BYTE      SFRPRT3SEL
      000000C2H   SFRSYM    DATA     BYTE      SFRPRT4SEL
      02001092H   SYMBOL    XDATA    ---       cyPmClockBackup
      020010A2H   SYMBOL    XDATA    ---       cyPmBackup
      00000006H   SYMBOL    DATA     WORD      clkBusDivTmp
      02001091H   SYMBOL    XDATA    BYTE      interruptStatus
      00000005H   SYMBOL    DATA     BYTE      interruptState

      ---         MODULE    ---      ---       CYSPC
      0200113AH   PUBLIC    XDATA    BYTE      SpcLockState
      01007316H   PUBLIC    CODE     ---       CySpcGetAlgorithm
      01007617H   PUBLIC    CODE     ---       CySpcUnlock
      010072BEH   PUBLIC    CODE     ---       CySpcLock
      010070FDH   PUBLIC    CODE     ---       _CySpcGetTemp
      02000594H   PUBLIC    XDATA    BYTE      ?_CySpcWriteRow?BYTE
      01006C39H   PUBLIC    CODE     ---       _CySpcWriteRow
      02000594H   PUBLIC    XDATA    BYTE      ?_CySpcLoadRow?BYTE
      01006941H   PUBLIC    CODE     ---       _CySpcLoadRow
      01006A80H   PUBLIC    CODE     ---       _CySpcReadData
      0100742EH   PUBLIC    CODE     ---       CySpcStart
      000000CAH   SFRSYM    DATA     BYTE      SFRPRT5SEL
      000000DAH   SFRSYM    DATA     BYTE      SFRPRT6SEL
      000000D0H.6 SFRSYM    DATA     BIT       AC
      000000A8H.7 SFRSYM    DATA     BIT       EA
      000000A8H   SFRSYM    DATA     BYTE      IE
      00000085H   SFRSYM    DATA     BYTE      DPH1
      00000084H   SFRSYM    DATA     BYTE      DPL1
      000000D0H.7 SFRSYM    DATA     BIT       CY
      000000A0H   SFRSYM    DATA     BYTE      P2AX
      00000095H   SFRSYM    DATA     BYTE      DPX1
      00000081H   SFRSYM    DATA     BYTE      SP
      000000D0H.2 SFRSYM    DATA     BIT       OV
      00000080H   SFRSYM    DATA     BYTE      SFRPRT0DR
      00000090H   SFRSYM    DATA     BYTE      SFRPRT1DR
      000000F2H   SFRSYM    DATA     BYTE      SFRPRT12SEL
      00000098H   SFRSYM    DATA     BYTE      SFRPRT2DR
      000000B0H   SFRSYM    DATA     BYTE      SFRPRT3DR
      000000C0H   SFRSYM    DATA     BYTE      SFRPRT4DR
      000000FAH   SFRSYM    DATA     BYTE      SFRPRT15SEL
      000000C8H   SFRSYM    DATA     BYTE      SFRPRT5DR
      000000D8H   SFRSYM    DATA     BYTE      SFRPRT6DR
      00000089H   SFRSYM    DATA     BYTE      SFRPRT0PS
      00000091H   SFRSYM    DATA     BYTE      SFRPRT1PS
      00000099H   SFRSYM    DATA     BYTE      SFRPRT2PS
      000000B1H   SFRSYM    DATA     BYTE      SFRPRT3PS
      000000C1H   SFRSYM    DATA     BYTE      SFRPRT4PS
      000000C9H   SFRSYM    DATA     BYTE      SFRPRT5PS
      000000D9H   SFRSYM    DATA     BYTE      SFRPRT6PS
      000000EAH   SFRSYM    DATA     BYTE      MXAX
      000000F0H   SFRSYM    DATA     BYTE      B
      000000E0H   SFRSYM    DATA     BYTE      ACC
      000000D0H   SFRSYM    DATA     BIT       P
      000000D0H.3 SFRSYM    DATA     BIT       RS0
      000000D0H.4 SFRSYM    DATA     BIT       RS1
      00000083H   SFRSYM    DATA     BYTE      DPH
      000000E8H   SFRSYM    DATA     BYTE      SFRPRT12DR
      00000082H   SFRSYM    DATA     BYTE      DPL
LX51 LINKER/LOCATER V4.64.0.0                                                         01/24/2017  11:05:18  PAGE 89


      000000F8H   SFRSYM    DATA     BYTE      SFRPRT15DR
      00000086H   SFRSYM    DATA     BYTE      DPS
      000000E9H   SFRSYM    DATA     BYTE      SFRPRT12PS
      00000093H   SFRSYM    DATA     BYTE      DPX
      000000F9H   SFRSYM    DATA     BYTE      SFRPRT15PS
      000000D0H.5 SFRSYM    DATA     BIT       F0
      000000D0H.1 SFRSYM    DATA     BIT       F1
      0000008AH   SFRSYM    DATA     BYTE      SFRPRT0SEL
      000000D0H   SFRSYM    DATA     BYTE      PSW
      000000A2H   SFRSYM    DATA     BYTE      SFRPRT1SEL
      0000009AH   SFRSYM    DATA     BYTE      SFRPRT2SEL
      000000B2H   SFRSYM    DATA     BYTE      SFRPRT3SEL
      000000C2H   SFRSYM    DATA     BYTE      SFRPRT4SEL

      0100742EH   BLOCK     CODE     ---       LVL=0
      0100742EH   BLOCK     CODE     NEAR LAB  LVL=1
      00000007H   SYMBOL    DATA     BYTE      interruptState
      ---         BLOCKEND  ---      ---       LVL=1
      0100742EH   LINE      CODE     ---       #78
      0100742EH   LINE      CODE     ---       #79
      0100742EH   LINE      CODE     ---       #81
      01007431H   LINE      CODE     ---       #83
      01007438H   LINE      CODE     ---       #84
      0100743FH   LINE      CODE     ---       #87
      01007442H   LINE      CODE     ---       #88
      ---         BLOCKEND  ---      ---       LVL=0
      00000007H   SYMBOL    DATA     BYTE      interruptState

      01006A80H   BLOCK     CODE     ---       LVL=0
      02000591H   SYMBOL    XDATA    ---       buffer
      02000594H   SYMBOL    XDATA    BYTE      size
      01006A8EH   BLOCK     CODE     NEAR LAB  LVL=1
      02000595H   SYMBOL    XDATA    BYTE      i
      ---         BLOCKEND  ---      ---       LVL=1
      01006A80H   LINE      CODE     ---       #135
      01006A8EH   LINE      CODE     ---       #136
      01006A8EH   LINE      CODE     ---       #139
      01006A9CH   LINE      CODE     ---       #140
      01006A9CH   LINE      CODE     ---       #141
      01006AAAH   LINE      CODE     ---       #142
      01006AAAH   LINE      CODE     ---       #143
      01006AB1H   LINE      CODE     ---       #144
      01006AB3H   LINE      CODE     ---       #145
      01006AD2H   LINE      CODE     ---       #146
      01006ADAH   LINE      CODE     ---       #148
      01006ADFH   LINE      CODE     ---       #149
      ---         BLOCKEND  ---      ---       LVL=0
      00000005H   SYMBOL    DATA     BYTE      status
      00000007H   SYMBOL    DATA     BYTE      i

      01006941H   BLOCK     CODE     ---       LVL=0
      00000007H   SYMBOL    DATA     BYTE      array
      02000595H   SYMBOL    XDATA    ---       buffer
      02000598H   SYMBOL    XDATA    WORD      size
      0100694CH   BLOCK     CODE     NEAR LAB  LVL=1
      0200059AH   SYMBOL    XDATA    BYTE      status
      00000006H   SYMBOL    DATA     WORD      i
      ---         BLOCKEND  ---      ---       LVL=1
      01006941H   LINE      CODE     ---       #258
      0100694CH   LINE      CODE     ---       #259
      0100694CH   LINE      CODE     ---       #260
      01006952H   LINE      CODE     ---       #264
      0100695AH   LINE      CODE     ---       #265
      0100695AH   LINE      CODE     ---       #266
      01006960H   LINE      CODE     ---       #267
LX51 LINKER/LOCATER V4.64.0.0                                                         01/24/2017  11:05:18  PAGE 90


      01006963H   LINE      CODE     ---       #268
      01006966H   LINE      CODE     ---       #271
      0100696EH   LINE      CODE     ---       #272
      0100696EH   LINE      CODE     ---       #273
      01006973H   LINE      CODE     ---       #275
      01006983H   LINE      CODE     ---       #276
      01006983H   LINE      CODE     ---       #277
      01006999H   LINE      CODE     ---       #278
      010069A0H   LINE      CODE     ---       #279
      010069A0H   LINE      CODE     ---       #281
      010069A0H   LINE      CODE     ---       #282
      010069A6H   LINE      CODE     ---       #283
      010069A6H   LINE      CODE     ---       #284
      010069A8H   LINE      CODE     ---       #286
      010069A8H   LINE      CODE     ---       #287
      010069AEH   LINE      CODE     ---       #288
      010069AEH   LINE      CODE     ---       #290
      010069B3H   LINE      CODE     ---       #291
      ---         BLOCKEND  ---      ---       LVL=0

      01006C39H   BLOCK     CODE     ---       LVL=0
      00000004H   SYMBOL    DATA     BYTE      array
      02000595H   SYMBOL    XDATA    WORD      address
      00000003H   SYMBOL    DATA     BYTE      tempPolarity
      02000598H   SYMBOL    XDATA    BYTE      tempMagnitude
      01006C43H   BLOCK     CODE     NEAR LAB  LVL=1
      00000005H   SYMBOL    DATA     BYTE      status
      ---         BLOCKEND  ---      ---       LVL=1
      01006C39H   LINE      CODE     ---       #464
      01006C43H   LINE      CODE     ---       #466
      01006C43H   LINE      CODE     ---       #467
      01006C45H   LINE      CODE     ---       #470
      01006C4DH   LINE      CODE     ---       #471
      01006C4DH   LINE      CODE     ---       #472
      01006C53H   LINE      CODE     ---       #473
      01006C56H   LINE      CODE     ---       #474
      01006C59H   LINE      CODE     ---       #477
      01006C61H   LINE      CODE     ---       #478
      01006C61H   LINE      CODE     ---       #479
      01006C66H   LINE      CODE     ---       #480
      01006C6EH   LINE      CODE     ---       #481
      01006C78H   LINE      CODE     ---       #482
      01006C7AH   LINE      CODE     ---       #483
      01006C82H   LINE      CODE     ---       #484
      01006C84H   LINE      CODE     ---       #486
      01006C84H   LINE      CODE     ---       #487
      01006C86H   LINE      CODE     ---       #488
      01006C86H   LINE      CODE     ---       #489
      01006C88H   LINE      CODE     ---       #491
      01006C88H   LINE      CODE     ---       #492
      01006C8AH   LINE      CODE     ---       #493
      01006C8AH   LINE      CODE     ---       #495
      01006C8CH   LINE      CODE     ---       #496
      ---         BLOCKEND  ---      ---       LVL=0
      00000007H   SYMBOL    DATA     BYTE      array
      00000005H   SYMBOL    DATA     BYTE      sectorNumber
      00000006H   SYMBOL    DATA     BYTE      status

      010070FDH   BLOCK     CODE     ---       LVL=0
      00000007H   SYMBOL    DATA     BYTE      numSamples
      010070FDH   BLOCK     CODE     NEAR LAB  LVL=1
      00000006H   SYMBOL    DATA     BYTE      status
      ---         BLOCKEND  ---      ---       LVL=1
      010070FDH   LINE      CODE     ---       #573
      010070FDH   LINE      CODE     ---       #574
LX51 LINKER/LOCATER V4.64.0.0                                                         01/24/2017  11:05:18  PAGE 91


      010070FDH   LINE      CODE     ---       #575
      010070FFH   LINE      CODE     ---       #578
      01007107H   LINE      CODE     ---       #579
      01007107H   LINE      CODE     ---       #580
      0100710DH   LINE      CODE     ---       #581
      01007110H   LINE      CODE     ---       #582
      01007113H   LINE      CODE     ---       #585
      0100711BH   LINE      CODE     ---       #586
      0100711BH   LINE      CODE     ---       #587
      01007120H   LINE      CODE     ---       #588
      01007122H   LINE      CODE     ---       #590
      01007122H   LINE      CODE     ---       #591
      01007124H   LINE      CODE     ---       #592
      01007124H   LINE      CODE     ---       #593
      01007126H   LINE      CODE     ---       #595
      01007126H   LINE      CODE     ---       #596
      01007128H   LINE      CODE     ---       #597
      01007128H   LINE      CODE     ---       #599
      0100712AH   LINE      CODE     ---       #600
      ---         BLOCKEND  ---      ---       LVL=0

      010072BEH   BLOCK     CODE     ---       LVL=0
      010072BEH   BLOCK     CODE     NEAR LAB  LVL=1
      02000594H   SYMBOL    XDATA    BYTE      status
      00000007H   SYMBOL    DATA     BYTE      interruptState
      ---         BLOCKEND  ---      ---       LVL=1
      010072BEH   LINE      CODE     ---       #618
      010072BEH   LINE      CODE     ---       #619
      010072BEH   LINE      CODE     ---       #620
      010072C4H   LINE      CODE     ---       #624
      010072C7H   LINE      CODE     ---       #626
      010072CDH   LINE      CODE     ---       #627
      010072CDH   LINE      CODE     ---       #628
      010072CFH   LINE      CODE     ---       #629
      010072D4H   LINE      CODE     ---       #647
      010072D4H   LINE      CODE     ---       #650
      010072D7H   LINE      CODE     ---       #652
      010072DCH   LINE      CODE     ---       #653
      ---         BLOCKEND  ---      ---       LVL=0

      01007617H   BLOCK     CODE     ---       LVL=0
      01007617H   BLOCK     CODE     NEAR LAB  LVL=1
      00000007H   SYMBOL    DATA     BYTE      interruptState
      ---         BLOCKEND  ---      ---       LVL=1
      01007617H   LINE      CODE     ---       #670
      01007617H   LINE      CODE     ---       #671
      01007617H   LINE      CODE     ---       #675
      0100761AH   LINE      CODE     ---       #678
      0100761FH   LINE      CODE     ---       #698
      01007622H   LINE      CODE     ---       #699
      ---         BLOCKEND  ---      ---       LVL=0

      01007316H   BLOCK     CODE     ---       LVL=0
      01007316H   BLOCK     CODE     NEAR LAB  LVL=1
      00000007H   SYMBOL    DATA     BYTE      status
      ---         BLOCKEND  ---      ---       LVL=1
      01007316H   LINE      CODE     ---       #716
      01007316H   LINE      CODE     ---       #717
      01007316H   LINE      CODE     ---       #718
      01007318H   LINE      CODE     ---       #721
      01007320H   LINE      CODE     ---       #722
      01007320H   LINE      CODE     ---       #723
      01007326H   LINE      CODE     ---       #724
      01007329H   LINE      CODE     ---       #725
      0100732CH   LINE      CODE     ---       #726
LX51 LINKER/LOCATER V4.64.0.0                                                         01/24/2017  11:05:18  PAGE 92


      0100732EH   LINE      CODE     ---       #728
      0100732EH   LINE      CODE     ---       #729
      01007330H   LINE      CODE     ---       #730
      01007330H   LINE      CODE     ---       #732
      01007330H   LINE      CODE     ---       #733
      ---         BLOCKEND  ---      ---       LVL=0

      ---         MODULE    ---      ---       SPI_IMU_INTCLOCK
      01007583H   PUBLIC    CODE     ---       SPI_IMU_IntClock_Start

      01007583H   BLOCK     CODE     ---       LVL=0
      01007583H   LINE      CODE     ---       #45
      01007583H   LINE      CODE     ---       #46
      01007583H   LINE      CODE     ---       #48
      0100758AH   LINE      CODE     ---       #49
      01007591H   LINE      CODE     ---       #50
      ---         BLOCKEND  ---      ---       LVL=0
      00000007H   SYMBOL    DATA     BYTE      state
      00000007H   SYMBOL    DATA     BYTE      modeBitMask
      00000007H   SYMBOL    DATA     BYTE      modeBitMask
      00000007H   SYMBOL    DATA     BYTE      oldSrc

      ---         MODULE    ---      ---       ?C?FPADD
      01002621H   PUBLIC    CODE     ---       ?C?FPADD
      0100261DH   PUBLIC    CODE     ---       ?C?FPSUB

      ---         MODULE    ---      ---       ?C?FPCMP
      01002714H   PUBLIC    CODE     ---       ?C?FPCMP
      01002712H   PUBLIC    CODE     ---       ?C?FPCMP3

      ---         MODULE    ---      ---       ?C?CASTF
      0100278BH   PUBLIC    CODE     ---       ?C?CASTF

      ---         MODULE    ---      ---       PRINTF
      02000A23H   PUBLIC    XDATA    ---       ?_PRINTF?BYTE
      02000A23H   PUBLIC    XDATA    ---       ?_SPRINTF?BYTE
      01004600H   PUBLIC    CODE     ---       _PRINTF
      010045FAH   PUBLIC    CODE     ---       _SPRINTF

      ---         MODULE    ---      ---       ?C?FPGETOPN
      010027C2H   PUBLIC    CODE     ---       ?C?FPGETOPN2
      010027F7H   PUBLIC    CODE     ---       ?C?FPNANRESULT
      01002801H   PUBLIC    CODE     ---       ?C?FPOVERFLOW
      010027D9H   PUBLIC    CODE     ---       ?C?FPRESULT
      010027EDH   PUBLIC    CODE     ---       ?C?FPRESULT2
      010027FEH   PUBLIC    CODE     ---       ?C?FPUNDERFLOW

      ---         MODULE    ---      ---       ?C?FPROUND
      0100280CH   PUBLIC    CODE     ---       ?C?FPROUND

      ---         MODULE    ---      ---       ?C?FPCONVERT
      01002849H   PUBLIC    CODE     ---       ?C?FPCONVERT

      ---         MODULE    ---      ---       ?C?FPMUL
      0100294EH   PUBLIC    CODE     ---       ?C?FPMUL

      ---         MODULE    ---      ---       ?C?FPDIV
      01002A57H   PUBLIC    CODE     ---       ?C?FPDIV

      ---         MODULE    ---      ---       ?C?FTNPWR
      01002B24H   PUBLIC    CODE     ---       ?C?FTNPWR

      ---         MODULE    ---      ---       ?C_INIT
      01005D44H   PUBLIC    CODE     ---       ?C_START

LX51 LINKER/LOCATER V4.64.0.0                                                         01/24/2017  11:05:18  PAGE 93


      ---         MODULE    ---      ---       ?C?CLDPTR
      01002B64H   PUBLIC    CODE     ---       ?C?CLDPTR

      ---         MODULE    ---      ---       ?C?CLDOPTR
      01002B7DH   PUBLIC    CODE     ---       ?C?CLDOPTR

      ---         MODULE    ---      ---       ?C?CSTPTR
      01002BAAH   PUBLIC    CODE     ---       ?C?CSTPTR

      ---         MODULE    ---      ---       ?C?IMUL
      01002BBCH   PUBLIC    CODE     ---       ?C?IMUL

      ---         MODULE    ---      ---       ?C?LMUL
      01002BCEH   PUBLIC    CODE     ---       ?C?LMUL

      ---         MODULE    ---      ---       ?C?ULDIV
      01002C59H   PUBLIC    CODE     ---       ?C?ULDIV

      ---         MODULE    ---      ---       ?C?SLDIV
      01006E4DH   PUBLIC    CODE     ---       ?C?SLDIV

      ---         MODULE    ---      ---       ?C?LNEG
      01002CEBH   PUBLIC    CODE     ---       ?C?LNEG

      ---         MODULE    ---      ---       ?C?SLCMP
      01002CF9H   PUBLIC    CODE     ---       ?C?SLCMP

      ---         MODULE    ---      ---       ?C?ULCMP
      01002D0FH   PUBLIC    CODE     ---       ?C?ULCMP

      ---         MODULE    ---      ---       ?C?ULSHR
      01002D20H   PUBLIC    CODE     ---       ?C?ULSHR

      ---         MODULE    ---      ---       ?C?SLSHR
      01002D33H   PUBLIC    CODE     ---       ?C?SLSHR

      ---         MODULE    ---      ---       ?C?LSHL
      01002D47H   PUBLIC    CODE     ---       ?C?LSHL

      ---         MODULE    ---      ---       ?C?LLDPTR
      01002D5AH   PUBLIC    CODE     ---       ?C?LLDPTR

      ---         MODULE    ---      ---       ?C?LSTPTR
      01002D7AH   PUBLIC    CODE     ---       ?C?LSTPTR

      ---         MODULE    ---      ---       ?C?LSTXDATA
      01002D94H   PUBLIC    CODE     ---       ?C?LSTXDATA

      ---         MODULE    ---      ---       ?C?OFFXADD
      01002DA0H   PUBLIC    CODE     ---       ?C?OFFXADD

      ---         MODULE    ---      ---       ?C?PLDIXDATA
      01002DACH   PUBLIC    CODE     ---       ?C?PLDIXDATA

      ---         MODULE    ---      ---       ?C?PSTXDATA
      01002DC3H   PUBLIC    CODE     ---       ?C?PSTXDATA

      ---         MODULE    ---      ---       ?C?CCASE
      01002DCCH   PUBLIC    CODE     ---       ?C?CCASE

      ---         MODULE    ---      ---       ?C_XBP
      00000022H   PUBLIC    DATA     ---       ?C_XBP

      ---         MODULE    ---      ---       ?C?ADDXBP
      01002DF2H   PUBLIC    CODE     ---       ?C?ADDXBP
LX51 LINKER/LOCATER V4.64.0.0                                                         01/24/2017  11:05:18  PAGE 94



      ---         MODULE    ---      ---       ?C?LIMUL
      01002E16H   PUBLIC    CODE     ---       ?C?LIMUL

      ---         MODULE    ---      ---       PUTCHAR
      01007185H   PUBLIC    CODE     ---       _PUTCHAR

      ---         MODULE    ---      ---       STRCAT
      020005F1H   PUBLIC    XDATA    ---       ?_STRCAT?BYTE
      010069B4H   PUBLIC    CODE     ---       _STRCAT

      ---         MODULE    ---      ---       STRLEN
      01007443H   PUBLIC    CODE     ---       _STRLEN

      ---         MODULE    ---      ---       ?C?MEMSET
      01002E43H   PUBLIC    CODE     ---       ?C?MEMSET

      ---         MODULE    ---      ---       ?C?COPYAMD
      01002F2BH   PUBLIC    CODE     ---       ?C?COPYAMD

      ---         MODULE    ---      ---       ?C?STRCPYAMD
      01003009H   PUBLIC    CODE     ---       ?C?STRCPYAMD

      ---         MODULE    ---      ---       ?C?IILDX
      01003026H   PUBLIC    CODE     ---       ?C?IILDX

      ---         MODULE    ---      ---       ?C?ILDIX
      0100303CH   PUBLIC    CODE     ---       ?C?ILDIX

      ---         MODULE    ---      ---       ?C?LLDIDATA
      01003052H   PUBLIC    CODE     ---       ?C?LLDIDATA

      ---         MODULE    ---      ---       ?C?LLDXDATA
      0100305EH   PUBLIC    CODE     ---       ?C?LLDXDATA

      ---         MODULE    ---      ---       ?C?LLDPDATA
      0100306AH   PUBLIC    CODE     ---       ?C?LLDPDATA

      ---         MODULE    ---      ---       ?C?LLDCODE
      01003076H   PUBLIC    CODE     ---       ?C?LLDCODE

      ---         MODULE    ---      ---       ?C?LSTIDATA
      01003086H   PUBLIC    CODE     ---       ?C?LSTIDATA

      ---         MODULE    ---      ---       ?C?LSTPDATA
      01003092H   PUBLIC    CODE     ---       ?C?LSTPDATA



INTER-MODULE CROSS-REFERENCE LISTING


NAME . . . . . . . . . . . . . . . . . . CLASS    MODULE NAMES
==============================================================

?_Bootloadable_SetFlashByte?BYTE . . . . XDATA    BOOTLOADABLE  
?_calc_turns_fcn?BYTE. . . . . . . . . . XDATA    UTILS  
?_cyconfigcpy?BYTE . . . . . . . . . . . XDATA    CYMEM  CYFITTER_CFG  
?_CySpcLoadMultiByte?BYTE. . . . . . . . XDATA    CYSPC  EEPROM  
?_CySpcLoadRow?BYTE. . . . . . . . . . . XDATA    CYSPC  EEPROM  
?_CySpcLoadRowFull?BYTE. . . . . . . . . XDATA    CYSPC  CYFLASH  
?_CySpcWriteRow?BYTE . . . . . . . . . . XDATA    CYSPC  CYFLASH  EEPROM  
?_CyWriteRowFull?BYTE. . . . . . . . . . XDATA    CYFLASH  
?_my_mod?BYTE. . . . . . . . . . . . . . XDATA    UTILS  
?_PRINTF?BYTE. . . . . . . . . . . . . . XDATA    PRINTF  
LX51 LINKER/LOCATER V4.64.0.0                                                         01/24/2017  11:05:18  PAGE 95


?_SPRINTF?BYTE . . . . . . . . . . . . . XDATA    PRINTF  COMMAND_PROCESSING  
?_strcat?BYTE. . . . . . . . . . . . . . XDATA    STRCAT  COMMAND_PROCESSING  
?C?ADDXBP. . . . . . . . . . . . . . . . CODE     ?C?ADDXBP  CYLIB  
?C?CASTF . . . . . . . . . . . . . . . . CODE     ?C?CASTF  UTILS  
?C?CCASE . . . . . . . . . . . . . . . . CODE     ?C?CCASE  COMMAND_PROCESSING  PRINTF  
?C?CLDOPTR . . . . . . . . . . . . . . . CODE     ?C?CLDOPTR  PRINTF  
?C?CLDPTR. . . . . . . . . . . . . . . . CODE     ?C?CLDPTR  COMMAND_PROCESSING  CYSPC  PRINTF  SPI_IMU  STRCAT  STRLEN 
                                                   UART_RS485  UTILS  
?C?CODESEG . . . . . . . . . . . . . . . NUMBER   ** LX51 GENERATED **  
?C?COPYAMD . . . . . . . . . . . . . . . CODE     ?C?COPYAMD  COMMAND_PROCESSING  INTERRUPTIONS  ISR_IMU  
?C?CSTPTR. . . . . . . . . . . . . . . . CODE     ?C?CSTPTR  CYSPC  PRINTF  STRCAT  
?C?FPADD . . . . . . . . . . . . . . . . CODE     ?C?FPADD  ?C?FPCONVERT  UTILS  
?C?FPCMP . . . . . . . . . . . . . . . . CODE     ?C?FPCMP  
?C?FPCMP3. . . . . . . . . . . . . . . . CODE     ?C?FPCMP  UTILS  
?C?FPCONVERT . . . . . . . . . . . . . . CODE     ?C?FPCONVERT  PRINTF  
?C?FPDIV . . . . . . . . . . . . . . . . CODE     ?C?FPDIV  ?C?FPCONVERT  
?C?FPGETOPN2 . . . . . . . . . . . . . . CODE     ?C?FPGETOPN  ?C?FPADD  ?C?FPDIV  ?C?FPMUL  
?C?FPMUL . . . . . . . . . . . . . . . . CODE     ?C?FPMUL  ?C?FPCONVERT  ?C?FTNPWR  
?C?FPNANRESULT . . . . . . . . . . . . . CODE     ?C?FPGETOPN  ?C?FPADD  ?C?FPDIV  ?C?FPMUL  
?C?FPOVERFLOW. . . . . . . . . . . . . . CODE     ?C?FPGETOPN  ?C?FPADD  ?C?FPDIV  ?C?FPMUL  
?C?FPRESULT. . . . . . . . . . . . . . . CODE     ?C?FPGETOPN  ?C?FPADD  ?C?FPDIV  ?C?FPMUL  
?C?FPRESULT2 . . . . . . . . . . . . . . CODE     ?C?FPGETOPN  ?C?FPDIV  ?C?FPMUL  
?C?FPROUND . . . . . . . . . . . . . . . CODE     ?C?FPROUND  PRINTF  
?C?FPSUB . . . . . . . . . . . . . . . . CODE     ?C?FPADD  
?C?FPUNDERFLOW . . . . . . . . . . . . . CODE     ?C?FPGETOPN  ?C?FPADD  ?C?FPDIV  ?C?FPMUL  
?C?FTNPWR. . . . . . . . . . . . . . . . CODE     ?C?FTNPWR  ?C?FPCONVERT  
?C?IILDX . . . . . . . . . . . . . . . . CODE     ?C?IILDX  STRCAT  
?C?ILDIX . . . . . . . . . . . . . . . . CODE     ?C?ILDIX  STRCAT  
?C?IMUL. . . . . . . . . . . . . . . . . CODE     ?C?IMUL  COMMAND_PROCESSING  
?C?LIMUL . . . . . . . . . . . . . . . . CODE     ?C?LIMUL  COMMAND_PROCESSING  CYSPC  
?C?LLDCODE . . . . . . . . . . . . . . . CODE     ?C?LLDCODE  ?C?LLDPTR  
?C?LLDIDATA. . . . . . . . . . . . . . . CODE     ?C?LLDIDATA  ?C?LLDPTR  
?C?LLDPDATA. . . . . . . . . . . . . . . CODE     ?C?LLDPDATA  ?C?LLDPTR  
?C?LLDPTR. . . . . . . . . . . . . . . . CODE     ?C?LLDPTR  CYLIB  
?C?LLDXDATA. . . . . . . . . . . . . . . CODE     ?C?LLDXDATA  ?C?LLDPTR  
?C?LMUL. . . . . . . . . . . . . . . . . CODE     ?C?LMUL  CYLIB  CYPM  UTILS  
?C?LNEG. . . . . . . . . . . . . . . . . CODE     ?C?LNEG  ?C?CASTF  UTILS  
?C?LSHL. . . . . . . . . . . . . . . . . CODE     ?C?LSHL  CYLIB  UTILS  
?C?LSTIDATA. . . . . . . . . . . . . . . CODE     ?C?LSTIDATA  ?C?LSTPTR  
?C?LSTPDATA. . . . . . . . . . . . . . . CODE     ?C?LSTPDATA  ?C?LSTPTR  
?C?LSTPTR. . . . . . . . . . . . . . . . CODE     ?C?LSTPTR  CYLIB  
?C?LSTXDATA. . . . . . . . . . . . . . . CODE     ?C?LSTXDATA  ?C?LSTPTR  BOOTLOADABLE  COMMAND_PROCESSING  CYFITTER_CFG
                                                    CYLIB  CYSPC  INTERRUPTIONS  UTILS  
?C?MEMSET. . . . . . . . . . . . . . . . CODE     ?C?MEMSET  COMMAND_PROCESSING  IMU_FUNCTIONS  
?C?OFFXADD . . . . . . . . . . . . . . . CODE     ?C?OFFXADD  COMMAND_PROCESSING  IMU_FUNCTIONS  
?C?PLDIXDATA . . . . . . . . . . . . . . CODE     ?C?PLDIXDATA  PRINTF  
?C?PSTXDATA. . . . . . . . . . . . . . . CODE     ?C?PSTXDATA  PRINTF  
?C?SLCMP . . . . . . . . . . . . . . . . CODE     ?C?SLCMP  UTILS  
?C?SLDIV . . . . . . . . . . . . . . . . CODE     ?C?SLDIV  UTILS  
?C?SLSHR . . . . . . . . . . . . . . . . CODE     ?C?SLSHR  UTILS  
?C?STRCPYAMD . . . . . . . . . . . . . . CODE     ?C?STRCPYAMD  COMMAND_PROCESSING  
?C?ULCMP . . . . . . . . . . . . . . . . CODE     ?C?ULCMP  CYFLASH  
?C?ULDIV . . . . . . . . . . . . . . . . CODE     ?C?ULDIV  ?C?SLDIV  BOOTLOADABLE  CYLIB  CYPM  UTILS  
?C?ULSHR . . . . . . . . . . . . . . . . CODE     ?C?ULSHR  COMMAND_PROCESSING  CYLIB  
?C?XDATASEG. . . . . . . . . . . . . . . NUMBER   ** LX51 GENERATED **  
?C?XPAGE1RST . . . . . . . . . . . . . . NUMBER   ?C_STARTUP  INTERRUPTIONS  ISR_IMU  ISR_RS485_RX  ISR_WATCHDOG  UART_R
                                                  S485_INT  
?C?XPAGE1SFR . . . . . . . . . . . . . . DATA     ?C_STARTUP  INTERRUPTIONS  ISR_IMU  ISR_RS485_RX  ISR_WATCHDOG  UART_R
                                                  S485_INT  
?C_START . . . . . . . . . . . . . . . . CODE     ?C_INIT  ?C_STARTUP  
?C_STARTUP . . . . . . . . . . . . . . . CODE     ?C_STARTUP  MAIN  
?C_XBP . . . . . . . . . . . . . . . . . DATA     ?C_XBP  ?C?ADDXBP  ?C_STARTUP  CYLIB  
_?CyDelay. . . . . . . . . . . . . . . . CODE     CYLIB  COMMAND_PROCESSING  CYBOOTASMKEIL  IMU_FUNCTIONS  MAIN  
_?CyDelayFreq. . . . . . . . . . . . . . CODE     CYLIB  
_?CyHalt . . . . . . . . . . . . . . . . CODE     CYLIB  
LX51 LINKER/LOCATER V4.64.0.0                                                         01/24/2017  11:05:18  PAGE 96


_Bootloadable_SetFlashByte . . . . . . . CODE     BOOTLOADABLE  
_calc_turns_fcn. . . . . . . . . . . . . CODE     UTILS  
_cfg_write_bytes . . . . . . . . . . . . CODE     CYMEM  
_cfg_write_bytes_code. . . . . . . . . . CODE     CYMEM  
_check_enc_data. . . . . . . . . . . . . CODE     UTILS  
_Chip_Select_A_Write . . . . . . . . . . CODE     CHIP_SELECT_A  IMU_FUNCTIONS  
_Chip_Select_B_Write . . . . . . . . . . CODE     CHIP_SELECT_B  IMU_FUNCTIONS  
_ChipSelector. . . . . . . . . . . . . . CODE     IMU_FUNCTIONS  ISR_IMU  
_CLOCK_UART_ClearModeRegister. . . . . . CODE     CLOCK_UART  
_CLOCK_UART_SetDividerRegister . . . . . CODE     CLOCK_UART  COMMAND_PROCESSING  
_CLOCK_UART_SetModeRegister. . . . . . . CODE     CLOCK_UART  
_CLOCK_UART_SetSourceRegister. . . . . . CODE     CLOCK_UART  
_CLOCK_UART_StandbyPower . . . . . . . . CODE     CLOCK_UART  
_commWrite . . . . . . . . . . . . . . . CODE     COMMAND_PROCESSING  
_CyBusClk_SetDivider . . . . . . . . . . CODE     CYLIB  CYPM  
_cyconfigcpy . . . . . . . . . . . . . . CODE     CYMEM  CYFITTER_CFG  
_cyconfigcpycode . . . . . . . . . . . . CODE     CYMEM  CYFITTER_CFG  
_CyCpuClk_SetDivider . . . . . . . . . . CODE     CYLIB  
_CyDelay . . . . . . . . . . . . . . . . CODE     CYBOOTASMKEIL  
_CyDelayCycles . . . . . . . . . . . . . CODE     CYBOOTASMKEIL  CYFITTER_CFG  CYLIB  CYPM  
_CyDelayUs . . . . . . . . . . . . . . . CODE     CYBOOTASMKEIL  CYFLASH  CYLIB  CYPM  CYSPC  
_CyEnableInts. . . . . . . . . . . . . . CODE     CYLIB  
_CyExitCriticalSection . . . . . . . . . CODE     CYBOOTASMKEIL  CYFLASH  CYLIB  CYPM  CYSPC  EEPROM  FF_STATUS  MY_TIME
                                                  R  SPI_IMU  UART_RS485  
_CyFlash_SetWaitCycles . . . . . . . . . CODE     CYFLASH  CYPM  
_CyGetUniqueId . . . . . . . . . . . . . CODE     CYLIB  
_CyILO_SetPowerMode. . . . . . . . . . . CODE     CYLIB  CYPM  
_CyILO_SetSource . . . . . . . . . . . . CODE     CYLIB  
_CyIMO_SetFreq . . . . . . . . . . . . . CODE     CYLIB  CYPM  
_CyIMO_SetSource . . . . . . . . . . . . CODE     CYLIB  CYPM  
_CyIMO_Start . . . . . . . . . . . . . . CODE     CYLIB  CYPM  
_CyIntGetPriority. . . . . . . . . . . . CODE     CYLIB  
_CyIntGetState . . . . . . . . . . . . . CODE     CYLIB  
_CyIntGetVector. . . . . . . . . . . . . CODE     CYLIB  
_CyIntSetPriority. . . . . . . . . . . . CODE     CYLIB  UART_RS485  
_CyIntSetVector. . . . . . . . . . . . . CODE     CYLIB  UART_RS485  
_CyMasterClk_SetDivider. . . . . . . . . CODE     CYLIB  CYPM  
_CyMasterClk_SetSource . . . . . . . . . CODE     CYLIB  CYPM  
_cymemzero . . . . . . . . . . . . . . . CODE     CYMEM  
_CyPLL_OUT_SetPQ . . . . . . . . . . . . CODE     CYLIB  
_CyPLL_OUT_SetSource . . . . . . . . . . CODE     CYLIB  
_CyPLL_OUT_Start . . . . . . . . . . . . CODE     CYLIB  CYPM  
_CyPmAltAct. . . . . . . . . . . . . . . CODE     CYPM  
_CyPmCtwSetInterval. . . . . . . . . . . CODE     CYPM  
_CyPmFtwSetInterval. . . . . . . . . . . CODE     CYPM  CYLIB  
_CyPmHibernateEx . . . . . . . . . . . . CODE     CYPM  
_CyPmReadStatus. . . . . . . . . . . . . CODE     CYPM  CYLIB  
_CyPmSleep . . . . . . . . . . . . . . . CODE     CYPM  
_cyread16. . . . . . . . . . . . . . . . CODE     CYMEM  
_cyread16_nodpx. . . . . . . . . . . . . CODE     CYMEM  CLOCK_UART  CYLIB  ISR_IMU  ISR_RS485_RX  ISR_WATCHDOG  PACER_T
                                                  IMER  SPI_IMU_INTCLOCK  WATCHDOG_COUNTER  
_cyread24. . . . . . . . . . . . . . . . CODE     CYMEM  
_cyread24_nodpx. . . . . . . . . . . . . CODE     CYMEM  MY_TIMER  
_cyread32. . . . . . . . . . . . . . . . CODE     CYMEM  
_cyread32_nodpx. . . . . . . . . . . . . CODE     CYMEM  
_cyread8 . . . . . . . . . . . . . . . . CODE     CYMEM  CYFITTER_CFG  CYLIB  CYSPC  
_cyread8_nodpx . . . . . . . . . . . . . CODE     CYMEM  
_CySetFlashEEBuffer. . . . . . . . . . . CODE     CYFLASH  
_CySpcEraseSector. . . . . . . . . . . . CODE     CYSPC  EEPROM  
_CySpcGetTemp. . . . . . . . . . . . . . CODE     CYSPC  CYFLASH  
_CySpcLoadMultiByte. . . . . . . . . . . CODE     CYSPC  EEPROM  
_CySpcLoadRow. . . . . . . . . . . . . . CODE     CYSPC  EEPROM  
_CySpcLoadRowFull. . . . . . . . . . . . CODE     CYSPC  CYFLASH  
_CySpcReadData . . . . . . . . . . . . . CODE     CYSPC  CYFLASH  
_CySpcWriteRow . . . . . . . . . . . . . CODE     CYSPC  CYFLASH  EEPROM  
LX51 LINKER/LOCATER V4.64.0.0                                                         01/24/2017  11:05:18  PAGE 97


_CyUsbClk_SetSource. . . . . . . . . . . CODE     CYLIB  
_CyVdLvAnalogEnable. . . . . . . . . . . CODE     CYLIB  CYPM  
_CyVdLvDigitEnable . . . . . . . . . . . CODE     CYLIB  CYPM  
_CyVdStickyStatus. . . . . . . . . . . . CODE     CYLIB  
_CyWdtStart. . . . . . . . . . . . . . . CODE     CYLIB  
_cywrite16 . . . . . . . . . . . . . . . CODE     CYMEM  CYFITTER_CFG  
_cywrite16_nodpx . . . . . . . . . . . . CODE     CYMEM  CLOCK_UART  CYFITTER_CFG  CYLIB  ISR_IMU  ISR_RS485_RX  ISR_WAT
                                                  CHDOG  PACER_TIMER  SPI_IMU_INTCLOCK  WATCHDOG_COUNTER  
_cywrite24 . . . . . . . . . . . . . . . CODE     CYMEM  
_cywrite24_nodpx . . . . . . . . . . . . CODE     CYMEM  MY_TIMER  
_cywrite32 . . . . . . . . . . . . . . . CODE     CYMEM  
_cywrite32_nodpx . . . . . . . . . . . . CODE     CYMEM  
_cywrite8. . . . . . . . . . . . . . . . CODE     CYMEM  CYFITTER_CFG  
_cywrite8_nodpx. . . . . . . . . . . . . CODE     CYMEM  
_CyWriteRowData. . . . . . . . . . . . . CODE     CYFLASH  BOOTLOADABLE  
_CyWriteRowFull. . . . . . . . . . . . . CODE     CYFLASH  
_CyXTAL_32KHZ_SetPowerMode . . . . . . . CODE     CYLIB  
_CyXTAL_SetFbVoltage . . . . . . . . . . CODE     CYLIB  
_CyXTAL_SetStartup . . . . . . . . . . . CODE     CYLIB  
_CyXTAL_SetWdVoltage . . . . . . . . . . CODE     CYLIB  
_CyXTAL_Start. . . . . . . . . . . . . . CODE     CYLIB  CYPM  
_dma_wait. . . . . . . . . . . . . . . . CODE     ?C_STARTUP  
_EEPROM_ByteWritePos . . . . . . . . . . CODE     EEPROM  
_EEPROM_EraseSector. . . . . . . . . . . CODE     EEPROM  
_EEPROM_ReadByte . . . . . . . . . . . . CODE     EEPROM  
_EEPROM_StartErase . . . . . . . . . . . CODE     EEPROM  
_EEPROM_StartWrite . . . . . . . . . . . CODE     EEPROM  
_EEPROM_Write. . . . . . . . . . . . . . CODE     EEPROM  COMMAND_PROCESSING  
_EEPROM_WriteByte. . . . . . . . . . . . CODE     EEPROM  
_FF_STATUS_WriteMask . . . . . . . . . . CODE     FF_STATUS  
_filter_ch1. . . . . . . . . . . . . . . CODE     UTILS  
_filter_ch2. . . . . . . . . . . . . . . CODE     UTILS  
_filter_i1 . . . . . . . . . . . . . . . CODE     UTILS  
_filter_v. . . . . . . . . . . . . . . . CODE     UTILS  
_FTDI_ENABLE_REG_Write . . . . . . . . . CODE     FTDI_ENABLE_REG  COMMAND_PROCESSING  MAIN  
_get_param_list. . . . . . . . . . . . . CODE     COMMAND_PROCESSING  
_infoGet . . . . . . . . . . . . . . . . CODE     COMMAND_PROCESSING  INTERRUPTIONS  
_infoPrepare . . . . . . . . . . . . . . CODE     COMMAND_PROCESSING  
_isr_imu_SetPriority . . . . . . . . . . CODE     ISR_IMU  
_isr_imu_SetVector . . . . . . . . . . . CODE     ISR_IMU  
_isr_imu_StartEx . . . . . . . . . . . . CODE     ISR_IMU  
_ISR_RS485_RX_SetPriority. . . . . . . . CODE     ISR_RS485_RX  
_ISR_RS485_RX_SetVector. . . . . . . . . CODE     ISR_RS485_RX  
_ISR_RS485_RX_StartEx. . . . . . . . . . CODE     ISR_RS485_RX  MAIN  
_ISR_WATCHDOG_SetPriority. . . . . . . . CODE     ISR_WATCHDOG  
_ISR_WATCHDOG_SetVector. . . . . . . . . CODE     ISR_WATCHDOG  
_ISR_WATCHDOG_StartEx. . . . . . . . . . CODE     ISR_WATCHDOG  MAIN  
_LCRChecksum . . . . . . . . . . . . . . CODE     COMMAND_PROCESSING  
_memStore. . . . . . . . . . . . . . . . CODE     COMMAND_PROCESSING  
_my_mod. . . . . . . . . . . . . . . . . CODE     UTILS  
_my_round. . . . . . . . . . . . . . . . CODE     UTILS  
_MY_TIMER_SetInterruptMode . . . . . . . CODE     MY_TIMER  
_MY_TIMER_WriteControlRegister . . . . . CODE     MY_TIMER  
_MY_TIMER_WriteCounter . . . . . . . . . CODE     MY_TIMER  INTERRUPTIONS  
_MY_TIMER_WritePeriod. . . . . . . . . . CODE     MY_TIMER  
_Opto_Pin_SetDriveMode . . . . . . . . . CODE     OPTO_PIN  
_Opto_Pin_Write. . . . . . . . . . . . . CODE     OPTO_PIN  IMU_FUNCTIONS  MAIN  
_PACER_TIMER_SetInterruptMode. . . . . . CODE     PACER_TIMER  
_PACER_TIMER_WriteControlRegister. . . . CODE     PACER_TIMER  
_PACER_TIMER_WriteCounter. . . . . . . . CODE     PACER_TIMER  
_PACER_TIMER_WritePeriod . . . . . . . . CODE     PACER_TIMER  
_PRINTF. . . . . . . . . . . . . . . . . CODE     PRINTF  
_PUTCHAR . . . . . . . . . . . . . . . . CODE     PUTCHAR  PRINTF  
_ReadAcc . . . . . . . . . . . . . . . . CODE     IMU_FUNCTIONS  
_ReadControlRegister . . . . . . . . . . CODE     IMU_FUNCTIONS  
LX51 LINKER/LOCATER V4.64.0.0                                                         01/24/2017  11:05:18  PAGE 98


_ReadGyro. . . . . . . . . . . . . . . . CODE     IMU_FUNCTIONS  
_ReadIMU . . . . . . . . . . . . . . . . CODE     IMU_FUNCTIONS  ISR_IMU  
_ReadMag . . . . . . . . . . . . . . . . CODE     IMU_FUNCTIONS  
_ReadMagCal. . . . . . . . . . . . . . . CODE     IMU_FUNCTIONS  
_ReadTemp. . . . . . . . . . . . . . . . CODE     IMU_FUNCTIONS  
_RESET_FF_Write. . . . . . . . . . . . . CODE     RESET_FF  MAIN  
_RS485_CTS_Write . . . . . . . . . . . . CODE     RS485_CTS  COMMAND_PROCESSING  INTERRUPTIONS  MAIN  
_sendAcknowledgment. . . . . . . . . . . CODE     COMMAND_PROCESSING  
_SetAnalogRoutingPumps . . . . . . . . . CODE     CYFITTER_CFG  
_SPI_IMU_IntClock_ClearModeRegister. . . CODE     SPI_IMU_INTCLOCK  
_SPI_IMU_IntClock_SetDividerRegister . . CODE     SPI_IMU_INTCLOCK  
_SPI_IMU_IntClock_SetModeRegister. . . . CODE     SPI_IMU_INTCLOCK  
_SPI_IMU_IntClock_SetSourceRegister. . . CODE     SPI_IMU_INTCLOCK  
_SPI_IMU_IntClock_StandbyPower . . . . . CODE     SPI_IMU_INTCLOCK  
_SPI_IMU_PutArray. . . . . . . . . . . . CODE     SPI_IMU  
_SPI_IMU_SetInterruptMode. . . . . . . . CODE     SPI_IMU  
_SPI_IMU_SetRxInterruptMode. . . . . . . CODE     SPI_IMU  
_SPI_IMU_SetTxInterruptMode. . . . . . . CODE     SPI_IMU  
_SPI_IMU_WriteTxData . . . . . . . . . . CODE     SPI_IMU  IMU_FUNCTIONS  
_SPRINTF . . . . . . . . . . . . . . . . CODE     PRINTF  COMMAND_PROCESSING  
_strcat. . . . . . . . . . . . . . . . . CODE     STRCAT  COMMAND_PROCESSING  
_STRLEN. . . . . . . . . . . . . . . . . CODE     STRLEN  COMMAND_PROCESSING  
_UART_RS485_PutArray . . . . . . . . . . CODE     UART_RS485  
_UART_RS485_PutChar. . . . . . . . . . . CODE     UART_RS485  COMMAND_PROCESSING  
_UART_RS485_PutCRLF. . . . . . . . . . . CODE     UART_RS485  
_UART_RS485_PutString. . . . . . . . . . CODE     UART_RS485  COMMAND_PROCESSING  
_UART_RS485_SendBreak. . . . . . . . . . CODE     UART_RS485  
_UART_RS485_SetRxAddress1. . . . . . . . CODE     UART_RS485  
_UART_RS485_SetRxAddress2. . . . . . . . CODE     UART_RS485  
_UART_RS485_SetRxAddressMode . . . . . . CODE     UART_RS485  
_UART_RS485_SetRxInterruptMode . . . . . CODE     UART_RS485  
_UART_RS485_SetTxAddressMode . . . . . . CODE     UART_RS485  
_UART_RS485_SetTxInterruptMode . . . . . CODE     UART_RS485  
_UART_RS485_WriteControlRegister . . . . CODE     UART_RS485  
_UART_RS485_WriteTxData. . . . . . . . . CODE     UART_RS485  
_WATCHDOG_COUNTER_SetInterruptMode . . . CODE     WATCHDOG_COUNTER  
_WATCHDOG_COUNTER_WriteControlRegister . CODE     WATCHDOG_COUNTER  
_WATCHDOG_COUNTER_WriteCounter . . . . . CODE     WATCHDOG_COUNTER  
_WATCHDOG_COUNTER_WritePeriod. . . . . . CODE     WATCHDOG_COUNTER  COMMAND_PROCESSING  
_WATCHDOG_ENABLER_Write. . . . . . . . . CODE     WATCHDOG_ENABLER  COMMAND_PROCESSING  
_WATCHDOG_REFRESH_Write. . . . . . . . . CODE     WATCHDOG_REFRESH  MAIN  
_WriteControlRegister. . . . . . . . . . CODE     IMU_FUNCTIONS  
AC . . . . . . . . . . . . . . . . . . . DATA     COMMAND_PROCESSING  
ACC. . . . . . . . . . . . . . . . . . . DATA     COMMAND_PROCESSING  
Accel. . . . . . . . . . . . . . . . . . XDATA    GLOBALS  IMU_FUNCTIONS  ISR_IMU  
ADC_buf. . . . . . . . . . . . . . . . . XDATA    GLOBALS  
B. . . . . . . . . . . . . . . . . . . . DATA     COMMAND_PROCESSING  
Bootloadable_Load. . . . . . . . . . . . CODE     BOOTLOADABLE  COMMAND_PROCESSING  
c_mem. . . . . . . . . . . . . . . . . . XDATA    GLOBALS  COMMAND_PROCESSING  INTERRUPTIONS  
calibration. . . . . . . . . . . . . . . CODE     UTILS  
Chip_Select_A_Read . . . . . . . . . . . CODE     CHIP_SELECT_A  
Chip_Select_B_Read . . . . . . . . . . . CODE     CHIP_SELECT_B  
CLOCK_UART_GetDividerRegister. . . . . . CODE     CLOCK_UART  
CLOCK_UART_GetModeRegister . . . . . . . CODE     CLOCK_UART  
CLOCK_UART_GetSourceRegister . . . . . . CODE     CLOCK_UART  
CLOCK_UART_Start . . . . . . . . . . . . CODE     CLOCK_UART  
CLOCK_UART_Stop. . . . . . . . . . . . . CODE     CLOCK_UART  
CLOCK_UART_StopBlock . . . . . . . . . . CODE     CLOCK_UART  
cmd_activate . . . . . . . . . . . . . . CODE     COMMAND_PROCESSING  
cmd_get_activate . . . . . . . . . . . . CODE     COMMAND_PROCESSING  
cmd_get_curr_and_meas. . . . . . . . . . CODE     COMMAND_PROCESSING  
cmd_get_currents . . . . . . . . . . . . CODE     COMMAND_PROCESSING  
cmd_get_emg. . . . . . . . . . . . . . . CODE     COMMAND_PROCESSING  
cmd_get_imu_readings . . . . . . . . . . CODE     COMMAND_PROCESSING  
cmd_get_inputs . . . . . . . . . . . . . CODE     COMMAND_PROCESSING  
LX51 LINKER/LOCATER V4.64.0.0                                                         01/24/2017  11:05:18  PAGE 99


cmd_get_measurements . . . . . . . . . . CODE     COMMAND_PROCESSING  
cmd_ping . . . . . . . . . . . . . . . . CODE     COMMAND_PROCESSING  
cmd_set_baudrate . . . . . . . . . . . . CODE     COMMAND_PROCESSING  
cmd_set_inputs . . . . . . . . . . . . . CODE     COMMAND_PROCESSING  
cmd_set_watchdog . . . . . . . . . . . . CODE     COMMAND_PROCESSING  
cmd_store_params . . . . . . . . . . . . CODE     COMMAND_PROCESSING  
commProcess. . . . . . . . . . . . . . . CODE     COMMAND_PROCESSING  INTERRUPTIONS  
CY . . . . . . . . . . . . . . . . . . . DATA     COMMAND_PROCESSING  
cydelay_32k_ms . . . . . . . . . . . . . XDATA    CYLIB  
cydelay_freq_hz. . . . . . . . . . . . . XDATA    CYLIB  
cydelay_freq_khz . . . . . . . . . . . . XDATA    CYLIB  
cydelay_freq_mhz . . . . . . . . . . . . XDATA    CYLIB  CYBOOTASMKEIL  
CyDisableInts. . . . . . . . . . . . . . CODE     CYLIB  
CyEEPROM_ReadRelease . . . . . . . . . . CODE     CYFLASH  EEPROM  
CyEEPROM_ReadReserve . . . . . . . . . . CODE     CYFLASH  EEPROM  
CyEEPROM_Start . . . . . . . . . . . . . CODE     CYFLASH  EEPROM  
CyEEPROM_Stop. . . . . . . . . . . . . . CODE     CYFLASH  EEPROM  
CyEnterCriticalSection . . . . . . . . . CODE     CYBOOTASMKEIL  CYFLASH  CYLIB  CYPM  CYSPC  EEPROM  FF_STATUS  MY_TIME
                                                  R  SPI_IMU  UART_RS485  
cyfitter_cfg . . . . . . . . . . . . . . CODE     CYFITTER_CFG  ?C_STARTUP  
CyFlash_Start. . . . . . . . . . . . . . CODE     CYFLASH  
CyFlash_Stop . . . . . . . . . . . . . . CODE     CYFLASH  
CyILO_Disable33K . . . . . . . . . . . . CODE     CYLIB  
CyILO_Enable33K. . . . . . . . . . . . . CODE     CYLIB  
CyILO_Start100K. . . . . . . . . . . . . CODE     CYLIB  CYPM  
CyILO_Start1K. . . . . . . . . . . . . . CODE     CYLIB  CYPM  
CyILO_Stop100K . . . . . . . . . . . . . CODE     CYLIB  
CyILO_Stop1K . . . . . . . . . . . . . . CODE     CYLIB  
CyIMO_DisableDoubler . . . . . . . . . . CODE     CYLIB  CYPM  
CyIMO_EnableDoubler. . . . . . . . . . . CODE     CYLIB  CYPM  
CyIMO_Stop . . . . . . . . . . . . . . . CODE     CYLIB  CYPM  
CyPLL_OUT_Stop . . . . . . . . . . . . . CODE     CYLIB  CYPM  
CyPmHibernate. . . . . . . . . . . . . . CODE     CYPM  
CyPmOppsSet. . . . . . . . . . . . . . . CODE     CYPM  
CyPmRestoreClocks. . . . . . . . . . . . CODE     CYPM  
CyPmSaveClocks . . . . . . . . . . . . . CODE     CYPM  
CyResetStatus. . . . . . . . . . . . . . XDATA    CYLIB  ?C_STARTUP  
CySetTemp. . . . . . . . . . . . . . . . CODE     CYFLASH  COMMAND_PROCESSING  EEPROM  
CySoftwareReset. . . . . . . . . . . . . CODE     CYLIB  BOOTLOADABLE  
CySpcGetAlgorithm. . . . . . . . . . . . CODE     CYSPC  CYFLASH  
CySpcLock. . . . . . . . . . . . . . . . CODE     CYSPC  CYFLASH  EEPROM  
CySpcStart . . . . . . . . . . . . . . . CODE     CYSPC  CYFLASH  EEPROM  
CySpcStop. . . . . . . . . . . . . . . . CODE     CYSPC  
CySpcUnlock. . . . . . . . . . . . . . . CODE     CYSPC  CYFLASH  EEPROM  
CyVdHvAnalogDisable. . . . . . . . . . . CODE     CYLIB  CYPM  
CyVdHvAnalogEnable . . . . . . . . . . . CODE     CYLIB  CYPM  
CyVdLvAnalogDisable. . . . . . . . . . . CODE     CYLIB  CYPM  
CyVdLvDigitDisable . . . . . . . . . . . CODE     CYLIB  CYPM  
CyVdRealTimeStatus . . . . . . . . . . . CODE     CYLIB  
CyWdtClear . . . . . . . . . . . . . . . CODE     CYLIB  
CyXTAL_32KHZ_ReadStatus. . . . . . . . . CODE     CYLIB  
CyXTAL_32KHZ_Start . . . . . . . . . . . CODE     CYLIB  CYPM  
CyXTAL_32KHZ_Stop. . . . . . . . . . . . CODE     CYLIB  
CyXTAL_DisableErrStatus. . . . . . . . . CODE     CYLIB  
CyXTAL_DisableFaultRecovery. . . . . . . CODE     CYLIB  
CyXTAL_EnableErrStatus . . . . . . . . . CODE     CYLIB  
CyXTAL_EnableFaultRecovery . . . . . . . CODE     CYLIB  
CyXTAL_ReadStatus. . . . . . . . . . . . CODE     CYLIB  
CyXTAL_Stop. . . . . . . . . . . . . . . CODE     CYLIB  CYPM  
dev_pwm_limit. . . . . . . . . . . . . . XDATA    GLOBALS  MAIN  
dev_tension. . . . . . . . . . . . . . . XDATA    GLOBALS  
dieTemperature . . . . . . . . . . . . . XDATA    CYFLASH  EEPROM  
DPH. . . . . . . . . . . . . . . . . . . DATA     COMMAND_PROCESSING  
DPH1 . . . . . . . . . . . . . . . . . . DATA     COMMAND_PROCESSING  
DPL. . . . . . . . . . . . . . . . . . . DATA     COMMAND_PROCESSING  
LX51 LINKER/LOCATER V4.64.0.0                                                         01/24/2017  11:05:18  PAGE 100


DPL1 . . . . . . . . . . . . . . . . . . DATA     COMMAND_PROCESSING  
DPS. . . . . . . . . . . . . . . . . . . DATA     COMMAND_PROCESSING  
DPX. . . . . . . . . . . . . . . . . . . DATA     COMMAND_PROCESSING  
DPX1 . . . . . . . . . . . . . . . . . . DATA     COMMAND_PROCESSING  
EA . . . . . . . . . . . . . . . . . . . DATA     COMMAND_PROCESSING  
EEPROM_ADDR. . . . . . . . . . . . . . . XDATA    COMMAND_PROCESSING  
EEPROM_Enable. . . . . . . . . . . . . . CODE     EEPROM  
EEPROM_Query . . . . . . . . . . . . . . CODE     EEPROM  
EEPROM_Start . . . . . . . . . . . . . . CODE     EEPROM  MAIN  
EEPROM_Stop. . . . . . . . . . . . . . . CODE     EEPROM  
EEPROM_UpdateTemperature . . . . . . . . CODE     EEPROM  
F0 . . . . . . . . . . . . . . . . . . . DATA     COMMAND_PROCESSING  
F1 . . . . . . . . . . . . . . . . . . . DATA     COMMAND_PROCESSING  
FF_STATUS_InterruptDisable . . . . . . . CODE     FF_STATUS  
FF_STATUS_InterruptEnable. . . . . . . . CODE     FF_STATUS  
FF_STATUS_Read . . . . . . . . . . . . . CODE     FF_STATUS  MAIN  
FF_STATUS_ReadMask . . . . . . . . . . . CODE     FF_STATUS  
frsAccReg. . . . . . . . . . . . . . . . XDATA    GLOBALS  
frsGyroReg . . . . . . . . . . . . . . . XDATA    GLOBALS  
FTDI_ENABLE_REG_Read . . . . . . . . . . CODE     FTDI_ENABLE_REG  
function_scheduler . . . . . . . . . . . CODE     INTERRUPTIONS  MAIN  
g_imu. . . . . . . . . . . . . . . . . . XDATA    GLOBALS  COMMAND_PROCESSING  IMU_FUNCTIONS  INTERRUPTIONS  
g_imuNew . . . . . . . . . . . . . . . . XDATA    GLOBALS  IMU_FUNCTIONS  INTERRUPTIONS  ISR_IMU  
g_mem. . . . . . . . . . . . . . . . . . XDATA    GLOBALS  COMMAND_PROCESSING  
g_rx . . . . . . . . . . . . . . . . . . XDATA    GLOBALS  COMMAND_PROCESSING  INTERRUPTIONS  MAIN  
Gyro . . . . . . . . . . . . . . . . . . XDATA    GLOBALS  IMU_FUNCTIONS  ISR_IMU  
IE . . . . . . . . . . . . . . . . . . . DATA     COMMAND_PROCESSING  
IMU_conf . . . . . . . . . . . . . . . . XDATA    GLOBALS  COMMAND_PROCESSING  IMU_FUNCTIONS  
IMU_connected. . . . . . . . . . . . . . XDATA    GLOBALS  COMMAND_PROCESSING  IMU_FUNCTIONS  ISR_IMU  
imus_data_size . . . . . . . . . . . . . XDATA    GLOBALS  COMMAND_PROCESSING  IMU_FUNCTIONS  
ImusReset. . . . . . . . . . . . . . . . CODE     IMU_FUNCTIONS  
infoSend . . . . . . . . . . . . . . . . CODE     COMMAND_PROCESSING  
InitIMU. . . . . . . . . . . . . . . . . CODE     IMU_FUNCTIONS  
InitIMUgeneral . . . . . . . . . . . . . CODE     IMU_FUNCTIONS  MAIN  
InitIMUMagCal. . . . . . . . . . . . . . CODE     IMU_FUNCTIONS  
interrupt_flag . . . . . . . . . . . . . BIT      GLOBALS  INTERRUPTIONS  MAIN  
interrupt_manager. . . . . . . . . . . . CODE     INTERRUPTIONS  MAIN  
isr_imu_ClearPending . . . . . . . . . . CODE     ISR_IMU  
isr_imu_Disable. . . . . . . . . . . . . CODE     ISR_IMU  IMU_FUNCTIONS  
isr_imu_Enable . . . . . . . . . . . . . CODE     ISR_IMU  IMU_FUNCTIONS  
isr_imu_GetPriority. . . . . . . . . . . CODE     ISR_IMU  
isr_imu_GetState . . . . . . . . . . . . CODE     ISR_IMU  
isr_imu_GetVector. . . . . . . . . . . . CODE     ISR_IMU  
isr_imu_Interrupt. . . . . . . . . . . . CODE     ISR_IMU  
isr_imu_SetPending . . . . . . . . . . . CODE     ISR_IMU  
isr_imu_Start. . . . . . . . . . . . . . CODE     ISR_IMU  IMU_FUNCTIONS  
isr_imu_Stop . . . . . . . . . . . . . . CODE     ISR_IMU  IMU_FUNCTIONS  
ISR_RS485_RX_ClearPending. . . . . . . . CODE     ISR_RS485_RX  
ISR_RS485_RX_Disable . . . . . . . . . . CODE     ISR_RS485_RX  COMMAND_PROCESSING  
ISR_RS485_RX_Enable. . . . . . . . . . . CODE     ISR_RS485_RX  COMMAND_PROCESSING  
ISR_RS485_RX_ExInterrupt . . . . . . . . CODE     INTERRUPTIONS  MAIN  
ISR_RS485_RX_GetPriority . . . . . . . . CODE     ISR_RS485_RX  
ISR_RS485_RX_GetState. . . . . . . . . . CODE     ISR_RS485_RX  
ISR_RS485_RX_GetVector . . . . . . . . . CODE     ISR_RS485_RX  
ISR_RS485_RX_Interrupt . . . . . . . . . CODE     ISR_RS485_RX  
ISR_RS485_RX_SetPending. . . . . . . . . CODE     ISR_RS485_RX  
ISR_RS485_RX_Start . . . . . . . . . . . CODE     ISR_RS485_RX  
ISR_RS485_RX_Stop. . . . . . . . . . . . CODE     ISR_RS485_RX  
ISR_WATCHDOG_ClearPending. . . . . . . . CODE     ISR_WATCHDOG  
ISR_WATCHDOG_Disable . . . . . . . . . . CODE     ISR_WATCHDOG  
ISR_WATCHDOG_Enable. . . . . . . . . . . CODE     ISR_WATCHDOG  
ISR_WATCHDOG_GetPriority . . . . . . . . CODE     ISR_WATCHDOG  
ISR_WATCHDOG_GetState. . . . . . . . . . CODE     ISR_WATCHDOG  
ISR_WATCHDOG_GetVector . . . . . . . . . CODE     ISR_WATCHDOG  
ISR_WATCHDOG_Handler . . . . . . . . . . CODE     INTERRUPTIONS  MAIN  
LX51 LINKER/LOCATER V4.64.0.0                                                         01/24/2017  11:05:18  PAGE 101


ISR_WATCHDOG_Interrupt . . . . . . . . . CODE     ISR_WATCHDOG  
ISR_WATCHDOG_SetPending. . . . . . . . . CODE     ISR_WATCHDOG  
ISR_WATCHDOG_Start . . . . . . . . . . . CODE     ISR_WATCHDOG  
ISR_WATCHDOG_Stop. . . . . . . . . . . . CODE     ISR_WATCHDOG  
Mag. . . . . . . . . . . . . . . . . . . XDATA    GLOBALS  IMU_FUNCTIONS  ISR_IMU  
MagCal . . . . . . . . . . . . . . . . . XDATA    GLOBALS  COMMAND_PROCESSING  IMU_FUNCTIONS  
main . . . . . . . . . . . . . . . . . . CODE     MAIN  ?C_INIT  
memInit. . . . . . . . . . . . . . . . . CODE     COMMAND_PROCESSING  
memRecall. . . . . . . . . . . . . . . . CODE     COMMAND_PROCESSING  MAIN  
memRestore . . . . . . . . . . . . . . . CODE     COMMAND_PROCESSING  
MXAX . . . . . . . . . . . . . . . . . . DATA     COMMAND_PROCESSING  
MY_TIMER_ClearFIFO . . . . . . . . . . . CODE     MY_TIMER  
MY_TIMER_Enable. . . . . . . . . . . . . CODE     MY_TIMER  
MY_TIMER_Init. . . . . . . . . . . . . . CODE     MY_TIMER  
MY_TIMER_initVar . . . . . . . . . . . . XDATA    MY_TIMER  
MY_TIMER_ReadCapture . . . . . . . . . . CODE     MY_TIMER  
MY_TIMER_ReadControlRegister . . . . . . CODE     MY_TIMER  
MY_TIMER_ReadCounter . . . . . . . . . . CODE     MY_TIMER  INTERRUPTIONS  
MY_TIMER_ReadPeriod. . . . . . . . . . . CODE     MY_TIMER  
MY_TIMER_ReadStatusRegister. . . . . . . CODE     MY_TIMER  
MY_TIMER_SoftwareCapture . . . . . . . . CODE     MY_TIMER  
MY_TIMER_Start . . . . . . . . . . . . . CODE     MY_TIMER  MAIN  
MY_TIMER_Stop. . . . . . . . . . . . . . CODE     MY_TIMER  
N_IMU_Connected. . . . . . . . . . . . . XDATA    GLOBALS  COMMAND_PROCESSING  IMU_FUNCTIONS  ISR_IMU  
Opto_Pin_Read. . . . . . . . . . . . . . CODE     OPTO_PIN  
Opto_Pin_ReadDataReg . . . . . . . . . . CODE     OPTO_PIN  
OV . . . . . . . . . . . . . . . . . . . DATA     COMMAND_PROCESSING  
P. . . . . . . . . . . . . . . . . . . . DATA     COMMAND_PROCESSING  
P2AX . . . . . . . . . . . . . . . . . . DATA     COMMAND_PROCESSING  
PACER_TIMER_Enable . . . . . . . . . . . CODE     PACER_TIMER  
PACER_TIMER_Init . . . . . . . . . . . . CODE     PACER_TIMER  
PACER_TIMER_initVar. . . . . . . . . . . XDATA    PACER_TIMER  
PACER_TIMER_ReadCapture. . . . . . . . . CODE     PACER_TIMER  
PACER_TIMER_ReadControlRegister. . . . . CODE     PACER_TIMER  
PACER_TIMER_ReadCounter. . . . . . . . . CODE     PACER_TIMER  
PACER_TIMER_ReadPeriod . . . . . . . . . CODE     PACER_TIMER  
PACER_TIMER_ReadStatusRegister . . . . . CODE     PACER_TIMER  
PACER_TIMER_SoftwareCapture. . . . . . . CODE     PACER_TIMER  
PACER_TIMER_Start. . . . . . . . . . . . CODE     PACER_TIMER  MAIN  
PACER_TIMER_Stop . . . . . . . . . . . . CODE     PACER_TIMER  
PSW. . . . . . . . . . . . . . . . . . . DATA     COMMAND_PROCESSING  
pwm_sign . . . . . . . . . . . . . . . . XDATA    GLOBALS  
rateAcc. . . . . . . . . . . . . . . . . XDATA    GLOBALS  
rateGyro . . . . . . . . . . . . . . . . XDATA    GLOBALS  
readAllIMUs. . . . . . . . . . . . . . . CODE     IMU_FUNCTIONS  INTERRUPTIONS  
RESET_FF_Read. . . . . . . . . . . . . . CODE     RESET_FF  
reset_last_value_flag. . . . . . . . . . BIT      GLOBALS  MAIN  
RS0. . . . . . . . . . . . . . . . . . . DATA     COMMAND_PROCESSING  
RS1. . . . . . . . . . . . . . . . . . . DATA     COMMAND_PROCESSING  
RS485_CTS_Read . . . . . . . . . . . . . CODE     RS485_CTS  
setZeros . . . . . . . . . . . . . . . . CODE     COMMAND_PROCESSING  
SFRPRT0DR. . . . . . . . . . . . . . . . DATA     COMMAND_PROCESSING  
SFRPRT0PS. . . . . . . . . . . . . . . . DATA     COMMAND_PROCESSING  
SFRPRT0SEL . . . . . . . . . . . . . . . DATA     COMMAND_PROCESSING  
SFRPRT12DR . . . . . . . . . . . . . . . DATA     COMMAND_PROCESSING  
SFRPRT12PS . . . . . . . . . . . . . . . DATA     COMMAND_PROCESSING  
SFRPRT12SEL. . . . . . . . . . . . . . . DATA     COMMAND_PROCESSING  
SFRPRT15DR . . . . . . . . . . . . . . . DATA     COMMAND_PROCESSING  
SFRPRT15PS . . . . . . . . . . . . . . . DATA     COMMAND_PROCESSING  
SFRPRT15SEL. . . . . . . . . . . . . . . DATA     COMMAND_PROCESSING  
SFRPRT1DR. . . . . . . . . . . . . . . . DATA     COMMAND_PROCESSING  
SFRPRT1PS. . . . . . . . . . . . . . . . DATA     COMMAND_PROCESSING  
SFRPRT1SEL . . . . . . . . . . . . . . . DATA     COMMAND_PROCESSING  
SFRPRT2DR. . . . . . . . . . . . . . . . DATA     COMMAND_PROCESSING  
SFRPRT2PS. . . . . . . . . . . . . . . . DATA     COMMAND_PROCESSING  
LX51 LINKER/LOCATER V4.64.0.0                                                         01/24/2017  11:05:18  PAGE 102


SFRPRT2SEL . . . . . . . . . . . . . . . DATA     COMMAND_PROCESSING  
SFRPRT3DR. . . . . . . . . . . . . . . . DATA     COMMAND_PROCESSING  
SFRPRT3PS. . . . . . . . . . . . . . . . DATA     COMMAND_PROCESSING  
SFRPRT3SEL . . . . . . . . . . . . . . . DATA     COMMAND_PROCESSING  
SFRPRT4DR. . . . . . . . . . . . . . . . DATA     COMMAND_PROCESSING  
SFRPRT4PS. . . . . . . . . . . . . . . . DATA     COMMAND_PROCESSING  
SFRPRT4SEL . . . . . . . . . . . . . . . DATA     COMMAND_PROCESSING  
SFRPRT5DR. . . . . . . . . . . . . . . . DATA     COMMAND_PROCESSING  
SFRPRT5PS. . . . . . . . . . . . . . . . DATA     COMMAND_PROCESSING  
SFRPRT5SEL . . . . . . . . . . . . . . . DATA     COMMAND_PROCESSING  
SFRPRT6DR. . . . . . . . . . . . . . . . DATA     COMMAND_PROCESSING  
SFRPRT6PS. . . . . . . . . . . . . . . . DATA     COMMAND_PROCESSING  
SFRPRT6SEL . . . . . . . . . . . . . . . DATA     COMMAND_PROCESSING  
single_imu_size. . . . . . . . . . . . . XDATA    GLOBALS  COMMAND_PROCESSING  IMU_FUNCTIONS  
SP . . . . . . . . . . . . . . . . . . . DATA     COMMAND_PROCESSING  
SpcLockState . . . . . . . . . . . . . . XDATA    CYSPC  
SPI_IMU_ClearFIFO. . . . . . . . . . . . CODE     SPI_IMU  IMU_FUNCTIONS  MAIN  
SPI_IMU_ClearRxBuffer. . . . . . . . . . CODE     SPI_IMU  IMU_FUNCTIONS  MAIN  
SPI_IMU_ClearTxBuffer. . . . . . . . . . CODE     SPI_IMU  IMU_FUNCTIONS  MAIN  
SPI_IMU_DisableInt . . . . . . . . . . . CODE     SPI_IMU  
SPI_IMU_DisableRxInt . . . . . . . . . . CODE     SPI_IMU  
SPI_IMU_DisableTxInt . . . . . . . . . . CODE     SPI_IMU  
SPI_IMU_Enable . . . . . . . . . . . . . CODE     SPI_IMU  MAIN  
SPI_IMU_EnableInt. . . . . . . . . . . . CODE     SPI_IMU  
SPI_IMU_EnableRxInt. . . . . . . . . . . CODE     SPI_IMU  
SPI_IMU_EnableTxInt. . . . . . . . . . . CODE     SPI_IMU  
SPI_IMU_GetRxBufferSize. . . . . . . . . CODE     SPI_IMU  
SPI_IMU_GetTxBufferSize. . . . . . . . . CODE     SPI_IMU  
SPI_IMU_Init . . . . . . . . . . . . . . CODE     SPI_IMU  MAIN  
SPI_IMU_initVar. . . . . . . . . . . . . XDATA    SPI_IMU  
SPI_IMU_IntClock_GetDividerRegister. . . CODE     SPI_IMU_INTCLOCK  
SPI_IMU_IntClock_GetModeRegister . . . . CODE     SPI_IMU_INTCLOCK  
SPI_IMU_IntClock_GetSourceRegister . . . CODE     SPI_IMU_INTCLOCK  
SPI_IMU_IntClock_Start . . . . . . . . . CODE     SPI_IMU_INTCLOCK  SPI_IMU  
SPI_IMU_IntClock_Stop. . . . . . . . . . CODE     SPI_IMU_INTCLOCK  SPI_IMU  
SPI_IMU_IntClock_StopBlock . . . . . . . CODE     SPI_IMU_INTCLOCK  
SPI_IMU_ReadRxData . . . . . . . . . . . CODE     SPI_IMU  IMU_FUNCTIONS  
SPI_IMU_ReadRxStatus . . . . . . . . . . CODE     SPI_IMU  
SPI_IMU_ReadStatus . . . . . . . . . . . CODE     SPI_IMU  IMU_FUNCTIONS  
SPI_IMU_ReadTxStatus . . . . . . . . . . CODE     SPI_IMU  
SPI_IMU_Start. . . . . . . . . . . . . . CODE     SPI_IMU  MAIN  
SPI_IMU_Stop . . . . . . . . . . . . . . CODE     SPI_IMU  
SPI_IMU_swStatusRx . . . . . . . . . . . XDATA    SPI_IMU  
SPI_IMU_swStatusTx . . . . . . . . . . . XDATA    SPI_IMU  
STARTUP1 . . . . . . . . . . . . . . . . CODE     ?C_STARTUP  
tau_feedback . . . . . . . . . . . . . . XDATA    GLOBALS  
Temp . . . . . . . . . . . . . . . . . . XDATA    GLOBALS  IMU_FUNCTIONS  
tension_valid. . . . . . . . . . . . . . BIT      GLOBALS  MAIN  
timer_value. . . . . . . . . . . . . . . XDATA    GLOBALS  COMMAND_PROCESSING  INTERRUPTIONS  
timer_value0 . . . . . . . . . . . . . . XDATA    GLOBALS  COMMAND_PROCESSING  INTERRUPTIONS  
UART_RS485_ClearRxBuffer . . . . . . . . CODE     UART_RS485  MAIN  
UART_RS485_ClearTxBuffer . . . . . . . . CODE     UART_RS485  COMMAND_PROCESSING  MAIN  
UART_RS485_Enable. . . . . . . . . . . . CODE     UART_RS485  
UART_RS485_errorStatus . . . . . . . . . XDATA    UART_RS485  UART_RS485_INT  
UART_RS485_GetByte . . . . . . . . . . . CODE     UART_RS485  
UART_RS485_GetChar . . . . . . . . . . . CODE     UART_RS485  INTERRUPTIONS  
UART_RS485_GetRxBufferSize . . . . . . . CODE     UART_RS485  INTERRUPTIONS  
UART_RS485_GetTxBufferSize . . . . . . . CODE     UART_RS485  
UART_RS485_Init. . . . . . . . . . . . . CODE     UART_RS485  MAIN  
UART_RS485_initVar . . . . . . . . . . . XDATA    UART_RS485  
UART_RS485_ReadControlRegister . . . . . CODE     UART_RS485  
UART_RS485_ReadRxData. . . . . . . . . . CODE     UART_RS485  
UART_RS485_ReadRxStatus. . . . . . . . . CODE     UART_RS485  MAIN  
UART_RS485_ReadTxStatus. . . . . . . . . CODE     UART_RS485  COMMAND_PROCESSING  
UART_RS485_rxBuffer. . . . . . . . . . . XDATA    UART_RS485  UART_RS485_INT  
LX51 LINKER/LOCATER V4.64.0.0                                                         01/24/2017  11:05:18  PAGE 103


UART_RS485_rxBufferLoopDetect. . . . . . XDATA    UART_RS485  UART_RS485_INT  
UART_RS485_rxBufferOverflow. . . . . . . XDATA    UART_RS485  UART_RS485_INT  
UART_RS485_rxBufferRead. . . . . . . . . XDATA    UART_RS485  UART_RS485_INT  
UART_RS485_rxBufferWrite . . . . . . . . XDATA    UART_RS485  UART_RS485_INT  
UART_RS485_RXISR . . . . . . . . . . . . CODE     UART_RS485_INT  UART_RS485  
UART_RS485_Start . . . . . . . . . . . . CODE     UART_RS485  MAIN  
UART_RS485_Stop. . . . . . . . . . . . . CODE     UART_RS485  MAIN  
WATCHDOG_COUNTER_Enable. . . . . . . . . CODE     WATCHDOG_COUNTER  
WATCHDOG_COUNTER_Init. . . . . . . . . . CODE     WATCHDOG_COUNTER  
WATCHDOG_COUNTER_initVar . . . . . . . . XDATA    WATCHDOG_COUNTER  
WATCHDOG_COUNTER_ReadCapture . . . . . . CODE     WATCHDOG_COUNTER  
WATCHDOG_COUNTER_ReadControlRegister . . CODE     WATCHDOG_COUNTER  
WATCHDOG_COUNTER_ReadCounter . . . . . . CODE     WATCHDOG_COUNTER  
WATCHDOG_COUNTER_ReadPeriod. . . . . . . CODE     WATCHDOG_COUNTER  
WATCHDOG_COUNTER_ReadStatusRegister. . . CODE     WATCHDOG_COUNTER  
WATCHDOG_COUNTER_Start . . . . . . . . . CODE     WATCHDOG_COUNTER  MAIN  
WATCHDOG_COUNTER_Stop. . . . . . . . . . CODE     WATCHDOG_COUNTER  
WATCHDOG_ENABLER_Read. . . . . . . . . . CODE     WATCHDOG_ENABLER  
watchdog_flag. . . . . . . . . . . . . . BIT      GLOBALS  INTERRUPTIONS  MAIN  
WATCHDOG_REFRESH_Read. . . . . . . . . . CODE     WATCHDOG_REFRESH  



*** WARNING L15: MULTIPLE CALL TO FUNCTION
    NAME:    _CHIPSELECTOR/IMU_FUNCTIONS
    CALLER1: ?C_C51STARTUP
    CALLER2: ISR_IMU_INTERRUPT/ISR_IMU

*** WARNING L15: MULTIPLE CALL TO FUNCTION
    NAME:    _READIMU/IMU_FUNCTIONS
    CALLER1: ?C_C51STARTUP
    CALLER2: ISR_IMU_INTERRUPT/ISR_IMU

*** WARNING L15: MULTIPLE CALL TO FUNCTION
    NAME:    _READACC/IMU_FUNCTIONS
    CALLER1: ?C_C51STARTUP
    CALLER2: ISR_IMU_INTERRUPT/ISR_IMU

*** WARNING L15: MULTIPLE CALL TO FUNCTION
    NAME:    _READGYRO/IMU_FUNCTIONS
    CALLER1: ?C_C51STARTUP
    CALLER2: ISR_IMU_INTERRUPT/ISR_IMU

*** WARNING L15: MULTIPLE CALL TO FUNCTION
    NAME:    _READMAG/IMU_FUNCTIONS
    CALLER1: ?C_C51STARTUP
    CALLER2: ISR_IMU_INTERRUPT/ISR_IMU

*** WARNING L15: MULTIPLE CALL TO FUNCTION
    NAME:    _READTEMP/IMU_FUNCTIONS
    CALLER1: ?C_C51STARTUP
    CALLER2: ISR_IMU_INTERRUPT/ISR_IMU

*** WARNING L25: DATA TYPES DIFFERENT
    SYMBOL:  readAllIMUs
    MODULE:  .\DP8051_Keil_951\Release\interruptions.obj (INTERRUPTIONS)
   DEFINED:  .\DP8051_Keil_951\Release\IMU_functions.obj (IMU_FUNCTIONS)

Program Size: data=35.6 xdata=4411 const=735 code=20764
LX51 RUN COMPLETE.  7 WARNING(S),  0 ERROR(S)
