LX51 LINKER/LOCATER V4.64.0.0                                                           03/12/2018  09:19:57  PAGE 1


LX51 LINKER/LOCATER V4.64.0.0, INVOKED BY:
C:\PROGRAM FILES (X86)\CYPRESS\PSOC CREATOR\4.1\PSOC CREATOR\IMPORT\KEIL\PK51\9.51\C51\BIN\LX51.EXE .\DP8051_Keil_951\Re
>> lease\command_processing.obj, .\DP8051_Keil_951\Release\globals.obj, .\DP8051_Keil_951\Release\interruptions.obj, .\D
>> P8051_Keil_951\Release\main.obj, .\DP8051_Keil_951\Release\utils.obj, .\DP8051_Keil_951\Release\IMU_functions.obj, .\
>> DP8051_Keil_951\Release\cyfitter_cfg.obj, .\DP8051_Keil_951\Release\firmware.lib, C:\Program Files (x86)\Cypress\PSoC
>>  Creator\4.1\PSoC Creator\psoc\content\cycomponentlibrary\CyComponentLibrary.cylib\DP8051\DP8051_Keil_951\Release\CyC
>> omponentLibrary.lib TO .\DP8051_Keil_951\Release\firmware.omf CODE RU RC (10) DW (16) WL (2) PR (.\DP8051_Keil_951\Re
>> lease/firmware.map) IX CL (XDATA (X:0X0000-X:0X1FFF)) CL (CODE (C:0X2600-C:0XFFBF)) CL (CONST (C:0X2600-C:0XFFBF))


CPU MODE:     8051 MODE
MEMORY MODEL: LARGE WITH FLOATING POINT ARITHMETIC


INPUT MODULES INCLUDED:
  .\DP8051_Keil_951\Release\command_processing.obj (COMMAND_PROCESSING)
         COMMENT TYPE 0: C51 V9.51
  .\DP8051_Keil_951\Release\globals.obj (GLOBALS)
         COMMENT TYPE 0: C51 V9.51
  .\DP8051_Keil_951\Release\interruptions.obj (INTERRUPTIONS)
         COMMENT TYPE 0: C51 V9.51
  .\DP8051_Keil_951\Release\main.obj (MAIN)
         COMMENT TYPE 0: C51 V9.51
  .\DP8051_Keil_951\Release\utils.obj (UTILS)
         COMMENT TYPE 0: C51 V9.51
  .\DP8051_Keil_951\Release\IMU_functions.obj (IMU_FUNCTIONS)
         COMMENT TYPE 0: C51 V9.51
  .\DP8051_Keil_951\Release\cyfitter_cfg.obj (CYFITTER_CFG)
         COMMENT TYPE 0: C51 V9.51
  .\DP8051_Keil_951\Release\firmware.lib (UART_RS485)
         COMMENT TYPE 0: C51 V9.51
  .\DP8051_Keil_951\Release\firmware.lib (ISR_RS485_RX)
         COMMENT TYPE 0: C51 V9.51
  .\DP8051_Keil_951\Release\firmware.lib (PACER_TIMER)
         COMMENT TYPE 0: C51 V9.51
  .\DP8051_Keil_951\Release\firmware.lib (CLOCK_UART)
         COMMENT TYPE 0: C51 V9.51
  .\DP8051_Keil_951\Release\firmware.lib (EEPROM)
         COMMENT TYPE 0: C51 V9.51
  .\DP8051_Keil_951\Release\firmware.lib (RS485_CTS)
         COMMENT TYPE 0: C51 V9.51
  .\DP8051_Keil_951\Release\firmware.lib (BOOTLOADABLE)
         COMMENT TYPE 0: C51 V9.51
  .\DP8051_Keil_951\Release\firmware.lib (FTDI_ENABLE_REG)
         COMMENT TYPE 0: C51 V9.51
  .\DP8051_Keil_951\Release\firmware.lib (RESET_FF)
         COMMENT TYPE 0: C51 V9.51
  .\DP8051_Keil_951\Release\firmware.lib (FF_STATUS)
         COMMENT TYPE 0: C51 V9.51
  .\DP8051_Keil_951\Release\firmware.lib (MY_TIMER)
         COMMENT TYPE 0: C51 V9.51
  .\DP8051_Keil_951\Release\firmware.lib (CYFLASH)
         COMMENT TYPE 0: C51 V9.51
  .\DP8051_Keil_951\Release\firmware.lib (CYLIB)
         COMMENT TYPE 0: C51 V9.51
  .\DP8051_Keil_951\Release\firmware.lib (SPI_IMU)
         COMMENT TYPE 0: C51 V9.51
  .\DP8051_Keil_951\Release\firmware.lib (OPTO_PIN)
         COMMENT TYPE 0: C51 V9.51
  .\DP8051_Keil_951\Release\firmware.lib (CHIP_SELECT_A)
         COMMENT TYPE 0: C51 V9.51
  .\DP8051_Keil_951\Release\firmware.lib (CHIP_SELECT_B)
         COMMENT TYPE 0: C51 V9.51
  .\DP8051_Keil_951\Release\firmware.lib (CYBOOTASMKEIL)
         COMMENT TYPE 0: AX51 V3.07d
  .\DP8051_Keil_951\Release\firmware.lib (CYMEM)
LX51 LINKER/LOCATER V4.64.0.0                                                         03/12/2018  09:19:57  PAGE 2


         COMMENT TYPE 0: AX51 V3.07d
  .\DP8051_Keil_951\Release\firmware.lib (?C_STARTUP)
         COMMENT TYPE 0: AX51 V3.07d
  .\DP8051_Keil_951\Release\firmware.lib (UART_RS485_INT)
         COMMENT TYPE 0: C51 V9.51
  .\DP8051_Keil_951\Release\firmware.lib (CYPM)
         COMMENT TYPE 0: C51 V9.51
  .\DP8051_Keil_951\Release\firmware.lib (CYSPC)
         COMMENT TYPE 0: C51 V9.51
  .\DP8051_Keil_951\Release\firmware.lib (SPI_IMU_INTCLOCK)
         COMMENT TYPE 0: C51 V9.51
  C:\PROGRAM FILES (X86)\CYPRESS\PSOC CREATOR\4.1\PSOC CREATOR\IMPORT\KEIL\PK51\9.51\C51\LIB\C51FPL.LIB (?C?FPADD)
         COMMENT TYPE 1: A51 / ASM51 Assembler
  C:\PROGRAM FILES (X86)\CYPRESS\PSOC CREATOR\4.1\PSOC CREATOR\IMPORT\KEIL\PK51\9.51\C51\LIB\C51FPL.LIB (?C?FPMUL)
         COMMENT TYPE 1: A51 / ASM51 Assembler
  C:\PROGRAM FILES (X86)\CYPRESS\PSOC CREATOR\4.1\PSOC CREATOR\IMPORT\KEIL\PK51\9.51\C51\LIB\C51FPL.LIB (?C?FPDIV)
         COMMENT TYPE 1: A51 / ASM51 Assembler
  C:\PROGRAM FILES (X86)\CYPRESS\PSOC CREATOR\4.1\PSOC CREATOR\IMPORT\KEIL\PK51\9.51\C51\LIB\C51FPL.LIB (?C?FPCMP)
         COMMENT TYPE 1: A51 / ASM51 Assembler
  C:\PROGRAM FILES (X86)\CYPRESS\PSOC CREATOR\4.1\PSOC CREATOR\IMPORT\KEIL\PK51\9.51\C51\LIB\C51FPL.LIB (?C?FPNEG)
         COMMENT TYPE 1: A51 / ASM51 Assembler
  C:\PROGRAM FILES (X86)\CYPRESS\PSOC CREATOR\4.1\PSOC CREATOR\IMPORT\KEIL\PK51\9.51\C51\LIB\C51FPL.LIB (?C?FCAST)
         COMMENT TYPE 1: A51 / ASM51 Assembler
  C:\PROGRAM FILES (X86)\CYPRESS\PSOC CREATOR\4.1\PSOC CREATOR\IMPORT\KEIL\PK51\9.51\C51\LIB\C51FPL.LIB (PRINTF)
         COMMENT TYPE 1: A51 / ASM51 Assembler
  C:\PROGRAM FILES (X86)\CYPRESS\PSOC CREATOR\4.1\PSOC CREATOR\IMPORT\KEIL\PK51\9.51\C51\LIB\C51FPL.LIB (FABS)
         COMMENT TYPE 1: A51 / ASM51 Assembler
  C:\PROGRAM FILES (X86)\CYPRESS\PSOC CREATOR\4.1\PSOC CREATOR\IMPORT\KEIL\PK51\9.51\C51\LIB\C51FPL.LIB (?C?FPGETOPN)
         COMMENT TYPE 1: A51 / ASM51 Assembler
  C:\PROGRAM FILES (X86)\CYPRESS\PSOC CREATOR\4.1\PSOC CREATOR\IMPORT\KEIL\PK51\9.51\C51\LIB\C51FPL.LIB (?C?FPROUND)
         COMMENT TYPE 1: A51 / ASM51 Assembler
  C:\PROGRAM FILES (X86)\CYPRESS\PSOC CREATOR\4.1\PSOC CREATOR\IMPORT\KEIL\PK51\9.51\C51\LIB\C51FPL.LIB (?C?FPCONVERT)
         COMMENT TYPE 1: A51 / ASM51 Assembler
  C:\PROGRAM FILES (X86)\CYPRESS\PSOC CREATOR\4.1\PSOC CREATOR\IMPORT\KEIL\PK51\9.51\C51\LIB\C51FPL.LIB (?C?FTNPWR)
         COMMENT TYPE 1: A51 / ASM51 Assembler
  C:\PROGRAM FILES (X86)\CYPRESS\PSOC CREATOR\4.1\PSOC CREATOR\IMPORT\KEIL\PK51\9.51\C51\LIB\C51L.LIB (?C_INIT)
         COMMENT TYPE 1: A51 / ASM51 Assembler
  C:\PROGRAM FILES (X86)\CYPRESS\PSOC CREATOR\4.1\PSOC CREATOR\IMPORT\KEIL\PK51\9.51\C51\LIB\C51L.LIB (?C?CLDPTR)
         COMMENT TYPE 1: A51 / ASM51 Assembler
  C:\PROGRAM FILES (X86)\CYPRESS\PSOC CREATOR\4.1\PSOC CREATOR\IMPORT\KEIL\PK51\9.51\C51\LIB\C51L.LIB (?C?CLDOPTR)
         COMMENT TYPE 1: A51 / ASM51 Assembler
  C:\PROGRAM FILES (X86)\CYPRESS\PSOC CREATOR\4.1\PSOC CREATOR\IMPORT\KEIL\PK51\9.51\C51\LIB\C51L.LIB (?C?CSTPTR)
         COMMENT TYPE 1: A51 / ASM51 Assembler
  C:\PROGRAM FILES (X86)\CYPRESS\PSOC CREATOR\4.1\PSOC CREATOR\IMPORT\KEIL\PK51\9.51\C51\LIB\C51L.LIB (?C?IMUL)
         COMMENT TYPE 1: A51 / ASM51 Assembler
  C:\PROGRAM FILES (X86)\CYPRESS\PSOC CREATOR\4.1\PSOC CREATOR\IMPORT\KEIL\PK51\9.51\C51\LIB\C51L.LIB (?C?LMUL)
         COMMENT TYPE 1: A51 / ASM51 Assembler
  C:\PROGRAM FILES (X86)\CYPRESS\PSOC CREATOR\4.1\PSOC CREATOR\IMPORT\KEIL\PK51\9.51\C51\LIB\C51L.LIB (?C?ULDIV)
         COMMENT TYPE 1: A51 / ASM51 Assembler
  C:\PROGRAM FILES (X86)\CYPRESS\PSOC CREATOR\4.1\PSOC CREATOR\IMPORT\KEIL\PK51\9.51\C51\LIB\C51L.LIB (?C?LNEG)
         COMMENT TYPE 1: A51 / ASM51 Assembler
  C:\PROGRAM FILES (X86)\CYPRESS\PSOC CREATOR\4.1\PSOC CREATOR\IMPORT\KEIL\PK51\9.51\C51\LIB\C51L.LIB (?C?ULCMP)
         COMMENT TYPE 1: A51 / ASM51 Assembler
  C:\PROGRAM FILES (X86)\CYPRESS\PSOC CREATOR\4.1\PSOC CREATOR\IMPORT\KEIL\PK51\9.51\C51\LIB\C51L.LIB (?C?ULSHR)
         COMMENT TYPE 1: A51 / ASM51 Assembler
  C:\PROGRAM FILES (X86)\CYPRESS\PSOC CREATOR\4.1\PSOC CREATOR\IMPORT\KEIL\PK51\9.51\C51\LIB\C51L.LIB (?C?SLSHR)
         COMMENT TYPE 1: A51 / ASM51 Assembler
  C:\PROGRAM FILES (X86)\CYPRESS\PSOC CREATOR\4.1\PSOC CREATOR\IMPORT\KEIL\PK51\9.51\C51\LIB\C51L.LIB (?C?LSHL)
         COMMENT TYPE 1: A51 / ASM51 Assembler
  C:\PROGRAM FILES (X86)\CYPRESS\PSOC CREATOR\4.1\PSOC CREATOR\IMPORT\KEIL\PK51\9.51\C51\LIB\C51L.LIB (?C?LLDPTR)
         COMMENT TYPE 1: A51 / ASM51 Assembler
  C:\PROGRAM FILES (X86)\CYPRESS\PSOC CREATOR\4.1\PSOC CREATOR\IMPORT\KEIL\PK51\9.51\C51\LIB\C51L.LIB (?C?LSTPTR)
         COMMENT TYPE 1: A51 / ASM51 Assembler
  C:\PROGRAM FILES (X86)\CYPRESS\PSOC CREATOR\4.1\PSOC CREATOR\IMPORT\KEIL\PK51\9.51\C51\LIB\C51L.LIB (?C?LSTXDATA)
         COMMENT TYPE 1: A51 / ASM51 Assembler
LX51 LINKER/LOCATER V4.64.0.0                                                         03/12/2018  09:19:57  PAGE 3


  C:\PROGRAM FILES (X86)\CYPRESS\PSOC CREATOR\4.1\PSOC CREATOR\IMPORT\KEIL\PK51\9.51\C51\LIB\C51L.LIB (?C?OFFX256)
         COMMENT TYPE 1: A51 / ASM51 Assembler
  C:\PROGRAM FILES (X86)\CYPRESS\PSOC CREATOR\4.1\PSOC CREATOR\IMPORT\KEIL\PK51\9.51\C51\LIB\C51L.LIB (?C?OFFXADD)
         COMMENT TYPE 1: A51 / ASM51 Assembler
  C:\PROGRAM FILES (X86)\CYPRESS\PSOC CREATOR\4.1\PSOC CREATOR\IMPORT\KEIL\PK51\9.51\C51\LIB\C51L.LIB (?C?PLDIXDATA)
         COMMENT TYPE 1: A51 / ASM51 Assembler
  C:\PROGRAM FILES (X86)\CYPRESS\PSOC CREATOR\4.1\PSOC CREATOR\IMPORT\KEIL\PK51\9.51\C51\LIB\C51L.LIB (?C?PSTXDATA)
         COMMENT TYPE 1: A51 / ASM51 Assembler
  C:\PROGRAM FILES (X86)\CYPRESS\PSOC CREATOR\4.1\PSOC CREATOR\IMPORT\KEIL\PK51\9.51\C51\LIB\C51L.LIB (?C?CCASE)
         COMMENT TYPE 1: A51 / ASM51 Assembler
  C:\PROGRAM FILES (X86)\CYPRESS\PSOC CREATOR\4.1\PSOC CREATOR\IMPORT\KEIL\PK51\9.51\C51\LIB\C51L.LIB (?C_XBP)
         COMMENT TYPE 1: A51 / ASM51 Assembler
  C:\PROGRAM FILES (X86)\CYPRESS\PSOC CREATOR\4.1\PSOC CREATOR\IMPORT\KEIL\PK51\9.51\C51\LIB\C51L.LIB (?C?ADDXBP)
         COMMENT TYPE 1: A51 / ASM51 Assembler
  C:\PROGRAM FILES (X86)\CYPRESS\PSOC CREATOR\4.1\PSOC CREATOR\IMPORT\KEIL\PK51\9.51\C51\LIB\C51L.LIB (?C?LIMUL)
         COMMENT TYPE 1: A51 / ASM51 Assembler
  C:\PROGRAM FILES (X86)\CYPRESS\PSOC CREATOR\4.1\PSOC CREATOR\IMPORT\KEIL\PK51\9.51\C51\LIB\C51L.LIB (PUTCHAR)
         COMMENT TYPE 1: A51 / ASM51 Assembler
  C:\PROGRAM FILES (X86)\CYPRESS\PSOC CREATOR\4.1\PSOC CREATOR\IMPORT\KEIL\PK51\9.51\C51\LIB\C51L.LIB (STRCAT)
         COMMENT TYPE 1: C51 Compiler
  C:\PROGRAM FILES (X86)\CYPRESS\PSOC CREATOR\4.1\PSOC CREATOR\IMPORT\KEIL\PK51\9.51\C51\LIB\C51L.LIB (STRLEN)
         COMMENT TYPE 1: A51 / ASM51 Assembler
  C:\PROGRAM FILES (X86)\CYPRESS\PSOC CREATOR\4.1\PSOC CREATOR\IMPORT\KEIL\PK51\9.51\C51\LIB\C51L.LIB (?C?MEMSET)
         COMMENT TYPE 1: A51 / ASM51 Assembler
  C:\PROGRAM FILES (X86)\CYPRESS\PSOC CREATOR\4.1\PSOC CREATOR\IMPORT\KEIL\PK51\9.51\C51\LIB\C51L.LIB (?C?COPYAMD)
         COMMENT TYPE 1: A51 / ASM51 Assembler
  C:\PROGRAM FILES (X86)\CYPRESS\PSOC CREATOR\4.1\PSOC CREATOR\IMPORT\KEIL\PK51\9.51\C51\LIB\C51L.LIB (?C?STRCPYAMD)
         COMMENT TYPE 1: A51 / ASM51 Assembler
  C:\PROGRAM FILES (X86)\CYPRESS\PSOC CREATOR\4.1\PSOC CREATOR\IMPORT\KEIL\PK51\9.51\C51\LIB\C51L.LIB (?C?IILDX)
         COMMENT TYPE 1: A51 / ASM51 Assembler
  C:\PROGRAM FILES (X86)\CYPRESS\PSOC CREATOR\4.1\PSOC CREATOR\IMPORT\KEIL\PK51\9.51\C51\LIB\C51L.LIB (?C?ILDIX)
         COMMENT TYPE 1: A51 / ASM51 Assembler
  C:\PROGRAM FILES (X86)\CYPRESS\PSOC CREATOR\4.1\PSOC CREATOR\IMPORT\KEIL\PK51\9.51\C51\LIB\C51L.LIB (?C?LLDIDATA)
         COMMENT TYPE 1: A51 / ASM51 Assembler
  C:\PROGRAM FILES (X86)\CYPRESS\PSOC CREATOR\4.1\PSOC CREATOR\IMPORT\KEIL\PK51\9.51\C51\LIB\C51L.LIB (?C?LLDXDATA)
         COMMENT TYPE 1: A51 / ASM51 Assembler
  C:\PROGRAM FILES (X86)\CYPRESS\PSOC CREATOR\4.1\PSOC CREATOR\IMPORT\KEIL\PK51\9.51\C51\LIB\C51L.LIB (?C?LLDPDATA)
         COMMENT TYPE 1: A51 / ASM51 Assembler
  C:\PROGRAM FILES (X86)\CYPRESS\PSOC CREATOR\4.1\PSOC CREATOR\IMPORT\KEIL\PK51\9.51\C51\LIB\C51L.LIB (?C?LLDCODE)
         COMMENT TYPE 1: A51 / ASM51 Assembler
  C:\PROGRAM FILES (X86)\CYPRESS\PSOC CREATOR\4.1\PSOC CREATOR\IMPORT\KEIL\PK51\9.51\C51\LIB\C51L.LIB (?C?LSTIDATA)
         COMMENT TYPE 1: A51 / ASM51 Assembler
  C:\PROGRAM FILES (X86)\CYPRESS\PSOC CREATOR\4.1\PSOC CREATOR\IMPORT\KEIL\PK51\9.51\C51\LIB\C51L.LIB (?C?LSTPDATA)
         COMMENT TYPE 1: A51 / ASM51 Assembler


ACTIVE MEMORY CLASSES OF MODULE:  .\DP8051_Keil_951\Release\firmware.omf (COMMAND_PROCESSING)

BASE        START       END         USED      MEMORY CLASS
==========================================================
X:000000H   X:000000H   X:001FFFH   00162BH   XDATA
C:000000H   C:002600H   C:00FFBFH   006C7BH   CODE
C:000000H   C:002600H   C:00FFBFH   0003D5H   CONST
I:000000H   I:000000H   I:00007FH   000027H   DATA
I:000020H.0 I:000020H.0 I:00002FH.7 000001H.3 BIT
I:000000H   I:000000H   I:0000FFH   000001H   IDATA


MEMORY MAP OF MODULE:  .\DP8051_Keil_951\Release\firmware.omf (COMMAND_PROCESSING)


START     STOP      LENGTH    ALIGN  RELOC    MEMORY CLASS   SEGMENT NAME
=========================================================================

* * * * * * * * * * *   D A T A   M E M O R Y   * * * * * * * * * * * * *
LX51 LINKER/LOCATER V4.64.0.0                                                         03/12/2018  09:19:57  PAGE 4


000000H   000007H   000008H   ---    AT..     DATA           "REG BANK 0"
000008H   00001EH   000017H   BYTE   UNIT     DATA           _DATA_GROUP_
00001FH.0 00001FH.7 000001H.0 ---    ---      **GAP**
000020H.0 000021H.1 000001H.2 BIT    UNIT     BIT            _BIT_GROUP_
000021H.2 000021H.2 000000H.1 BIT    UNIT     BIT            ?BI?GLOBALS
000021H.3 000021H   000000H.5 ---    ---      **GAP**
000022H   000027H   000006H   BYTE   UNIT     DATA           ?DT?INTERRUPTIONS
000028H   000029H   000002H   BYTE   UNIT     DATA           ?C?LIB_DATA
00002AH   00002AH   000001H   BYTE   UNIT     IDATA          ?STACK

* * * * * * * * * * *   C O D E   M E M O R Y   * * * * * * * * * * * * *
002600H   002619H   00001AH   ---    OFFS..   CODE           ?CO?KEILSTART?3
00261AH   0034DBH   000EC2H   BYTE   UNIT     CODE           ?PR?_GET_PARAM_LIST?COMMAND_PROCESSING
0034DCH   004258H   000D7DH   BYTE   UNIT     CODE           ?PR?_READQUAT?IMU_FUNCTIONS
004259H   004D49H   000AF1H   BYTE   UNIT     CODE           ?CO?COMMAND_PROCESSING
004D4AH   0057E0H   000A97H   BYTE   UNIT     CODE           ?C?LIB_CODE
0057E1H   005D59H   000579H   BYTE   UNIT     CODE           ?PR?_INFOPREPARE?COMMAND_PROCESSING
005D5AH   0061DCH   000483H   BYTE   UNIT     CODE           ?PR?PRINTF?PRINTF
0061DDH   006657H   00047BH   BYTE   UNIT     CODE           ?PR?_INFOREADING?COMMAND_PROCESSING
006658H   006A4CH   0003F5H   BYTE   UNIT     CODE           ?PR?CMD_GET_IMU_READINGS?COMMAND_PROCESSING
006A4DH   006D87H   00033BH   BYTE   UNIT     CODE           ?PR?READALLIMUS?IMU_FUNCTIONS
006D88H   007040H   0002B9H   BYTE   UNIT     CODE           ?PR?INITIMUGENERAL?IMU_FUNCTIONS
007041H   0071CAH   00018AH   BYTE   UNIT     CODE           ?PR?_V4_NORMALIZE?UTILS
0071CBH   0072FAH   000130H   BYTE   UNIT     CODE           ?PR?_CLOCK_UART_SETDIVIDERREGISTER?CLOCK_UART
0072FBH   007421H   000127H   BYTE   UNIT     CODE           ?PR?INTERRUPT_MANAGER?INTERRUPTIONS
007422H   007547H   000126H   BYTE   UNIT     CODE           ?PR?CYFITTER_CFG?CYFITTER_CFG
007548H   007669H   000122H   BYTE   UNIT     CODE           ?PR?_V3_NORMALIZE?UTILS
00766AH   00778BH   000122H   BYTE   UNIT     CODE           ?PR?CLOCKSETUP?CYFITTER_CFG
00778CH   0078A7H   00011CH   BYTE   UNIT     CODE           ?PR?_READACC?IMU_FUNCTIONS
0078A8H   0079C3H   00011CH   BYTE   UNIT     CODE           ?PR?_READGYRO?IMU_FUNCTIONS
0079C4H   007ADDH   00011AH   BYTE   UNIT     CODE           ?C_C51STARTUP
007ADEH   007BF4H   000117H   BYTE   UNIT     CODE           ?PR?_READMAG?IMU_FUNCTIONS
007BF5H   007CE5H   0000F1H   BYTE   UNIT     CODE           ?PR?INITIMU?IMU_FUNCTIONS
007CE6H   007DD6H   0000F1H   BYTE   UNIT     CODE           ?PR?INITIMUMAGCAL?IMU_FUNCTIONS
007DD7H   007EC5H   0000EFH   BYTE   UNIT     CODE           ?PR?_INVSQRT?UTILS
007EC6H   007FA7H   0000E2H   BYTE   UNIT     CODE           ?PR?COMMPROCESS?COMMAND_PROCESSING
007FA8H   008086H   0000DFH   BYTE   UNIT     CODE           ?PR?_EEPROM_WRITE?EEPROM
008087H   008154H   0000CEH   BYTE   UNIT     CODE           ?PR?CFG_DMA_INIT?CYFITTER_CFG
008155H   008205H   0000B1H   BYTE   UNIT     CODE           ?PR?UART_RS485_RXISR?UART_RS485_INT
008206H   0082B3H   0000AEH   BYTE   UNIT     CODE           ?PR?_MEMSTORE?COMMAND_PROCESSING
0082B4H   00835CH   0000A9H   BYTE   UNIT     CODE           ?PR?_READIMU?IMU_FUNCTIONS
00835DH   0083F9H   00009DH   BYTE   UNIT     CODE           ?PR?MAIN?MAIN
0083FAH   008486H   00008DH   BYTE   UNIT     CODE           ?PR?_COMMWRITE?COMMAND_PROCESSING
008487H   00850EH   000088H   BYTE   UNIT     CODE           ?PR?_?CYDELAY?CYLIB
00850FH   008592H   000084H   BYTE   UNIT     CODE           ?PR?_READMAGCAL?IMU_FUNCTIONS
008593H   008613H   000081H   BYTE   UNIT     CODE           ?PR?MEMINIT?COMMAND_PROCESSING
008614H   008686H   000073H   BYTE   UNIT     CODE           ?PR?_CYSPCLOADROW?CYSPC
008687H   0086F1H   00006BH   BYTE   UNIT     CODE           ?PR?_STRCAT?STRCAT
0086F2H   008758H   000067H   BYTE   UNIT     CODE           ?C_INITSEG
008759H   0087B8H   000060H   BYTE   UNIT     CODE           ?PR?_CYSPCREADDATA?CYSPC
0087B9H   008816H   00005EH   BYTE   UNIT     CODE           ?PR?_READTEMP?IMU_FUNCTIONS
008817H   008871H   00005BH   BYTE   UNIT     CODE           ?PR?UART_RS485_GETCHAR?UART_RS485
008872H   0088C7H   000056H   BYTE   UNIT     CODE           ?PR?CYSETTEMPINT?CYFLASH
0088C8H   00891BH   000054H   BYTE   UNIT     CODE           ?PR?_CYINTSETVECTOR?CYLIB
00891CH   00896FH   000054H   BYTE   UNIT     CODE           ?PR?_CYSPCWRITEROW?CYSPC
008970H   0089BFH   000050H   BYTE   UNIT     CODE           ?PR?CYFLASHGETSPCALGORITHM?CYFLASH
0089C0H   008A0EH   00004FH   BYTE   UNIT     CODE           ?PR?UART_RS485_GETRXBUFFERSIZE?UART_RS485
008A0FH   008A5BH   00004DH   BYTE   UNIT     CODE           ?PR?MEMRECALL?COMMAND_PROCESSING
008A5CH   008AA4H   000049H   BYTE   UNIT     CODE           ?PR?_CHIPSELECTOR?IMU_FUNCTIONS
008AA5H   008AEBH   000047H   BYTE   UNIT     CODE           ?PR?MEMRESTORE?COMMAND_PROCESSING
008AECH   008B2FH   000044H   BYTE   UNIT     CODE           ?PR?FUNCTION_SCHEDULER?INTERRUPTIONS
008B30H   008B6BH   00003CH   BYTE   UNIT     CODE           ?PR?PACER_TIMER_INIT?PACER_TIMER
008B6CH   008B9FH   000034H   BYTE   UNIT     CODE           ?PR?_UART_RS485_PUTSTRING?UART_RS485
008BA0H   008BD3H   000034H   BYTE   UNIT     CODE           ?PR?_CYCONFIGCPY?CYMEM
008BD4H   008BFFH   00002CH   BYTE   UNIT     CODE           ?PR?MY_TIMER_INIT?MY_TIMER
LX51 LINKER/LOCATER V4.64.0.0                                                         03/12/2018  09:19:57  PAGE 5


008C00H   008C3AH   00003BH   PAGE   UNIT     CODE           ?PR?CYDELAYCYCLES?CYBOOTASMKEIL
008C3BH   008C6CH   000032H   BYTE   UNIT     CODE           ?PR?_LCRCHECKSUM?COMMAND_PROCESSING
008C6DH   008C9DH   000031H   BYTE   UNIT     CODE           ?PR?UART_RS485_INIT?UART_RS485
008C9EH   008CCEH   000031H   BYTE   UNIT     CODE           ?PR?CYEEPROM_START?CYFLASH
008CCFH   008CFEH   000030H   BYTE   UNIT     CODE           ?PR?_INFOGET?COMMAND_PROCESSING
008CFFH   008D2EH   000030H   BYTE   UNIT     CODE           ?PR?_WRITECONTROLREGISTER?IMU_FUNCTIONS
008D2FH   008D5DH   00002FH   BYTE   UNIT     CODE           ?PR?UART_RS485_CLEARRXBUFFER?UART_RS485
008D5EH   008D8BH   00002EH   BYTE   UNIT     CODE           ?PR?_CYSPCGETTEMP?CYSPC
008D8CH   008DB8H   00002DH   DWORD  UNIT     CODE           ?PR?CYDELAYUS?CYBOOTASMKEIL
008DB9H   008DDFH   000027H   BYTE   UNIT     CODE           ?PR?PUTCHAR?PUTCHAR
008DE0H   008E04H   000025H   BYTE   UNIT     CODE           ?PR?SPI_IMU_ENABLE?SPI_IMU
008E05H   008E24H   000020H   BYTE   UNIT     CODE           ?PR?CMD_SET_BAUDRATE?COMMAND_PROCESSING
008E25H   008E44H   000020H   BYTE   UNIT     CODE           ?PR?UART_RS485_ENABLE?UART_RS485
008E45H   008E64H   000020H   BYTE   UNIT     CODE           ?PR?UART_RS485_STOP?UART_RS485
008E65H   008E84H   000020H   BYTE   UNIT     CODE           ?PR?SPI_IMU_CLEARFIFO?SPI_IMU
008E85H   008EA3H   00001FH   BYTE   UNIT     CODE           ?PR?_ISR_RS485_RX_STARTEX?ISR_RS485_RX
008EA4H   008EC2H   00001FH   BYTE   UNIT     CODE           ?PR?CYSPCLOCK?CYSPC
008EC3H   008EDFH   00001DH   BYTE   UNIT     CODE           ?PR?ANALOGSETDEFAULT?CYFITTER_CFG
008EE0H   008EFAH   00001BH   BYTE   UNIT     CODE           ?PR?SPI_DELAY?IMU_FUNCTIONS
008EFBH   008F15H   00001BH   BYTE   UNIT     CODE           ?PR?CYSPCGETALGORITHM?CYSPC
008F16H   008F2EH   000019H   BYTE   UNIT     CODE           ?PR?_CYINTSETPRIORITY?CYLIB
008F2FH   008F47H   000019H   BYTE   UNIT     CODE           ?PR?SPI_IMU_INIT?SPI_IMU
008F48H   008F5FH   000018H   BYTE   UNIT     CODE           ?PR?CYSETTEMP?CYFLASH
008F60H   008F77H   000018H   BYTE   UNIT     CODE           ?PR?CYEXITCRITICALSECTION?CYBOOTASMKEIL
008F78H   008F8EH   000017H   BYTE   UNIT     CODE           ?PR?_READCONTROLREGISTER?IMU_FUNCTIONS
008F8FH   008FA4H   000016H   BYTE   UNIT     CODE           ?PR?PACER_TIMER_ENABLE?PACER_TIMER
008FA5H   008FB9H   000015H   BYTE   UNIT     CODE           ?PR?_SENDACKNOWLEDGMENT?COMMAND_PROCESSING
008FBAH   008FCEH   000015H   BYTE   UNIT     CODE           ?PR?CMD_STORE_PARAMS?COMMAND_PROCESSING
008FCFH   008FE3H   000015H   BYTE   UNIT     CODE           ?PR?CYENTERCRITICALSECTION?CYBOOTASMKEIL
008FE4H   008FF8H   000015H   BYTE   UNIT     CODE           ?PR?CYSPCSTART?CYSPC
008FF9H   00900DH   000015H   BYTE   UNIT     CODE           ?PR?_STRLEN?STRLEN
00900EH   009021H   000014H   BYTE   UNIT     CODE           ?PR?CMD_PING?COMMAND_PROCESSING
009022H   009035H   000014H   BYTE   UNIT     CODE           ?PR?UART_RS485_READRXSTATUS?UART_RS485
009036H   009048H   000013H   BYTE   UNIT     CODE           ?PR?UART_RS485_START?UART_RS485
009049H   00905BH   000013H   BYTE   UNIT     CODE           ?PR?PACER_TIMER_START?PACER_TIMER
00905CH   00906EH   000013H   BYTE   UNIT     CODE           ?PR?MY_TIMER_START?MY_TIMER
00906FH   009081H   000013H   BYTE   UNIT     CODE           ?PR?SPI_IMU_START?SPI_IMU
009082H   009094H   000013H   BYTE   UNIT     CODE           ?PR?CYREAD24?CYMEM
009095H   0090A6H   000012H   BYTE   UNIT     CODE           ?PR?UART_RS485_CLEARTXBUFFER?UART_RS485
0090A7H   0090B8H   000012H   BYTE   UNIT     CODE           ?PR?SPI_IMU_CLEARTXBUFFER?SPI_IMU
0090B9H   0090CAH   000012H   BYTE   UNIT     CODE           ?PR?CYWRITE24?CYMEM
0090CBH   0090DAH   000010H   BYTE   UNIT     CODE           ?PR?_OPTO_PIN_WRITE?OPTO_PIN
0090DBH   0090E9H   00000FH   BYTE   UNIT     CODE           ?PR?MY_TIMER_READCOUNTER?MY_TIMER
0090EAH   0090F8H   00000FH   BYTE   UNIT     CODE           ?PR?SPI_IMU_CLEARRXBUFFER?SPI_IMU
0090F9H   009107H   00000FH   BYTE   UNIT     CODE           ?PR?SPI_IMU_READSTATUS?SPI_IMU
009108H   009116H   00000FH   BYTE   UNIT     CODE           ?PR?CYREAD16?CYMEM
009117H   009125H   00000FH   BYTE   UNIT     CODE           ?PR?CYWRITE16?CYMEM
009126H   009134H   00000FH   BYTE   UNIT     CODE           ?PR?SPI_IMU_INTCLOCK_START?SPI_IMU_INTCLOCK
009135H   009142H   00000EH   BYTE   UNIT     CODE           ?PR?_ISR_RS485_RX_SETVECTOR?ISR_RS485_RX
009143H   009150H   00000EH   BYTE   UNIT     CODE           ?PR?_PACER_TIMER_WRITEPERIOD?PACER_TIMER
009151H   00915EH   00000EH   BYTE   UNIT     CODE           ?PR?_PACER_TIMER_WRITECOUNTER?PACER_TIMER
00915FH   00916BH   00000DH   BYTE   UNIT     CODE           ?PR?_UART_RS485_PUTCHAR?UART_RS485
00916CH   009178H   00000DH   BYTE   UNIT     CODE           ?PR?MY_TIMER_CLEARFIFO?MY_TIMER
009179H   009185H   00000DH   BYTE   UNIT     CODE           ?PR?_SPI_IMU_WRITETXDATA?SPI_IMU
009186H   009192H   00000DH   BYTE   UNIT     CODE           ?PR?_FABS?FABS
009193H   00919EH   00000CH   BYTE   UNIT     CODE           ?PR?CYREAD8?CYMEM
00919FH   0091AAH   00000CH   BYTE   UNIT     CODE           ?PR?CYWRITE8?CYMEM
0091ABH   0091B6H   00000CH   BYTE   UNIT     CODE           ?PR?CYSPCUNLOCK?CYSPC
0091B7H   0091C0H   00000AH   BYTE   UNIT     CODE           ?PR?_ISR_RS485_RX_SETPRIORITY?ISR_RS485_RX
0091C1H   0091CAH   00000AH   BYTE   UNIT     CODE           ?PR?CLOCK_UART_GETDIVIDERREGISTER?CLOCK_UART
0091CBH   0091D4H   00000AH   BYTE   UNIT     CODE           ?PR?BOOTLOADABLE_LOAD?BOOTLOADABLE
0091D5H   0091DEH   00000AH   BYTE   UNIT     CODE           ?PR?_MY_TIMER_WRITEPERIOD?MY_TIMER
0091DFH   0091E8H   00000AH   BYTE   UNIT     CODE           ?PR?MY_TIMER_READCAPTURE?MY_TIMER
0091E9H   0091F2H   00000AH   BYTE   UNIT     CODE           ?PR?_MY_TIMER_WRITECOUNTER?MY_TIMER
0091F3H   0091FAH   000008H   BYTE   UNIT     CODE           ?PR?CLOCK_UART_GETSOURCEREGISTER?CLOCK_UART
LX51 LINKER/LOCATER V4.64.0.0                                                         03/12/2018  09:19:57  PAGE 6


0091FBH   009202H   000008H   BYTE   UNIT     CODE           ?PR?MY_TIMER_ENABLE?MY_TIMER
009203H   00920AH   000008H   BYTE   UNIT     CODE           ?PR?CYSOFTWARERESET?CYLIB
00920BH   009211H   000007H   BYTE   UNIT     CODE           ?PR?ISR_RS485_RX_ENABLE?ISR_RS485_RX
009212H   009218H   000007H   BYTE   UNIT     CODE           ?PR?ISR_RS485_RX_DISABLE?ISR_RS485_RX
009219H   00921FH   000007H   BYTE   UNIT     CODE           ?PR?EEPROM_ENABLE?EEPROM
009220H   009225H   000006H   BYTE   UNIT     CODE           ?PR?UART_RS485_READTXSTATUS?UART_RS485
009226H   00922BH   000006H   BYTE   UNIT     CODE           ?PR?_PACER_TIMER_SETINTERRUPTMODE?PACER_TIMER
00922CH   009231H   000006H   BYTE   UNIT     CODE           ?PR?_RS485_CTS_WRITE?RS485_CTS
009232H   009237H   000006H   BYTE   UNIT     CODE           ?PR?_FTDI_ENABLE_REG_WRITE?FTDI_ENABLE_REG
009238H   00923DH   000006H   BYTE   UNIT     CODE           ?PR?_RESET_FF_WRITE?RESET_FF
00923EH   009243H   000006H   BYTE   UNIT     CODE           ?PR?FF_STATUS_READ?FF_STATUS
009244H   009249H   000006H   BYTE   UNIT     CODE           ?PR?_MY_TIMER_SETINTERRUPTMODE?MY_TIMER
00924AH   00924FH   000006H   BYTE   UNIT     CODE           ?PR?MY_TIMER_READSTATUSREGISTER?MY_TIMER
009250H   009255H   000006H   BYTE   UNIT     CODE           ?PR?SPI_IMU_READTXSTATUS?SPI_IMU
009256H   00925BH   000006H   BYTE   UNIT     CODE           ?PR?SPI_IMU_READRXSTATUS?SPI_IMU
00925CH   009261H   000006H   BYTE   UNIT     CODE           ?PR?SPI_IMU_READRXDATA?SPI_IMU
009262H   009267H   000006H   BYTE   UNIT     CODE           ?PR?_CHIP_SELECT_A_WRITE?CHIP_SELECT_A
009268H   00926DH   000006H   BYTE   UNIT     CODE           ?PR?_CHIP_SELECT_B_WRITE?CHIP_SELECT_B
00926EH   009271H   000004H   BYTE   UNIT     CODE           ?PR?EEPROM_START?EEPROM
009272H   009274H   000003H   BYTE   UNIT     CODE           ?PR?ISR_RS485_RX_EXINTERRUPT?INTERRUPTIONS
009275H   009277H   000003H   BYTE   UNIT     CODE           ?PR?_CYCLOCKSTARTUPERROR?CYFITTER_CFG
009278H   009278H   000001H   BYTE   UNIT     CODE           ?PR?ISR_RS485_RX_INTERRUPT?ISR_RS485_RX
009279H   009279H   000001H   BYTE   UNIT     CODE           ?PR?SPI_IMU_ENABLETXINT?SPI_IMU
00927AH   00927AH   000001H   BYTE   UNIT     CODE           ?PR?SPI_IMU_ENABLERXINT?SPI_IMU
00927BH   00964FH   0003D5H   BYTE   UNIT     CONST          ?CO?CYFITTER_CFG

* * * * * * * * * * *  X D A T A   M E M O R Y  * * * * * * * * * * * * *
000000H   0008DDH   0008DEH   BYTE   UNIT     XDATA          _XDATA_GROUP_
0008DEH   0010D3H   0007F6H   BYTE   UNIT     XDATA          ?XD?GLOBALS
0010D4H   001521H   00044EH   BYTE   UNIT     XDATA          ?XD?COMMAND_PROCESSING
001522H   0015A1H   000080H   BYTE   UNIT     XDATA          ?XD?INTERRUPTIONS
0015A2H   0015E4H   000043H   BYTE   UNIT     XDATA          ?XD?CYPM
0015E5H   00160BH   000027H   BYTE   UNIT     XDATA          ?XD?UART_RS485
00160CH   00161AH   00000FH   BYTE   UNIT     XDATA          ?XD?CYLIB
00161BH   00161FH   000005H   BYTE   UNIT     XDATA          ?XD?CYFLASH
001620H   001623H   000004H   BYTE   UNIT     XDATA          ?XD?CYFITTER_CFG
001624H   001626H   000003H   BYTE   UNIT     XDATA          ?XD?SPI_IMU
001627H   001627H   000001H   BYTE   UNIT     XDATA          ?XD?IMU_FUNCTIONS
001628H   001628H   000001H   BYTE   UNIT     XDATA          ?XD?PACER_TIMER
001629H   001629H   000001H   BYTE   UNIT     XDATA          ?XD?MY_TIMER
00162AH   00162AH   000001H   BYTE   UNIT     XDATA          ?XD?CYSPC

* * * * * * * * *   R E M O V E D     S E G M E N T S   * * * * * * * *
   *DEL*:           000013H   BYTE   UNIT     CODE           ?PR?INFOSEND?COMMAND_PROCESSING
   *DEL*:           00044CH   BYTE   UNIT     XDATA          ?XD?INFOSEND?COMMAND_PROCESSING
   *DEL*:           000029H   BYTE   UNIT     CODE           ?PR?IMUSRESET?IMU_FUNCTIONS
   *DEL*:           000014H   BYTE   UNIT     CODE           ?PR?_SETANALOGROUTINGPUMPS?CYFITTER_CFG
   *DEL*:           000003H   BYTE   UNIT     CODE           ?PR?UART_RS485_READCONTROLREGISTER?UART_RS485
   *DEL*:           000006H   BYTE   UNIT     CODE           ?PR?_UART_RS485_WRITECONTROLREGISTER?UART_RS485
   *DEL*:           000001H   BYTE   UNIT     XDATA          ?XD?_UART_RS485_WRITECONTROLREGISTER?UART_RS485
   *DEL*:           000006H   BYTE   UNIT     CODE           ?PR?_UART_RS485_SETRXINTERRUPTMODE?UART_RS485
   *DEL*:           00004AH   BYTE   UNIT     CODE           ?PR?UART_RS485_READRXDATA?UART_RS485
   *DEL*:           00001FH   BYTE   UNIT     CODE           ?PR?UART_RS485_GETBYTE?UART_RS485
   *DEL*:           000006H   BYTE   UNIT     CODE           ?PR?_UART_RS485_SETRXADDRESSMODE?UART_RS485
   *DEL*:           000001H   BYTE   UNIT     XDATA          ?XD?_UART_RS485_SETRXADDRESSMODE?UART_RS485
   *DEL*:           000006H   BYTE   UNIT     CODE           ?PR?_UART_RS485_SETRXADDRESS1?UART_RS485
   *DEL*:           000006H   BYTE   UNIT     CODE           ?PR?_UART_RS485_SETRXADDRESS2?UART_RS485
   *DEL*:           000006H   BYTE   UNIT     CODE           ?PR?_UART_RS485_SETTXINTERRUPTMODE?UART_RS485
   *DEL*:           00000CH   BYTE   UNIT     CODE           ?PR?_UART_RS485_WRITETXDATA?UART_RS485
   *DEL*:           000032H   BYTE   UNIT     CODE           ?PR?_UART_RS485_PUTARRAY?UART_RS485
   *DEL*:           000003H   BYTE   UNIT     XDATA          ?XD?_UART_RS485_PUTARRAY?UART_RS485
   *DEL*:           000014H   BYTE   UNIT     CODE           ?PR?_UART_RS485_PUTCRLF?UART_RS485
   *DEL*:           000017H   BYTE   UNIT     CODE           ?PR?UART_RS485_GETTXBUFFERSIZE?UART_RS485
   *DEL*:           000059H   BYTE   UNIT     CODE           ?PR?_UART_RS485_SENDBREAK?UART_RS485
   *DEL*:           000001H   BYTE   UNIT     XDATA          ?XD?_UART_RS485_SENDBREAK?UART_RS485
LX51 LINKER/LOCATER V4.64.0.0                                                         03/12/2018  09:19:57  PAGE 7


   *DEL*:           000006H   BYTE   UNIT     CODE           ?PR?_UART_RS485_SETTXADDRESSMODE?UART_RS485
   *DEL*:           000001H   BYTE   UNIT     XDATA          ?XD?_UART_RS485_SETTXADDRESSMODE?UART_RS485
   *DEL*:           000013H   BYTE   UNIT     CODE           ?PR?ISR_RS485_RX_START?ISR_RS485_RX
   *DEL*:           000004H   BYTE   UNIT     CODE           ?PR?ISR_RS485_RX_STOP?ISR_RS485_RX
   *DEL*:           00000AH   BYTE   UNIT     CODE           ?PR?ISR_RS485_RX_GETVECTOR?ISR_RS485_RX
   *DEL*:           00000BH   BYTE   UNIT     CODE           ?PR?ISR_RS485_RX_GETPRIORITY?ISR_RS485_RX
   *DEL*:           00000EH   BYTE   UNIT     CODE           ?PR?ISR_RS485_RX_GETSTATE?ISR_RS485_RX
   *DEL*:           000007H   BYTE   UNIT     CODE           ?PR?ISR_RS485_RX_SETPENDING?ISR_RS485_RX
   *DEL*:           000007H   BYTE   UNIT     CODE           ?PR?ISR_RS485_RX_CLEARPENDING?ISR_RS485_RX
   *DEL*:           000016H   BYTE   UNIT     CODE           ?PR?PACER_TIMER_STOP?PACER_TIMER
   *DEL*:           00000AH   BYTE   UNIT     CODE           ?PR?PACER_TIMER_SOFTWARECAPTURE?PACER_TIMER
   *DEL*:           000006H   BYTE   UNIT     CODE           ?PR?PACER_TIMER_READSTATUSREGISTER?PACER_TIMER
   *DEL*:           000006H   BYTE   UNIT     CODE           ?PR?PACER_TIMER_READCONTROLREGISTER?PACER_TIMER
   *DEL*:           000006H   BYTE   UNIT     CODE           ?PR?_PACER_TIMER_WRITECONTROLREGISTER?PACER_TIMER
   *DEL*:           00000AH   BYTE   UNIT     CODE           ?PR?PACER_TIMER_READPERIOD?PACER_TIMER
   *DEL*:           00000AH   BYTE   UNIT     CODE           ?PR?PACER_TIMER_READCAPTURE?PACER_TIMER
   *DEL*:           000013H   BYTE   UNIT     CODE           ?PR?PACER_TIMER_READCOUNTER?PACER_TIMER
   *DEL*:           00000FH   BYTE   UNIT     CODE           ?PR?CLOCK_UART_START?CLOCK_UART
   *DEL*:           00000FH   BYTE   UNIT     CODE           ?PR?CLOCK_UART_STOP?CLOCK_UART
   *DEL*:           00006DH   BYTE   UNIT     CODE           ?PR?CLOCK_UART_STOPBLOCK?CLOCK_UART
   *DEL*:           000002H   BYTE   UNIT     XDATA          ?XD?CLOCK_UART_STOPBLOCK?CLOCK_UART
   *DEL*:           000013H   BYTE   UNIT     CODE           ?PR?_CLOCK_UART_STANDBYPOWER?CLOCK_UART
   *DEL*:           00000DH   BYTE   UNIT     CODE           ?PR?_CLOCK_UART_SETMODEREGISTER?CLOCK_UART
   *DEL*:           00000EH   BYTE   UNIT     CODE           ?PR?_CLOCK_UART_CLEARMODEREGISTER?CLOCK_UART
   *DEL*:           000008H   BYTE   UNIT     CODE           ?PR?CLOCK_UART_GETMODEREGISTER?CLOCK_UART
   *DEL*:           000062H   BYTE   UNIT     CODE           ?PR?_CLOCK_UART_SETSOURCEREGISTER?CLOCK_UART
   *DEL*:           000003H   BYTE   UNIT     XDATA          ?XD?_CLOCK_UART_SETSOURCEREGISTER?CLOCK_UART
   *DEL*:           000004H   BYTE   UNIT     CODE           ?PR?EEPROM_STOP?EEPROM
   *DEL*:           000124H   BYTE   UNIT     CODE           ?PR?_EEPROM_WRITEBYTE?EEPROM
   *DEL*:           000008H   BYTE   UNIT     XDATA          ?XD?_EEPROM_WRITEBYTE?EEPROM
   *DEL*:           00003AH   BYTE   UNIT     CODE           ?PR?_EEPROM_READBYTE?EEPROM
   *DEL*:           000004H   BYTE   UNIT     XDATA          ?XD?_EEPROM_READBYTE?EEPROM
   *DEL*:           000004H   BYTE   UNIT     CODE           ?PR?EEPROM_UPDATETEMPERATURE?EEPROM
   *DEL*:           00006FH   BYTE   UNIT     CODE           ?PR?_EEPROM_ERASESECTOR?EEPROM
   *DEL*:           000002H   BYTE   UNIT     XDATA          ?XD?_EEPROM_ERASESECTOR?EEPROM
   *DEL*:           0000B9H   BYTE   UNIT     CODE           ?PR?_EEPROM_STARTWRITE?EEPROM
   *DEL*:           000005H   BYTE   UNIT     XDATA          ?XD?_EEPROM_STARTWRITE?EEPROM
   *DEL*:           000046H   BYTE   UNIT     CODE           ?PR?_EEPROM_STARTERASE?EEPROM
   *DEL*:           000002H   BYTE   UNIT     XDATA          ?XD?_EEPROM_STARTERASE?EEPROM
   *DEL*:           00003BH   BYTE   UNIT     CODE           ?PR?EEPROM_QUERY?EEPROM
   *DEL*:           000001H   BYTE   UNIT     XDATA          ?XD?EEPROM_QUERY?EEPROM
   *DEL*:           0000E5H   BYTE   UNIT     CODE           ?PR?_EEPROM_BYTEWRITEPOS?EEPROM
   *DEL*:           000004H   BYTE   UNIT     XDATA          ?XD?_EEPROM_BYTEWRITEPOS?EEPROM
   *DEL*:           000006H   BYTE   UNIT     CODE           ?PR?RS485_CTS_READ?RS485_CTS
   *DEL*:           0000FBH   BYTE   UNIT     CODE           ?PR?_BOOTLOADABLE_SETFLASHBYTE?BOOTLOADABLE
   *DEL*:           000110H   BYTE   UNIT     XDATA          ?XD?_BOOTLOADABLE_SETFLASHBYTE?BOOTLOADABLE
   *DEL*:           000006H   BYTE   UNIT     CODE           ?PR?FTDI_ENABLE_REG_READ?FTDI_ENABLE_REG
   *DEL*:           000006H   BYTE   UNIT     CODE           ?PR?RESET_FF_READ?RESET_FF
   *DEL*:           00000EH   BYTE   UNIT     CODE           ?PR?FF_STATUS_INTERRUPTENABLE?FF_STATUS
   *DEL*:           00000EH   BYTE   UNIT     CODE           ?PR?FF_STATUS_INTERRUPTDISABLE?FF_STATUS
   *DEL*:           000009H   BYTE   UNIT     CODE           ?PR?_FF_STATUS_WRITEMASK?FF_STATUS
   *DEL*:           000006H   BYTE   UNIT     CODE           ?PR?FF_STATUS_READMASK?FF_STATUS
   *DEL*:           000008H   BYTE   UNIT     CODE           ?PR?MY_TIMER_STOP?MY_TIMER
   *DEL*:           000006H   BYTE   UNIT     CODE           ?PR?MY_TIMER_SOFTWARECAPTURE?MY_TIMER
   *DEL*:           000006H   BYTE   UNIT     CODE           ?PR?MY_TIMER_READCONTROLREGISTER?MY_TIMER
   *DEL*:           000006H   BYTE   UNIT     CODE           ?PR?_MY_TIMER_WRITECONTROLREGISTER?MY_TIMER
   *DEL*:           00000AH   BYTE   UNIT     CODE           ?PR?MY_TIMER_READPERIOD?MY_TIMER
   *DEL*:           000031H   BYTE   UNIT     CODE           ?PR?CYFLASH_START?CYFLASH
   *DEL*:           000015H   BYTE   UNIT     CODE           ?PR?CYFLASH_STOP?CYFLASH
   *DEL*:           00007DH   BYTE   UNIT     CODE           ?PR?_CYSETFLASHEEBUFFER?CYFLASH
   *DEL*:           000004H   BYTE   UNIT     XDATA          ?XD?_CYSETFLASHEEBUFFER?CYFLASH
   *DEL*:           000034H   BYTE   UNIT     CODE           ?PR?_CYWRITEROWDATA?CYFLASH
   *DEL*:           000003H   BYTE   UNIT     XDATA          ?XD?_CYWRITEROWDATA?CYFLASH
   *DEL*:           000190H   BYTE   UNIT     CODE           ?PR?_CYWRITEROWFULL?CYFLASH
   *DEL*:           000009H   BYTE   UNIT     XDATA          ?XD?_CYWRITEROWFULL?CYFLASH
LX51 LINKER/LOCATER V4.64.0.0                                                         03/12/2018  09:19:57  PAGE 8


   *DEL*:           000044H   BYTE   UNIT     CODE           ?PR?_CYFLASH_SETWAITCYCLES?CYFLASH
   *DEL*:           000001H   BYTE   UNIT     XDATA          ?XD?_CYFLASH_SETWAITCYCLES?CYFLASH
   *DEL*:           000015H   BYTE   UNIT     CODE           ?PR?CYEEPROM_STOP?CYFLASH
   *DEL*:           000010H   BYTE   UNIT     CODE           ?PR?CYEEPROM_READRESERVE?CYFLASH
   *DEL*:           000008H   BYTE   UNIT     CODE           ?PR?CYEEPROM_READRELEASE?CYFLASH
   *DEL*:           00006EH   BYTE   UNIT     CODE           ?PR?_CYPLL_OUT_START?CYLIB
   *DEL*:           000004H   BYTE   UNIT     XDATA          ?XD?_CYPLL_OUT_START?CYLIB
   *DEL*:           000008H   BYTE   UNIT     CODE           ?PR?CYPLL_OUT_STOP?CYLIB
   *DEL*:           000036H   BYTE   UNIT     CODE           ?PR?_CYPLL_OUT_SETPQ?CYLIB
   *DEL*:           000010H   BYTE   UNIT     CODE           ?PR?_CYPLL_OUT_SETSOURCE?CYLIB
   *DEL*:           000053H   BYTE   UNIT     CODE           ?PR?_CYIMO_START?CYLIB
   *DEL*:           000003H   BYTE   UNIT     XDATA          ?XD?_CYIMO_START?CYLIB
   *DEL*:           00000FH   BYTE   UNIT     CODE           ?PR?CYIMO_STOP?CYLIB
   *DEL*:           000027H   BYTE   UNIT     CODE           ?PR?CYUSB_POWERONCHECK?CYLIB
   *DEL*:           0000B6H   BYTE   UNIT     CODE           ?PR?_CYIMO_SETTRIMVALUE?CYLIB
   *DEL*:           000001H   BYTE   UNIT     XDATA          ?XD?_CYIMO_SETTRIMVALUE?CYLIB
   *DEL*:           000118H   BYTE   UNIT     CODE           ?PR?_CYIMO_SETFREQ?CYLIB
   *DEL*:           000003H   BYTE   UNIT     XDATA          ?XD?_CYIMO_SETFREQ?CYLIB
   *DEL*:           00002FH   BYTE   UNIT     CODE           ?PR?_CYIMO_SETSOURCE?CYLIB
   *DEL*:           000008H   BYTE   UNIT     CODE           ?PR?CYIMO_ENABLEDOUBLER?CYLIB
   *DEL*:           000008H   BYTE   UNIT     CODE           ?PR?CYIMO_DISABLEDOUBLER?CYLIB
   *DEL*:           00000DH   BYTE   UNIT     CODE           ?PR?_CYMASTERCLK_SETSOURCE?CYLIB
   *DEL*:           000006H   BYTE   UNIT     CODE           ?PR?_CYMASTERCLK_SETDIVIDER?CYLIB
   *DEL*:           000023H   BYTE   UNIT     CODE           ?PR?_CYBUSCLK_INTERNAL_SETDIVIDER?CYLIB
   *DEL*:           00007AH   BYTE   UNIT     CODE           ?PR?_CYBUSCLK_SETDIVIDER?CYLIB
   *DEL*:           000002H   BYTE   UNIT     XDATA          ?XD?_CYBUSCLK_SETDIVIDER?CYLIB
   *DEL*:           00000EH   BYTE   UNIT     CODE           ?PR?_CYCPUCLK_SETDIVIDER?CYLIB
   *DEL*:           00000DH   BYTE   UNIT     CODE           ?PR?_CYUSBCLK_SETSOURCE?CYLIB
   *DEL*:           000008H   BYTE   UNIT     CODE           ?PR?CYILO_START1K?CYLIB
   *DEL*:           000008H   BYTE   UNIT     CODE           ?PR?CYILO_STOP1K?CYLIB
   *DEL*:           000008H   BYTE   UNIT     CODE           ?PR?CYILO_START100K?CYLIB
   *DEL*:           000008H   BYTE   UNIT     CODE           ?PR?CYILO_STOP100K?CYLIB
   *DEL*:           000008H   BYTE   UNIT     CODE           ?PR?CYILO_ENABLE33K?CYLIB
   *DEL*:           000008H   BYTE   UNIT     CODE           ?PR?CYILO_DISABLE33K?CYLIB
   *DEL*:           000011H   BYTE   UNIT     CODE           ?PR?_CYILO_SETSOURCE?CYLIB
   *DEL*:           000029H   BYTE   UNIT     CODE           ?PR?_CYILO_SETPOWERMODE?CYLIB
   *DEL*:           00005EH   BYTE   UNIT     CODE           ?PR?CYXTAL_32KHZ_START?CYLIB
   *DEL*:           000002H   BYTE   UNIT     XDATA          ?XD?CYXTAL_32KHZ_START?CYLIB
   *DEL*:           000020H   BYTE   UNIT     CODE           ?PR?CYXTAL_32KHZ_STOP?CYLIB
   *DEL*:           000008H   BYTE   UNIT     CODE           ?PR?CYXTAL_32KHZ_READSTATUS?CYLIB
   *DEL*:           000066H   BYTE   UNIT     CODE           ?PR?_CYXTAL_32KHZ_SETPOWERMODE?CYLIB
   *DEL*:           000001H   BYTE   UNIT     XDATA          ?XD?_CYXTAL_32KHZ_SETPOWERMODE?CYLIB
   *DEL*:           0000A0H   BYTE   UNIT     CODE           ?PR?_CYXTAL_START?CYLIB
   *DEL*:           000006H   BYTE   UNIT     XDATA          ?XD?_CYXTAL_START?CYLIB
   *DEL*:           000008H   BYTE   UNIT     CODE           ?PR?CYXTAL_STOP?CYLIB
   *DEL*:           000008H   BYTE   UNIT     CODE           ?PR?CYXTAL_ENABLEERRSTATUS?CYLIB
   *DEL*:           000008H   BYTE   UNIT     CODE           ?PR?CYXTAL_DISABLEERRSTATUS?CYLIB
   *DEL*:           00000FH   BYTE   UNIT     CODE           ?PR?CYXTAL_READSTATUS?CYLIB
   *DEL*:           000008H   BYTE   UNIT     CODE           ?PR?CYXTAL_ENABLEFAULTRECOVERY?CYLIB
   *DEL*:           000008H   BYTE   UNIT     CODE           ?PR?CYXTAL_DISABLEFAULTRECOVERY?CYLIB
   *DEL*:           00000DH   BYTE   UNIT     CODE           ?PR?_CYXTAL_SETSTARTUP?CYLIB
   *DEL*:           00000DH   BYTE   UNIT     CODE           ?PR?_CYXTAL_SETFBVOLTAGE?CYLIB
   *DEL*:           00000EH   BYTE   UNIT     CODE           ?PR?_CYXTAL_SETWDVOLTAGE?CYLIB
   *DEL*:           000015H   BYTE   UNIT     CODE           ?PR?_?CYHALT?CYLIB
   *DEL*:           0000B8H   BYTE   UNIT     CODE           ?PR?_?CYDELAYFREQ?CYLIB
   *DEL*:           000026H   BYTE   UNIT     CODE           ?PR?_CYWDTSTART?CYLIB
   *DEL*:           000007H   BYTE   UNIT     CODE           ?PR?CYWDTCLEAR?CYLIB
   *DEL*:           000084H   BYTE   UNIT     CODE           ?PR?_CYVDLVDIGITENABLE?CYLIB
   *DEL*:           000007H   BYTE   UNIT     XDATA          ?XD?_CYVDLVDIGITENABLE?CYLIB
   *DEL*:           000083H   BYTE   UNIT     CODE           ?PR?_CYVDLVANALOGENABLE?CYLIB
   *DEL*:           000007H   BYTE   UNIT     XDATA          ?XD?_CYVDLVANALOGENABLE?CYLIB
   *DEL*:           00001DH   BYTE   UNIT     CODE           ?PR?CYVDLVDIGITDISABLE?CYLIB
   *DEL*:           000018H   BYTE   UNIT     CODE           ?PR?CYVDLVANALOGDISABLE?CYLIB
   *DEL*:           000056H   BYTE   UNIT     CODE           ?PR?CYVDHVANALOGENABLE?CYLIB
   *DEL*:           000005H   BYTE   UNIT     XDATA          ?XD?CYVDHVANALOGENABLE?CYLIB
LX51 LINKER/LOCATER V4.64.0.0                                                         03/12/2018  09:19:57  PAGE 9


   *DEL*:           000011H   BYTE   UNIT     CODE           ?PR?CYVDHVANALOGDISABLE?CYLIB
   *DEL*:           000039H   BYTE   UNIT     CODE           ?PR?_CYVDSTICKYSTATUS?CYLIB
   *DEL*:           000002H   BYTE   UNIT     XDATA          ?XD?_CYVDSTICKYSTATUS?CYLIB
   *DEL*:           000018H   BYTE   UNIT     CODE           ?PR?CYVDREALTIMESTATUS?CYLIB
   *DEL*:           000001H   BYTE   UNIT     XDATA          ?XD?CYVDREALTIMESTATUS?CYLIB
   *DEL*:           0000D0H   BYTE   UNIT     CODE           ?PR?CYDISABLEINTS?CYLIB
   *DEL*:           000005H   BYTE   UNIT     XDATA          ?XD?CYDISABLEINTS?CYLIB
   *DEL*:           000067H   BYTE   UNIT     CODE           ?PR?_CYENABLEINTS?CYLIB
   *DEL*:           000004H   BYTE   UNIT     XDATA          ?XD?_CYENABLEINTS?CYLIB
   *DEL*:           000018H   BYTE   UNIT     CODE           ?PR?_CYINTGETVECTOR?CYLIB
   *DEL*:           000014H   BYTE   UNIT     CODE           ?PR?_CYINTGETPRIORITY?CYLIB
   *DEL*:           000036H   BYTE   UNIT     CODE           ?PR?_CYINTGETSTATE?CYLIB
   *DEL*:           000248H   BYTE   UNIT     CODE           ?PR?_CYGETUNIQUEID?CYLIB
   *DEL*:           000003H   BYTE   UNIT     XDATA          ?XD?_CYGETUNIQUEID?CYLIB
   *DEL*:           00001EH   BYTE   UNIT     CODE           ?PR?SPI_IMU_STOP?SPI_IMU
   *DEL*:           000001H   BYTE   UNIT     CODE           ?PR?SPI_IMU_DISABLETXINT?SPI_IMU
   *DEL*:           000001H   BYTE   UNIT     CODE           ?PR?SPI_IMU_DISABLERXINT?SPI_IMU
   *DEL*:           000006H   BYTE   UNIT     CODE           ?PR?_SPI_IMU_SETTXINTERRUPTMODE?SPI_IMU
   *DEL*:           000006H   BYTE   UNIT     CODE           ?PR?_SPI_IMU_SETRXINTERRUPTMODE?SPI_IMU
   *DEL*:           00000EH   BYTE   UNIT     CODE           ?PR?SPI_IMU_GETRXBUFFERSIZE?SPI_IMU
   *DEL*:           000017H   BYTE   UNIT     CODE           ?PR?SPI_IMU_GETTXBUFFERSIZE?SPI_IMU
   *DEL*:           00002EH   BYTE   UNIT     CODE           ?PR?_SPI_IMU_PUTARRAY?SPI_IMU
   *DEL*:           000003H   BYTE   UNIT     XDATA          ?XD?_SPI_IMU_PUTARRAY?SPI_IMU
   *DEL*:           000007H   BYTE   UNIT     CODE           ?PR?SPI_IMU_ENABLEINT?SPI_IMU
   *DEL*:           000007H   BYTE   UNIT     CODE           ?PR?SPI_IMU_DISABLEINT?SPI_IMU
   *DEL*:           00000DH   BYTE   UNIT     CODE           ?PR?_SPI_IMU_SETINTERRUPTMODE?SPI_IMU
   *DEL*:           00000DH   BYTE   UNIT     CODE           ?PR?_OPTO_PIN_SETDRIVEMODE?OPTO_PIN
   *DEL*:           000013H   BYTE   UNIT     CODE           ?PR?OPTO_PIN_READ?OPTO_PIN
   *DEL*:           000013H   BYTE   UNIT     CODE           ?PR?OPTO_PIN_READDATAREG?OPTO_PIN
   *DEL*:           000006H   BYTE   UNIT     CODE           ?PR?CHIP_SELECT_A_READ?CHIP_SELECT_A
   *DEL*:           000006H   BYTE   UNIT     CODE           ?PR?CHIP_SELECT_B_READ?CHIP_SELECT_B
   *DEL*:           000004H   BYTE   UNIT     CODE           ?PR?_CyDelay?CYBOOTASMKEIL
   *DEL*:           000019H   BYTE   UNIT     CODE           ?PR?CYMEMZERO?CYMEM
   *DEL*:           000026H   BYTE   UNIT     CODE           ?PR?CYCONFIGCPYCODE?CYMEM
   *DEL*:           00002DH   BYTE   UNIT     CODE           ?PR?CFG_WRITE_BYTES?CYMEM
   *DEL*:           00002EH   BYTE   UNIT     CODE           ?PR?CY_WRITE_BYTES_CODE?CYMEM
   *DEL*:           000015H   BYTE   UNIT     CODE           ?PR?CYREAD32?CYMEM
   *DEL*:           000015H   BYTE   UNIT     CODE           ?PR?CYWRITE32?CYMEM
   *DEL*:           0001A9H   BYTE   UNIT     CODE           ?PR?CYPMSAVECLOCKS?CYPM
   *DEL*:           00024CH   BYTE   UNIT     CODE           ?PR?CYPMRESTORECLOCKS?CYPM
   *DEL*:           000003H   BYTE   UNIT     XDATA          ?XD?CYPMRESTORECLOCKS?CYPM
   *DEL*:           0000E0H   BYTE   UNIT     CODE           ?PR?_CYPMALTACT?CYPM
   *DEL*:           000004H   BYTE   UNIT     XDATA          ?XD?_CYPMALTACT?CYPM
   *DEL*:           000160H   BYTE   UNIT     CODE           ?PR?_CYPMSLEEP?CYPM
   *DEL*:           000004H   BYTE   UNIT     XDATA          ?XD?_CYPMSLEEP?CYPM
   *DEL*:           000008H   BYTE   UNIT     CODE           ?PR?CYPMHIBERNATE?CYPM
   *DEL*:           0000D6H   BYTE   UNIT     CODE           ?PR?_CYPMHIBERNATEEX?CYPM
   *DEL*:           000003H   BYTE   UNIT     XDATA          ?XD?_CYPMHIBERNATEEX?CYPM
   *DEL*:           000039H   BYTE   UNIT     CODE           ?PR?_CYPMREADSTATUS?CYPM
   *DEL*:           000002H   BYTE   UNIT     XDATA          ?XD?_CYPMREADSTATUS?CYPM
   *DEL*:           000076H   BYTE   UNIT     CODE           ?PR?CYPMHIBSAVESET?CYPM
   *DEL*:           000040H   BYTE   UNIT     CODE           ?PR?CYPMHIBRESTORE?CYPM
   *DEL*:           000049H   BYTE   UNIT     CODE           ?PR?_CYPMCTWSETINTERVAL?CYPM
   *DEL*:           000001H   BYTE   UNIT     XDATA          ?XD?_CYPMCTWSETINTERVAL?CYPM
   *DEL*:           000017H   BYTE   UNIT     CODE           ?PR?CYPMOPPSSET?CYPM
   *DEL*:           00004DH   BYTE   UNIT     CODE           ?PR?_CYPMFTWSETINTERVAL?CYPM
   *DEL*:           000001H   BYTE   UNIT     XDATA          ?XD?_CYPMFTWSETINTERVAL?CYPM
   *DEL*:           00018CH   BYTE   UNIT     CODE           ?PR?CYPMHIBSLPSAVESET?CYPM
   *DEL*:           00010DH   BYTE   UNIT     CODE           ?PR?CYPMHIBSLPRESTORE?CYPM
   *DEL*:           000082H   BYTE   UNIT     CODE           ?PR?CYPMHVILVISAVEDISABLE?CYPM
   *DEL*:           000033H   BYTE   UNIT     CODE           ?PR?CYPMHVILVIRESTORE?CYPM
   *DEL*:           00000EH   BYTE   UNIT     CONST          ?CO?CYPM
   *DEL*:           000015H   BYTE   UNIT     CODE           ?PR?CYSPCSTOP?CYSPC
   *DEL*:           0000A7H   BYTE   UNIT     CODE           ?PR?_CYSPCLOADMULTIBYTE?CYSPC
   *DEL*:           000007H   BYTE   UNIT     XDATA          ?XD?_CYSPCLOADMULTIBYTE?CYSPC
LX51 LINKER/LOCATER V4.64.0.0                                                         03/12/2018  09:19:57  PAGE 10


   *DEL*:           000143H   BYTE   UNIT     CODE           ?PR?_CYSPCLOADROWFULL?CYSPC
   *DEL*:           00000FH   BYTE   UNIT     XDATA          ?XD?_CYSPCLOADROWFULL?CYSPC
   *DEL*:           000030H   BYTE   UNIT     CODE           ?PR?_CYSPCERASESECTOR?CYSPC
   *DEL*:           00000FH   BYTE   UNIT     CODE           ?PR?SPI_IMU_INTCLOCK_STOP?SPI_IMU_INTCLOCK
   *DEL*:           00006EH   BYTE   UNIT     CODE           ?PR?SPI_IMU_INTCLOCK_STOPBLOCK?SPI_IMU_INTCLOCK
   *DEL*:           000002H   BYTE   UNIT     XDATA          ?XD?SPI_IMU_INTCLOCK_STOPBLOCK?SPI_IMU_INTCLOCK
   *DEL*:           000013H   BYTE   UNIT     CODE           ?PR?_SPI_IMU_INTCLOCK_STANDBYPOWER?SPI_IMU_INTCLOCK
   *DEL*:           000131H   BYTE   UNIT     CODE           ?PR?_SPI_IMU_INTCLOCK_SETDIVIDERREGISTER?SPI_IMU_INTCLOCK
   *DEL*:           000007H   BYTE   UNIT     XDATA          ?XD?_SPI_IMU_INTCLOCK_SETDIVIDERREGISTER?SPI_IMU_INTCLOCK
   *DEL*:           00000AH   BYTE   UNIT     CODE           ?PR?SPI_IMU_INTCLOCK_GETDIVIDERREGISTER?SPI_IMU_INTCLOCK
   *DEL*:           00000DH   BYTE   UNIT     CODE           ?PR?_SPI_IMU_INTCLOCK_SETMODEREGISTER?SPI_IMU_INTCLOCK
   *DEL*:           00000EH   BYTE   UNIT     CODE           ?PR?_SPI_IMU_INTCLOCK_CLEARMODEREGISTER?SPI_IMU_INTCLOCK
   *DEL*:           000008H   BYTE   UNIT     CODE           ?PR?SPI_IMU_INTCLOCK_GETMODEREGISTER?SPI_IMU_INTCLOCK
   *DEL*:           000062H   BYTE   UNIT     CODE           ?PR?_SPI_IMU_INTCLOCK_SETSOURCEREGISTER?SPI_IMU_INTCLOCK
   *DEL*:           000003H   BYTE   UNIT     XDATA          ?XD?_SPI_IMU_INTCLOCK_SETSOURCEREGISTER?SPI_IMU_INTCLOCK
   *DEL*:           000008H   BYTE   UNIT     CODE           ?PR?SPI_IMU_INTCLOCK_GETSOURCEREGISTER?SPI_IMU_INTCLOCK



OVERLAY MAP OF MODULE:   .\DP8051_Keil_951\Release\firmware.omf (COMMAND_PROCESSING)


FUNCTION/MODULE                                BIT_GROUP   DATA_GROUP   XDATA_GROUP
--> CALLED FUNCTION/MODULE                    START  STOP  START  STOP  START  STOP
===================================================================================
ISR_RS485_RX_EXINTERRUPT/INTERRUPTIONS        ----- -----  ----- -----  ----- -----

*** NEW ROOT ********************************

ISR_RS485_RX_INTERRUPT/ISR_RS485_RX           ----- -----  ----- -----  ----- -----

*** NEW ROOT ********************************

?C_C51STARTUP                                 ----- -----  ----- -----  ----- -----
  +--> ?CO?KEILSTART?3
  +--> CYFITTER_CFG/CYFITTER_CFG
  +--> MAIN/MAIN
  +--> ?C_INITSEG

?CO?KEILSTART?3                               ----- -----  ----- -----  ----- -----

CYFITTER_CFG/CYFITTER_CFG                     ----- -----  ----- -----  ----- -----
  +--> CYREAD8/CYMEM
  +--> CYWRITE8/CYMEM
  +--> CFG_DMA_INIT/CYFITTER_CFG
  +--> _CYCONFIGCPY/CYMEM
  +--> CLOCKSETUP/CYFITTER_CFG
  +--> ANALOGSETDEFAULT/CYFITTER_CFG

CYREAD8/CYMEM                                 ----- -----  ----- -----  ----- -----

CYWRITE8/CYMEM                                ----- -----  ----- -----  ----- -----

CFG_DMA_INIT/CYFITTER_CFG                     ----- -----  ----- -----  ----- -----
  +--> CYWRITE16/CYMEM
  +--> ?CO?CYFITTER_CFG

CYWRITE16/CYMEM                               ----- -----  ----- -----  ----- -----

?CO?CYFITTER_CFG                              ----- -----  ----- -----  ----- -----

_CYCONFIGCPY/CYMEM                            ----- -----  ----- -----  0000H 0007H

CLOCKSETUP/CYFITTER_CFG                       ----- -----  ----- -----  0000H 0004H
  +--> CYWRITE16/CYMEM
LX51 LINKER/LOCATER V4.64.0.0                                                         03/12/2018  09:19:57  PAGE 11


  +--> CYREAD8/CYMEM
  +--> CYDELAYCYCLES/CYBOOTASMKEIL
  +--> _CYCLOCKSTARTUPERROR/CYFITTER_CFG

CYDELAYCYCLES/CYBOOTASMKEIL                   ----- -----  ----- -----  ----- -----

_CYCLOCKSTARTUPERROR/CYFITTER_CFG             ----- -----  ----- -----  ----- -----

ANALOGSETDEFAULT/CYFITTER_CFG                 ----- -----  ----- -----  ----- -----
  +--> CYREAD8/CYMEM

MAIN/MAIN                                     ----- -----  ----- -----  ----- -----
  +--> EEPROM_START/EEPROM
  +--> MEMRECALL/COMMAND_PROCESSING
  +--> _?CYDELAY/CYLIB
  +--> _FTDI_ENABLE_REG_WRITE/FTDI_ENABLE_REG
  +--> UART_RS485_STOP/UART_RS485
  +--> UART_RS485_START/UART_RS485
  +--> UART_RS485_INIT/UART_RS485
  +--> UART_RS485_CLEARRXBUFFER/UART_RS485
  +--> UART_RS485_CLEARTXBUFFER/UART_RS485
  +--> _ISR_RS485_RX_STARTEX/ISR_RS485_RX
  +--> _RS485_CTS_WRITE/RS485_CTS
  +--> MY_TIMER_START/MY_TIMER
  +--> PACER_TIMER_START/PACER_TIMER
  +--> SPI_IMU_START/SPI_IMU
  +--> SPI_IMU_INIT/SPI_IMU
  +--> SPI_IMU_ENABLE/SPI_IMU
  +--> SPI_IMU_CLEARRXBUFFER/SPI_IMU
  +--> SPI_IMU_CLEARTXBUFFER/SPI_IMU
  +--> SPI_IMU_CLEARFIFO/SPI_IMU
  +--> _OPTO_PIN_WRITE/OPTO_PIN
  +--> INITIMUGENERAL/IMU_FUNCTIONS
  +--> _RESET_FF_WRITE/RESET_FF
  +--> FUNCTION_SCHEDULER/INTERRUPTIONS
  +--> FF_STATUS_READ/FF_STATUS
  +--> INTERRUPT_MANAGER/INTERRUPTIONS
  +--> UART_RS485_READRXSTATUS/UART_RS485

EEPROM_START/EEPROM                           ----- -----  ----- -----  ----- -----
  +--> EEPROM_ENABLE/EEPROM

EEPROM_ENABLE/EEPROM                          ----- -----  ----- -----  ----- -----
  +--> CYSETTEMP/CYFLASH
  +--> CYEEPROM_START/CYFLASH

CYSETTEMP/CYFLASH                             ----- -----  ----- -----  0007H 0007H
  +--> CYFLASHGETSPCALGORITHM/CYFLASH
  +--> CYSETTEMPINT/CYFLASH

CYFLASHGETSPCALGORITHM/CYFLASH                ----- -----  ----- -----  0008H 0008H
  +--> CYSPCSTART/CYSPC
  +--> CYSPCLOCK/CYSPC
  +--> CYSPCGETALGORITHM/CYSPC
  +--> CYDELAYUS/CYBOOTASMKEIL
  +--> CYSPCUNLOCK/CYSPC

CYSPCSTART/CYSPC                              ----- -----  ----- -----  ----- -----
  +--> CYENTERCRITICALSECTION/CYBOOTASMKEIL
  +--> CYEXITCRITICALSECTION/CYBOOTASMKEIL

CYENTERCRITICALSECTION/CYBOOTASMKEIL          ----- -----  ----- -----  ----- -----

CYEXITCRITICALSECTION/CYBOOTASMKEIL           ----- -----  ----- -----  ----- -----

LX51 LINKER/LOCATER V4.64.0.0                                                         03/12/2018  09:19:57  PAGE 12


CYSPCLOCK/CYSPC                               ----- -----  ----- -----  000CH 000CH
  +--> CYENTERCRITICALSECTION/CYBOOTASMKEIL
  +--> CYEXITCRITICALSECTION/CYBOOTASMKEIL

CYSPCGETALGORITHM/CYSPC                       ----- -----  ----- -----  ----- -----

CYDELAYUS/CYBOOTASMKEIL                       ----- -----  ----- -----  ----- -----
  +--> CYDELAYCYCLES/CYBOOTASMKEIL

CYSPCUNLOCK/CYSPC                             ----- -----  ----- -----  ----- -----
  +--> CYENTERCRITICALSECTION/CYBOOTASMKEIL
  +--> CYEXITCRITICALSECTION/CYBOOTASMKEIL

CYSETTEMPINT/CYFLASH                          ----- -----  ----- -----  0008H 0008H
  +--> CYSPCSTART/CYSPC
  +--> CYSPCLOCK/CYSPC
  +--> _CYSPCGETTEMP/CYSPC
  +--> _CYSPCREADDATA/CYSPC
  +--> CYDELAYUS/CYBOOTASMKEIL
  +--> CYSPCUNLOCK/CYSPC

_CYSPCGETTEMP/CYSPC                           ----- -----  ----- -----  ----- -----

_CYSPCREADDATA/CYSPC                          ----- -----  ----- -----  0009H 000DH
  +--> CYDELAYUS/CYBOOTASMKEIL

CYEEPROM_START/CYFLASH                        ----- -----  ----- -----  ----- -----
  +--> CYENTERCRITICALSECTION/CYBOOTASMKEIL
  +--> CYEXITCRITICALSECTION/CYBOOTASMKEIL

MEMRECALL/COMMAND_PROCESSING                  ----- -----  ----- -----  ----- -----
  +--> MEMRESTORE/COMMAND_PROCESSING

MEMRESTORE/COMMAND_PROCESSING                 ----- -----  ----- -----  ----- -----
  +--> MEMINIT/COMMAND_PROCESSING
  +--> _MEMSTORE/COMMAND_PROCESSING

MEMINIT/COMMAND_PROCESSING                    ----- -----  ----- -----  ----- -----
  +--> _MEMSTORE/COMMAND_PROCESSING

_MEMSTORE/COMMAND_PROCESSING                  ----- -----  ----- -----  0000H 0006H
  +--> ISR_RS485_RX_DISABLE/ISR_RS485_RX
  +--> CYSETTEMP/CYFLASH
  +--> _EEPROM_WRITE/EEPROM
  +--> ISR_RS485_RX_ENABLE/ISR_RS485_RX

ISR_RS485_RX_DISABLE/ISR_RS485_RX             ----- -----  ----- -----  ----- -----

_EEPROM_WRITE/EEPROM                          ----- -----  ----- -----  0007H 000BH
  +--> CYSPCSTART/CYSPC
  +--> CYSPCLOCK/CYSPC
  +--> _CYSPCLOADROW/CYSPC
  +--> _CYSPCWRITEROW/CYSPC
  +--> CYSPCUNLOCK/CYSPC

_CYSPCLOADROW/CYSPC                           ----- -----  ----- -----  000CH 0012H

_CYSPCWRITEROW/CYSPC                          ----- -----  ----- -----  000CH 0010H

ISR_RS485_RX_ENABLE/ISR_RS485_RX              ----- -----  ----- -----  ----- -----

_?CYDELAY/CYLIB                               ----- -----  ----- -----  ----- -----
  +--> CYDELAYCYCLES/CYBOOTASMKEIL

_FTDI_ENABLE_REG_WRITE/FTDI_ENABLE_REG        ----- -----  ----- -----  ----- -----
LX51 LINKER/LOCATER V4.64.0.0                                                         03/12/2018  09:19:57  PAGE 13



UART_RS485_STOP/UART_RS485                    ----- -----  ----- -----  ----- -----
  +--> CYENTERCRITICALSECTION/CYBOOTASMKEIL
  +--> CYEXITCRITICALSECTION/CYBOOTASMKEIL

UART_RS485_START/UART_RS485                   ----- -----  ----- -----  ----- -----
  +--> UART_RS485_INIT/UART_RS485
  +--> UART_RS485_ENABLE/UART_RS485

UART_RS485_INIT/UART_RS485                    ----- -----  ----- -----  ----- -----
  +--> _CYINTSETVECTOR/CYLIB
  +--> _CYINTSETPRIORITY/CYLIB

_CYINTSETVECTOR/CYLIB                         ----- -----  ----- -----  0000H 0004H
  +--> CYREAD16/CYMEM
  +--> CYWRITE16/CYMEM

CYREAD16/CYMEM                                ----- -----  ----- -----  ----- -----

_CYINTSETPRIORITY/CYLIB                       ----- -----  ----- -----  ----- -----

UART_RS485_ENABLE/UART_RS485                  ----- -----  ----- -----  ----- -----
  +--> CYENTERCRITICALSECTION/CYBOOTASMKEIL
  +--> CYEXITCRITICALSECTION/CYBOOTASMKEIL

UART_RS485_CLEARRXBUFFER/UART_RS485           ----- -----  ----- -----  ----- -----
  +--> CYENTERCRITICALSECTION/CYBOOTASMKEIL
  +--> CYEXITCRITICALSECTION/CYBOOTASMKEIL

UART_RS485_CLEARTXBUFFER/UART_RS485           ----- -----  ----- -----  ----- -----
  +--> CYENTERCRITICALSECTION/CYBOOTASMKEIL
  +--> CYEXITCRITICALSECTION/CYBOOTASMKEIL

_ISR_RS485_RX_STARTEX/ISR_RS485_RX            ----- -----  ----- -----  0000H 0001H
  +--> ISR_RS485_RX_DISABLE/ISR_RS485_RX
  +--> _ISR_RS485_RX_SETVECTOR/ISR_RS485_RX
  +--> _ISR_RS485_RX_SETPRIORITY/ISR_RS485_RX
  +--> ISR_RS485_RX_ENABLE/ISR_RS485_RX

_ISR_RS485_RX_SETVECTOR/ISR_RS485_RX          ----- -----  ----- -----  ----- -----
  +--> CYWRITE16/CYMEM

_ISR_RS485_RX_SETPRIORITY/ISR_RS485_RX        ----- -----  ----- -----  ----- -----

_RS485_CTS_WRITE/RS485_CTS                    ----- -----  ----- -----  ----- -----

MY_TIMER_START/MY_TIMER                       ----- -----  ----- -----  ----- -----
  +--> MY_TIMER_INIT/MY_TIMER
  +--> MY_TIMER_ENABLE/MY_TIMER

MY_TIMER_INIT/MY_TIMER                        ----- -----  ----- -----  ----- -----
  +--> _MY_TIMER_WRITEPERIOD/MY_TIMER
  +--> _MY_TIMER_WRITECOUNTER/MY_TIMER
  +--> CYENTERCRITICALSECTION/CYBOOTASMKEIL
  +--> CYEXITCRITICALSECTION/CYBOOTASMKEIL
  +--> MY_TIMER_CLEARFIFO/MY_TIMER
  +--> _MY_TIMER_SETINTERRUPTMODE/MY_TIMER

_MY_TIMER_WRITEPERIOD/MY_TIMER                ----- -----  ----- -----  ----- -----
  +--> CYWRITE24/CYMEM

CYWRITE24/CYMEM                               ----- -----  ----- -----  ----- -----

_MY_TIMER_WRITECOUNTER/MY_TIMER               ----- -----  ----- -----  ----- -----
  +--> CYWRITE24/CYMEM
LX51 LINKER/LOCATER V4.64.0.0                                                         03/12/2018  09:19:57  PAGE 14



MY_TIMER_CLEARFIFO/MY_TIMER                   ----- -----  ----- -----  ----- -----
  +--> MY_TIMER_READSTATUSREGISTER/MY_TIMER
  +--> MY_TIMER_READCAPTURE/MY_TIMER

MY_TIMER_READSTATUSREGISTER/MY_TIMER          ----- -----  ----- -----  ----- -----

MY_TIMER_READCAPTURE/MY_TIMER                 ----- -----  ----- -----  ----- -----
  +--> CYREAD24/CYMEM

CYREAD24/CYMEM                                ----- -----  ----- -----  ----- -----

_MY_TIMER_SETINTERRUPTMODE/MY_TIMER           ----- -----  ----- -----  ----- -----

MY_TIMER_ENABLE/MY_TIMER                      ----- -----  ----- -----  ----- -----

PACER_TIMER_START/PACER_TIMER                 ----- -----  ----- -----  ----- -----
  +--> PACER_TIMER_INIT/PACER_TIMER
  +--> PACER_TIMER_ENABLE/PACER_TIMER

PACER_TIMER_INIT/PACER_TIMER                  ----- -----  ----- -----  ----- -----
  +--> _PACER_TIMER_WRITEPERIOD/PACER_TIMER
  +--> _PACER_TIMER_WRITECOUNTER/PACER_TIMER
  +--> _PACER_TIMER_SETINTERRUPTMODE/PACER_TIMER

_PACER_TIMER_WRITEPERIOD/PACER_TIMER          ----- -----  ----- -----  ----- -----
  +--> CYWRITE16/CYMEM

_PACER_TIMER_WRITECOUNTER/PACER_TIMER         ----- -----  ----- -----  ----- -----
  +--> CYWRITE16/CYMEM

_PACER_TIMER_SETINTERRUPTMODE/PACER_TIME+     ----- -----  ----- -----  ----- -----
... R

PACER_TIMER_ENABLE/PACER_TIMER                ----- -----  ----- -----  ----- -----

SPI_IMU_START/SPI_IMU                         ----- -----  ----- -----  ----- -----
  +--> SPI_IMU_INIT/SPI_IMU
  +--> SPI_IMU_ENABLE/SPI_IMU

SPI_IMU_INIT/SPI_IMU                          ----- -----  ----- -----  ----- -----
  +--> SPI_IMU_CLEARFIFO/SPI_IMU
  +--> SPI_IMU_READTXSTATUS/SPI_IMU
  +--> SPI_IMU_READRXSTATUS/SPI_IMU

SPI_IMU_CLEARFIFO/SPI_IMU                     ----- -----  ----- -----  ----- -----
  +--> CYENTERCRITICALSECTION/CYBOOTASMKEIL
  +--> CYEXITCRITICALSECTION/CYBOOTASMKEIL

SPI_IMU_READTXSTATUS/SPI_IMU                  ----- -----  ----- -----  ----- -----

SPI_IMU_READRXSTATUS/SPI_IMU                  ----- -----  ----- -----  ----- -----

SPI_IMU_ENABLE/SPI_IMU                        ----- -----  ----- -----  ----- -----
  +--> CYENTERCRITICALSECTION/CYBOOTASMKEIL
  +--> CYEXITCRITICALSECTION/CYBOOTASMKEIL
  +--> SPI_IMU_INTCLOCK_START/SPI_IMU_INTCLOCK
  +--> SPI_IMU_ENABLETXINT/SPI_IMU
  +--> SPI_IMU_ENABLERXINT/SPI_IMU

SPI_IMU_INTCLOCK_START/SPI_IMU_INTCLOCK       ----- -----  ----- -----  ----- -----

SPI_IMU_ENABLETXINT/SPI_IMU                   ----- -----  ----- -----  ----- -----

SPI_IMU_ENABLERXINT/SPI_IMU                   ----- -----  ----- -----  ----- -----
LX51 LINKER/LOCATER V4.64.0.0                                                         03/12/2018  09:19:57  PAGE 15



SPI_IMU_CLEARRXBUFFER/SPI_IMU                 ----- -----  ----- -----  ----- -----

SPI_IMU_CLEARTXBUFFER/SPI_IMU                 ----- -----  ----- -----  ----- -----
  +--> CYENTERCRITICALSECTION/CYBOOTASMKEIL
  +--> CYEXITCRITICALSECTION/CYBOOTASMKEIL

_OPTO_PIN_WRITE/OPTO_PIN                      ----- -----  ----- -----  ----- -----

INITIMUGENERAL/IMU_FUNCTIONS                  ----- -----  ----- -----  0000H 0025H
  +--> _CHIPSELECTOR/IMU_FUNCTIONS
  +--> _?CYDELAY/CYLIB
  +--> _READCONTROLREGISTER/IMU_FUNCTIONS
  +--> _OPTO_PIN_WRITE/OPTO_PIN
  +--> INITIMU/IMU_FUNCTIONS
  +--> INITIMUMAGCAL/IMU_FUNCTIONS
  +--> _READMAGCAL/IMU_FUNCTIONS

_CHIPSELECTOR/IMU_FUNCTIONS                   ----- -----  ----- -----  0026H 0027H
  +--> _CHIP_SELECT_A_WRITE/CHIP_SELECT_A
  +--> _CHIP_SELECT_B_WRITE/CHIP_SELECT_B

_CHIP_SELECT_A_WRITE/CHIP_SELECT_A            ----- -----  ----- -----  ----- -----

_CHIP_SELECT_B_WRITE/CHIP_SELECT_B            ----- -----  ----- -----  ----- -----

_READCONTROLREGISTER/IMU_FUNCTIONS            ----- -----  ----- -----  ----- -----
  +--> _SPI_IMU_WRITETXDATA/SPI_IMU
  +--> SPI_IMU_READSTATUS/SPI_IMU
  +--> SPI_IMU_READRXDATA/SPI_IMU

_SPI_IMU_WRITETXDATA/SPI_IMU                  ----- -----  ----- -----  ----- -----

SPI_IMU_READSTATUS/SPI_IMU                    ----- -----  ----- -----  ----- -----

SPI_IMU_READRXDATA/SPI_IMU                    ----- -----  ----- -----  ----- -----

INITIMU/IMU_FUNCTIONS                         ----- -----  ----- -----  ----- -----
  +--> _WRITECONTROLREGISTER/IMU_FUNCTIONS
  +--> _?CYDELAY/CYLIB

_WRITECONTROLREGISTER/IMU_FUNCTIONS           ----- -----  ----- -----  0026H 0027H
  +--> SPI_IMU_CLEARRXBUFFER/SPI_IMU
  +--> SPI_IMU_CLEARTXBUFFER/SPI_IMU
  +--> SPI_IMU_CLEARFIFO/SPI_IMU
  +--> _SPI_IMU_WRITETXDATA/SPI_IMU
  +--> SPI_IMU_READSTATUS/SPI_IMU

INITIMUMAGCAL/IMU_FUNCTIONS                   ----- -----  ----- -----  ----- -----
  +--> _WRITECONTROLREGISTER/IMU_FUNCTIONS
  +--> _?CYDELAY/CYLIB

_READMAGCAL/IMU_FUNCTIONS                     ----- -----  ----- -----  0026H 0028H
  +--> _READCONTROLREGISTER/IMU_FUNCTIONS

_RESET_FF_WRITE/RESET_FF                      ----- -----  ----- -----  ----- -----

FUNCTION_SCHEDULER/INTERRUPTIONS              ----- -----  ----- -----  ----- -----
  +--> MY_TIMER_READCOUNTER/MY_TIMER
  +--> INTERRUPT_MANAGER/INTERRUPTIONS
  +--> READALLIMUS/IMU_FUNCTIONS
  +--> _MY_TIMER_WRITECOUNTER/MY_TIMER

MY_TIMER_READCOUNTER/MY_TIMER                 ----- -----  ----- -----  ----- -----
  +--> CYREAD24/CYMEM
LX51 LINKER/LOCATER V4.64.0.0                                                         03/12/2018  09:19:57  PAGE 16



INTERRUPT_MANAGER/INTERRUPTIONS               20H.0 20H.0  0008H 0009H  ----- -----
  +--> UART_RS485_GETRXBUFFERSIZE/UART_RS485
  +--> UART_RS485_GETCHAR/UART_RS485
  +--> _INFOGET/COMMAND_PROCESSING
  +--> COMMPROCESS/COMMAND_PROCESSING
  +--> _RS485_CTS_WRITE/RS485_CTS

UART_RS485_GETRXBUFFERSIZE/UART_RS485         ----- -----  ----- -----  ----- -----

UART_RS485_GETCHAR/UART_RS485                 ----- -----  ----- -----  ----- -----

_INFOGET/COMMAND_PROCESSING                   ----- -----  ----- -----  ----- -----
  +--> _INFOPREPARE/COMMAND_PROCESSING
  +--> _UART_RS485_PUTSTRING/UART_RS485
  +--> _INFOREADING/COMMAND_PROCESSING

_INFOPREPARE/COMMAND_PROCESSING               ----- -----  ----- -----  0000H 0068H
  +--> ?CO?COMMAND_PROCESSING
  +--> _STRCAT/STRCAT
  +--> PRINTF/PRINTF

?CO?COMMAND_PROCESSING                        ----- -----  ----- -----  ----- -----

_STRCAT/STRCAT                                ----- -----  ----- -----  08AEH 08B6H

PRINTF/PRINTF                                 20H.1 21H.1  001AH 001EH  08AEH 08DDH
  +--> PUTCHAR/PUTCHAR

PUTCHAR/PUTCHAR                               ----- -----  ----- -----  ----- -----

_UART_RS485_PUTSTRING/UART_RS485              ----- -----  ----- -----  0000H 0002H
  +--> _UART_RS485_PUTCHAR/UART_RS485

_UART_RS485_PUTCHAR/UART_RS485                ----- -----  ----- -----  ----- -----

_INFOREADING/COMMAND_PROCESSING               ----- -----  ----- -----  0000H 0068H
  +--> ?CO?COMMAND_PROCESSING
  +--> _STRCAT/STRCAT
  +--> PRINTF/PRINTF

COMMPROCESS/COMMAND_PROCESSING                ----- -----  000AH 000AH  ----- -----
  +--> _LCRCHECKSUM/COMMAND_PROCESSING
  +--> CMD_SET_BAUDRATE/COMMAND_PROCESSING
  +--> _INFOGET/COMMAND_PROCESSING
  +--> _GET_PARAM_LIST/COMMAND_PROCESSING
  +--> CMD_PING/COMMAND_PROCESSING
  +--> CMD_STORE_PARAMS/COMMAND_PROCESSING
  +--> _MEMSTORE/COMMAND_PROCESSING
  +--> _SENDACKNOWLEDGMENT/COMMAND_PROCESSING
  +--> MEMRESTORE/COMMAND_PROCESSING
  +--> MEMINIT/COMMAND_PROCESSING
  +--> _?CYDELAY/CYLIB
  +--> _FTDI_ENABLE_REG_WRITE/FTDI_ENABLE_REG
  +--> BOOTLOADABLE_LOAD/BOOTLOADABLE
  +--> CMD_GET_IMU_READINGS/COMMAND_PROCESSING

_LCRCHECKSUM/COMMAND_PROCESSING               ----- -----  001AH 001BH  08AEH 08B0H

CMD_SET_BAUDRATE/COMMAND_PROCESSING           ----- -----  ----- -----  ----- -----
  +--> _CLOCK_UART_SETDIVIDERREGISTER/CLOCK_UART

_CLOCK_UART_SETDIVIDERREGISTER/CLOCK_UAR+     ----- -----  ----- -----  0000H 0006H
... T
  +--> CLOCK_UART_GETSOURCEREGISTER/CLOCK_UART
LX51 LINKER/LOCATER V4.64.0.0                                                         03/12/2018  09:19:57  PAGE 17


  +--> CLOCK_UART_GETDIVIDERREGISTER/CLOCK_UART
  +--> CYWRITE16/CYMEM

CLOCK_UART_GETSOURCEREGISTER/CLOCK_UART       ----- -----  ----- -----  ----- -----

CLOCK_UART_GETDIVIDERREGISTER/CLOCK_UART      ----- -----  ----- -----  ----- -----
  +--> CYREAD16/CYMEM

_GET_PARAM_LIST/COMMAND_PROCESSING            ----- -----  000BH 0019H  0000H 08ADH
  +--> ?CO?COMMAND_PROCESSING
  +--> _STRLEN/STRLEN
  +--> PRINTF/PRINTF
  +--> _STRCAT/STRCAT
  +--> _LCRCHECKSUM/COMMAND_PROCESSING
  +--> _COMMWRITE/COMMAND_PROCESSING
  +--> UART_RS485_CLEARTXBUFFER/UART_RS485

_STRLEN/STRLEN                                ----- -----  ----- -----  ----- -----

_COMMWRITE/COMMAND_PROCESSING                 ----- -----  001AH 001BH  08AEH 08B2H
  +--> _UART_RS485_PUTCHAR/UART_RS485
  +--> UART_RS485_READTXSTATUS/UART_RS485
  +--> _RS485_CTS_WRITE/RS485_CTS

UART_RS485_READTXSTATUS/UART_RS485            ----- -----  ----- -----  ----- -----

CMD_PING/COMMAND_PROCESSING                   ----- -----  ----- -----  0000H 0001H
  +--> _COMMWRITE/COMMAND_PROCESSING

CMD_STORE_PARAMS/COMMAND_PROCESSING           ----- -----  ----- -----  ----- -----
  +--> _MEMSTORE/COMMAND_PROCESSING
  +--> _SENDACKNOWLEDGMENT/COMMAND_PROCESSING

_SENDACKNOWLEDGMENT/COMMAND_PROCESSING        ----- -----  ----- -----  0000H 0001H
  +--> _COMMWRITE/COMMAND_PROCESSING

BOOTLOADABLE_LOAD/BOOTLOADABLE                ----- -----  ----- -----  ----- -----
  +--> CYSOFTWARERESET/CYLIB

CYSOFTWARERESET/CYLIB                         ----- -----  ----- -----  ----- -----

CMD_GET_IMU_READINGS/COMMAND_PROCESSING       ----- -----  ----- -----  0000H 0177H
  +--> _LCRCHECKSUM/COMMAND_PROCESSING
  +--> _COMMWRITE/COMMAND_PROCESSING

READALLIMUS/IMU_FUNCTIONS                     ----- -----  ----- -----  0000H 0007H
  +--> _CHIPSELECTOR/IMU_FUNCTIONS
  +--> _READIMU/IMU_FUNCTIONS

_READIMU/IMU_FUNCTIONS                        ----- -----  ----- -----  0008H 0009H
  +--> _READACC/IMU_FUNCTIONS
  +--> _READGYRO/IMU_FUNCTIONS
  +--> _READMAG/IMU_FUNCTIONS
  +--> _READQUAT/IMU_FUNCTIONS
  +--> _READTEMP/IMU_FUNCTIONS

_READACC/IMU_FUNCTIONS                        ----- -----  ----- -----  005FH 0062H
  +--> _READCONTROLREGISTER/IMU_FUNCTIONS
  +--> SPI_DELAY/IMU_FUNCTIONS

SPI_DELAY/IMU_FUNCTIONS                       ----- -----  ----- -----  ----- -----
  +--> CYDELAYUS/CYBOOTASMKEIL

_READGYRO/IMU_FUNCTIONS                       ----- -----  ----- -----  005FH 0062H
  +--> _READCONTROLREGISTER/IMU_FUNCTIONS
LX51 LINKER/LOCATER V4.64.0.0                                                         03/12/2018  09:19:57  PAGE 18


  +--> SPI_DELAY/IMU_FUNCTIONS

_READMAG/IMU_FUNCTIONS                        ----- -----  ----- -----  000AH 000DH
  +--> _READCONTROLREGISTER/IMU_FUNCTIONS
  +--> SPI_DELAY/IMU_FUNCTIONS

_READQUAT/IMU_FUNCTIONS                       ----- -----  ----- -----  000AH 005EH
  +--> _READACC/IMU_FUNCTIONS
  +--> _READGYRO/IMU_FUNCTIONS
  +--> _FABS/FABS
  +--> _V3_NORMALIZE/UTILS
  +--> _V4_NORMALIZE/UTILS

_FABS/FABS                                    ----- -----  ----- -----  ----- -----

_V3_NORMALIZE/UTILS                           ----- -----  ----- -----  005FH 0065H
  +--> _INVSQRT/UTILS

_INVSQRT/UTILS                                ----- -----  ----- -----  0066H 0075H

_V4_NORMALIZE/UTILS                           ----- -----  ----- -----  005FH 0065H
  +--> _INVSQRT/UTILS

_READTEMP/IMU_FUNCTIONS                       ----- -----  ----- -----  000AH 000DH
  +--> _READCONTROLREGISTER/IMU_FUNCTIONS
  +--> SPI_DELAY/IMU_FUNCTIONS

FF_STATUS_READ/FF_STATUS                      ----- -----  ----- -----  ----- -----

UART_RS485_READRXSTATUS/UART_RS485            ----- -----  ----- -----  ----- -----

?C_INITSEG                                    ----- -----  ----- -----  ----- -----

*** NEW ROOT ********************************

UART_RS485_RXISR/UART_RS485_INT               ----- -----  ----- -----  ----- -----



PUBLIC SYMBOLS OF MODULE:  .\DP8051_Keil_951\Release\firmware.omf (COMMAND_PROCESSING)


      VALUE       CLASS    TYPE      PUBLIC SYMBOL NAME
      =================================================
*DEL*:00000000H   XDATA    BYTE      ?_Bootloadable_SetFlashByte?BYTE
      02000000H   XDATA    BYTE      ?_cyconfigcpy?BYTE
*DEL*:00000000H   XDATA    BYTE      ?_CySpcLoadMultiByte?BYTE
      0200000CH   XDATA    BYTE      ?_CySpcLoadRow?BYTE
*DEL*:00000000H   XDATA    BYTE      ?_CySpcLoadRowFull?BYTE
      0200000CH   XDATA    BYTE      ?_CySpcWriteRow?BYTE
*DEL*:00000000H   XDATA    BYTE      ?_CyWriteRowFull?BYTE
      020008AEH   XDATA    ---       ?_PRINTF?BYTE
      020008AEH   XDATA    ---       ?_SPRINTF?BYTE
      020008AEH   XDATA    ---       ?_strcat?BYTE
      01005535H   CODE     ---       ?C?ADDXBP
      0100550FH   CODE     ---       ?C?CCASE
      010052C5H   CODE     ---       ?C?CLDOPTR
      010052ACH   CODE     ---       ?C?CLDPTR
      00000000H   NUMBER   ---       ?C?CODESEG
      0100566EH   CODE     ---       ?C?COPYAMD
      010052F2H   CODE     ---       ?C?CSTPTR
      0100507CH   CODE     ---       ?C?FCASTC
      01005077H   CODE     ---       ?C?FCASTI
      01005072H   CODE     ---       ?C?FCASTL
      01004D51H   CODE     ---       ?C?FPADD
LX51 LINKER/LOCATER V4.64.0.0                                                         03/12/2018  09:19:57  PAGE 19


      01004FEAH   CODE     ---       ?C?FPCMP
      01004FE8H   CODE     ---       ?C?FPCMP3
      01005137H   CODE     ---       ?C?FPCONVERT
      01004F4BH   CODE     ---       ?C?FPDIV
      010050B0H   CODE     ---       ?C?FPGETOPN2
      01004E42H   CODE     ---       ?C?FPMUL
      010050E5H   CODE     ---       ?C?FPNANRESULT
      01005061H   CODE     ---       ?C?FPNEG
      010050EFH   CODE     ---       ?C?FPOVERFLOW
      010050C7H   CODE     ---       ?C?FPRESULT
      010050DBH   CODE     ---       ?C?FPRESULT2
      010050FAH   CODE     ---       ?C?FPROUND
      01004D4DH   CODE     ---       ?C?FPSUB
      010050ECH   CODE     ---       ?C?FPUNDERFLOW
      0100526CH   CODE     ---       ?C?FTNPWR
      01005769H   CODE     ---       ?C?IILDX
      0100577FH   CODE     ---       ?C?ILDIX
      01005304H   CODE     ---       ?C?IMUL
      01005559H   CODE     ---       ?C?LIMUL
      010057B9H   CODE     ---       ?C?LLDCODE
      01005795H   CODE     ---       ?C?LLDIDATA
      010057ADH   CODE     ---       ?C?LLDPDATA
      0100548CH   CODE     ---       ?C?LLDPTR
      010057A1H   CODE     ---       ?C?LLDXDATA
      01005316H   CODE     ---       ?C?LMUL
      01005433H   CODE     ---       ?C?LNEG
      01005479H   CODE     ---       ?C?LSHL
      010057C9H   CODE     ---       ?C?LSTIDATA
      010057D5H   CODE     ---       ?C?LSTPDATA
      010054ACH   CODE     ---       ?C?LSTPTR
      010054C6H   CODE     ---       ?C?LSTXDATA
      01005586H   CODE     ---       ?C?MEMSET
      010054D2H   CODE     ---       ?C?OFFX256
      010054E3H   CODE     ---       ?C?OFFXADD
      010054EFH   CODE     ---       ?C?PLDIXDATA
      01005506H   CODE     ---       ?C?PSTXDATA
      01005465H   CODE     ---       ?C?SLSHR
      0100574CH   CODE     ---       ?C?STRCPYAMD
      01005441H   CODE     ---       ?C?ULCMP
      010053A1H   CODE     ---       ?C?ULDIV
      01005452H   CODE     ---       ?C?ULSHR
      00000000H   NUMBER   ---       ?C?XDATASEG
      00000000H   NUMBER   ---       ?C?XPAGE1RST
      00000093H   DATA     BYTE      ?C?XPAGE1SFR
      01007A99H   CODE     ---       ?C_START
      01002600H   CODE     NEAR LAB  ?C_STARTUP
      00000028H   DATA     ---       ?C_XBP
      01008487H   CODE     ---       _?CyDelay
*DEL*:00000000H   CODE     ---       _?CyDelayFreq
*DEL*:00000000H   CODE     ---       _?CyHalt
*DEL*:00000000H   CODE     ---       _Bootloadable_SetFlashByte
*DEL*:00000000H   CODE     NEAR LAB  _cfg_write_bytes
*DEL*:00000000H   CODE     NEAR LAB  _cfg_write_bytes_code
      01009262H   CODE     ---       _Chip_Select_A_Write
      01009268H   CODE     ---       _Chip_Select_B_Write
      01008A5CH   CODE     ---       _ChipSelector
*DEL*:00000000H   CODE     ---       _CLOCK_UART_ClearModeRegister
      010071CBH   CODE     ---       _CLOCK_UART_SetDividerRegister
*DEL*:00000000H   CODE     ---       _CLOCK_UART_SetModeRegister
*DEL*:00000000H   CODE     ---       _CLOCK_UART_SetSourceRegister
*DEL*:00000000H   CODE     ---       _CLOCK_UART_StandbyPower
      010083FAH   CODE     ---       _commWrite
*DEL*:00000000H   CODE     ---       _CyBusClk_SetDivider
      01008BA0H   CODE     NEAR LAB  _cyconfigcpy
*DEL*:00000000H   CODE     NEAR LAB  _cyconfigcpycode
LX51 LINKER/LOCATER V4.64.0.0                                                         03/12/2018  09:19:57  PAGE 20


*DEL*:00000000H   CODE     ---       _CyCpuClk_SetDivider
*DEL*:00000000H   CODE     NEAR LAB  _CyDelay
      01008C00H   CODE     NEAR LAB  _CyDelayCycles
      01008D8CH   CODE     NEAR LAB  _CyDelayUs
*DEL*:00000000H   CODE     ---       _CyEnableInts
      01008F60H   CODE     NEAR LAB  _CyExitCriticalSection
*DEL*:00000000H   CODE     ---       _CyFlash_SetWaitCycles
*DEL*:00000000H   CODE     ---       _CyGetUniqueId
*DEL*:00000000H   CODE     ---       _CyILO_SetPowerMode
*DEL*:00000000H   CODE     ---       _CyILO_SetSource
*DEL*:00000000H   CODE     ---       _CyIMO_SetFreq
*DEL*:00000000H   CODE     ---       _CyIMO_SetSource
*DEL*:00000000H   CODE     ---       _CyIMO_Start
*DEL*:00000000H   CODE     ---       _CyIntGetPriority
*DEL*:00000000H   CODE     ---       _CyIntGetState
*DEL*:00000000H   CODE     ---       _CyIntGetVector
      01008F16H   CODE     ---       _CyIntSetPriority
      010088C8H   CODE     ---       _CyIntSetVector
*DEL*:00000000H   CODE     ---       _CyMasterClk_SetDivider
*DEL*:00000000H   CODE     ---       _CyMasterClk_SetSource
*DEL*:00000000H   CODE     NEAR LAB  _cymemzero
*DEL*:00000000H   CODE     ---       _CyPLL_OUT_SetPQ
*DEL*:00000000H   CODE     ---       _CyPLL_OUT_SetSource
*DEL*:00000000H   CODE     ---       _CyPLL_OUT_Start
*DEL*:00000000H   CODE     ---       _CyPmAltAct
*DEL*:00000000H   CODE     ---       _CyPmCtwSetInterval
*DEL*:00000000H   CODE     ---       _CyPmFtwSetInterval
*DEL*:00000000H   CODE     ---       _CyPmHibernateEx
*DEL*:00000000H   CODE     ---       _CyPmReadStatus
*DEL*:00000000H   CODE     ---       _CyPmSleep
      01009108H   CODE     NEAR LAB  _cyread16
      0100910AH   CODE     NEAR LAB  _cyread16_nodpx
      01009082H   CODE     NEAR LAB  _cyread24
      01009084H   CODE     NEAR LAB  _cyread24_nodpx
*DEL*:00000000H   CODE     NEAR LAB  _cyread32
*DEL*:00000002H   CODE     NEAR LAB  _cyread32_nodpx
      01009193H   CODE     NEAR LAB  _cyread8
      01009195H   CODE     NEAR LAB  _cyread8_nodpx
*DEL*:00000000H   CODE     ---       _CySetFlashEEBuffer
*DEL*:00000000H   CODE     ---       _CySpcEraseSector
      01008D5EH   CODE     ---       _CySpcGetTemp
*DEL*:00000000H   CODE     ---       _CySpcLoadMultiByte
      01008614H   CODE     ---       _CySpcLoadRow
*DEL*:00000000H   CODE     ---       _CySpcLoadRowFull
      01008759H   CODE     ---       _CySpcReadData
      0100891CH   CODE     ---       _CySpcWriteRow
*DEL*:00000000H   CODE     ---       _CyUsbClk_SetSource
*DEL*:00000000H   CODE     ---       _CyVdLvAnalogEnable
*DEL*:00000000H   CODE     ---       _CyVdLvDigitEnable
*DEL*:00000000H   CODE     ---       _CyVdStickyStatus
*DEL*:00000000H   CODE     ---       _CyWdtStart
      01009117H   CODE     NEAR LAB  _cywrite16
      01009119H   CODE     NEAR LAB  _cywrite16_nodpx
      010090B9H   CODE     NEAR LAB  _cywrite24
      010090BBH   CODE     NEAR LAB  _cywrite24_nodpx
*DEL*:00000000H   CODE     NEAR LAB  _cywrite32
*DEL*:00000002H   CODE     NEAR LAB  _cywrite32_nodpx
      0100919FH   CODE     NEAR LAB  _cywrite8
      010091A1H   CODE     NEAR LAB  _cywrite8_nodpx
*DEL*:00000000H   CODE     ---       _CyWriteRowData
*DEL*:00000000H   CODE     ---       _CyWriteRowFull
*DEL*:00000000H   CODE     ---       _CyXTAL_32KHZ_SetPowerMode
*DEL*:00000000H   CODE     ---       _CyXTAL_SetFbVoltage
*DEL*:00000000H   CODE     ---       _CyXTAL_SetStartup
*DEL*:00000000H   CODE     ---       _CyXTAL_SetWdVoltage
LX51 LINKER/LOCATER V4.64.0.0                                                         03/12/2018  09:19:57  PAGE 21


*DEL*:00000000H   CODE     ---       _CyXTAL_Start
      01002604H   CODE     NEAR LAB  _dma_wait
*DEL*:00000000H   CODE     ---       _EEPROM_ByteWritePos
*DEL*:00000000H   CODE     ---       _EEPROM_EraseSector
*DEL*:00000000H   CODE     ---       _EEPROM_ReadByte
*DEL*:00000000H   CODE     ---       _EEPROM_StartErase
*DEL*:00000000H   CODE     ---       _EEPROM_StartWrite
      01007FA8H   CODE     ---       _EEPROM_Write
*DEL*:00000000H   CODE     ---       _EEPROM_WriteByte
      01009186H   CODE     ---       _FABS
*DEL*:00000000H   CODE     ---       _FF_STATUS_WriteMask
      01009232H   CODE     ---       _FTDI_ENABLE_REG_Write
      0100261AH   CODE     ---       _get_param_list
      01008CCFH   CODE     ---       _infoGet
      010057E1H   CODE     ---       _infoPrepare
      010061DDH   CODE     ---       _infoReading
      01007DD7H   CODE     ---       _invSqrt
      010091B7H   CODE     ---       _ISR_RS485_RX_SetPriority
      01009135H   CODE     ---       _ISR_RS485_RX_SetVector
      01008E85H   CODE     ---       _ISR_RS485_RX_StartEx
      01008C3BH   CODE     ---       _LCRChecksum
      01008206H   CODE     ---       _memStore
      01009244H   CODE     ---       _MY_TIMER_SetInterruptMode
*DEL*:00000000H   CODE     ---       _MY_TIMER_WriteControlRegister
      010091E9H   CODE     ---       _MY_TIMER_WriteCounter
      010091D5H   CODE     ---       _MY_TIMER_WritePeriod
*DEL*:00000000H   CODE     ---       _Opto_Pin_SetDriveMode
      010090CBH   CODE     ---       _Opto_Pin_Write
      01009226H   CODE     ---       _PACER_TIMER_SetInterruptMode
*DEL*:00000000H   CODE     ---       _PACER_TIMER_WriteControlRegister
      01009151H   CODE     ---       _PACER_TIMER_WriteCounter
      01009143H   CODE     ---       _PACER_TIMER_WritePeriod
      01005DC5H   CODE     ---       _PRINTF
      01008DB9H   CODE     ---       _PUTCHAR
      0100778CH   CODE     ---       _ReadAcc
      01008F78H   CODE     ---       _ReadControlRegister
      010078A8H   CODE     ---       _ReadGyro
      010082B4H   CODE     ---       _ReadIMU
      01007ADEH   CODE     ---       _ReadMag
      0100850FH   CODE     ---       _ReadMagCal
      010034DCH   CODE     ---       _ReadQuat
      010087B9H   CODE     ---       _ReadTemp
      01009238H   CODE     ---       _RESET_FF_Write
      0100922CH   CODE     ---       _RS485_CTS_Write
      01008FA5H   CODE     ---       _sendAcknowledgment
*DEL*:00000000H   CODE     ---       _SetAnalogRoutingPumps
*DEL*:00000000H   CODE     ---       _SPI_IMU_IntClock_ClearModeRegister
*DEL*:00000000H   CODE     ---       _SPI_IMU_IntClock_SetDividerRegister
*DEL*:00000000H   CODE     ---       _SPI_IMU_IntClock_SetModeRegister
*DEL*:00000000H   CODE     ---       _SPI_IMU_IntClock_SetSourceRegister
*DEL*:00000000H   CODE     ---       _SPI_IMU_IntClock_StandbyPower
*DEL*:00000000H   CODE     ---       _SPI_IMU_PutArray
*DEL*:00000000H   CODE     ---       _SPI_IMU_SetInterruptMode
*DEL*:00000000H   CODE     ---       _SPI_IMU_SetRxInterruptMode
*DEL*:00000000H   CODE     ---       _SPI_IMU_SetTxInterruptMode
      01009179H   CODE     ---       _SPI_IMU_WriteTxData
      01005DBFH   CODE     ---       _SPRINTF
      01008687H   CODE     ---       _strcat
      01008FF9H   CODE     ---       _STRLEN
*DEL*:00000000H   CODE     ---       _UART_RS485_PutArray
      0100915FH   CODE     ---       _UART_RS485_PutChar
*DEL*:00000000H   CODE     ---       _UART_RS485_PutCRLF
      01008B6CH   CODE     ---       _UART_RS485_PutString
*DEL*:00000000H   CODE     ---       _UART_RS485_SendBreak
*DEL*:00000000H   CODE     ---       _UART_RS485_SetRxAddress1
LX51 LINKER/LOCATER V4.64.0.0                                                         03/12/2018  09:19:57  PAGE 22


*DEL*:00000000H   CODE     ---       _UART_RS485_SetRxAddress2
*DEL*:00000000H   CODE     ---       _UART_RS485_SetRxAddressMode
*DEL*:00000000H   CODE     ---       _UART_RS485_SetRxInterruptMode
*DEL*:00000000H   CODE     ---       _UART_RS485_SetTxAddressMode
*DEL*:00000000H   CODE     ---       _UART_RS485_SetTxInterruptMode
*DEL*:00000000H   CODE     ---       _UART_RS485_WriteControlRegister
*DEL*:00000000H   CODE     ---       _UART_RS485_WriteTxData
      01007548H   CODE     ---       _v3_normalize
      01007041H   CODE     ---       _v4_normalize
      01008CFFH   CODE     ---       _WriteControlRegister
*SFR* 000000D0H.6 DATA     BIT       AC
*SFR* 000000E0H   DATA     BYTE      ACC
      0200106CH   XDATA    ---       Accel
*SFR* 000000F0H   DATA     BYTE      B
      010091CBH   CODE     ---       Bootloadable_Load
      020008DEH   XDATA    ---       c_mem
*DEL*:00000000H   CODE     ---       Chip_Select_A_Read
*DEL*:00000000H   CODE     ---       Chip_Select_B_Read
      010091C1H   CODE     ---       CLOCK_UART_GetDividerRegister
*DEL*:00000000H   CODE     ---       CLOCK_UART_GetModeRegister
      010091F3H   CODE     ---       CLOCK_UART_GetSourceRegister
*DEL*:00000000H   CODE     ---       CLOCK_UART_Start
*DEL*:00000000H   CODE     ---       CLOCK_UART_Stop
*DEL*:00000000H   CODE     ---       CLOCK_UART_StopBlock
      01006658H   CODE     ---       cmd_get_imu_readings
      0100900EH   CODE     ---       cmd_ping
      01008E05H   CODE     ---       cmd_set_baudrate
      01008FBAH   CODE     ---       cmd_store_params
      01007EC6H   CODE     ---       commProcess
*SFR* 000000D0H.7 DATA     BIT       CY
      02001617H   XDATA    DWORD     cydelay_32k_ms
      02001612H   XDATA    DWORD     cydelay_freq_hz
      0200160DH   XDATA    DWORD     cydelay_freq_khz
      02001611H   XDATA    BYTE      cydelay_freq_mhz
*DEL*:00000000H   CODE     ---       CyDisableInts
*DEL*:00000000H   CODE     ---       CyEEPROM_ReadRelease
*DEL*:00000000H   CODE     ---       CyEEPROM_ReadReserve
      01008C9EH   CODE     ---       CyEEPROM_Start
*DEL*:00000000H   CODE     ---       CyEEPROM_Stop
      01008FCFH   CODE     NEAR LAB  CyEnterCriticalSection
      01007422H   CODE     ---       cyfitter_cfg
*DEL*:00000000H   CODE     ---       CyFlash_Start
*DEL*:00000000H   CODE     ---       CyFlash_Stop
*DEL*:00000000H   CODE     ---       CyILO_Disable33K
*DEL*:00000000H   CODE     ---       CyILO_Enable33K
*DEL*:00000000H   CODE     ---       CyILO_Start100K
*DEL*:00000000H   CODE     ---       CyILO_Start1K
*DEL*:00000000H   CODE     ---       CyILO_Stop100K
*DEL*:00000000H   CODE     ---       CyILO_Stop1K
*DEL*:00000000H   CODE     ---       CyIMO_DisableDoubler
*DEL*:00000000H   CODE     ---       CyIMO_EnableDoubler
*DEL*:00000000H   CODE     ---       CyIMO_Stop
*DEL*:00000000H   CODE     ---       CyPLL_OUT_Stop
*DEL*:00000000H   CODE     ---       CyPmHibernate
*DEL*:00000000H   CODE     ---       CyPmOppsSet
*DEL*:00000000H   CODE     ---       CyPmRestoreClocks
*DEL*:00000000H   CODE     ---       CyPmSaveClocks
      02001616H   XDATA    BYTE      CyResetStatus
      01008F48H   CODE     ---       CySetTemp
      01009203H   CODE     ---       CySoftwareReset
      01008EFBH   CODE     ---       CySpcGetAlgorithm
      01008EA4H   CODE     ---       CySpcLock
      01008FE4H   CODE     ---       CySpcStart
*DEL*:00000000H   CODE     ---       CySpcStop
      010091ABH   CODE     ---       CySpcUnlock
LX51 LINKER/LOCATER V4.64.0.0                                                         03/12/2018  09:19:57  PAGE 23


*DEL*:00000000H   CODE     ---       CyVdHvAnalogDisable
*DEL*:00000000H   CODE     ---       CyVdHvAnalogEnable
*DEL*:00000000H   CODE     ---       CyVdLvAnalogDisable
*DEL*:00000000H   CODE     ---       CyVdLvDigitDisable
*DEL*:00000000H   CODE     ---       CyVdRealTimeStatus
*DEL*:00000000H   CODE     ---       CyWdtClear
*DEL*:00000000H   CODE     ---       CyXTAL_32KHZ_ReadStatus
*DEL*:00000000H   CODE     ---       CyXTAL_32KHZ_Start
*DEL*:00000000H   CODE     ---       CyXTAL_32KHZ_Stop
*DEL*:00000000H   CODE     ---       CyXTAL_DisableErrStatus
*DEL*:00000000H   CODE     ---       CyXTAL_DisableFaultRecovery
*DEL*:00000000H   CODE     ---       CyXTAL_EnableErrStatus
*DEL*:00000000H   CODE     ---       CyXTAL_EnableFaultRecovery
*DEL*:00000000H   CODE     ---       CyXTAL_ReadStatus
*DEL*:00000000H   CODE     ---       CyXTAL_Stop
      0200161EH   XDATA    ---       dieTemperature
*SFR* 00000083H   DATA     BYTE      DPH
*SFR* 00000085H   DATA     BYTE      DPH1
*SFR* 00000082H   DATA     BYTE      DPL
*SFR* 00000084H   DATA     BYTE      DPL1
*SFR* 00000086H   DATA     BYTE      DPS
*SFR* 00000093H   DATA     BYTE      DPX
*SFR* 00000095H   DATA     BYTE      DPX1
*SFR* 000000A8H.7 DATA     BIT       EA
      02001520H   XDATA    ---       EEPROM_ADDR
      01009219H   CODE     ---       EEPROM_Enable
*DEL*:00000000H   CODE     ---       EEPROM_Query
      0100926EH   CODE     ---       EEPROM_Start
*DEL*:00000000H   CODE     ---       EEPROM_Stop
*DEL*:00000000H   CODE     ---       EEPROM_UpdateTemperature
*SFR* 000000D0H.5 DATA     BIT       F0
*SFR* 000000D0H.1 DATA     BIT       F1
*DEL*:00000000H   CODE     ---       FF_STATUS_InterruptDisable
*DEL*:00000000H   CODE     ---       FF_STATUS_InterruptEnable
      0100923EH   CODE     ---       FF_STATUS_Read
*DEL*:00000000H   CODE     ---       FF_STATUS_ReadMask
*DEL*:00000000H   CODE     ---       FTDI_ENABLE_REG_Read
      01008AECH   CODE     ---       function_scheduler
      020009A1H   XDATA    ---       g_imu
      02000DD1H   XDATA    ---       g_imuNew
      02000948H   XDATA    ---       g_mem
      02000D4CH   XDATA    ---       g_rx
      02000CAFH   XDATA    ---       Gyro
*SFR* 000000A8H   DATA     BYTE      IE
      02000937H   XDATA    ---       IMU_connected
      020010D2H   XDATA    INT       imus_data_size
*DEL*:00000000H   CODE     ---       ImusReset
*DEL*:00000000H   CODE     ---       infoSend
      01007BF5H   CODE     ---       InitIMU
      01006D88H   CODE     ---       InitIMUgeneral
      01007CE6H   CODE     ---       InitIMUMagCal
      00000021H.2 BIT      BIT       interrupt_flag
      010072FBH   CODE     ---       interrupt_manager
*DEL*:00000000H   CODE     ---       ISR_RS485_RX_ClearPending
      01009212H   CODE     ---       ISR_RS485_RX_Disable
      0100920BH   CODE     ---       ISR_RS485_RX_Enable
      01009272H   CODE     ---       ISR_RS485_RX_ExInterrupt
*DEL*:00000000H   CODE     ---       ISR_RS485_RX_GetPriority
*DEL*:00000000H   CODE     ---       ISR_RS485_RX_GetState
*DEL*:00000000H   CODE     ---       ISR_RS485_RX_GetVector
      01009278H   CODE     ---       ISR_RS485_RX_Interrupt
*DEL*:00000000H   CODE     ---       ISR_RS485_RX_SetPending
*DEL*:00000000H   CODE     ---       ISR_RS485_RX_Start
*DEL*:00000000H   CODE     ---       ISR_RS485_RX_Stop
      02000C17H   XDATA    ---       Mag
LX51 LINKER/LOCATER V4.64.0.0                                                         03/12/2018  09:19:57  PAGE 24


      02000D19H   XDATA    ---       MagCal
      0100835DH   CODE     ---       main
      01008593H   CODE     ---       memInit
      01008A0FH   CODE     ---       memRecall
      01008AA5H   CODE     ---       memRestore
*SFR* 000000EAH   DATA     BYTE      MXAX
      0100916CH   CODE     ---       MY_TIMER_ClearFIFO
      010091FBH   CODE     ---       MY_TIMER_Enable
      01008BD4H   CODE     ---       MY_TIMER_Init
      02001629H   XDATA    BYTE      MY_TIMER_initVar
      010091DFH   CODE     ---       MY_TIMER_ReadCapture
*DEL*:00000000H   CODE     ---       MY_TIMER_ReadControlRegister
      010090DBH   CODE     ---       MY_TIMER_ReadCounter
*DEL*:00000000H   CODE     ---       MY_TIMER_ReadPeriod
      0100924AH   CODE     ---       MY_TIMER_ReadStatusRegister
*DEL*:00000000H   CODE     ---       MY_TIMER_SoftwareCapture
      0100905CH   CODE     ---       MY_TIMER_Start
*DEL*:00000000H   CODE     ---       MY_TIMER_Stop
      02000C16H   XDATA    BYTE      N_IMU_Connected
*DEL*:00000000H   CODE     ---       Opto_Pin_Read
*DEL*:00000000H   CODE     ---       Opto_Pin_ReadDataReg
*SFR* 000000D0H.2 DATA     BIT       OV
*SFR* 000000D0H   DATA     BIT       P
*SFR* 000000A0H   DATA     BYTE      P2AX
      01008F8FH   CODE     ---       PACER_TIMER_Enable
      01008B30H   CODE     ---       PACER_TIMER_Init
      02001628H   XDATA    BYTE      PACER_TIMER_initVar
*DEL*:00000000H   CODE     ---       PACER_TIMER_ReadCapture
*DEL*:00000000H   CODE     ---       PACER_TIMER_ReadControlRegister
*DEL*:00000000H   CODE     ---       PACER_TIMER_ReadCounter
*DEL*:00000000H   CODE     ---       PACER_TIMER_ReadPeriod
*DEL*:00000000H   CODE     ---       PACER_TIMER_ReadStatusRegister
*DEL*:00000000H   CODE     ---       PACER_TIMER_SoftwareCapture
      01009049H   CODE     ---       PACER_TIMER_Start
*DEL*:00000000H   CODE     ---       PACER_TIMER_Stop
*SFR* 000000D0H   DATA     BYTE      PSW
      02000C9FH   XDATA    ---       Quat
      01006A4DH   CODE     ---       ReadAllIMUs
*DEL*:00000000H   CODE     ---       RESET_FF_Read
*SFR* 000000D0H.3 DATA     BIT       RS0
*SFR* 000000D0H.4 DATA     BIT       RS1
*DEL*:00000000H   CODE     ---       RS485_CTS_Read
*SFR* 00000080H   DATA     BYTE      SFRPRT0DR
*SFR* 00000089H   DATA     BYTE      SFRPRT0PS
*SFR* 0000008AH   DATA     BYTE      SFRPRT0SEL
*SFR* 000000E8H   DATA     BYTE      SFRPRT12DR
*SFR* 000000E9H   DATA     BYTE      SFRPRT12PS
*SFR* 000000F2H   DATA     BYTE      SFRPRT12SEL
*SFR* 000000F8H   DATA     BYTE      SFRPRT15DR
*SFR* 000000F9H   DATA     BYTE      SFRPRT15PS
*SFR* 000000FAH   DATA     BYTE      SFRPRT15SEL
*SFR* 00000090H   DATA     BYTE      SFRPRT1DR
*SFR* 00000091H   DATA     BYTE      SFRPRT1PS
*SFR* 000000A2H   DATA     BYTE      SFRPRT1SEL
*SFR* 00000098H   DATA     BYTE      SFRPRT2DR
*SFR* 00000099H   DATA     BYTE      SFRPRT2PS
*SFR* 0000009AH   DATA     BYTE      SFRPRT2SEL
*SFR* 000000B0H   DATA     BYTE      SFRPRT3DR
*SFR* 000000B1H   DATA     BYTE      SFRPRT3PS
*SFR* 000000B2H   DATA     BYTE      SFRPRT3SEL
*SFR* 000000C0H   DATA     BYTE      SFRPRT4DR
*SFR* 000000C1H   DATA     BYTE      SFRPRT4PS
*SFR* 000000C2H   DATA     BYTE      SFRPRT4SEL
*SFR* 000000C8H   DATA     BYTE      SFRPRT5DR
*SFR* 000000C9H   DATA     BYTE      SFRPRT5PS
LX51 LINKER/LOCATER V4.64.0.0                                                         03/12/2018  09:19:57  PAGE 25


*SFR* 000000CAH   DATA     BYTE      SFRPRT5SEL
*SFR* 000000D8H   DATA     BYTE      SFRPRT6DR
*SFR* 000000D9H   DATA     BYTE      SFRPRT6PS
*SFR* 000000DAH   DATA     BYTE      SFRPRT6SEL
      02001046H   XDATA    ---       single_imu_size
*SFR* 00000081H   DATA     BYTE      SP
      0200162AH   XDATA    BYTE      SpcLockState
      01008EE0H   CODE     ---       SPI_delay
      01008E65H   CODE     ---       SPI_IMU_ClearFIFO
      010090EAH   CODE     ---       SPI_IMU_ClearRxBuffer
      010090A7H   CODE     ---       SPI_IMU_ClearTxBuffer
*DEL*:00000000H   CODE     ---       SPI_IMU_DisableInt
*DEL*:00000000H   CODE     ---       SPI_IMU_DisableRxInt
*DEL*:00000000H   CODE     ---       SPI_IMU_DisableTxInt
      01008DE0H   CODE     ---       SPI_IMU_Enable
*DEL*:00000000H   CODE     ---       SPI_IMU_EnableInt
      0100927AH   CODE     ---       SPI_IMU_EnableRxInt
      01009279H   CODE     ---       SPI_IMU_EnableTxInt
*DEL*:00000000H   CODE     ---       SPI_IMU_GetRxBufferSize
*DEL*:00000000H   CODE     ---       SPI_IMU_GetTxBufferSize
      01008F2FH   CODE     ---       SPI_IMU_Init
      02001626H   XDATA    BYTE      SPI_IMU_initVar
*DEL*:00000000H   CODE     ---       SPI_IMU_IntClock_GetDividerRegister
*DEL*:00000000H   CODE     ---       SPI_IMU_IntClock_GetModeRegister
*DEL*:00000000H   CODE     ---       SPI_IMU_IntClock_GetSourceRegister
      01009126H   CODE     ---       SPI_IMU_IntClock_Start
*DEL*:00000000H   CODE     ---       SPI_IMU_IntClock_Stop
*DEL*:00000000H   CODE     ---       SPI_IMU_IntClock_StopBlock
      0100925CH   CODE     ---       SPI_IMU_ReadRxData
      01009256H   CODE     ---       SPI_IMU_ReadRxStatus
      010090F9H   CODE     ---       SPI_IMU_ReadStatus
      01009250H   CODE     ---       SPI_IMU_ReadTxStatus
      0100906FH   CODE     ---       SPI_IMU_Start
*DEL*:00000000H   CODE     ---       SPI_IMU_Stop
      02001624H   XDATA    BYTE      SPI_IMU_swStatusRx
      02001625H   XDATA    BYTE      SPI_IMU_swStatusTx
      010079C4H   CODE     NEAR LAB  STARTUP1
      02000C7DH   XDATA    ---       Temp
      02000D15H   XDATA    DWORD     timer_value
      02001068H   XDATA    DWORD     timer_value0
      01008D2FH   CODE     ---       UART_RS485_ClearRxBuffer
      01009095H   CODE     ---       UART_RS485_ClearTxBuffer
      01008E25H   CODE     ---       UART_RS485_Enable
      0200160BH   XDATA    BYTE      UART_RS485_errorStatus
*DEL*:00000000H   CODE     ---       UART_RS485_GetByte
      01008817H   CODE     ---       UART_RS485_GetChar
      010089C0H   CODE     ---       UART_RS485_GetRxBufferSize
*DEL*:00000000H   CODE     ---       UART_RS485_GetTxBufferSize
      01008C6DH   CODE     ---       UART_RS485_Init
      02001609H   XDATA    BYTE      UART_RS485_initVar
*DEL*:00000000H   CODE     ---       UART_RS485_ReadControlRegister
*DEL*:00000000H   CODE     ---       UART_RS485_ReadRxData
      01009022H   CODE     ---       UART_RS485_ReadRxStatus
      01009220H   CODE     ---       UART_RS485_ReadTxStatus
      020015E8H   XDATA    ---       UART_RS485_rxBuffer
      020015E6H   XDATA    BYTE      UART_RS485_rxBufferLoopDetect
      0200160AH   XDATA    BYTE      UART_RS485_rxBufferOverflow
      020015E7H   XDATA    BYTE      UART_RS485_rxBufferRead
      02001608H   XDATA    BYTE      UART_RS485_rxBufferWrite
      01008155H   CODE     ---       UART_RS485_RXISR
      01009036H   CODE     ---       UART_RS485_Start
      01008E45H   CODE     ---       UART_RS485_Stop



LX51 LINKER/LOCATER V4.64.0.0                                                         03/12/2018  09:19:57  PAGE 26


SYMBOL TABLE OF MODULE:  .\DP8051_Keil_951\Release\firmware.omf (COMMAND_PROCESSING)

      VALUE       REP       CLASS    TYPE      SYMBOL NAME
      ====================================================
      ---         MODULE    ---      ---       COMMAND_PROCESSING
      02001520H   PUBLIC    XDATA    ---       EEPROM_ADDR
      01006658H   PUBLIC    CODE     ---       cmd_get_imu_readings
      01008FBAH   PUBLIC    CODE     ---       cmd_store_params
      0100900EH   PUBLIC    CODE     ---       cmd_ping
      01008E05H   PUBLIC    CODE     ---       cmd_set_baudrate
      01008593H   PUBLIC    CODE     ---       memInit
      01008AA5H   PUBLIC    CODE     ---       memRestore
      01008A0FH   PUBLIC    CODE     ---       memRecall
      01008206H   PUBLIC    CODE     ---       _memStore
      01008FA5H   PUBLIC    CODE     ---       _sendAcknowledgment
      01008C3BH   PUBLIC    CODE     ---       _LCRChecksum
      010083FAH   PUBLIC    CODE     ---       _commWrite
      010061DDH   PUBLIC    CODE     ---       _infoReading
      010057E1H   PUBLIC    CODE     ---       _infoPrepare
      0100261AH   PUBLIC    CODE     ---       _get_param_list
      01008CCFH   PUBLIC    CODE     ---       _infoGet
      01007EC6H   PUBLIC    CODE     ---       commProcess
      000000CAH   SFRSYM    DATA     BYTE      SFRPRT5SEL
      000000DAH   SFRSYM    DATA     BYTE      SFRPRT6SEL
      000000D0H.6 SFRSYM    DATA     BIT       AC
      000000A8H.7 SFRSYM    DATA     BIT       EA
      000000A8H   SFRSYM    DATA     BYTE      IE
      00000085H   SFRSYM    DATA     BYTE      DPH1
      00000084H   SFRSYM    DATA     BYTE      DPL1
      000000D0H.7 SFRSYM    DATA     BIT       CY
      000000A0H   SFRSYM    DATA     BYTE      P2AX
      00000095H   SFRSYM    DATA     BYTE      DPX1
      00000081H   SFRSYM    DATA     BYTE      SP
      000000D0H.2 SFRSYM    DATA     BIT       OV
      00000080H   SFRSYM    DATA     BYTE      SFRPRT0DR
      00000090H   SFRSYM    DATA     BYTE      SFRPRT1DR
      000000F2H   SFRSYM    DATA     BYTE      SFRPRT12SEL
      00000098H   SFRSYM    DATA     BYTE      SFRPRT2DR
      000000B0H   SFRSYM    DATA     BYTE      SFRPRT3DR
      000000C0H   SFRSYM    DATA     BYTE      SFRPRT4DR
      000000FAH   SFRSYM    DATA     BYTE      SFRPRT15SEL
      000000C8H   SFRSYM    DATA     BYTE      SFRPRT5DR
      000000D8H   SFRSYM    DATA     BYTE      SFRPRT6DR
      00000089H   SFRSYM    DATA     BYTE      SFRPRT0PS
      00000091H   SFRSYM    DATA     BYTE      SFRPRT1PS
      00000099H   SFRSYM    DATA     BYTE      SFRPRT2PS
      000000B1H   SFRSYM    DATA     BYTE      SFRPRT3PS
      000000C1H   SFRSYM    DATA     BYTE      SFRPRT4PS
      000000C9H   SFRSYM    DATA     BYTE      SFRPRT5PS
      000000D9H   SFRSYM    DATA     BYTE      SFRPRT6PS
      000000EAH   SFRSYM    DATA     BYTE      MXAX
      000000F0H   SFRSYM    DATA     BYTE      B
      000000E0H   SFRSYM    DATA     BYTE      ACC
      000000D0H   SFRSYM    DATA     BIT       P
      000000D0H.3 SFRSYM    DATA     BIT       RS0
      000000D0H.4 SFRSYM    DATA     BIT       RS1
      00000083H   SFRSYM    DATA     BYTE      DPH
      000000E8H   SFRSYM    DATA     BYTE      SFRPRT12DR
      00000082H   SFRSYM    DATA     BYTE      DPL
      000000F8H   SFRSYM    DATA     BYTE      SFRPRT15DR
      00000086H   SFRSYM    DATA     BYTE      DPS
      000000E9H   SFRSYM    DATA     BYTE      SFRPRT12PS
      00000093H   SFRSYM    DATA     BYTE      DPX
      000000F9H   SFRSYM    DATA     BYTE      SFRPRT15PS
      000000D0H.5 SFRSYM    DATA     BIT       F0
LX51 LINKER/LOCATER V4.64.0.0                                                         03/12/2018  09:19:57  PAGE 27


      000000D0H.1 SFRSYM    DATA     BIT       F1
      0000008AH   SFRSYM    DATA     BYTE      SFRPRT0SEL
      000000D0H   SFRSYM    DATA     BYTE      PSW
      000000A2H   SFRSYM    DATA     BYTE      SFRPRT1SEL
      0000009AH   SFRSYM    DATA     BYTE      SFRPRT2SEL
      000000B2H   SFRSYM    DATA     BYTE      SFRPRT3SEL
      000000C2H   SFRSYM    DATA     BYTE      SFRPRT4SEL
      010044A8H   SYMBOL    CODE     ---       _?ix1000
      01004C47H   SYMBOL    CODE     ---       _?ix1001
      01004C61H   SYMBOL    CODE     ---       _?ix1002
      01004C6CH   SYMBOL    CODE     ---       _?ix1003
      01004C80H   SYMBOL    CODE     ---       _?ix1004
      01004C90H   SYMBOL    CODE     ---       _?ix1005
      01004CBAH   SYMBOL    CODE     ---       _?ix1006
      01004CD4H   SYMBOL    CODE     ---       _?ix1007

      01007EC6H   BLOCK     CODE     ---       LVL=0
      01007EC6H   BLOCK     CODE     NEAR LAB  LVL=1
      0000000AH   SYMBOL    DATA     BYTE      rx_cmd
      ---         BLOCKEND  ---      ---       LVL=1
      01007EC6H   LINE      CODE     ---       #67
      01007EC6H   LINE      CODE     ---       #71
      01007ECCH   LINE      CODE     ---       #75
      01007EF7H   LINE      CODE     ---       #77
      01007EFDH   LINE      CODE     ---       #79
      01007EFDH   LINE      CODE     ---       #82
      01007F24H   LINE      CODE     ---       #86
      01007F24H   LINE      CODE     ---       #87
      01007F27H   LINE      CODE     ---       #88
      01007F28H   LINE      CODE     ---       #92
      01007F28H   LINE      CODE     ---       #93
      01007F33H   LINE      CODE     ---       #94
      01007F34H   LINE      CODE     ---       #98
      01007F34H   LINE      CODE     ---       #99
      01007F3FH   LINE      CODE     ---       #100
      01007F40H   LINE      CODE     ---       #104
      01007F40H   LINE      CODE     ---       #105
      01007F43H   LINE      CODE     ---       #106
      01007F44H   LINE      CODE     ---       #110
      01007F44H   LINE      CODE     ---       #111
      01007F47H   LINE      CODE     ---       #112
      01007F48H   LINE      CODE     ---       #116
      01007F48H   LINE      CODE     ---       #117
      01007F52H   LINE      CODE     ---       #118
      01007F58H   LINE      CODE     ---       #120
      01007F5DH   LINE      CODE     ---       #121
      01007F5EH   LINE      CODE     ---       #125
      01007F5EH   LINE      CODE     ---       #126
      01007F64H   LINE      CODE     ---       #127
      01007F6AH   LINE      CODE     ---       #129
      01007F6FH   LINE      CODE     ---       #130
      01007F70H   LINE      CODE     ---       #134
      01007F70H   LINE      CODE     ---       #135
      01007F76H   LINE      CODE     ---       #136
      01007F7CH   LINE      CODE     ---       #138
      01007F81H   LINE      CODE     ---       #139
      01007F82H   LINE      CODE     ---       #143
      01007F82H   LINE      CODE     ---       #145
      01007F87H   LINE      CODE     ---       #146
      01007F91H   LINE      CODE     ---       #147
      01007F96H   LINE      CODE     ---       #148
      01007FA0H   LINE      CODE     ---       #149
      01007FA3H   LINE      CODE     ---       #150
      01007FA4H   LINE      CODE     ---       #154
      01007FA4H   LINE      CODE     ---       #155
LX51 LINKER/LOCATER V4.64.0.0                                                         03/12/2018  09:19:57  PAGE 28


      01007FA7H   LINE      CODE     ---       #156
      01007FA7H   LINE      CODE     ---       #159
      01007FA7H   LINE      CODE     ---       #160
      01007FA7H   LINE      CODE     ---       #162
      01007FA7H   LINE      CODE     ---       #163
      ---         BLOCKEND  ---      ---       LVL=0

      01008CCFH   BLOCK     CODE     ---       LVL=0
      00000006H   SYMBOL    DATA     WORD      info_type
      01008CCFH   BLOCK     CODE     NEAR LAB  LVL=1
      020010D4H   SYMBOL    XDATA    ---       packet_string
      ---         BLOCKEND  ---      ---       LVL=1
      01008CCFH   LINE      CODE     ---       #181
      01008CCFH   LINE      CODE     ---       #186
      01008CD9H   LINE      CODE     ---       #187
      01008CD9H   LINE      CODE     ---       #188
      01008CE2H   LINE      CODE     ---       #189
      01008CEBH   LINE      CODE     ---       #190
      01008CECH   LINE      CODE     ---       #191
      01008CECH   LINE      CODE     ---       #192
      01008CF5H   LINE      CODE     ---       #193
      01008CFEH   LINE      CODE     ---       #194
      01008CFEH   LINE      CODE     ---       #195
      01008CFEH   LINE      CODE     ---       #196
      01008CFEH   LINE      CODE     ---       #197
      01008CFEH   LINE      CODE     ---       #198
      ---         BLOCKEND  ---      ---       LVL=0

      0100261AH   BLOCK     CODE     ---       LVL=0
      02000000H   SYMBOL    XDATA    WORD      index
      01002622H   BLOCK     CODE     NEAR LAB  LVL=1
      02000002H   SYMBOL    XDATA    ---       packet_data
      020007A1H   SYMBOL    XDATA    WORD      num_imus_id_params
      020007A3H   SYMBOL    XDATA    WORD      num_mag_cal_params
      020007A5H   SYMBOL    XDATA    WORD      first_imu_parameter
      020007A7H   SYMBOL    XDATA    WORD      packet_length
      0000000BH   SYMBOL    DATA     WORD      i
      0000000DH   SYMBOL    DATA     WORD      j
      0000000FH   SYMBOL    DATA     WORD      k
      00000011H   SYMBOL    DATA     WORD      h
      020007A9H   SYMBOL    XDATA    WORD      start_byte
      020007ABH   SYMBOL    XDATA    ---       n_imu_str
      020007C5H   SYMBOL    XDATA    ---       ids_str
      020007D0H   SYMBOL    XDATA    ---       mag_param_str
      020007E4H   SYMBOL    XDATA    ---       id_str
      020007F4H   SYMBOL    XDATA    ---       imu_table_str
      0200081EH   SYMBOL    XDATA    ---       spi_read_delay_str
      00000013H   SYMBOL    DATA     BYTE      id_str_len
      00000014H   SYMBOL    DATA     BYTE      n_imu_str_len
      00000015H   SYMBOL    DATA     BYTE      ids_str_len
      00000016H   SYMBOL    DATA     BYTE      mag_param_str_len
      00000017H   SYMBOL    DATA     BYTE      imu_table_str_len
      00000018H   SYMBOL    DATA     BYTE      spi_read_delay_str_len
      02000838H   SYMBOL    XDATA    ---       spi_delay_menu
      00000019H   SYMBOL    DATA     BYTE      spi_delay_menu_len
      ---         BLOCKEND  ---      ---       LVL=1
      0100261AH   LINE      CODE     ---       #204
      01002622H   LINE      CODE     ---       #205
      01002622H   LINE      CODE     ---       #213
      01002635H   LINE      CODE     ---       #214
      0100263EH   LINE      CODE     ---       #215
      01002643H   LINE      CODE     ---       #216
      01002649H   LINE      CODE     ---       #217
      01002680H   LINE      CODE     ---       #226
      01002685H   LINE      CODE     ---       #229
LX51 LINKER/LOCATER V4.64.0.0                                                         03/12/2018  09:19:57  PAGE 29


      01002697H   LINE      CODE     ---       #230
      010026AAH   LINE      CODE     ---       #231
      010026BDH   LINE      CODE     ---       #232
      010026D0H   LINE      CODE     ---       #233
      010026E3H   LINE      CODE     ---       #234
      010026F6H   LINE      CODE     ---       #237
      01002701H   LINE      CODE     ---       #238
      0100270CH   LINE      CODE     ---       #239
      01002717H   LINE      CODE     ---       #240
      01002722H   LINE      CODE     ---       #241
      0100272DH   LINE      CODE     ---       #242
      01002738H   LINE      CODE     ---       #244
      0100274BH   LINE      CODE     ---       #247
      01002770H   LINE      CODE     ---       #248
      0100277BH   LINE      CODE     ---       #252
      0100278BH   LINE      CODE     ---       #253
      010027B3H   LINE      CODE     ---       #259
      010027F3H   LINE      CODE     ---       #262
      01002815H   LINE      CODE     ---       #263
      0100281BH   LINE      CODE     ---       #264
      01002824H   LINE      CODE     ---       #266
      01002837H   LINE      CODE     ---       #267
      01002837H   LINE      CODE     ---       #269
      0100283EH   LINE      CODE     ---       #270
      01002844H   LINE      CODE     ---       #271
      01002847H   LINE      CODE     ---       #272
      0100284FH   LINE      CODE     ---       #273
      0100285BH   LINE      CODE     ---       #274
      01002887H   LINE      CODE     ---       #277
      01002895H   LINE      CODE     ---       #278
      0100289AH   LINE      CODE     ---       #279
      010028B0H   LINE      CODE     ---       #280
      010028CFH   LINE      CODE     ---       #281
      010028D5H   LINE      CODE     ---       #282
      010028E0H   LINE      CODE     ---       #283
      0100290CH   LINE      CODE     ---       #284
      01002930H   LINE      CODE     ---       #286
      0100295CH   LINE      CODE     ---       #287
      01002971H   LINE      CODE     ---       #288
      010029A2H   LINE      CODE     ---       #289
      010029AAH   LINE      CODE     ---       #290
      010029B2H   LINE      CODE     ---       #291
      010029B4H   LINE      CODE     ---       #292
      010029B4H   LINE      CODE     ---       #293
      010029E5H   LINE      CODE     ---       #294
      010029E5H   LINE      CODE     ---       #295
      010029F0H   LINE      CODE     ---       #298
      010029FCH   LINE      CODE     ---       #299
      01002A51H   LINE      CODE     ---       #300
      01002A5CH   LINE      CODE     ---       #303
      01002A77H   LINE      CODE     ---       #304
      01002A8EH   LINE      CODE     ---       #305
      01002ABAH   LINE      CODE     ---       #307
      01002ADEH   LINE      CODE     ---       #308
      01002B2CH   LINE      CODE     ---       #309
      01002B72H   LINE      CODE     ---       #310
      01002BB8H   LINE      CODE     ---       #313
      01002BD2H   LINE      CODE     ---       #315
      01002BE1H   LINE      CODE     ---       #316
      01002C36H   LINE      CODE     ---       #317
      01002C36H   LINE      CODE     ---       #318
      01002C36H   LINE      CODE     ---       #320
      01002C62H   LINE      CODE     ---       #321
      01002CB0H   LINE      CODE     ---       #322
      01002CF6H   LINE      CODE     ---       #323
LX51 LINKER/LOCATER V4.64.0.0                                                         03/12/2018  09:19:57  PAGE 30


      01002D3CH   LINE      CODE     ---       #325
      01002D48H   LINE      CODE     ---       #326
      01002D9DH   LINE      CODE     ---       #327
      01002D9DH   LINE      CODE     ---       #328
      01002DA8H   LINE      CODE     ---       #332
      01002DC3H   LINE      CODE     ---       #333
      01002DEEH   LINE      CODE     ---       #334
      01002DF9H   LINE      CODE     ---       #335
      01002E0DH   LINE      CODE     ---       #336
      01002E1AH   LINE      CODE     ---       #337
      01002E31H   LINE      CODE     ---       #338
      01002E3DH   LINE      CODE     ---       #339
      01002E83H   LINE      CODE     ---       #343
      01002E91H   LINE      CODE     ---       #344
      01002EA8H   LINE      CODE     ---       #345
      01002EE9H   LINE      CODE     ---       #346
      01002EF4H   LINE      CODE     ---       #348
      01002F20H   LINE      CODE     ---       #349
      01002F44H   LINE      CODE     ---       #351
      01002F8BH   LINE      CODE     ---       #352
      01002FCAH   LINE      CODE     ---       #353
      01003009H   LINE      CODE     ---       #354
      01003048H   LINE      CODE     ---       #355
      01003087H   LINE      CODE     ---       #357
      01003093H   LINE      CODE     ---       #358
      010030E8H   LINE      CODE     ---       #359
      010030F3H   LINE      CODE     ---       #364
      0100310AH   LINE      CODE     ---       #365
      0100313AH   LINE      CODE     ---       #366
      0100314DH   LINE      CODE     ---       #367
      0100315AH   LINE      CODE     ---       #368
      01003171H   LINE      CODE     ---       #369
      0100317CH   LINE      CODE     ---       #370
      0100317CH   LINE      CODE     ---       #371
      01003193H   LINE      CODE     ---       #372
      01003196H   LINE      CODE     ---       #373
      01003198H   LINE      CODE     ---       #374
      01003198H   LINE      CODE     ---       #375
      010031AFH   LINE      CODE     ---       #376
      010031B2H   LINE      CODE     ---       #377
      010031B4H   LINE      CODE     ---       #378
      010031B4H   LINE      CODE     ---       #379
      010031CBH   LINE      CODE     ---       #380
      010031CEH   LINE      CODE     ---       #381
      010031CEH   LINE      CODE     ---       #382
      010031CEH   LINE      CODE     ---       #383
      010031CEH   LINE      CODE     ---       #384
      010031CEH   LINE      CODE     ---       #385
      010031DAH   LINE      CODE     ---       #386
      01003220H   LINE      CODE     ---       #388
      0100323CH   LINE      CODE     ---       #392
      0100324AH   LINE      CODE     ---       #393
      01003256H   LINE      CODE     ---       #394
      0100329CH   LINE      CODE     ---       #396
      010032C0H   LINE      CODE     ---       #397
      010032C9H   LINE      CODE     ---       #398
      010032CCH   LINE      CODE     ---       #399
      010032CDH   LINE      CODE     ---       #402
      010032CDH   LINE      CODE     ---       #404
      010032ECH   LINE      CODE     ---       #405
      010032ECH   LINE      CODE     ---       #407
      01003308H   LINE      CODE     ---       #408
      01003310H   LINE      CODE     ---       #409
      01003311H   LINE      CODE     ---       #410
      01003311H   LINE      CODE     ---       #412
LX51 LINKER/LOCATER V4.64.0.0                                                         03/12/2018  09:19:57  PAGE 31


      01003328H   LINE      CODE     ---       #413
      01003330H   LINE      CODE     ---       #414
      01003331H   LINE      CODE     ---       #415
      01003331H   LINE      CODE     ---       #418
      0100335FH   LINE      CODE     ---       #419
      0100337EH   LINE      CODE     ---       #420
      0100339DH   LINE      CODE     ---       #421
      010033BCH   LINE      CODE     ---       #422
      010033DBH   LINE      CODE     ---       #425
      010033E3H   LINE      CODE     ---       #426
      010033FAH   LINE      CODE     ---       #427
      010033FAH   LINE      CODE     ---       #428
      01003499H   LINE      CODE     ---       #429
      010034C2H   LINE      CODE     ---       #430
      010034CDH   LINE      CODE     ---       #431
      010034DBH   LINE      CODE     ---       #433
      010034DBH   LINE      CODE     ---       #435
      010034DBH   LINE      CODE     ---       #436
      010034DBH   LINE      CODE     ---       #437
      ---         BLOCKEND  ---      ---       LVL=0

      010057E1H   BLOCK     CODE     ---       LVL=0
      02000000H   SYMBOL    XDATA    ---       info_string
      010057ECH   BLOCK     CODE     NEAR LAB  LVL=1
      02000003H   SYMBOL    XDATA    INT       i
      02000005H   SYMBOL    XDATA    ---       str
      ---         BLOCKEND  ---      ---       LVL=1
      010057E1H   LINE      CODE     ---       #444
      010057ECH   LINE      CODE     ---       #445
      010057ECH   LINE      CODE     ---       #448
      010057F7H   LINE      CODE     ---       #449
      0100580FH   LINE      CODE     ---       #450
      0100582BH   LINE      CODE     ---       #451
      01005847H   LINE      CODE     ---       #452
      01005863H   LINE      CODE     ---       #453
      0100587FH   LINE      CODE     ---       #455
      0100589BH   LINE      CODE     ---       #456
      010058BFH   LINE      CODE     ---       #457
      010058DBH   LINE      CODE     ---       #459
      010058FFH   LINE      CODE     ---       #460
      0100591BH   LINE      CODE     ---       #462
      01005937H   LINE      CODE     ---       #464
      01005953H   LINE      CODE     ---       #465
      01005974H   LINE      CODE     ---       #466
      010059AEH   LINE      CODE     ---       #467
      010059CAH   LINE      CODE     ---       #469
      010059E1H   LINE      CODE     ---       #470
      01005A02H   LINE      CODE     ---       #471
      01005A1BH   LINE      CODE     ---       #473
      01005A32H   LINE      CODE     ---       #474
      01005A49H   LINE      CODE     ---       #475
      01005A6AH   LINE      CODE     ---       #476
      01005A83H   LINE      CODE     ---       #478
      01005A9AH   LINE      CODE     ---       #479
      01005AB1H   LINE      CODE     ---       #480
      01005AD2H   LINE      CODE     ---       #481
      01005AEBH   LINE      CODE     ---       #483
      01005B02H   LINE      CODE     ---       #484
      01005B19H   LINE      CODE     ---       #485
      01005B3AH   LINE      CODE     ---       #486
      01005B53H   LINE      CODE     ---       #488
      01005B6AH   LINE      CODE     ---       #489
      01005B81H   LINE      CODE     ---       #490
      01005BA2H   LINE      CODE     ---       #491
      01005BBBH   LINE      CODE     ---       #493
LX51 LINKER/LOCATER V4.64.0.0                                                         03/12/2018  09:19:57  PAGE 32


      01005BD2H   LINE      CODE     ---       #495
      01005BEEH   LINE      CODE     ---       #496
      01005BFFH   LINE      CODE     ---       #498
      01005C1BH   LINE      CODE     ---       #500
      01005C6DH   LINE      CODE     ---       #501
      01005C89H   LINE      CODE     ---       #502
      01005CA5H   LINE      CODE     ---       #503
      01005CC1H   LINE      CODE     ---       #505
      01005D05H   LINE      CODE     ---       #506
      01005D21H   LINE      CODE     ---       #507
      01005D3DH   LINE      CODE     ---       #508
      01005D59H   LINE      CODE     ---       #509
      01005D59H   LINE      CODE     ---       #510
      ---         BLOCKEND  ---      ---       LVL=0

      010061DDH   BLOCK     CODE     ---       LVL=0
      02000000H   SYMBOL    XDATA    ---       info_string
      010061E8H   BLOCK     CODE     NEAR LAB  LVL=1
      02000003H   SYMBOL    XDATA    INT       i
      02000005H   SYMBOL    XDATA    ---       str
      ---         BLOCKEND  ---      ---       LVL=1
      010061DDH   LINE      CODE     ---       #513
      010061E8H   LINE      CODE     ---       #514
      010061E8H   LINE      CODE     ---       #518
      01006200H   LINE      CODE     ---       #519
      0100621CH   LINE      CODE     ---       #520
      01006238H   LINE      CODE     ---       #521
      01006259H   LINE      CODE     ---       #522
      01006293H   LINE      CODE     ---       #523
      010062AFH   LINE      CODE     ---       #525
      010062D4H   LINE      CODE     ---       #526
      0100634DH   LINE      CODE     ---       #527
      01006369H   LINE      CODE     ---       #528
      01006369H   LINE      CODE     ---       #530
      0100638EH   LINE      CODE     ---       #531
      01006407H   LINE      CODE     ---       #532
      01006423H   LINE      CODE     ---       #533
      01006423H   LINE      CODE     ---       #535
      01006448H   LINE      CODE     ---       #536
      010064C1H   LINE      CODE     ---       #537
      010064DDH   LINE      CODE     ---       #538
      010064DDH   LINE      CODE     ---       #540
      01006501H   LINE      CODE     ---       #541
      010065B6H   LINE      CODE     ---       #542
      010065D2H   LINE      CODE     ---       #543
      010065D2H   LINE      CODE     ---       #545
      010065F4H   LINE      CODE     ---       #546
      0100662AH   LINE      CODE     ---       #547
      01006646H   LINE      CODE     ---       #548
      01006646H   LINE      CODE     ---       #549
      01006657H   LINE      CODE     ---       #550
      ---         BLOCKEND  ---      ---       LVL=0

      010083FAH   BLOCK     CODE     ---       LVL=0
      020008AEH   SYMBOL    XDATA    ---       packet_data
      020008B1H   SYMBOL    XDATA    WORD      packet_lenght
      0100840BH   BLOCK     CODE     NEAR LAB  LVL=1
      0000001AH   SYMBOL    DATA     WORD      index
      ---         BLOCKEND  ---      ---       LVL=1
      010083FAH   LINE      CODE     ---       #555
      0100840BH   LINE      CODE     ---       #556
      0100840BH   LINE      CODE     ---       #560
      01008410H   LINE      CODE     ---       #561
      01008415H   LINE      CODE     ---       #564
      0100841DH   LINE      CODE     ---       #567
LX51 LINKER/LOCATER V4.64.0.0                                                         03/12/2018  09:19:57  PAGE 33


      01008427H   LINE      CODE     ---       #570
      0100843BH   LINE      CODE     ---       #571
      0100845DH   LINE      CODE     ---       #573
      01008462H   LINE      CODE     ---       #575
      0100847CH   LINE      CODE     ---       #577
      01008481H   LINE      CODE     ---       #578
      01008486H   LINE      CODE     ---       #579
      ---         BLOCKEND  ---      ---       LVL=0

      01008C3BH   BLOCK     CODE     ---       LVL=0
      020008AEH   SYMBOL    XDATA    ---       data_array
      00000005H   SYMBOL    DATA     BYTE      data_length
      01008C46H   BLOCK     CODE     NEAR LAB  LVL=1
      0000001AH   SYMBOL    DATA     BYTE      i
      0000001BH   SYMBOL    DATA     BYTE      checksum
      ---         BLOCKEND  ---      ---       LVL=1
      01008C3BH   LINE      CODE     ---       #588
      01008C46H   LINE      CODE     ---       #591
      01008C49H   LINE      CODE     ---       #593
      01008C51H   LINE      CODE     ---       #594
      01008C6AH   LINE      CODE     ---       #596
      01008C6CH   LINE      CODE     ---       #597
      ---         BLOCKEND  ---      ---       LVL=0

      01008FA5H   BLOCK     CODE     ---       LVL=0
      00000007H   SYMBOL    DATA     BYTE      value
      01008FA5H   BLOCK     CODE     NEAR LAB  LVL=1
      00000004H   SYMBOL    DATA     INT       packet_lenght
      02000000H   SYMBOL    XDATA    ---       packet_data
      ---         BLOCKEND  ---      ---       LVL=1
      01008FA5H   LINE      CODE     ---       #603
      01008FA5H   LINE      CODE     ---       #604
      01008FA9H   LINE      CODE     ---       #607
      01008FAEH   LINE      CODE     ---       #608
      01008FB0H   LINE      CODE     ---       #610
      01008FB9H   LINE      CODE     ---       #611
      ---         BLOCKEND  ---      ---       LVL=0

      01008206H   BLOCK     CODE     ---       LVL=0
      02000000H   SYMBOL    XDATA    INT       displacement
      0100820EH   BLOCK     CODE     NEAR LAB  LVL=1
      02000002H   SYMBOL    XDATA    INT       i
      00000007H   SYMBOL    DATA     BYTE      writeStatus
      02000004H   SYMBOL    XDATA    INT       pages
      02000006H   SYMBOL    XDATA    BYTE      ret_val
      ---         BLOCKEND  ---      ---       LVL=1
      01008206H   LINE      CODE     ---       #622
      0100820EH   LINE      CODE     ---       #623
      0100820EH   LINE      CODE     ---       #627
      01008214H   LINE      CODE     ---       #630
      01008217H   LINE      CODE     ---       #634
      0100821AH   LINE      CODE     ---       #636
      0100822DH   LINE      CODE     ---       #638
      01008236H   LINE      CODE     ---       #640
      01008259H   LINE      CODE     ---       #641
      0100827EH   LINE      CODE     ---       #642
      01008281H   LINE      CODE     ---       #643
      01008286H   LINE      CODE     ---       #644
      01008288H   LINE      CODE     ---       #645
      01008288H   LINE      CODE     ---       #646
      01008298H   LINE      CODE     ---       #648
      010082ABH   LINE      CODE     ---       #651
      010082AEH   LINE      CODE     ---       #653
      010082B3H   LINE      CODE     ---       #654
      ---         BLOCKEND  ---      ---       LVL=0
LX51 LINKER/LOCATER V4.64.0.0                                                         03/12/2018  09:19:57  PAGE 34



      01008A0FH   BLOCK     CODE     ---       LVL=0
      01008A0FH   BLOCK     CODE     NEAR LAB  LVL=1
      00000006H   SYMBOL    DATA     WORD      i
      ---         BLOCKEND  ---      ---       LVL=1
      01008A0FH   LINE      CODE     ---       #665
      01008A0FH   LINE      CODE     ---       #666
      01008A0FH   LINE      CODE     ---       #669
      01008A1BH   LINE      CODE     ---       #670
      01008A37H   LINE      CODE     ---       #671
      01008A3EH   LINE      CODE     ---       #674
      01008A44H   LINE      CODE     ---       #675
      01008A47H   LINE      CODE     ---       #676
      01008A48H   LINE      CODE     ---       #677
      01008A5BH   LINE      CODE     ---       #678
      01008A5BH   LINE      CODE     ---       #679
      ---         BLOCKEND  ---      ---       LVL=0

      01008AA5H   BLOCK     CODE     ---       LVL=0
      01008AA5H   BLOCK     CODE     NEAR LAB  LVL=1
      00000006H   SYMBOL    DATA     WORD      i
      ---         BLOCKEND  ---      ---       LVL=1
      01008AA5H   LINE      CODE     ---       #690
      01008AA5H   LINE      CODE     ---       #693
      01008AB1H   LINE      CODE     ---       #694
      01008AD4H   LINE      CODE     ---       #695
      01008ADBH   LINE      CODE     ---       #698
      01008AE1H   LINE      CODE     ---       #699
      01008AE5H   LINE      CODE     ---       #700
      01008AE5H   LINE      CODE     ---       #701
      01008AEBH   LINE      CODE     ---       #702
      01008AEBH   LINE      CODE     ---       #703
      ---         BLOCKEND  ---      ---       LVL=0

      01008593H   BLOCK     CODE     ---       LVL=0
      01008593H   BLOCK     CODE     NEAR LAB  LVL=1
      00000007H   SYMBOL    DATA     BYTE      i
      ---         BLOCKEND  ---      ---       LVL=1
      01008593H   LINE      CODE     ---       #713
      01008593H   LINE      CODE     ---       #714
      01008593H   LINE      CODE     ---       #719
      01008599H   LINE      CODE     ---       #723
      0100859DH   LINE      CODE     ---       #726
      010085A5H   LINE      CODE     ---       #727
      010085B6H   LINE      CODE     ---       #728
      010085C7H   LINE      CODE     ---       #729
      010085D7H   LINE      CODE     ---       #730
      010085E7H   LINE      CODE     ---       #731
      010085F7H   LINE      CODE     ---       #735
      010085FAH   LINE      CODE     ---       #738
      01008613H   LINE      CODE     ---       #739
      ---         BLOCKEND  ---      ---       LVL=0

      01008E05H   BLOCK     CODE     ---       LVL=0
      01008E05H   LINE      CODE     ---       #748
      01008E05H   LINE      CODE     ---       #751
      01008E0DH   LINE      CODE     ---       #753
      01008E11H   LINE      CODE     ---       #754
      01008E11H   LINE      CODE     ---       #755
      01008E1AH   LINE      CODE     ---       #756
      01008E1BH   LINE      CODE     ---       #757
      01008E1BH   LINE      CODE     ---       #758
      01008E24H   LINE      CODE     ---       #759
      01008E24H   LINE      CODE     ---       #760
      ---         BLOCKEND  ---      ---       LVL=0
LX51 LINKER/LOCATER V4.64.0.0                                                         03/12/2018  09:19:57  PAGE 35



      0100900EH   BLOCK     CODE     ---       LVL=0
      0100900EH   BLOCK     CODE     NEAR LAB  LVL=1
      02000000H   SYMBOL    XDATA    ---       packet_data
      ---         BLOCKEND  ---      ---       LVL=1
      0100900EH   LINE      CODE     ---       #762
      0100900EH   LINE      CODE     ---       #767
      01009013H   LINE      CODE     ---       #770
      01009015H   LINE      CODE     ---       #773
      01009021H   LINE      CODE     ---       #774
      ---         BLOCKEND  ---      ---       LVL=0

      01008FBAH   BLOCK     CODE     ---       LVL=0
      01008FBAH   LINE      CODE     ---       #776
      01008FBAH   LINE      CODE     ---       #778
      01008FC3H   LINE      CODE     ---       #779
      01008FC9H   LINE      CODE     ---       #781
      01008FCEH   LINE      CODE     ---       #782
      ---         BLOCKEND  ---      ---       LVL=0

      01006658H   BLOCK     CODE     ---       LVL=0
      01006658H   BLOCK     CODE     NEAR LAB  LVL=1
      02000000H   SYMBOL    XDATA    BYTE      k_imu
      02000001H   SYMBOL    XDATA    BYTE      c
      02000002H   SYMBOL    XDATA    BYTE      k
      02000003H   SYMBOL    XDATA    BYTE      gl_c
      02000004H   SYMBOL    XDATA    ---       packet_data
      02000162H   SYMBOL    XDATA    ---       single_packet
      ---         BLOCKEND  ---      ---       LVL=1
      01006658H   LINE      CODE     ---       #784
      01006658H   LINE      CODE     ---       #788
      0100665EH   LINE      CODE     ---       #789
      01006661H   LINE      CODE     ---       #790
      01006664H   LINE      CODE     ---       #797
      01006668H   LINE      CODE     ---       #799
      0100667EH   LINE      CODE     ---       #800
      0100667EH   LINE      CODE     ---       #802
      01006684H   LINE      CODE     ---       #803
      0100669FH   LINE      CODE     ---       #804
      010066CAH   LINE      CODE     ---       #805
      010066EDH   LINE      CODE     ---       #806
      01006713H   LINE      CODE     ---       #807
      0100671AH   LINE      CODE     ---       #808
      0100671AH   LINE      CODE     ---       #809
      01006739H   LINE      CODE     ---       #810
      01006764H   LINE      CODE     ---       #811
      01006787H   LINE      CODE     ---       #812
      010067AAH   LINE      CODE     ---       #813
      010067B1H   LINE      CODE     ---       #814
      010067B1H   LINE      CODE     ---       #815
      010067D0H   LINE      CODE     ---       #816
      010067FBH   LINE      CODE     ---       #817
      0100681EH   LINE      CODE     ---       #818
      01006841H   LINE      CODE     ---       #819
      01006848H   LINE      CODE     ---       #820
      01006848H   LINE      CODE     ---       #821
      01006869H   LINE      CODE     ---       #822
      01006898H   LINE      CODE     ---       #823
      010068BFH   LINE      CODE     ---       #824
      010068EAH   LINE      CODE     ---       #825
      01006911H   LINE      CODE     ---       #826
      01006918H   LINE      CODE     ---       #827
      01006918H   LINE      CODE     ---       #828
      01006937H   LINE      CODE     ---       #829
      0100695DH   LINE      CODE     ---       #830
LX51 LINKER/LOCATER V4.64.0.0                                                         03/12/2018  09:19:57  PAGE 36


      01006964H   LINE      CODE     ---       #831
      01006964H   LINE      CODE     ---       #832
      0100698DH   LINE      CODE     ---       #833
      01006993H   LINE      CODE     ---       #835
      010069C6H   LINE      CODE     ---       #836
      010069E9H   LINE      CODE     ---       #837
      010069F1H   LINE      CODE     ---       #838
      01006A07H   LINE      CODE     ---       #840
      01006A16H   LINE      CODE     ---       #842
      01006A1FH   LINE      CODE     ---       #845
      01006A43H   LINE      CODE     ---       #846
      01006A4CH   LINE      CODE     ---       #847
      ---         BLOCKEND  ---      ---       LVL=0

      ---         MODULE    ---      ---       GLOBALS
      00000021H.2 PUBLIC    BIT      BIT       interrupt_flag
      020010D2H   PUBLIC    XDATA    INT       imus_data_size
      0200106CH   PUBLIC    XDATA    ---       Accel
      02001068H   PUBLIC    XDATA    DWORD     timer_value0
      02001046H   PUBLIC    XDATA    ---       single_imu_size
      02000DD1H   PUBLIC    XDATA    ---       g_imuNew
      02000D4CH   PUBLIC    XDATA    ---       g_rx
      02000D19H   PUBLIC    XDATA    ---       MagCal
      02000D15H   PUBLIC    XDATA    DWORD     timer_value
      02000CAFH   PUBLIC    XDATA    ---       Gyro
      02000C9FH   PUBLIC    XDATA    ---       Quat
      02000C7DH   PUBLIC    XDATA    ---       Temp
      02000C17H   PUBLIC    XDATA    ---       Mag
      02000C16H   PUBLIC    XDATA    BYTE      N_IMU_Connected
      020009A1H   PUBLIC    XDATA    ---       g_imu
      02000948H   PUBLIC    XDATA    ---       g_mem
      02000937H   PUBLIC    XDATA    ---       IMU_connected
      020008DEH   PUBLIC    XDATA    ---       c_mem
      000000CAH   SFRSYM    DATA     BYTE      SFRPRT5SEL
      000000DAH   SFRSYM    DATA     BYTE      SFRPRT6SEL
      000000D0H.6 SFRSYM    DATA     BIT       AC
      000000A8H.7 SFRSYM    DATA     BIT       EA
      000000A8H   SFRSYM    DATA     BYTE      IE
      00000085H   SFRSYM    DATA     BYTE      DPH1
      00000084H   SFRSYM    DATA     BYTE      DPL1
      000000D0H.7 SFRSYM    DATA     BIT       CY
      000000A0H   SFRSYM    DATA     BYTE      P2AX
      00000095H   SFRSYM    DATA     BYTE      DPX1
      00000081H   SFRSYM    DATA     BYTE      SP
      000000D0H.2 SFRSYM    DATA     BIT       OV
      00000080H   SFRSYM    DATA     BYTE      SFRPRT0DR
      00000090H   SFRSYM    DATA     BYTE      SFRPRT1DR
      000000F2H   SFRSYM    DATA     BYTE      SFRPRT12SEL
      00000098H   SFRSYM    DATA     BYTE      SFRPRT2DR
      000000B0H   SFRSYM    DATA     BYTE      SFRPRT3DR
      000000C0H   SFRSYM    DATA     BYTE      SFRPRT4DR
      000000FAH   SFRSYM    DATA     BYTE      SFRPRT15SEL
      000000C8H   SFRSYM    DATA     BYTE      SFRPRT5DR
      000000D8H   SFRSYM    DATA     BYTE      SFRPRT6DR
      00000089H   SFRSYM    DATA     BYTE      SFRPRT0PS
      00000091H   SFRSYM    DATA     BYTE      SFRPRT1PS
      00000099H   SFRSYM    DATA     BYTE      SFRPRT2PS
      000000B1H   SFRSYM    DATA     BYTE      SFRPRT3PS
      000000C1H   SFRSYM    DATA     BYTE      SFRPRT4PS
      000000C9H   SFRSYM    DATA     BYTE      SFRPRT5PS
      000000D9H   SFRSYM    DATA     BYTE      SFRPRT6PS
      000000EAH   SFRSYM    DATA     BYTE      MXAX
      000000F0H   SFRSYM    DATA     BYTE      B
      000000E0H   SFRSYM    DATA     BYTE      ACC
      000000D0H   SFRSYM    DATA     BIT       P
LX51 LINKER/LOCATER V4.64.0.0                                                         03/12/2018  09:19:57  PAGE 37


      000000D0H.3 SFRSYM    DATA     BIT       RS0
      000000D0H.4 SFRSYM    DATA     BIT       RS1
      00000083H   SFRSYM    DATA     BYTE      DPH
      000000E8H   SFRSYM    DATA     BYTE      SFRPRT12DR
      00000082H   SFRSYM    DATA     BYTE      DPL
      000000F8H   SFRSYM    DATA     BYTE      SFRPRT15DR
      00000086H   SFRSYM    DATA     BYTE      DPS
      000000E9H   SFRSYM    DATA     BYTE      SFRPRT12PS
      00000093H   SFRSYM    DATA     BYTE      DPX
      000000F9H   SFRSYM    DATA     BYTE      SFRPRT15PS
      000000D0H.5 SFRSYM    DATA     BIT       F0
      000000D0H.1 SFRSYM    DATA     BIT       F1
      0000008AH   SFRSYM    DATA     BYTE      SFRPRT0SEL
      000000D0H   SFRSYM    DATA     BYTE      PSW
      000000A2H   SFRSYM    DATA     BYTE      SFRPRT1SEL
      0000009AH   SFRSYM    DATA     BYTE      SFRPRT2SEL
      000000B2H   SFRSYM    DATA     BYTE      SFRPRT3SEL
      000000C2H   SFRSYM    DATA     BYTE      SFRPRT4SEL

      ---         MODULE    ---      ---       INTERRUPTIONS
      01008AECH   PUBLIC    CODE     ---       function_scheduler
      010072FBH   PUBLIC    CODE     ---       interrupt_manager
      01009272H   PUBLIC    CODE     ---       ISR_RS485_RX_ExInterrupt
      000000CAH   SFRSYM    DATA     BYTE      SFRPRT5SEL
      000000DAH   SFRSYM    DATA     BYTE      SFRPRT6SEL
      000000D0H.6 SFRSYM    DATA     BIT       AC
      000000A8H.7 SFRSYM    DATA     BIT       EA
      000000A8H   SFRSYM    DATA     BYTE      IE
      00000085H   SFRSYM    DATA     BYTE      DPH1
      00000084H   SFRSYM    DATA     BYTE      DPL1
      000000D0H.7 SFRSYM    DATA     BIT       CY
      000000A0H   SFRSYM    DATA     BYTE      P2AX
      00000095H   SFRSYM    DATA     BYTE      DPX1
      00000081H   SFRSYM    DATA     BYTE      SP
      000000D0H.2 SFRSYM    DATA     BIT       OV
      00000080H   SFRSYM    DATA     BYTE      SFRPRT0DR
      00000090H   SFRSYM    DATA     BYTE      SFRPRT1DR
      000000F2H   SFRSYM    DATA     BYTE      SFRPRT12SEL
      00000098H   SFRSYM    DATA     BYTE      SFRPRT2DR
      000000B0H   SFRSYM    DATA     BYTE      SFRPRT3DR
      000000C0H   SFRSYM    DATA     BYTE      SFRPRT4DR
      000000FAH   SFRSYM    DATA     BYTE      SFRPRT15SEL
      000000C8H   SFRSYM    DATA     BYTE      SFRPRT5DR
      000000D8H   SFRSYM    DATA     BYTE      SFRPRT6DR
      00000089H   SFRSYM    DATA     BYTE      SFRPRT0PS
      00000091H   SFRSYM    DATA     BYTE      SFRPRT1PS
      00000099H   SFRSYM    DATA     BYTE      SFRPRT2PS
      000000B1H   SFRSYM    DATA     BYTE      SFRPRT3PS
      000000C1H   SFRSYM    DATA     BYTE      SFRPRT4PS
      000000C9H   SFRSYM    DATA     BYTE      SFRPRT5PS
      000000D9H   SFRSYM    DATA     BYTE      SFRPRT6PS
      000000EAH   SFRSYM    DATA     BYTE      MXAX
      000000F0H   SFRSYM    DATA     BYTE      B
      000000E0H   SFRSYM    DATA     BYTE      ACC
      000000D0H   SFRSYM    DATA     BIT       P
      000000D0H.3 SFRSYM    DATA     BIT       RS0
      000000D0H.4 SFRSYM    DATA     BIT       RS1
      00000083H   SFRSYM    DATA     BYTE      DPH
      000000E8H   SFRSYM    DATA     BYTE      SFRPRT12DR
      00000082H   SFRSYM    DATA     BYTE      DPL
      000000F8H   SFRSYM    DATA     BYTE      SFRPRT15DR
      00000086H   SFRSYM    DATA     BYTE      DPS
      000000E9H   SFRSYM    DATA     BYTE      SFRPRT12PS
      00000093H   SFRSYM    DATA     BYTE      DPX
      000000F9H   SFRSYM    DATA     BYTE      SFRPRT15PS
LX51 LINKER/LOCATER V4.64.0.0                                                         03/12/2018  09:19:57  PAGE 38


      000000D0H.5 SFRSYM    DATA     BIT       F0
      000000D0H.1 SFRSYM    DATA     BIT       F1
      0000008AH   SFRSYM    DATA     BYTE      SFRPRT0SEL
      000000D0H   SFRSYM    DATA     BYTE      PSW
      000000A2H   SFRSYM    DATA     BYTE      SFRPRT1SEL
      0000009AH   SFRSYM    DATA     BYTE      SFRPRT2SEL
      000000B2H   SFRSYM    DATA     BYTE      SFRPRT3SEL
      000000C2H   SFRSYM    DATA     BYTE      SFRPRT4SEL

      01009272H   BLOCK     CODE     ---       LVL=0
      01009272H   LINE      CODE     ---       #70
      01009272H   LINE      CODE     ---       #74
      01009274H   LINE      CODE     ---       #76
      ---         BLOCKEND  ---      ---       LVL=0

      010072FBH   BLOCK     CODE     ---       LVL=0
      010072FBH   BLOCK     CODE     NEAR LAB  LVL=1
      00000022H   SYMBOL    DATA     BYTE      state
      00000023H   SYMBOL    DATA     BYTE      data_packet_index
      00000024H   SYMBOL    DATA     BYTE      data_packet_length
      02001522H   SYMBOL    XDATA    ---       data_packet_buffer
      00000025H   SYMBOL    DATA     ---       rx_queue
      00000008H   SYMBOL    DATA     BYTE      rx_data
      00000020H.0 SYMBOL    BIT      BIT       rx_data_type
      00000009H   SYMBOL    DATA     BYTE      package_count
      ---         BLOCKEND  ---      ---       LVL=1
      010072FBH   LINE      CODE     ---       #93
      010072FBH   LINE      CODE     ---       #109
      010072FEH   LINE      CODE     ---       #115
      01007311H   LINE      CODE     ---       #119
      01007316H   LINE      CODE     ---       #121
      0100732EH   LINE      CODE     ---       #123
      0100732EH   LINE      CODE     ---       #125
      01007331H   LINE      CODE     ---       #126
      01007334H   LINE      CODE     ---       #127
      01007337H   LINE      CODE     ---       #130
      01007341H   LINE      CODE     ---       #131
      01007344H   LINE      CODE     ---       #132
      01007346H   LINE      CODE     ---       #133
      01007348H   LINE      CODE     ---       #134
      0100734BH   LINE      CODE     ---       #135
      0100734DH   LINE      CODE     ---       #136
      0100735DH   LINE      CODE     ---       #139
      01007362H   LINE      CODE     ---       #140
      01007364H   LINE      CODE     ---       #143
      01007364H   LINE      CODE     ---       #146
      01007370H   LINE      CODE     ---       #147
      01007374H   LINE      CODE     ---       #149
      01007376H   LINE      CODE     ---       #151
      01007379H   LINE      CODE     ---       #152
      0100737CH   LINE      CODE     ---       #153
      0100737EH   LINE      CODE     ---       #156
      0100737EH   LINE      CODE     ---       #159
      01007381H   LINE      CODE     ---       #161
      01007388H   LINE      CODE     ---       #162
      0100738BH   LINE      CODE     ---       #163
      0100738DH   LINE      CODE     ---       #164
      01007397H   LINE      CODE     ---       #165
      0100739AH   LINE      CODE     ---       #166
      0100739CH   LINE      CODE     ---       #167
      0100739FH   LINE      CODE     ---       #168
      010073A2H   LINE      CODE     ---       #170
      010073A5H   LINE      CODE     ---       #171
      010073ABH   LINE      CODE     ---       #173
      010073AEH   LINE      CODE     ---       #174
LX51 LINKER/LOCATER V4.64.0.0                                                         03/12/2018  09:19:57  PAGE 39


      010073AEH   LINE      CODE     ---       #175
      010073B1H   LINE      CODE     ---       #178
      010073B1H   LINE      CODE     ---       #180
      010073BFH   LINE      CODE     ---       #181
      010073C1H   LINE      CODE     ---       #184
      010073CBH   LINE      CODE     ---       #186
      010073CEH   LINE      CODE     ---       #188
      010073E1H   LINE      CODE     ---       #189
      010073EAH   LINE      CODE     ---       #190
      010073F0H   LINE      CODE     ---       #191
      010073F3H   LINE      CODE     ---       #192
      010073F3H   LINE      CODE     ---       #194
      010073F6H   LINE      CODE     ---       #195
      010073F8H   LINE      CODE     ---       #196
      010073FAH   LINE      CODE     ---       #197
      010073FCH   LINE      CODE     ---       #199
      010073FCH   LINE      CODE     ---       #200
      010073FFH   LINE      CODE     ---       #203
      010073FFH   LINE      CODE     ---       #204
      01007408H   LINE      CODE     ---       #205
      0100740AH   LINE      CODE     ---       #206
      0100740CH   LINE      CODE     ---       #207
      01007411H   LINE      CODE     ---       #208
      01007416H   LINE      CODE     ---       #209
      01007419H   LINE      CODE     ---       #210
      0100741BH   LINE      CODE     ---       #211
      0100741BH   LINE      CODE     ---       #212
      0100741EH   LINE      CODE     ---       #213
      0100741EH   LINE      CODE     ---       #214
      01007421H   LINE      CODE     ---       #215
      ---         BLOCKEND  ---      ---       LVL=0

      01008AECH   BLOCK     CODE     ---       LVL=0
      01008AECH   LINE      CODE     ---       #224
      01008AECH   LINE      CODE     ---       #226
      01008AF5H   LINE      CODE     ---       #230
      01008AF8H   LINE      CODE     ---       #231
      01008AFAH   LINE      CODE     ---       #232
      01008AFDH   LINE      CODE     ---       #233
      01008AFDH   LINE      CODE     ---       #235
      01008B00H   LINE      CODE     ---       #238
      01008B13H   LINE      CODE     ---       #240
      01008B16H   LINE      CODE     ---       #241
      01008B18H   LINE      CODE     ---       #242
      01008B1BH   LINE      CODE     ---       #243
      01008B1BH   LINE      CODE     ---       #245
      01008B24H   LINE      CODE     ---       #246
      01008B2FH   LINE      CODE     ---       #248
      ---         BLOCKEND  ---      ---       LVL=0

      ---         MODULE    ---      ---       MAIN
      0100835DH   PUBLIC    CODE     ---       main
      000000CAH   SFRSYM    DATA     BYTE      SFRPRT5SEL
      000000DAH   SFRSYM    DATA     BYTE      SFRPRT6SEL
      000000D0H.6 SFRSYM    DATA     BIT       AC
      000000A8H.7 SFRSYM    DATA     BIT       EA
      000000A8H   SFRSYM    DATA     BYTE      IE
      00000085H   SFRSYM    DATA     BYTE      DPH1
      00000084H   SFRSYM    DATA     BYTE      DPL1
      000000D0H.7 SFRSYM    DATA     BIT       CY
      000000A0H   SFRSYM    DATA     BYTE      P2AX
      00000095H   SFRSYM    DATA     BYTE      DPX1
      00000081H   SFRSYM    DATA     BYTE      SP
      000000D0H.2 SFRSYM    DATA     BIT       OV
      00000080H   SFRSYM    DATA     BYTE      SFRPRT0DR
LX51 LINKER/LOCATER V4.64.0.0                                                         03/12/2018  09:19:57  PAGE 40


      00000090H   SFRSYM    DATA     BYTE      SFRPRT1DR
      000000F2H   SFRSYM    DATA     BYTE      SFRPRT12SEL
      00000098H   SFRSYM    DATA     BYTE      SFRPRT2DR
      000000B0H   SFRSYM    DATA     BYTE      SFRPRT3DR
      000000C0H   SFRSYM    DATA     BYTE      SFRPRT4DR
      000000FAH   SFRSYM    DATA     BYTE      SFRPRT15SEL
      000000C8H   SFRSYM    DATA     BYTE      SFRPRT5DR
      000000D8H   SFRSYM    DATA     BYTE      SFRPRT6DR
      00000089H   SFRSYM    DATA     BYTE      SFRPRT0PS
      00000091H   SFRSYM    DATA     BYTE      SFRPRT1PS
      00000099H   SFRSYM    DATA     BYTE      SFRPRT2PS
      000000B1H   SFRSYM    DATA     BYTE      SFRPRT3PS
      000000C1H   SFRSYM    DATA     BYTE      SFRPRT4PS
      000000C9H   SFRSYM    DATA     BYTE      SFRPRT5PS
      000000D9H   SFRSYM    DATA     BYTE      SFRPRT6PS
      000000EAH   SFRSYM    DATA     BYTE      MXAX
      000000F0H   SFRSYM    DATA     BYTE      B
      000000E0H   SFRSYM    DATA     BYTE      ACC
      000000D0H   SFRSYM    DATA     BIT       P
      000000D0H.3 SFRSYM    DATA     BIT       RS0
      000000D0H.4 SFRSYM    DATA     BIT       RS1
      00000083H   SFRSYM    DATA     BYTE      DPH
      000000E8H   SFRSYM    DATA     BYTE      SFRPRT12DR
      00000082H   SFRSYM    DATA     BYTE      DPL
      000000F8H   SFRSYM    DATA     BYTE      SFRPRT15DR
      00000086H   SFRSYM    DATA     BYTE      DPS
      000000E9H   SFRSYM    DATA     BYTE      SFRPRT12PS
      00000093H   SFRSYM    DATA     BYTE      DPX
      000000F9H   SFRSYM    DATA     BYTE      SFRPRT15PS
      000000D0H.5 SFRSYM    DATA     BIT       F0
      000000D0H.1 SFRSYM    DATA     BIT       F1
      0000008AH   SFRSYM    DATA     BYTE      SFRPRT0SEL
      000000D0H   SFRSYM    DATA     BYTE      PSW
      000000A2H   SFRSYM    DATA     BYTE      SFRPRT1SEL
      0000009AH   SFRSYM    DATA     BYTE      SFRPRT2SEL
      000000B2H   SFRSYM    DATA     BYTE      SFRPRT3SEL
      000000C2H   SFRSYM    DATA     BYTE      SFRPRT4SEL

      0100835DH   BLOCK     CODE     ---       LVL=0
      0100835DH   LINE      CODE     ---       #71
      0100835DH   LINE      CODE     ---       #72
      0100835DH   LINE      CODE     ---       #77
      01008360H   LINE      CODE     ---       #78
      01008363H   LINE      CODE     ---       #82
      0100836CH   LINE      CODE     ---       #83
      01008371H   LINE      CODE     ---       #87
      01008374H   LINE      CODE     ---       #88
      01008377H   LINE      CODE     ---       #89
      0100837AH   LINE      CODE     ---       #91
      0100837DH   LINE      CODE     ---       #92
      01008380H   LINE      CODE     ---       #94
      01008387H   LINE      CODE     ---       #96
      0100838CH   LINE      CODE     ---       #100
      0100838FH   LINE      CODE     ---       #101
      01008392H   LINE      CODE     ---       #103
      0100839AH   LINE      CODE     ---       #106
      0100839DH   LINE      CODE     ---       #107
      010083A0H   LINE      CODE     ---       #108
      010083A3H   LINE      CODE     ---       #109
      010083A6H   LINE      CODE     ---       #110
      010083A9H   LINE      CODE     ---       #111
      010083ACH   LINE      CODE     ---       #112
      010083B5H   LINE      CODE     ---       #114
      010083BAH   LINE      CODE     ---       #117
      010083BDH   LINE      CODE     ---       #123
LX51 LINKER/LOCATER V4.64.0.0                                                         03/12/2018  09:19:57  PAGE 41


      010083C4H   LINE      CODE     ---       #124
      010083C8H   LINE      CODE     ---       #128
      010083C8H   LINE      CODE     ---       #129
      010083C8H   LINE      CODE     ---       #131
      010083CDH   LINE      CODE     ---       #134
      010083D0H   LINE      CODE     ---       #137
      010083D6H   LINE      CODE     ---       #139
      010083D9H   LINE      CODE     ---       #141
      010083DBH   LINE      CODE     ---       #144
      010083DEH   LINE      CODE     ---       #145
      010083DEH   LINE      CODE     ---       #146
      010083E0H   LINE      CODE     ---       #149
      010083E5H   LINE      CODE     ---       #152
      010083EDH   LINE      CODE     ---       #154
      010083F4H   LINE      CODE     ---       #155
      010083F7H   LINE      CODE     ---       #156
      010083F9H   LINE      CODE     ---       #157
      010083F9H   LINE      CODE     ---       #158
      ---         BLOCKEND  ---      ---       LVL=0

      ---         MODULE    ---      ---       UTILS
      01007041H   PUBLIC    CODE     ---       _v4_normalize
      01007548H   PUBLIC    CODE     ---       _v3_normalize
      01007DD7H   PUBLIC    CODE     ---       _invSqrt
      000000CAH   SFRSYM    DATA     BYTE      SFRPRT5SEL
      000000DAH   SFRSYM    DATA     BYTE      SFRPRT6SEL
      000000D0H.6 SFRSYM    DATA     BIT       AC
      000000A8H.7 SFRSYM    DATA     BIT       EA
      000000A8H   SFRSYM    DATA     BYTE      IE
      00000085H   SFRSYM    DATA     BYTE      DPH1
      00000084H   SFRSYM    DATA     BYTE      DPL1
      000000D0H.7 SFRSYM    DATA     BIT       CY
      000000A0H   SFRSYM    DATA     BYTE      P2AX
      00000095H   SFRSYM    DATA     BYTE      DPX1
      00000081H   SFRSYM    DATA     BYTE      SP
      000000D0H.2 SFRSYM    DATA     BIT       OV
      00000080H   SFRSYM    DATA     BYTE      SFRPRT0DR
      00000090H   SFRSYM    DATA     BYTE      SFRPRT1DR
      000000F2H   SFRSYM    DATA     BYTE      SFRPRT12SEL
      00000098H   SFRSYM    DATA     BYTE      SFRPRT2DR
      000000B0H   SFRSYM    DATA     BYTE      SFRPRT3DR
      000000C0H   SFRSYM    DATA     BYTE      SFRPRT4DR
      000000FAH   SFRSYM    DATA     BYTE      SFRPRT15SEL
      000000C8H   SFRSYM    DATA     BYTE      SFRPRT5DR
      000000D8H   SFRSYM    DATA     BYTE      SFRPRT6DR
      00000089H   SFRSYM    DATA     BYTE      SFRPRT0PS
      00000091H   SFRSYM    DATA     BYTE      SFRPRT1PS
      00000099H   SFRSYM    DATA     BYTE      SFRPRT2PS
      000000B1H   SFRSYM    DATA     BYTE      SFRPRT3PS
      000000C1H   SFRSYM    DATA     BYTE      SFRPRT4PS
      000000C9H   SFRSYM    DATA     BYTE      SFRPRT5PS
      000000D9H   SFRSYM    DATA     BYTE      SFRPRT6PS
      000000EAH   SFRSYM    DATA     BYTE      MXAX
      000000F0H   SFRSYM    DATA     BYTE      B
      000000E0H   SFRSYM    DATA     BYTE      ACC
      000000D0H   SFRSYM    DATA     BIT       P
      000000D0H.3 SFRSYM    DATA     BIT       RS0
      000000D0H.4 SFRSYM    DATA     BIT       RS1
      00000083H   SFRSYM    DATA     BYTE      DPH
      000000E8H   SFRSYM    DATA     BYTE      SFRPRT12DR
      00000082H   SFRSYM    DATA     BYTE      DPL
      000000F8H   SFRSYM    DATA     BYTE      SFRPRT15DR
      00000086H   SFRSYM    DATA     BYTE      DPS
      000000E9H   SFRSYM    DATA     BYTE      SFRPRT12PS
      00000093H   SFRSYM    DATA     BYTE      DPX
LX51 LINKER/LOCATER V4.64.0.0                                                         03/12/2018  09:19:57  PAGE 42


      000000F9H   SFRSYM    DATA     BYTE      SFRPRT15PS
      000000D0H.5 SFRSYM    DATA     BIT       F0
      000000D0H.1 SFRSYM    DATA     BIT       F1
      0000008AH   SFRSYM    DATA     BYTE      SFRPRT0SEL
      000000D0H   SFRSYM    DATA     BYTE      PSW
      000000A2H   SFRSYM    DATA     BYTE      SFRPRT1SEL
      0000009AH   SFRSYM    DATA     BYTE      SFRPRT2SEL
      000000B2H   SFRSYM    DATA     BYTE      SFRPRT3SEL
      000000C2H   SFRSYM    DATA     BYTE      SFRPRT4SEL

      01007DD7H   BLOCK     CODE     ---       LVL=0
      02000066H   SYMBOL    XDATA    FLOAT     x
      01007DDDH   BLOCK     CODE     NEAR LAB  LVL=1
      0200006AH   SYMBOL    XDATA    FLOAT     halfx
      0200006EH   SYMBOL    XDATA    FLOAT     y
      02000072H   SYMBOL    XDATA    LONG      i
      ---         BLOCKEND  ---      ---       LVL=1
      01007DD7H   LINE      CODE     ---       #53
      01007DDDH   LINE      CODE     ---       #54
      01007DFAH   LINE      CODE     ---       #55
      01007E0EH   LINE      CODE     ---       #56
      01007E20H   LINE      CODE     ---       #57
      01007E4AH   LINE      CODE     ---       #58
      01007E5EH   LINE      CODE     ---       #59
      01007EB7H   LINE      CODE     ---       #60
      01007EC5H   LINE      CODE     ---       #61
      ---         BLOCKEND  ---      ---       LVL=0

      01007548H   BLOCK     CODE     ---       LVL=0
      0200005FH   SYMBOL    XDATA    ---       v3_in
      01007553H   BLOCK     CODE     NEAR LAB  LVL=1
      02000062H   SYMBOL    XDATA    FLOAT     norm
      ---         BLOCKEND  ---      ---       LVL=1
      01007548H   LINE      CODE     ---       #66
      01007553H   LINE      CODE     ---       #68
      010075CDH   LINE      CODE     ---       #70
      010075FBH   LINE      CODE     ---       #71
      01007632H   LINE      CODE     ---       #72
      01007669H   LINE      CODE     ---       #73
      ---         BLOCKEND  ---      ---       LVL=0

      01007041H   BLOCK     CODE     ---       LVL=0
      0200005FH   SYMBOL    XDATA    ---       v4_in
      0100704CH   BLOCK     CODE     NEAR LAB  LVL=1
      02000062H   SYMBOL    XDATA    FLOAT     norm
      ---         BLOCKEND  ---      ---       LVL=1
      01007041H   LINE      CODE     ---       #78
      0100704CH   LINE      CODE     ---       #80
      010070F7H   LINE      CODE     ---       #82
      01007125H   LINE      CODE     ---       #83
      0100715CH   LINE      CODE     ---       #84
      01007193H   LINE      CODE     ---       #85
      010071CAH   LINE      CODE     ---       #86
      ---         BLOCKEND  ---      ---       LVL=0

      ---         MODULE    ---      ---       IMU_FUNCTIONS
      01008EE0H   PUBLIC    CODE     ---       SPI_delay
      01008F78H   PUBLIC    CODE     ---       _ReadControlRegister
      01008CFFH   PUBLIC    CODE     ---       _WriteControlRegister
      010087B9H   PUBLIC    CODE     ---       _ReadTemp
      01006A4DH   PUBLIC    CODE     ---       ReadAllIMUs
      010034DCH   PUBLIC    CODE     ---       _ReadQuat
      0100850FH   PUBLIC    CODE     ---       _ReadMagCal
      01007ADEH   PUBLIC    CODE     ---       _ReadMag
      010078A8H   PUBLIC    CODE     ---       _ReadGyro
LX51 LINKER/LOCATER V4.64.0.0                                                         03/12/2018  09:19:57  PAGE 43


      0100778CH   PUBLIC    CODE     ---       _ReadAcc
      010082B4H   PUBLIC    CODE     ---       _ReadIMU
      01006D88H   PUBLIC    CODE     ---       InitIMUgeneral
      01008A5CH   PUBLIC    CODE     ---       _ChipSelector
      01007CE6H   PUBLIC    CODE     ---       InitIMUMagCal
      01007BF5H   PUBLIC    CODE     ---       InitIMU
      000000CAH   SFRSYM    DATA     BYTE      SFRPRT5SEL
      000000DAH   SFRSYM    DATA     BYTE      SFRPRT6SEL
      000000D0H.6 SFRSYM    DATA     BIT       AC
      000000A8H.7 SFRSYM    DATA     BIT       EA
      000000A8H   SFRSYM    DATA     BYTE      IE
      00000085H   SFRSYM    DATA     BYTE      DPH1
      00000084H   SFRSYM    DATA     BYTE      DPL1
      000000D0H.7 SFRSYM    DATA     BIT       CY
      000000A0H   SFRSYM    DATA     BYTE      P2AX
      00000095H   SFRSYM    DATA     BYTE      DPX1
      00000081H   SFRSYM    DATA     BYTE      SP
      000000D0H.2 SFRSYM    DATA     BIT       OV
      00000080H   SFRSYM    DATA     BYTE      SFRPRT0DR
      00000090H   SFRSYM    DATA     BYTE      SFRPRT1DR
      000000F2H   SFRSYM    DATA     BYTE      SFRPRT12SEL
      00000098H   SFRSYM    DATA     BYTE      SFRPRT2DR
      000000B0H   SFRSYM    DATA     BYTE      SFRPRT3DR
      000000C0H   SFRSYM    DATA     BYTE      SFRPRT4DR
      000000FAH   SFRSYM    DATA     BYTE      SFRPRT15SEL
      000000C8H   SFRSYM    DATA     BYTE      SFRPRT5DR
      000000D8H   SFRSYM    DATA     BYTE      SFRPRT6DR
      00000089H   SFRSYM    DATA     BYTE      SFRPRT0PS
      00000091H   SFRSYM    DATA     BYTE      SFRPRT1PS
      00000099H   SFRSYM    DATA     BYTE      SFRPRT2PS
      000000B1H   SFRSYM    DATA     BYTE      SFRPRT3PS
      000000C1H   SFRSYM    DATA     BYTE      SFRPRT4PS
      000000C9H   SFRSYM    DATA     BYTE      SFRPRT5PS
      000000D9H   SFRSYM    DATA     BYTE      SFRPRT6PS
      000000EAH   SFRSYM    DATA     BYTE      MXAX
      000000F0H   SFRSYM    DATA     BYTE      B
      000000E0H   SFRSYM    DATA     BYTE      ACC
      000000D0H   SFRSYM    DATA     BIT       P
      000000D0H.3 SFRSYM    DATA     BIT       RS0
      000000D0H.4 SFRSYM    DATA     BIT       RS1
      00000083H   SFRSYM    DATA     BYTE      DPH
      000000E8H   SFRSYM    DATA     BYTE      SFRPRT12DR
      00000082H   SFRSYM    DATA     BYTE      DPL
      000000F8H   SFRSYM    DATA     BYTE      SFRPRT15DR
      00000086H   SFRSYM    DATA     BYTE      DPS
      000000E9H   SFRSYM    DATA     BYTE      SFRPRT12PS
      00000093H   SFRSYM    DATA     BYTE      DPX
      000000F9H   SFRSYM    DATA     BYTE      SFRPRT15PS
      000000D0H.5 SFRSYM    DATA     BIT       F0
      000000D0H.1 SFRSYM    DATA     BIT       F1
      0000008AH   SFRSYM    DATA     BYTE      SFRPRT0SEL
      000000D0H   SFRSYM    DATA     BYTE      PSW
      000000A2H   SFRSYM    DATA     BYTE      SFRPRT1SEL
      0000009AH   SFRSYM    DATA     BYTE      SFRPRT2SEL
      000000B2H   SFRSYM    DATA     BYTE      SFRPRT3SEL
      000000C2H   SFRSYM    DATA     BYTE      SFRPRT4SEL

      01007BF5H   BLOCK     CODE     ---       LVL=0
      01007BF5H   LINE      CODE     ---       #70
      01007BF5H   LINE      CODE     ---       #72
      01007BFCH   LINE      CODE     ---       #73
      01007C05H   LINE      CODE     ---       #74
      01007C0CH   LINE      CODE     ---       #75
      01007C15H   LINE      CODE     ---       #76
      01007C1CH   LINE      CODE     ---       #77
LX51 LINKER/LOCATER V4.64.0.0                                                         03/12/2018  09:19:57  PAGE 44


      01007C25H   LINE      CODE     ---       #78
      01007C2CH   LINE      CODE     ---       #79
      01007C35H   LINE      CODE     ---       #80
      01007C3CH   LINE      CODE     ---       #81
      01007C45H   LINE      CODE     ---       #82
      01007C4CH   LINE      CODE     ---       #83
      01007C55H   LINE      CODE     ---       #85
      01007C5CH   LINE      CODE     ---       #86
      01007C65H   LINE      CODE     ---       #88
      01007C6CH   LINE      CODE     ---       #89
      01007C75H   LINE      CODE     ---       #90
      01007C7CH   LINE      CODE     ---       #91
      01007C85H   LINE      CODE     ---       #93
      01007C8CH   LINE      CODE     ---       #94
      01007C95H   LINE      CODE     ---       #95
      01007C9CH   LINE      CODE     ---       #96
      01007CA5H   LINE      CODE     ---       #98
      01007CACH   LINE      CODE     ---       #99
      01007CB5H   LINE      CODE     ---       #101
      01007CBCH   LINE      CODE     ---       #102
      01007CC5H   LINE      CODE     ---       #104
      01007CCCH   LINE      CODE     ---       #105
      01007CD5H   LINE      CODE     ---       #106
      01007CDCH   LINE      CODE     ---       #107
      01007CE5H   LINE      CODE     ---       #108
      ---         BLOCKEND  ---      ---       LVL=0

      01007CE6H   BLOCK     CODE     ---       LVL=0
      01007CE6H   LINE      CODE     ---       #113
      01007CE6H   LINE      CODE     ---       #115
      01007CEDH   LINE      CODE     ---       #116
      01007CF6H   LINE      CODE     ---       #117
      01007CFDH   LINE      CODE     ---       #118
      01007D06H   LINE      CODE     ---       #119
      01007D0DH   LINE      CODE     ---       #120
      01007D16H   LINE      CODE     ---       #121
      01007D1DH   LINE      CODE     ---       #122
      01007D26H   LINE      CODE     ---       #123
      01007D2DH   LINE      CODE     ---       #124
      01007D36H   LINE      CODE     ---       #125
      01007D3DH   LINE      CODE     ---       #126
      01007D46H   LINE      CODE     ---       #128
      01007D4DH   LINE      CODE     ---       #129
      01007D56H   LINE      CODE     ---       #131
      01007D5DH   LINE      CODE     ---       #132
      01007D66H   LINE      CODE     ---       #133
      01007D6DH   LINE      CODE     ---       #134
      01007D76H   LINE      CODE     ---       #135
      01007D7DH   LINE      CODE     ---       #136
      01007D86H   LINE      CODE     ---       #137
      01007D8DH   LINE      CODE     ---       #138
      01007D96H   LINE      CODE     ---       #140
      01007D9DH   LINE      CODE     ---       #141
      01007DA6H   LINE      CODE     ---       #142
      01007DADH   LINE      CODE     ---       #143
      01007DB6H   LINE      CODE     ---       #144
      01007DBDH   LINE      CODE     ---       #145
      01007DC6H   LINE      CODE     ---       #146
      01007DCDH   LINE      CODE     ---       #147
      01007DD6H   LINE      CODE     ---       #148
      ---         BLOCKEND  ---      ---       LVL=0

      01008A5CH   BLOCK     CODE     ---       LVL=0
      02000026H   SYMBOL    XDATA    INT       n
      01008A5CH   LINE      CODE     ---       #153
LX51 LINKER/LOCATER V4.64.0.0                                                         03/12/2018  09:19:57  PAGE 45


      01008A64H   LINE      CODE     ---       #154
      01008A64H   LINE      CODE     ---       #155
      01008A69H   LINE      CODE     ---       #156
      01008A6EH   LINE      CODE     ---       #158
      01008A80H   LINE      CODE     ---       #159
      01008A83H   LINE      CODE     ---       #160
      01008A8FH   LINE      CODE     ---       #161
      01008A93H   LINE      CODE     ---       #162
      01008A9FH   LINE      CODE     ---       #163
      01008AA4H   LINE      CODE     ---       #164
      ---         BLOCKEND  ---      ---       LVL=0

      01006D88H   BLOCK     CODE     ---       LVL=0
      01006D88H   BLOCK     CODE     NEAR LAB  LVL=1
      02000000H   SYMBOL    XDATA    BYTE      k_imu
      02000001H   SYMBOL    XDATA    BYTE      count
      02000002H   SYMBOL    XDATA    INT       IMU_ack
      02000004H   SYMBOL    XDATA    ---       tmp
      ---         BLOCKEND  ---      ---       LVL=1
      01006D88H   LINE      CODE     ---       #169
      01006D88H   LINE      CODE     ---       #170
      01006D88H   LINE      CODE     ---       #172
      01006D8DH   LINE      CODE     ---       #177
      01006D9AH   LINE      CODE     ---       #178
      01006DA9H   LINE      CODE     ---       #181
      01006DB8H   LINE      CODE     ---       #182
      01006DB8H   LINE      CODE     ---       #183
      01006DBDH   LINE      CODE     ---       #184
      01006DC6H   LINE      CODE     ---       #185
      01006DCBH   LINE      CODE     ---       #186
      01006DD3H   LINE      CODE     ---       #189
      01006DD9H   LINE      CODE     ---       #190
      01006DE2H   LINE      CODE     ---       #191
      01006DEFH   LINE      CODE     ---       #192
      01006DF6H   LINE      CODE     ---       #193
      01006DFAH   LINE      CODE     ---       #194
      01006E08H   LINE      CODE     ---       #195
      01006E08H   LINE      CODE     ---       #196
      01006E0DH   LINE      CODE     ---       #197
      01006E16H   LINE      CODE     ---       #198
      01006E25H   LINE      CODE     ---       #199
      01006E29H   LINE      CODE     ---       #200
      01006E29H   LINE      CODE     ---       #201
      01006E2FH   LINE      CODE     ---       #202
      01006E36H   LINE      CODE     ---       #203
      01006E4AH   LINE      CODE     ---       #204
      01006E4CH   LINE      CODE     ---       #206
      01006E5FH   LINE      CODE     ---       #207
      01006E67H   LINE      CODE     ---       #209
      01006E76H   LINE      CODE     ---       #210
      01006E76H   LINE      CODE     ---       #211
      01006E8BH   LINE      CODE     ---       #212
      01006E8BH   LINE      CODE     ---       #213
      01006E9CH   LINE      CODE     ---       #214
      01006EA2H   LINE      CODE     ---       #215
      01006EA2H   LINE      CODE     ---       #216
      01006EAAH   LINE      CODE     ---       #219
      01006EAFH   LINE      CODE     ---       #220
      01006EB8H   LINE      CODE     ---       #221
      01006EBDH   LINE      CODE     ---       #222
      01006EC6H   LINE      CODE     ---       #223
      01006ED5H   LINE      CODE     ---       #224
      01006ED5H   LINE      CODE     ---       #225
      01006EDAH   LINE      CODE     ---       #226
      01006EE3H   LINE      CODE     ---       #227
LX51 LINKER/LOCATER V4.64.0.0                                                         03/12/2018  09:19:57  PAGE 46


      01006EE6H   LINE      CODE     ---       #228
      01006EEFH   LINE      CODE     ---       #229
      01006EF2H   LINE      CODE     ---       #230
      01006EFBH   LINE      CODE     ---       #231
      01006F03H   LINE      CODE     ---       #232
      01006F0CH   LINE      CODE     ---       #235
      01006F1BH   LINE      CODE     ---       #236
      01006F20H   LINE      CODE     ---       #237
      01006F2AH   LINE      CODE     ---       #238
      01006F32H   LINE      CODE     ---       #239
      01006F3BH   LINE      CODE     ---       #242
      01006F4AH   LINE      CODE     ---       #243
      01006F52H   LINE      CODE     ---       #244
      01006F68H   LINE      CODE     ---       #245
      01006F68H   LINE      CODE     ---       #246
      01007002H   LINE      CODE     ---       #247
      01007029H   LINE      CODE     ---       #248
      01007032H   LINE      CODE     ---       #249
      01007040H   LINE      CODE     ---       #250
      ---         BLOCKEND  ---      ---       LVL=0

      010082B4H   BLOCK     CODE     ---       LVL=0
      02000008H   SYMBOL    XDATA    INT       n
      010082B4H   LINE      CODE     ---       #255
      010082BCH   LINE      CODE     ---       #256
      010082BCH   LINE      CODE     ---       #257
      010082DCH   LINE      CODE     ---       #258
      010082FCH   LINE      CODE     ---       #259
      0100831CH   LINE      CODE     ---       #260
      0100833CH   LINE      CODE     ---       #261
      0100835CH   LINE      CODE     ---       #262
      ---         BLOCKEND  ---      ---       LVL=0

      0100778CH   BLOCK     CODE     ---       LVL=0
      00000006H   SYMBOL    DATA     INT       n
      0100778CH   BLOCK     CODE     NEAR LAB  LVL=1
      0200005FH   SYMBOL    XDATA    BYTE      low
      02000060H   SYMBOL    XDATA    BYTE      high
      02000061H   SYMBOL    XDATA    INT       row
      ---         BLOCKEND  ---      ---       LVL=1
      0100778CH   LINE      CODE     ---       #267
      0100778CH   LINE      CODE     ---       #268
      0100778CH   LINE      CODE     ---       #269
      01007793H   LINE      CODE     ---       #271
      01007799H   LINE      CODE     ---       #274
      010077A3H   LINE      CODE     ---       #275
      010077A6H   LINE      CODE     ---       #276
      010077B0H   LINE      CODE     ---       #277
      010077B3H   LINE      CODE     ---       #279
      010077D2H   LINE      CODE     ---       #280
      010077ECH   LINE      CODE     ---       #281
      010077F3H   LINE      CODE     ---       #284
      010077FDH   LINE      CODE     ---       #285
      01007800H   LINE      CODE     ---       #286
      0100780AH   LINE      CODE     ---       #287
      0100780DH   LINE      CODE     ---       #289
      0100782CH   LINE      CODE     ---       #290
      01007846H   LINE      CODE     ---       #291
      0100784DH   LINE      CODE     ---       #294
      01007857H   LINE      CODE     ---       #295
      0100785AH   LINE      CODE     ---       #296
      01007864H   LINE      CODE     ---       #297
      01007867H   LINE      CODE     ---       #299
      01007886H   LINE      CODE     ---       #300
      010078A0H   LINE      CODE     ---       #301
LX51 LINKER/LOCATER V4.64.0.0                                                         03/12/2018  09:19:57  PAGE 47


      010078A7H   LINE      CODE     ---       #302
      ---         BLOCKEND  ---      ---       LVL=0

      010078A8H   BLOCK     CODE     ---       LVL=0
      00000006H   SYMBOL    DATA     INT       n
      010078A8H   BLOCK     CODE     NEAR LAB  LVL=1
      0200005FH   SYMBOL    XDATA    BYTE      low
      02000060H   SYMBOL    XDATA    BYTE      high
      02000061H   SYMBOL    XDATA    INT       row
      ---         BLOCKEND  ---      ---       LVL=1
      010078A8H   LINE      CODE     ---       #307
      010078A8H   LINE      CODE     ---       #308
      010078AFH   LINE      CODE     ---       #310
      010078B5H   LINE      CODE     ---       #313
      010078BFH   LINE      CODE     ---       #314
      010078C2H   LINE      CODE     ---       #315
      010078CCH   LINE      CODE     ---       #316
      010078CFH   LINE      CODE     ---       #318
      010078EEH   LINE      CODE     ---       #319
      01007908H   LINE      CODE     ---       #320
      0100790FH   LINE      CODE     ---       #323
      01007919H   LINE      CODE     ---       #324
      0100791CH   LINE      CODE     ---       #325
      01007926H   LINE      CODE     ---       #326
      01007929H   LINE      CODE     ---       #328
      01007948H   LINE      CODE     ---       #329
      01007962H   LINE      CODE     ---       #330
      01007969H   LINE      CODE     ---       #333
      01007973H   LINE      CODE     ---       #334
      01007976H   LINE      CODE     ---       #335
      01007980H   LINE      CODE     ---       #336
      01007983H   LINE      CODE     ---       #338
      010079A2H   LINE      CODE     ---       #339
      010079BCH   LINE      CODE     ---       #341
      010079C3H   LINE      CODE     ---       #342
      ---         BLOCKEND  ---      ---       LVL=0

      01007ADEH   BLOCK     CODE     ---       LVL=0
      00000006H   SYMBOL    DATA     INT       n
      01007ADEH   BLOCK     CODE     NEAR LAB  LVL=1
      0200000AH   SYMBOL    XDATA    BYTE      low
      0200000BH   SYMBOL    XDATA    BYTE      high
      0200000CH   SYMBOL    XDATA    INT       row
      ---         BLOCKEND  ---      ---       LVL=1
      01007ADEH   LINE      CODE     ---       #347
      01007ADEH   LINE      CODE     ---       #350
      01007AE6H   LINE      CODE     ---       #352
      01007AF0H   LINE      CODE     ---       #353
      01007AF3H   LINE      CODE     ---       #354
      01007AFDH   LINE      CODE     ---       #355
      01007B00H   LINE      CODE     ---       #357
      01007B1FH   LINE      CODE     ---       #358
      01007B39H   LINE      CODE     ---       #359
      01007B40H   LINE      CODE     ---       #362
      01007B4AH   LINE      CODE     ---       #363
      01007B4DH   LINE      CODE     ---       #364
      01007B57H   LINE      CODE     ---       #365
      01007B5AH   LINE      CODE     ---       #367
      01007B79H   LINE      CODE     ---       #368
      01007B93H   LINE      CODE     ---       #369
      01007B9AH   LINE      CODE     ---       #372
      01007BA4H   LINE      CODE     ---       #373
      01007BA7H   LINE      CODE     ---       #374
      01007BB1H   LINE      CODE     ---       #375
      01007BB4H   LINE      CODE     ---       #377
LX51 LINKER/LOCATER V4.64.0.0                                                         03/12/2018  09:19:57  PAGE 48


      01007BD3H   LINE      CODE     ---       #378
      01007BEDH   LINE      CODE     ---       #379
      01007BF4H   LINE      CODE     ---       #380
      ---         BLOCKEND  ---      ---       LVL=0

      0100850FH   BLOCK     CODE     ---       LVL=0
      00000006H   SYMBOL    DATA     INT       n
      0100850FH   BLOCK     CODE     NEAR LAB  LVL=1
      02000026H   SYMBOL    XDATA    BYTE      read
      02000027H   SYMBOL    XDATA    INT       row
      ---         BLOCKEND  ---      ---       LVL=1
      0100850FH   LINE      CODE     ---       #385
      0100850FH   LINE      CODE     ---       #387
      01008514H   LINE      CODE     ---       #388
      0100851AH   LINE      CODE     ---       #390
      01008524H   LINE      CODE     ---       #391
      0100853DH   LINE      CODE     ---       #392
      01008542H   LINE      CODE     ---       #395
      0100854CH   LINE      CODE     ---       #396
      01008565H   LINE      CODE     ---       #397
      0100856AH   LINE      CODE     ---       #400
      01008574H   LINE      CODE     ---       #401
      0100858DH   LINE      CODE     ---       #402
      01008592H   LINE      CODE     ---       #404
      ---         BLOCKEND  ---      ---       LVL=0

      010034DCH   BLOCK     CODE     ---       LVL=0
      0200000AH   SYMBOL    XDATA    INT       n
      010034E4H   BLOCK     CODE     NEAR LAB  LVL=1
      0200000CH   SYMBOL    XDATA    BYTE      i
      0200000DH   SYMBOL    XDATA    INT       var_h
      0200000FH   SYMBOL    XDATA    FLOAT     qd0
      02000013H   SYMBOL    XDATA    FLOAT     qd1
      02000017H   SYMBOL    XDATA    FLOAT     qd2
      0200001BH   SYMBOL    XDATA    FLOAT     qd3
      0200001FH   SYMBOL    XDATA    ---       aP
      0200002BH   SYMBOL    XDATA    ---       Napla
      0200003BH   SYMBOL    XDATA    ---       g
      0200004BH   SYMBOL    XDATA    ---       qL
      0200005BH   SYMBOL    XDATA    FLOAT     time
      ---         BLOCKEND  ---      ---       LVL=1
      010034DCH   LINE      CODE     ---       #409
      010034E4H   LINE      CODE     ---       #410
      010034E4H   LINE      CODE     ---       #411
      010034E7H   LINE      CODE     ---       #416
      010034F1H   LINE      CODE     ---       #418
      010034FCH   LINE      CODE     ---       #421
      0100351CH   LINE      CODE     ---       #422
      0100353CH   LINE      CODE     ---       #426
      01003578H   LINE      CODE     ---       #431
      0100359CH   LINE      CODE     ---       #432
      010035C1H   LINE      CODE     ---       #433
      010035E5H   LINE      CODE     ---       #434
      0100360AH   LINE      CODE     ---       #435
      0100362EH   LINE      CODE     ---       #436
      01003653H   LINE      CODE     ---       #438
      0100365EH   LINE      CODE     ---       #439
      01003682H   LINE      CODE     ---       #440
      010036B2H   LINE      CODE     ---       #441
      010036DDH   LINE      CODE     ---       #442
      01003701H   LINE      CODE     ---       #443
      01003731H   LINE      CODE     ---       #444
      0100375CH   LINE      CODE     ---       #445
      01003780H   LINE      CODE     ---       #446
      010037B0H   LINE      CODE     ---       #447
LX51 LINKER/LOCATER V4.64.0.0                                                         03/12/2018  09:19:57  PAGE 49


      010037DBH   LINE      CODE     ---       #450
      010037E4H   LINE      CODE     ---       #453
      010037F8H   LINE      CODE     ---       #454
      0100380CH   LINE      CODE     ---       #455
      01003820H   LINE      CODE     ---       #456
      01003834H   LINE      CODE     ---       #459
      01003963H   LINE      CODE     ---       #460
      01003B48H   LINE      CODE     ---       #461
      01003D40H   LINE      CODE     ---       #462
      01003E5CH   LINE      CODE     ---       #464
      01003F02H   LINE      CODE     ---       #465
      01003FA5H   LINE      CODE     ---       #466
      01004048H   LINE      CODE     ---       #467
      010040E9H   LINE      CODE     ---       #469
      0100412FH   LINE      CODE     ---       #470
      01004175H   LINE      CODE     ---       #471
      010041BBH   LINE      CODE     ---       #472
      010041FFH   LINE      CODE     ---       #473
      01004208H   LINE      CODE     ---       #476
      0100421CH   LINE      CODE     ---       #477
      01004230H   LINE      CODE     ---       #478
      01004244H   LINE      CODE     ---       #479
      01004258H   LINE      CODE     ---       #480
      01004258H   LINE      CODE     ---       #481
      01004258H   LINE      CODE     ---       #483
      01004258H   LINE      CODE     ---       #484
      ---         BLOCKEND  ---      ---       LVL=0

      01006A4DH   BLOCK     CODE     ---       LVL=0
      01006A4DH   BLOCK     CODE     NEAR LAB  LVL=1
      02001627H   SYMBOL    XDATA    BYTE      k_imu
      02000000H   SYMBOL    XDATA    WORD      tmp
      02000002H   SYMBOL    XDATA    WORD      i
      02000004H   SYMBOL    XDATA    WORD      j
      02000006H   SYMBOL    XDATA    INT       value
      ---         BLOCKEND  ---      ---       LVL=1
      01006A4DH   LINE      CODE     ---       #489
      01006A4DH   LINE      CODE     ---       #491
      01006A5CH   LINE      CODE     ---       #492
      01006A60H   LINE      CODE     ---       #494
      01006A75H   LINE      CODE     ---       #496
      01006A86H   LINE      CODE     ---       #497
      01006A9AH   LINE      CODE     ---       #499
      01006AB4H   LINE      CODE     ---       #500
      01006AECH   LINE      CODE     ---       #501
      01006B37H   LINE      CODE     ---       #502
      01006B48H   LINE      CODE     ---       #504
      01006B62H   LINE      CODE     ---       #505
      01006B9AH   LINE      CODE     ---       #506
      01006BE5H   LINE      CODE     ---       #507
      01006BF6H   LINE      CODE     ---       #509
      01006C10H   LINE      CODE     ---       #510
      01006C48H   LINE      CODE     ---       #511
      01006C93H   LINE      CODE     ---       #512
      01006CA4H   LINE      CODE     ---       #515
      01006CC1H   LINE      CODE     ---       #516
      01006D1FH   LINE      CODE     ---       #517
      01006D30H   LINE      CODE     ---       #519
      01006D55H   LINE      CODE     ---       #520
      01006D7EH   LINE      CODE     ---       #521
      01006D87H   LINE      CODE     ---       #522
      ---         BLOCKEND  ---      ---       LVL=0

      010087B9H   BLOCK     CODE     ---       LVL=0
      00000006H   SYMBOL    DATA     INT       n
LX51 LINKER/LOCATER V4.64.0.0                                                         03/12/2018  09:19:57  PAGE 50


      010087B9H   BLOCK     CODE     NEAR LAB  LVL=1
      0200000AH   SYMBOL    XDATA    BYTE      low
      0200000BH   SYMBOL    XDATA    BYTE      high
      0200000CH   SYMBOL    XDATA    INT       row
      ---         BLOCKEND  ---      ---       LVL=1
      010087B9H   LINE      CODE     ---       #527
      010087B9H   LINE      CODE     ---       #528
      010087B9H   LINE      CODE     ---       #529
      010087C0H   LINE      CODE     ---       #530
      010087C6H   LINE      CODE     ---       #533
      010087D0H   LINE      CODE     ---       #534
      010087D3H   LINE      CODE     ---       #535
      010087DDH   LINE      CODE     ---       #536
      010087E0H   LINE      CODE     ---       #538
      010087FEH   LINE      CODE     ---       #539
      0100880FH   LINE      CODE     ---       #540
      01008816H   LINE      CODE     ---       #541
      ---         BLOCKEND  ---      ---       LVL=0

      01008CFFH   BLOCK     CODE     ---       LVL=0
      02000026H   SYMBOL    XDATA    BYTE      address
      02000027H   SYMBOL    XDATA    BYTE      dta
      01008CFFH   LINE      CODE     ---       #546
      01008D07H   LINE      CODE     ---       #548
      01008D0AH   LINE      CODE     ---       #549
      01008D0DH   LINE      CODE     ---       #550
      01008D10H   LINE      CODE     ---       #551
      01008D18H   LINE      CODE     ---       #552
      01008D1FH   LINE      CODE     ---       #553
      01008D27H   LINE      CODE     ---       #554
      01008D2EH   LINE      CODE     ---       #555
      ---         BLOCKEND  ---      ---       LVL=0

      01008F78H   BLOCK     CODE     ---       LVL=0
      00000007H   SYMBOL    DATA     BYTE      address
      01008F78H   BLOCK     CODE     NEAR LAB  LVL=1
      00000007H   SYMBOL    DATA     BYTE      controlreg
      ---         BLOCKEND  ---      ---       LVL=1
      01008F78H   LINE      CODE     ---       #560
      01008F78H   LINE      CODE     ---       #563
      01008F7FH   LINE      CODE     ---       #564
      01008F84H   LINE      CODE     ---       #565
      01008F8BH   LINE      CODE     ---       #566
      01008F8EH   LINE      CODE     ---       #567
      01008F8EH   LINE      CODE     ---       #568
      ---         BLOCKEND  ---      ---       LVL=0

      01008EE0H   BLOCK     CODE     ---       LVL=0
      01008EE0H   LINE      CODE     ---       #573
      01008EE0H   LINE      CODE     ---       #574
      01008EEBH   LINE      CODE     ---       #575
      01008EEBH   LINE      CODE     ---       #576
      01008EF2H   LINE      CODE     ---       #577
      01008EF3H   LINE      CODE     ---       #578
      01008EF3H   LINE      CODE     ---       #579
      01008EFAH   LINE      CODE     ---       #580
      01008EFAH   LINE      CODE     ---       #581
      01008EFAH   LINE      CODE     ---       #582
      01008EFAH   LINE      CODE     ---       #583
      01008EFAH   LINE      CODE     ---       #584
      ---         BLOCKEND  ---      ---       LVL=0

      ---         MODULE    ---      ---       CYFITTER_CFG
      01007422H   PUBLIC    CODE     ---       cyfitter_cfg
      000000CAH   SFRSYM    DATA     BYTE      SFRPRT5SEL
LX51 LINKER/LOCATER V4.64.0.0                                                         03/12/2018  09:19:57  PAGE 51


      000000DAH   SFRSYM    DATA     BYTE      SFRPRT6SEL
      000000D0H.6 SFRSYM    DATA     BIT       AC
      000000A8H.7 SFRSYM    DATA     BIT       EA
      000000A8H   SFRSYM    DATA     BYTE      IE
      00000085H   SFRSYM    DATA     BYTE      DPH1
      00000084H   SFRSYM    DATA     BYTE      DPL1
      000000D0H.7 SFRSYM    DATA     BIT       CY
      000000A0H   SFRSYM    DATA     BYTE      P2AX
      00000095H   SFRSYM    DATA     BYTE      DPX1
      00000081H   SFRSYM    DATA     BYTE      SP
      000000D0H.2 SFRSYM    DATA     BIT       OV
      00000080H   SFRSYM    DATA     BYTE      SFRPRT0DR
      00000090H   SFRSYM    DATA     BYTE      SFRPRT1DR
      000000F2H   SFRSYM    DATA     BYTE      SFRPRT12SEL
      00000098H   SFRSYM    DATA     BYTE      SFRPRT2DR
      000000B0H   SFRSYM    DATA     BYTE      SFRPRT3DR
      000000C0H   SFRSYM    DATA     BYTE      SFRPRT4DR
      000000FAH   SFRSYM    DATA     BYTE      SFRPRT15SEL
      000000C8H   SFRSYM    DATA     BYTE      SFRPRT5DR
      000000D8H   SFRSYM    DATA     BYTE      SFRPRT6DR
      00000089H   SFRSYM    DATA     BYTE      SFRPRT0PS
      00000091H   SFRSYM    DATA     BYTE      SFRPRT1PS
      00000099H   SFRSYM    DATA     BYTE      SFRPRT2PS
      000000B1H   SFRSYM    DATA     BYTE      SFRPRT3PS
      000000C1H   SFRSYM    DATA     BYTE      SFRPRT4PS
      000000C9H   SFRSYM    DATA     BYTE      SFRPRT5PS
      000000D9H   SFRSYM    DATA     BYTE      SFRPRT6PS
      000000EAH   SFRSYM    DATA     BYTE      MXAX
      000000F0H   SFRSYM    DATA     BYTE      B
      000000E0H   SFRSYM    DATA     BYTE      ACC
      000000D0H   SFRSYM    DATA     BIT       P
      000000D0H.3 SFRSYM    DATA     BIT       RS0
      000000D0H.4 SFRSYM    DATA     BIT       RS1
      00000083H   SFRSYM    DATA     BYTE      DPH
      000000E8H   SFRSYM    DATA     BYTE      SFRPRT12DR
      00000082H   SFRSYM    DATA     BYTE      DPL
      000000F8H   SFRSYM    DATA     BYTE      SFRPRT15DR
      00000086H   SFRSYM    DATA     BYTE      DPS
      000000E9H   SFRSYM    DATA     BYTE      SFRPRT12PS
      00000093H   SFRSYM    DATA     BYTE      DPX
      000000F9H   SFRSYM    DATA     BYTE      SFRPRT15PS
      000000D0H.5 SFRSYM    DATA     BIT       F0
      000000D0H.1 SFRSYM    DATA     BIT       F1
      0000008AH   SFRSYM    DATA     BYTE      SFRPRT0SEL
      000000D0H   SFRSYM    DATA     BYTE      PSW
      000000A2H   SFRSYM    DATA     BYTE      SFRPRT1SEL
      0000009AH   SFRSYM    DATA     BYTE      SFRPRT2SEL
      000000B2H   SFRSYM    DATA     BYTE      SFRPRT3SEL
      000000C2H   SFRSYM    DATA     BYTE      SFRPRT4SEL
      0100766AH   SYMBOL    CODE     ---       ClockSetup
      01009275H   SYMBOL    CODE     ---       _CyClockStartupError
      01008EC3H   SYMBOL    CODE     ---       AnalogSetDefault
      01008087H   SYMBOL    CODE     ---       cfg_dma_init

      01009275H   BLOCK     CODE     ---       LVL=0
      02000000H   SYMBOL    XDATA    BYTE      errorCode
      01009275H   LINE      CODE     ---       #76
      01009275H   LINE      CODE     ---       #77
      01009275H   LINE      CODE     ---       #80
      01009275H   LINE      CODE     ---       #101
      ---         BLOCKEND  ---      ---       LVL=0

      01008087H   BLOCK     CODE     ---       LVL=0
      01008087H   BLOCK     CODE     NEAR LAB  LVL=1
      0100927BH   SYMBOL    CONST    ---       BS_DSISWITCH_1_5_VAL
LX51 LINKER/LOCATER V4.64.0.0                                                         03/12/2018  09:19:57  PAGE 52


      010092FBH   SYMBOL    CONST    ---       BS_DSI3_5_HV_ROUTING_VAL
      0100937BH   SYMBOL    CONST    ---       CH1_ADDR_DATA0
      01009383H   SYMBOL    CONST    ---       CH2_ADDR_DATA0
      0100938BH   SYMBOL    CONST    ---       CH4_ADDR_DATA0
      01009393H   SYMBOL    CONST    ---       CH5_ADDR_DATA0
      0100939BH   SYMBOL    CONST    ---       CH6_ADDR_DATA0
      010093A3H   SYMBOL    CONST    ---       DMA_TD_START_CMD
      02001620H   SYMBOL    XDATA    DWORD     DMA_ZERO_VAL
      010093A8H   SYMBOL    CONST    ---       CFG_TD_LIST0
      ---         BLOCKEND  ---      ---       LVL=1
      01008087H   LINE      CODE     ---       #327
      01008087H   LINE      CODE     ---       #328
      01008087H   LINE      CODE     ---       #471
      01008092H   LINE      CODE     ---       #472
      01008098H   LINE      CODE     ---       #473
      0100809EH   LINE      CODE     ---       #474
      010080A3H   LINE      CODE     ---       #475
      010080AFH   LINE      CODE     ---       #476
      010080B5H   LINE      CODE     ---       #477
      010080B9H   LINE      CODE     ---       #478
      010080DBH   LINE      CODE     ---       #479
      010080E8H   LINE      CODE     ---       #480
      010080F5H   LINE      CODE     ---       #481
      01008101H   LINE      CODE     ---       #482
      01008107H   LINE      CODE     ---       #483
      0100810CH   LINE      CODE     ---       #484
      01008112H   LINE      CODE     ---       #485
      01008118H   LINE      CODE     ---       #486
      0100811EH   LINE      CODE     ---       #488
      0100811EH   LINE      CODE     ---       #489
      01008124H   LINE      CODE     ---       #490
      01008124H   LINE      CODE     ---       #493
      0100812CH   LINE      CODE     ---       #494
      01008134H   LINE      CODE     ---       #495
      0100813CH   LINE      CODE     ---       #496
      01008144H   LINE      CODE     ---       #497
      0100814CH   LINE      CODE     ---       #498
      01008154H   LINE      CODE     ---       #501
      ---         BLOCKEND  ---      ---       LVL=0

      0100766AH   BLOCK     CODE     ---       LVL=0
      0100766AH   BLOCK     CODE     NEAR LAB  LVL=1
      02000000H   SYMBOL    XDATA    DWORD     timeout
      02000004H   SYMBOL    XDATA    BYTE      pllLock
      ---         BLOCKEND  ---      ---       LVL=1
      0100766AH   LINE      CODE     ---       #519
      0100766AH   LINE      CODE     ---       #520
      0100766AH   LINE      CODE     ---       #526
      01007677H   LINE      CODE     ---       #527
      0100767DH   LINE      CODE     ---       #528
      0100768AH   LINE      CODE     ---       #529
      01007690H   LINE      CODE     ---       #530
      0100769DH   LINE      CODE     ---       #531
      010076A3H   LINE      CODE     ---       #534
      010076A9H   LINE      CODE     ---       #537
      010076AFH   LINE      CODE     ---       #538
      010076BDH   LINE      CODE     ---       #541
      010076CAH   LINE      CODE     ---       #542
      010076D7H   LINE      CODE     ---       #544
      010076DCH   LINE      CODE     ---       #545
      01007701H   LINE      CODE     ---       #546
      01007701H   LINE      CODE     ---       #547
      01007712H   LINE      CODE     ---       #548
      0100771CH   LINE      CODE     ---       #549
      01007744H   LINE      CODE     ---       #551
LX51 LINKER/LOCATER V4.64.0.0                                                         03/12/2018  09:19:57  PAGE 53


      01007752H   LINE      CODE     ---       #552
      01007752H   LINE      CODE     ---       #553
      01007757H   LINE      CODE     ---       #554
      01007757H   LINE      CODE     ---       #557
      01007764H   LINE      CODE     ---       #558
      0100776AH   LINE      CODE     ---       #559
      0100776FH   LINE      CODE     ---       #560
      01007775H   LINE      CODE     ---       #561
      0100777AH   LINE      CODE     ---       #564
      0100777EH   LINE      CODE     ---       #565
      01007784H   LINE      CODE     ---       #567
      0100778BH   LINE      CODE     ---       #568
      ---         BLOCKEND  ---      ---       LVL=0

      01008EC3H   BLOCK     CODE     ---       LVL=0
      01008EC3H   BLOCK     CODE     NEAR LAB  LVL=1
      00000007H   SYMBOL    DATA     BYTE      bg_xover_inl_trim
      ---         BLOCKEND  ---      ---       LVL=1
      01008EC3H   LINE      CODE     ---       #590
      01008EC3H   LINE      CODE     ---       #591
      01008EC3H   LINE      CODE     ---       #592
      01008ECCH   LINE      CODE     ---       #593
      01008ED3H   LINE      CODE     ---       #594
      01008ED9H   LINE      CODE     ---       #595
      01008EDFH   LINE      CODE     ---       #596
      ---         BLOCKEND  ---      ---       LVL=0
      00000007H   SYMBOL    DATA     BYTE      enabled
      00000006H   SYMBOL    DATA     BYTE      regValue

      01007422H   BLOCK     CODE     ---       LVL=0
      01007422H   LINE      CODE     ---       #650
      01007422H   LINE      CODE     ---       #651
      01007422H   LINE      CODE     ---       #653
      01007438H   LINE      CODE     ---       #655
      01007438H   LINE      CODE     ---       #656
      0100743BH   LINE      CODE     ---       #659
      01007451H   LINE      CODE     ---       #660
      01007467H   LINE      CODE     ---       #663
      0100746EH   LINE      CODE     ---       #664
      01007475H   LINE      CODE     ---       #665
      01007475H   LINE      CODE     ---       #669
      0100748FH   LINE      CODE     ---       #670
      010074A9H   LINE      CODE     ---       #671
      010074C3H   LINE      CODE     ---       #672
      010074DDH   LINE      CODE     ---       #673
      010074F7H   LINE      CODE     ---       #674
      010074FDH   LINE      CODE     ---       #676
      01007504H   LINE      CODE     ---       #677
      0100750DH   LINE      CODE     ---       #678
      0100750DH   LINE      CODE     ---       #679
      01007513H   LINE      CODE     ---       #680
      01007513H   LINE      CODE     ---       #684
      01007519H   LINE      CODE     ---       #686
      0100751CH   LINE      CODE     ---       #689
      0100751FH   LINE      CODE     ---       #692
      01007540H   LINE      CODE     ---       #693
      01007547H   LINE      CODE     ---       #694
      ---         BLOCKEND  ---      ---       LVL=0

      ---         MODULE    ---      ---       UART_RS485
      0200160BH   PUBLIC    XDATA    BYTE      UART_RS485_errorStatus
      0200160AH   PUBLIC    XDATA    BYTE      UART_RS485_rxBufferOverflow
      02001609H   PUBLIC    XDATA    BYTE      UART_RS485_initVar
      02001608H   PUBLIC    XDATA    BYTE      UART_RS485_rxBufferWrite
      020015E8H   PUBLIC    XDATA    ---       UART_RS485_rxBuffer
LX51 LINKER/LOCATER V4.64.0.0                                                         03/12/2018  09:19:57  PAGE 54


      020015E7H   PUBLIC    XDATA    BYTE      UART_RS485_rxBufferRead
      020015E6H   PUBLIC    XDATA    BYTE      UART_RS485_rxBufferLoopDetect
      01009095H   PUBLIC    CODE     ---       UART_RS485_ClearTxBuffer
      01008B6CH   PUBLIC    CODE     ---       _UART_RS485_PutString
      0100915FH   PUBLIC    CODE     ---       _UART_RS485_PutChar
      01009220H   PUBLIC    CODE     ---       UART_RS485_ReadTxStatus
      01008D2FH   PUBLIC    CODE     ---       UART_RS485_ClearRxBuffer
      010089C0H   PUBLIC    CODE     ---       UART_RS485_GetRxBufferSize
      01008817H   PUBLIC    CODE     ---       UART_RS485_GetChar
      01009022H   PUBLIC    CODE     ---       UART_RS485_ReadRxStatus
      01008E45H   PUBLIC    CODE     ---       UART_RS485_Stop
      01008E25H   PUBLIC    CODE     ---       UART_RS485_Enable
      01008C6DH   PUBLIC    CODE     ---       UART_RS485_Init
      01009036H   PUBLIC    CODE     ---       UART_RS485_Start
      000000CAH   SFRSYM    DATA     BYTE      SFRPRT5SEL
      000000DAH   SFRSYM    DATA     BYTE      SFRPRT6SEL
      000000D0H.6 SFRSYM    DATA     BIT       AC
      000000A8H.7 SFRSYM    DATA     BIT       EA
      000000A8H   SFRSYM    DATA     BYTE      IE
      00000085H   SFRSYM    DATA     BYTE      DPH1
      00000084H   SFRSYM    DATA     BYTE      DPL1
      000000D0H.7 SFRSYM    DATA     BIT       CY
      000000A0H   SFRSYM    DATA     BYTE      P2AX
      00000095H   SFRSYM    DATA     BYTE      DPX1
      00000081H   SFRSYM    DATA     BYTE      SP
      000000D0H.2 SFRSYM    DATA     BIT       OV
      00000080H   SFRSYM    DATA     BYTE      SFRPRT0DR
      00000090H   SFRSYM    DATA     BYTE      SFRPRT1DR
      000000F2H   SFRSYM    DATA     BYTE      SFRPRT12SEL
      00000098H   SFRSYM    DATA     BYTE      SFRPRT2DR
      000000B0H   SFRSYM    DATA     BYTE      SFRPRT3DR
      000000C0H   SFRSYM    DATA     BYTE      SFRPRT4DR
      000000FAH   SFRSYM    DATA     BYTE      SFRPRT15SEL
      000000C8H   SFRSYM    DATA     BYTE      SFRPRT5DR
      000000D8H   SFRSYM    DATA     BYTE      SFRPRT6DR
      00000089H   SFRSYM    DATA     BYTE      SFRPRT0PS
      00000091H   SFRSYM    DATA     BYTE      SFRPRT1PS
      00000099H   SFRSYM    DATA     BYTE      SFRPRT2PS
      000000B1H   SFRSYM    DATA     BYTE      SFRPRT3PS
      000000C1H   SFRSYM    DATA     BYTE      SFRPRT4PS
      000000C9H   SFRSYM    DATA     BYTE      SFRPRT5PS
      000000D9H   SFRSYM    DATA     BYTE      SFRPRT6PS
      000000EAH   SFRSYM    DATA     BYTE      MXAX
      000000F0H   SFRSYM    DATA     BYTE      B
      000000E0H   SFRSYM    DATA     BYTE      ACC
      000000D0H   SFRSYM    DATA     BIT       P
      000000D0H.3 SFRSYM    DATA     BIT       RS0
      000000D0H.4 SFRSYM    DATA     BIT       RS1
      00000083H   SFRSYM    DATA     BYTE      DPH
      000000E8H   SFRSYM    DATA     BYTE      SFRPRT12DR
      00000082H   SFRSYM    DATA     BYTE      DPL
      000000F8H   SFRSYM    DATA     BYTE      SFRPRT15DR
      00000086H   SFRSYM    DATA     BYTE      DPS
      000000E9H   SFRSYM    DATA     BYTE      SFRPRT12PS
      00000093H   SFRSYM    DATA     BYTE      DPX
      000000F9H   SFRSYM    DATA     BYTE      SFRPRT15PS
      000000D0H.5 SFRSYM    DATA     BIT       F0
      000000D0H.1 SFRSYM    DATA     BIT       F1
      0000008AH   SFRSYM    DATA     BYTE      SFRPRT0SEL
      000000D0H   SFRSYM    DATA     BYTE      PSW
      000000A2H   SFRSYM    DATA     BYTE      SFRPRT1SEL
      0000009AH   SFRSYM    DATA     BYTE      SFRPRT2SEL
      000000B2H   SFRSYM    DATA     BYTE      SFRPRT3SEL
      000000C2H   SFRSYM    DATA     BYTE      SFRPRT4SEL

LX51 LINKER/LOCATER V4.64.0.0                                                         03/12/2018  09:19:57  PAGE 55


      01009036H   BLOCK     CODE     ---       LVL=0
      01009036H   LINE      CODE     ---       #76
      01009036H   LINE      CODE     ---       #77
      01009036H   LINE      CODE     ---       #79
      0100903CH   LINE      CODE     ---       #80
      0100903CH   LINE      CODE     ---       #81
      0100903FH   LINE      CODE     ---       #82
      01009045H   LINE      CODE     ---       #83
      01009045H   LINE      CODE     ---       #85
      01009048H   LINE      CODE     ---       #86
      ---         BLOCKEND  ---      ---       LVL=0

      01008C6DH   BLOCK     CODE     ---       LVL=0
      01008C6DH   LINE      CODE     ---       #106
      01008C6DH   LINE      CODE     ---       #107
      01008C6DH   LINE      CODE     ---       #112
      01008C76H   LINE      CODE     ---       #113
      01008C7DH   LINE      CODE     ---       #114
      01008C82H   LINE      CODE     ---       #124
      01008C88H   LINE      CODE     ---       #126
      01008C8CH   LINE      CODE     ---       #138
      01008C92H   LINE      CODE     ---       #139
      01008C98H   LINE      CODE     ---       #150
      01008C9DH   LINE      CODE     ---       #160
      ---         BLOCKEND  ---      ---       LVL=0

      01008E25H   BLOCK     CODE     ---       LVL=0
      01008E25H   BLOCK     CODE     NEAR LAB  LVL=1
      00000007H   SYMBOL    DATA     BYTE      enableInterrupts
      ---         BLOCKEND  ---      ---       LVL=1
      01008E25H   LINE      CODE     ---       #183
      01008E25H   LINE      CODE     ---       #184
      01008E25H   LINE      CODE     ---       #186
      01008E28H   LINE      CODE     ---       #190
      01008E2FH   LINE      CODE     ---       #193
      01008E34H   LINE      CODE     ---       #196
      01008E3AH   LINE      CODE     ---       #211
      01008E41H   LINE      CODE     ---       #222
      01008E44H   LINE      CODE     ---       #223
      ---         BLOCKEND  ---      ---       LVL=0

      01008E45H   BLOCK     CODE     ---       LVL=0
      01008E45H   BLOCK     CODE     NEAR LAB  LVL=1
      00000007H   SYMBOL    DATA     BYTE      enableInterrupts
      ---         BLOCKEND  ---      ---       LVL=1
      01008E45H   LINE      CODE     ---       #240
      01008E45H   LINE      CODE     ---       #241
      01008E45H   LINE      CODE     ---       #243
      01008E48H   LINE      CODE     ---       #247
      01008E4FH   LINE      CODE     ---       #262
      01008E54H   LINE      CODE     ---       #265
      01008E5AH   LINE      CODE     ---       #270
      01008E61H   LINE      CODE     ---       #277
      01008E64H   LINE      CODE     ---       #278
      ---         BLOCKEND  ---      ---       LVL=0
      00000007H   SYMBOL    DATA     BYTE      intSrc
      00000007H   SYMBOL    DATA     BYTE      rxData
      00000006H   SYMBOL    DATA     BYTE      locRxBufferRead
      00000005H   SYMBOL    DATA     BYTE      locRxBufferWrite

      01009022H   BLOCK     CODE     ---       LVL=0
      01009022H   BLOCK     CODE     NEAR LAB  LVL=1
      00000007H   SYMBOL    DATA     BYTE      status
      ---         BLOCKEND  ---      ---       LVL=1
      01009022H   LINE      CODE     ---       #485
LX51 LINKER/LOCATER V4.64.0.0                                                         03/12/2018  09:19:57  PAGE 56


      01009022H   LINE      CODE     ---       #486
      01009022H   LINE      CODE     ---       #489
      01009029H   LINE      CODE     ---       #492
      0100902FH   LINE      CODE     ---       #493
      0100902FH   LINE      CODE     ---       #494
      01009033H   LINE      CODE     ---       #495
      01009035H   LINE      CODE     ---       #496
      01009035H   LINE      CODE     ---       #499
      01009035H   LINE      CODE     ---       #500
      ---         BLOCKEND  ---      ---       LVL=0

      01008817H   BLOCK     CODE     ---       LVL=0
      01008817H   BLOCK     CODE     NEAR LAB  LVL=1
      00000007H   SYMBOL    DATA     BYTE      rxData
      00000006H   SYMBOL    DATA     BYTE      rxStatus
      00000006H   SYMBOL    DATA     BYTE      locRxBufferRead
      00000005H   SYMBOL    DATA     BYTE      locRxBufferWrite
      ---         BLOCKEND  ---      ---       LVL=1
      01008817H   LINE      CODE     ---       #532
      01008817H   LINE      CODE     ---       #533
      01008817H   LINE      CODE     ---       #534
      01008819H   LINE      CODE     ---       #542
      0100881FH   LINE      CODE     ---       #544
      01008824H   LINE      CODE     ---       #545
      01008829H   LINE      CODE     ---       #547
      01008833H   LINE      CODE     ---       #548
      01008833H   LINE      CODE     ---       #549
      0100883FH   LINE      CODE     ---       #550
      01008840H   LINE      CODE     ---       #551
      01008846H   LINE      CODE     ---       #552
      01008846H   LINE      CODE     ---       #553
      01008848H   LINE      CODE     ---       #554
      01008848H   LINE      CODE     ---       #556
      0100884DH   LINE      CODE     ---       #558
      01008853H   LINE      CODE     ---       #559
      01008853H   LINE      CODE     ---       #560
      01008855H   LINE      CODE     ---       #575
      01008855H   LINE      CODE     ---       #577
      01008857H   LINE      CODE     ---       #579
      0100885CH   LINE      CODE     ---       #580
      0100885FH   LINE      CODE     ---       #581
      0100885FH   LINE      CODE     ---       #582
      01008864H   LINE      CODE     ---       #585
      01008869H   LINE      CODE     ---       #586
      01008869H   LINE      CODE     ---       #587
      0100886BH   LINE      CODE     ---       #588
      0100886BH   LINE      CODE     ---       #589
      0100886BH   LINE      CODE     ---       #590
      0100886BH   LINE      CODE     ---       #592
      01008871H   LINE      CODE     ---       #611
      01008871H   LINE      CODE     ---       #612
      ---         BLOCKEND  ---      ---       LVL=0
      00000002H   SYMBOL    DATA     WORD      locErrorStatus

      010089C0H   BLOCK     CODE     ---       LVL=0
      010089C0H   BLOCK     CODE     NEAR LAB  LVL=1
      00000007H   SYMBOL    DATA     BYTE      size
      ---         BLOCKEND  ---      ---       LVL=1
      010089C0H   LINE      CODE     ---       #683
      010089C0H   LINE      CODE     ---       #685
      010089C0H   LINE      CODE     ---       #691
      010089C6H   LINE      CODE     ---       #693
      010089D2H   LINE      CODE     ---       #694
      010089D2H   LINE      CODE     ---       #695
      010089D8H   LINE      CODE     ---       #696
LX51 LINKER/LOCATER V4.64.0.0                                                         03/12/2018  09:19:57  PAGE 57


      010089D8H   LINE      CODE     ---       #697
      010089DAH   LINE      CODE     ---       #698
      010089DCH   LINE      CODE     ---       #700
      010089DCH   LINE      CODE     ---       #701
      010089DEH   LINE      CODE     ---       #702
      010089DEH   LINE      CODE     ---       #703
      010089E0H   LINE      CODE     ---       #704
      010089EDH   LINE      CODE     ---       #705
      010089EDH   LINE      CODE     ---       #706
      010089F6H   LINE      CODE     ---       #707
      010089F8H   LINE      CODE     ---       #709
      010089F8H   LINE      CODE     ---       #710
      01008A08H   LINE      CODE     ---       #711
      01008A08H   LINE      CODE     ---       #713
      01008A0EH   LINE      CODE     ---       #722
      01008A0EH   LINE      CODE     ---       #723
      ---         BLOCKEND  ---      ---       LVL=0

      01008D2FH   BLOCK     CODE     ---       LVL=0
      01008D2FH   BLOCK     CODE     NEAR LAB  LVL=1
      00000007H   SYMBOL    DATA     BYTE      enableInterrupts
      ---         BLOCKEND  ---      ---       LVL=1
      01008D2FH   LINE      CODE     ---       #757
      01008D2FH   LINE      CODE     ---       #758
      01008D2FH   LINE      CODE     ---       #762
      01008D32H   LINE      CODE     ---       #763
      01008D39H   LINE      CODE     ---       #764
      01008D3DH   LINE      CODE     ---       #765
      01008D40H   LINE      CODE     ---       #770
      01008D46H   LINE      CODE     ---       #772
      01008D4BH   LINE      CODE     ---       #773
      01008D4FH   LINE      CODE     ---       #774
      01008D53H   LINE      CODE     ---       #775
      01008D57H   LINE      CODE     ---       #777
      01008D5DH   LINE      CODE     ---       #781
      ---         BLOCKEND  ---      ---       LVL=0
      00000007H   SYMBOL    DATA     BYTE      address
      00000007H   SYMBOL    DATA     BYTE      address
      00000007H   SYMBOL    DATA     BYTE      intSrc
      00000007H   SYMBOL    DATA     BYTE      txDataByte

      01009220H   BLOCK     CODE     ---       LVL=0
      01009220H   LINE      CODE     ---       #1003
      01009220H   LINE      CODE     ---       #1004
      01009220H   LINE      CODE     ---       #1005
      01009225H   LINE      CODE     ---       #1006
      ---         BLOCKEND  ---      ---       LVL=0

      0100915FH   BLOCK     CODE     ---       LVL=0
      00000007H   SYMBOL    DATA     BYTE      txDataByte
      0100915FH   LINE      CODE     ---       #1041
      0100915FH   LINE      CODE     ---       #1042
      0100915FH   LINE      CODE     ---       #1107
      01009166H   LINE      CODE     ---       #1108
      01009166H   LINE      CODE     ---       #1110
      01009166H   LINE      CODE     ---       #1113
      0100916BH   LINE      CODE     ---       #1116
      ---         BLOCKEND  ---      ---       LVL=0

      01008B6CH   BLOCK     CODE     ---       LVL=0
      02000000H   SYMBOL    XDATA    ---       string
      01008B77H   BLOCK     CODE     NEAR LAB  LVL=1
      00000004H   SYMBOL    DATA     WORD      bufIndex
      ---         BLOCKEND  ---      ---       LVL=1
      01008B6CH   LINE      CODE     ---       #1145
LX51 LINKER/LOCATER V4.64.0.0                                                         03/12/2018  09:19:57  PAGE 58


      01008B77H   LINE      CODE     ---       #1146
      01008B77H   LINE      CODE     ---       #1147
      01008B7AH   LINE      CODE     ---       #1150
      01008B80H   LINE      CODE     ---       #1151
      01008B80H   LINE      CODE     ---       #1153
      01008B95H   LINE      CODE     ---       #1154
      01008B95H   LINE      CODE     ---       #1155
      01008B98H   LINE      CODE     ---       #1156
      01008B9DH   LINE      CODE     ---       #1157
      01008B9FH   LINE      CODE     ---       #1158
      01008B9FH   LINE      CODE     ---       #1159
      ---         BLOCKEND  ---      ---       LVL=0
      00000005H   SYMBOL    DATA     BYTE      byteCount
      00000006H   SYMBOL    DATA     BYTE      bufIndex
      00000007H   SYMBOL    DATA     BYTE      txDataByte
      00000007H   SYMBOL    DATA     BYTE      size

      01009095H   BLOCK     CODE     ---       LVL=0
      01009095H   BLOCK     CODE     NEAR LAB  LVL=1
      00000007H   SYMBOL    DATA     BYTE      enableInterrupts
      ---         BLOCKEND  ---      ---       LVL=1
      01009095H   LINE      CODE     ---       #1354
      01009095H   LINE      CODE     ---       #1355
      01009095H   LINE      CODE     ---       #1358
      01009098H   LINE      CODE     ---       #1360
      0100909FH   LINE      CODE     ---       #1361
      010090A3H   LINE      CODE     ---       #1362
      010090A6H   LINE      CODE     ---       #1376
      ---         BLOCKEND  ---      ---       LVL=0
      00000007H   SYMBOL    DATA     BYTE      retMode
      020015E5H   SYMBOL    XDATA    BYTE      txPeriod

      ---         MODULE    ---      ---       ISR_RS485_RX
      01009212H   PUBLIC    CODE     ---       ISR_RS485_RX_Disable
      0100920BH   PUBLIC    CODE     ---       ISR_RS485_RX_Enable
      010091B7H   PUBLIC    CODE     ---       _ISR_RS485_RX_SetPriority
      01009135H   PUBLIC    CODE     ---       _ISR_RS485_RX_SetVector
      01009278H   PUBLIC    CODE     ---       ISR_RS485_RX_Interrupt
      01008E85H   PUBLIC    CODE     ---       _ISR_RS485_RX_StartEx
      000000CAH   SFRSYM    DATA     BYTE      SFRPRT5SEL
      000000DAH   SFRSYM    DATA     BYTE      SFRPRT6SEL
      000000D0H.6 SFRSYM    DATA     BIT       AC
      000000A8H.7 SFRSYM    DATA     BIT       EA
      000000A8H   SFRSYM    DATA     BYTE      IE
      00000085H   SFRSYM    DATA     BYTE      DPH1
      00000084H   SFRSYM    DATA     BYTE      DPL1
      000000D0H.7 SFRSYM    DATA     BIT       CY
      000000A0H   SFRSYM    DATA     BYTE      P2AX
      00000095H   SFRSYM    DATA     BYTE      DPX1
      00000081H   SFRSYM    DATA     BYTE      SP
      000000D0H.2 SFRSYM    DATA     BIT       OV
      00000080H   SFRSYM    DATA     BYTE      SFRPRT0DR
      00000090H   SFRSYM    DATA     BYTE      SFRPRT1DR
      000000F2H   SFRSYM    DATA     BYTE      SFRPRT12SEL
      00000098H   SFRSYM    DATA     BYTE      SFRPRT2DR
      000000B0H   SFRSYM    DATA     BYTE      SFRPRT3DR
      000000C0H   SFRSYM    DATA     BYTE      SFRPRT4DR
      000000FAH   SFRSYM    DATA     BYTE      SFRPRT15SEL
      000000C8H   SFRSYM    DATA     BYTE      SFRPRT5DR
      000000D8H   SFRSYM    DATA     BYTE      SFRPRT6DR
      00000089H   SFRSYM    DATA     BYTE      SFRPRT0PS
      00000091H   SFRSYM    DATA     BYTE      SFRPRT1PS
      00000099H   SFRSYM    DATA     BYTE      SFRPRT2PS
      000000B1H   SFRSYM    DATA     BYTE      SFRPRT3PS
      000000C1H   SFRSYM    DATA     BYTE      SFRPRT4PS
LX51 LINKER/LOCATER V4.64.0.0                                                         03/12/2018  09:19:57  PAGE 59


      000000C9H   SFRSYM    DATA     BYTE      SFRPRT5PS
      000000D9H   SFRSYM    DATA     BYTE      SFRPRT6PS
      000000EAH   SFRSYM    DATA     BYTE      MXAX
      000000F0H   SFRSYM    DATA     BYTE      B
      000000E0H   SFRSYM    DATA     BYTE      ACC
      000000D0H   SFRSYM    DATA     BIT       P
      000000D0H.3 SFRSYM    DATA     BIT       RS0
      000000D0H.4 SFRSYM    DATA     BIT       RS1
      00000083H   SFRSYM    DATA     BYTE      DPH
      000000E8H   SFRSYM    DATA     BYTE      SFRPRT12DR
      00000082H   SFRSYM    DATA     BYTE      DPL
      000000F8H   SFRSYM    DATA     BYTE      SFRPRT15DR
      00000086H   SFRSYM    DATA     BYTE      DPS
      000000E9H   SFRSYM    DATA     BYTE      SFRPRT12PS
      00000093H   SFRSYM    DATA     BYTE      DPX
      000000F9H   SFRSYM    DATA     BYTE      SFRPRT15PS
      000000D0H.5 SFRSYM    DATA     BIT       F0
      000000D0H.1 SFRSYM    DATA     BIT       F1
      0000008AH   SFRSYM    DATA     BYTE      SFRPRT0SEL
      000000D0H   SFRSYM    DATA     BYTE      PSW
      000000A2H   SFRSYM    DATA     BYTE      SFRPRT1SEL
      0000009AH   SFRSYM    DATA     BYTE      SFRPRT2SEL
      000000B2H   SFRSYM    DATA     BYTE      SFRPRT3SEL
      000000C2H   SFRSYM    DATA     BYTE      SFRPRT4SEL

      01008E85H   BLOCK     CODE     ---       LVL=0
      02000000H   SYMBOL    XDATA    ---       address
      01008E85H   LINE      CODE     ---       #94
      01008E8DH   LINE      CODE     ---       #95
      01008E8DH   LINE      CODE     ---       #97
      01008E90H   LINE      CODE     ---       #100
      01008E9BH   LINE      CODE     ---       #103
      01008EA0H   LINE      CODE     ---       #106
      01008EA3H   LINE      CODE     ---       #107
      ---         BLOCKEND  ---      ---       LVL=0

      01009278H   BLOCK     CODE     ---       LVL=0
      01009278H   LINE      CODE     ---       #151
      01009278H   LINE      CODE     ---       #168
      ---         BLOCKEND  ---      ---       LVL=0

      01009135H   BLOCK     CODE     ---       LVL=0
      00000006H   SYMBOL    DATA     ---       address
      01009135H   LINE      CODE     ---       #198
      01009135H   LINE      CODE     ---       #199
      01009135H   LINE      CODE     ---       #200
      01009142H   LINE      CODE     ---       #201
      ---         BLOCKEND  ---      ---       LVL=0

      010091B7H   BLOCK     CODE     ---       LVL=0
      00000007H   SYMBOL    DATA     BYTE      priority
      010091B7H   LINE      CODE     ---       #248
      010091B7H   LINE      CODE     ---       #249
      010091B7H   LINE      CODE     ---       #250
      010091C0H   LINE      CODE     ---       #251
      ---         BLOCKEND  ---      ---       LVL=0
      00000007H   SYMBOL    DATA     BYTE      priority

      0100920BH   BLOCK     CODE     ---       LVL=0
      0100920BH   LINE      CODE     ---       #297
      0100920BH   LINE      CODE     ---       #298
      0100920BH   LINE      CODE     ---       #300
      01009211H   LINE      CODE     ---       #301
      ---         BLOCKEND  ---      ---       LVL=0

LX51 LINKER/LOCATER V4.64.0.0                                                         03/12/2018  09:19:57  PAGE 60


      01009212H   BLOCK     CODE     ---       LVL=0
      01009212H   LINE      CODE     ---       #339
      01009212H   LINE      CODE     ---       #340
      01009212H   LINE      CODE     ---       #342
      01009218H   LINE      CODE     ---       #343
      ---         BLOCKEND  ---      ---       LVL=0

      ---         MODULE    ---      ---       PACER_TIMER
      02001628H   PUBLIC    XDATA    BYTE      PACER_TIMER_initVar
      01009151H   PUBLIC    CODE     ---       _PACER_TIMER_WriteCounter
      01009143H   PUBLIC    CODE     ---       _PACER_TIMER_WritePeriod
      01009226H   PUBLIC    CODE     ---       _PACER_TIMER_SetInterruptMode
      01009049H   PUBLIC    CODE     ---       PACER_TIMER_Start
      01008F8FH   PUBLIC    CODE     ---       PACER_TIMER_Enable
      01008B30H   PUBLIC    CODE     ---       PACER_TIMER_Init
      000000CAH   SFRSYM    DATA     BYTE      SFRPRT5SEL
      000000DAH   SFRSYM    DATA     BYTE      SFRPRT6SEL
      000000D0H.6 SFRSYM    DATA     BIT       AC
      000000A8H.7 SFRSYM    DATA     BIT       EA
      000000A8H   SFRSYM    DATA     BYTE      IE
      00000085H   SFRSYM    DATA     BYTE      DPH1
      00000084H   SFRSYM    DATA     BYTE      DPL1
      000000D0H.7 SFRSYM    DATA     BIT       CY
      000000A0H   SFRSYM    DATA     BYTE      P2AX
      00000095H   SFRSYM    DATA     BYTE      DPX1
      00000081H   SFRSYM    DATA     BYTE      SP
      000000D0H.2 SFRSYM    DATA     BIT       OV
      00000080H   SFRSYM    DATA     BYTE      SFRPRT0DR
      00000090H   SFRSYM    DATA     BYTE      SFRPRT1DR
      000000F2H   SFRSYM    DATA     BYTE      SFRPRT12SEL
      00000098H   SFRSYM    DATA     BYTE      SFRPRT2DR
      000000B0H   SFRSYM    DATA     BYTE      SFRPRT3DR
      000000C0H   SFRSYM    DATA     BYTE      SFRPRT4DR
      000000FAH   SFRSYM    DATA     BYTE      SFRPRT15SEL
      000000C8H   SFRSYM    DATA     BYTE      SFRPRT5DR
      000000D8H   SFRSYM    DATA     BYTE      SFRPRT6DR
      00000089H   SFRSYM    DATA     BYTE      SFRPRT0PS
      00000091H   SFRSYM    DATA     BYTE      SFRPRT1PS
      00000099H   SFRSYM    DATA     BYTE      SFRPRT2PS
      000000B1H   SFRSYM    DATA     BYTE      SFRPRT3PS
      000000C1H   SFRSYM    DATA     BYTE      SFRPRT4PS
      000000C9H   SFRSYM    DATA     BYTE      SFRPRT5PS
      000000D9H   SFRSYM    DATA     BYTE      SFRPRT6PS
      000000EAH   SFRSYM    DATA     BYTE      MXAX
      000000F0H   SFRSYM    DATA     BYTE      B
      000000E0H   SFRSYM    DATA     BYTE      ACC
      000000D0H   SFRSYM    DATA     BIT       P
      000000D0H.3 SFRSYM    DATA     BIT       RS0
      000000D0H.4 SFRSYM    DATA     BIT       RS1
      00000083H   SFRSYM    DATA     BYTE      DPH
      000000E8H   SFRSYM    DATA     BYTE      SFRPRT12DR
      00000082H   SFRSYM    DATA     BYTE      DPL
      000000F8H   SFRSYM    DATA     BYTE      SFRPRT15DR
      00000086H   SFRSYM    DATA     BYTE      DPS
      000000E9H   SFRSYM    DATA     BYTE      SFRPRT12PS
      00000093H   SFRSYM    DATA     BYTE      DPX
      000000F9H   SFRSYM    DATA     BYTE      SFRPRT15PS
      000000D0H.5 SFRSYM    DATA     BIT       F0
      000000D0H.1 SFRSYM    DATA     BIT       F1
      0000008AH   SFRSYM    DATA     BYTE      SFRPRT0SEL
      000000D0H   SFRSYM    DATA     BYTE      PSW
      000000A2H   SFRSYM    DATA     BYTE      SFRPRT1SEL
      0000009AH   SFRSYM    DATA     BYTE      SFRPRT2SEL
      000000B2H   SFRSYM    DATA     BYTE      SFRPRT3SEL
      000000C2H   SFRSYM    DATA     BYTE      SFRPRT4SEL
LX51 LINKER/LOCATER V4.64.0.0                                                         03/12/2018  09:19:57  PAGE 61



      01008B30H   BLOCK     CODE     ---       LVL=0
      01008B30H   LINE      CODE     ---       #43
      01008B30H   LINE      CODE     ---       #44
      01008B30H   LINE      CODE     ---       #52
      01008B37H   LINE      CODE     ---       #60
      01008B3EH   LINE      CODE     ---       #106
      01008B45H   LINE      CODE     ---       #107
      01008B49H   LINE      CODE     ---       #110
      01008B4DH   LINE      CODE     ---       #111
      01008B51H   LINE      CODE     ---       #114
      01008B58H   LINE      CODE     ---       #118
      01008B5FH   LINE      CODE     ---       #119
      01008B66H   LINE      CODE     ---       #162
      01008B6BH   LINE      CODE     ---       #163
      ---         BLOCKEND  ---      ---       LVL=0

      01008F8FH   BLOCK     CODE     ---       LVL=0
      01008F8FH   LINE      CODE     ---       #180
      01008F8FH   LINE      CODE     ---       #181
      01008F8FH   LINE      CODE     ---       #184
      01008F96H   LINE      CODE     ---       #185
      01008F9DH   LINE      CODE     ---       #190
      01008FA4H   LINE      CODE     ---       #192
      ---         BLOCKEND  ---      ---       LVL=0

      01009049H   BLOCK     CODE     ---       LVL=0
      01009049H   LINE      CODE     ---       #215
      01009049H   LINE      CODE     ---       #216
      01009049H   LINE      CODE     ---       #217
      0100904FH   LINE      CODE     ---       #218
      0100904FH   LINE      CODE     ---       #219
      01009052H   LINE      CODE     ---       #221
      01009058H   LINE      CODE     ---       #222
      01009058H   LINE      CODE     ---       #225
      0100905BH   LINE      CODE     ---       #226
      ---         BLOCKEND  ---      ---       LVL=0

      01009226H   BLOCK     CODE     ---       LVL=0
      00000007H   SYMBOL    DATA     BYTE      interruptMode
      01009226H   LINE      CODE     ---       #279
      01009226H   LINE      CODE     ---       #280
      01009226H   LINE      CODE     ---       #281
      0100922BH   LINE      CODE     ---       #282
      ---         BLOCKEND  ---      ---       LVL=0
      00000007H   SYMBOL    DATA     BYTE      control

      01009143H   BLOCK     CODE     ---       LVL=0
      00000006H   SYMBOL    DATA     WORD      period
      01009143H   BLOCK     CODE     NEAR LAB  LVL=1
      00000006H   SYMBOL    DATA     WORD      period_temp
      ---         BLOCKEND  ---      ---       LVL=1
      01009143H   LINE      CODE     ---       #431
      01009143H   LINE      CODE     ---       #432
      01009143H   LINE      CODE     ---       #434
      01009143H   LINE      CODE     ---       #435
      01009150H   LINE      CODE     ---       #439
      ---         BLOCKEND  ---      ---       LVL=0

      01009151H   BLOCK     CODE     ---       LVL=0
      00000006H   SYMBOL    DATA     WORD      counter
      01009151H   LINE      CODE     ---       #480
      01009151H   LINE      CODE     ---       #481
      01009151H   LINE      CODE     ---       #486
      0100915EH   LINE      CODE     ---       #491
LX51 LINKER/LOCATER V4.64.0.0                                                         03/12/2018  09:19:57  PAGE 62


      ---         BLOCKEND  ---      ---       LVL=0

      ---         MODULE    ---      ---       CLOCK_UART
      010091F3H   PUBLIC    CODE     ---       CLOCK_UART_GetSourceRegister
      010091C1H   PUBLIC    CODE     ---       CLOCK_UART_GetDividerRegister
      010071CBH   PUBLIC    CODE     ---       _CLOCK_UART_SetDividerRegister
      00000007H   SYMBOL    DATA     BYTE      state

      010071CBH   BLOCK     CODE     ---       LVL=0
      02000000H   SYMBOL    XDATA    WORD      clkDivider
      02000002H   SYMBOL    XDATA    BYTE      restart
      010071D6H   BLOCK     CODE     NEAR LAB  LVL=1
      02000003H   SYMBOL    XDATA    BYTE      enabled
      02000004H   SYMBOL    XDATA    BYTE      currSrc
      02000005H   SYMBOL    XDATA    WORD      oldDivider
      ---         BLOCKEND  ---      ---       LVL=1
      010071CBH   LINE      CODE     ---       #193
      010071D6H   LINE      CODE     ---       #195
      010071D6H   LINE      CODE     ---       #198
      010071DEH   LINE      CODE     ---       #199
      010071E9H   LINE      CODE     ---       #201
      010071FBH   LINE      CODE     ---       #202
      010071FBH   LINE      CODE     ---       #203
      01007205H   LINE      CODE     ---       #205
      01007216H   LINE      CODE     ---       #206
      01007216H   LINE      CODE     ---       #208
      0100721AH   LINE      CODE     ---       #209
      0100721AH   LINE      CODE     ---       #213
      01007223H   LINE      CODE     ---       #214
      0100722AH   LINE      CODE     ---       #215
      0100722BH   LINE      CODE     ---       #217
      0100722BH   LINE      CODE     ---       #220
      01007232H   LINE      CODE     ---       #221
      01007243H   LINE      CODE     ---       #222
      01007243H   LINE      CODE     ---       #223
      01007244H   LINE      CODE     ---       #225
      01007244H   LINE      CODE     ---       #227
      0100724AH   LINE      CODE     ---       #228
      0100724AH   LINE      CODE     ---       #229
      0100724FH   LINE      CODE     ---       #236
      01007254H   LINE      CODE     ---       #237
      01007259H   LINE      CODE     ---       #240
      01007260H   LINE      CODE     ---       #243
      01007272H   LINE      CODE     ---       #244
      01007272H   LINE      CODE     ---       #246
      01007283H   LINE      CODE     ---       #247
      01007289H   LINE      CODE     ---       #250
      01007291H   LINE      CODE     ---       #253
      01007298H   LINE      CODE     ---       #257
      0100729DH   LINE      CODE     ---       #259
      0100729DH   LINE      CODE     ---       #260
      0100729DH   LINE      CODE     ---       #263
      010072A5H   LINE      CODE     ---       #264
      010072A5H   LINE      CODE     ---       #266
      010072B6H   LINE      CODE     ---       #268
      010072C9H   LINE      CODE     ---       #269
      010072D3H   LINE      CODE     ---       #270
      010072D4H   LINE      CODE     ---       #272
      010072D4H   LINE      CODE     ---       #274
      010072E5H   LINE      CODE     ---       #275
      010072FAH   LINE      CODE     ---       #276
      010072FAH   LINE      CODE     ---       #277
      010072FAH   LINE      CODE     ---       #278
      010072FAH   LINE      CODE     ---       #279
      ---         BLOCKEND  ---      ---       LVL=0
LX51 LINKER/LOCATER V4.64.0.0                                                         03/12/2018  09:19:57  PAGE 63



      010091C1H   BLOCK     CODE     ---       LVL=0
      010091C1H   LINE      CODE     ---       #297
      010091C1H   LINE      CODE     ---       #298
      010091C1H   LINE      CODE     ---       #299
      010091CAH   LINE      CODE     ---       #300
      ---         BLOCKEND  ---      ---       LVL=0
      00000007H   SYMBOL    DATA     BYTE      modeBitMask
      00000007H   SYMBOL    DATA     BYTE      modeBitMask
      00000007H   SYMBOL    DATA     BYTE      oldSrc

      010091F3H   BLOCK     CODE     ---       LVL=0
      010091F3H   LINE      CODE     ---       #464
      010091F3H   LINE      CODE     ---       #465
      010091F3H   LINE      CODE     ---       #466
      010091FAH   LINE      CODE     ---       #467
      ---         BLOCKEND  ---      ---       LVL=0

      ---         MODULE    ---      ---       EEPROM
      01007FA8H   PUBLIC    CODE     ---       _EEPROM_Write
      0100926EH   PUBLIC    CODE     ---       EEPROM_Start
      01009219H   PUBLIC    CODE     ---       EEPROM_Enable
      000000CAH   SFRSYM    DATA     BYTE      SFRPRT5SEL
      000000DAH   SFRSYM    DATA     BYTE      SFRPRT6SEL
      000000D0H.6 SFRSYM    DATA     BIT       AC
      000000A8H.7 SFRSYM    DATA     BIT       EA
      000000A8H   SFRSYM    DATA     BYTE      IE
      00000085H   SFRSYM    DATA     BYTE      DPH1
      00000084H   SFRSYM    DATA     BYTE      DPL1
      000000D0H.7 SFRSYM    DATA     BIT       CY
      000000A0H   SFRSYM    DATA     BYTE      P2AX
      00000095H   SFRSYM    DATA     BYTE      DPX1
      00000081H   SFRSYM    DATA     BYTE      SP
      000000D0H.2 SFRSYM    DATA     BIT       OV
      00000080H   SFRSYM    DATA     BYTE      SFRPRT0DR
      00000090H   SFRSYM    DATA     BYTE      SFRPRT1DR
      000000F2H   SFRSYM    DATA     BYTE      SFRPRT12SEL
      00000098H   SFRSYM    DATA     BYTE      SFRPRT2DR
      000000B0H   SFRSYM    DATA     BYTE      SFRPRT3DR
      000000C0H   SFRSYM    DATA     BYTE      SFRPRT4DR
      000000FAH   SFRSYM    DATA     BYTE      SFRPRT15SEL
      000000C8H   SFRSYM    DATA     BYTE      SFRPRT5DR
      000000D8H   SFRSYM    DATA     BYTE      SFRPRT6DR
      00000089H   SFRSYM    DATA     BYTE      SFRPRT0PS
      00000091H   SFRSYM    DATA     BYTE      SFRPRT1PS
      00000099H   SFRSYM    DATA     BYTE      SFRPRT2PS
      000000B1H   SFRSYM    DATA     BYTE      SFRPRT3PS
      000000C1H   SFRSYM    DATA     BYTE      SFRPRT4PS
      000000C9H   SFRSYM    DATA     BYTE      SFRPRT5PS
      000000D9H   SFRSYM    DATA     BYTE      SFRPRT6PS
      000000EAH   SFRSYM    DATA     BYTE      MXAX
      000000F0H   SFRSYM    DATA     BYTE      B
      000000E0H   SFRSYM    DATA     BYTE      ACC
      000000D0H   SFRSYM    DATA     BIT       P
      000000D0H.3 SFRSYM    DATA     BIT       RS0
      000000D0H.4 SFRSYM    DATA     BIT       RS1
      00000083H   SFRSYM    DATA     BYTE      DPH
      000000E8H   SFRSYM    DATA     BYTE      SFRPRT12DR
      00000082H   SFRSYM    DATA     BYTE      DPL
      000000F8H   SFRSYM    DATA     BYTE      SFRPRT15DR
      00000086H   SFRSYM    DATA     BYTE      DPS
      000000E9H   SFRSYM    DATA     BYTE      SFRPRT12PS
      00000093H   SFRSYM    DATA     BYTE      DPX
      000000F9H   SFRSYM    DATA     BYTE      SFRPRT15PS
      000000D0H.5 SFRSYM    DATA     BIT       F0
LX51 LINKER/LOCATER V4.64.0.0                                                         03/12/2018  09:19:57  PAGE 64


      000000D0H.1 SFRSYM    DATA     BIT       F1
      0000008AH   SFRSYM    DATA     BYTE      SFRPRT0SEL
      000000D0H   SFRSYM    DATA     BYTE      PSW
      000000A2H   SFRSYM    DATA     BYTE      SFRPRT1SEL
      0000009AH   SFRSYM    DATA     BYTE      SFRPRT2SEL
      000000B2H   SFRSYM    DATA     BYTE      SFRPRT3SEL
      000000C2H   SFRSYM    DATA     BYTE      SFRPRT4SEL

      01009219H   BLOCK     CODE     ---       LVL=0
      01009219H   LINE      CODE     ---       #33
      01009219H   LINE      CODE     ---       #34
      01009219H   LINE      CODE     ---       #36
      0100921CH   LINE      CODE     ---       #39
      0100921FH   LINE      CODE     ---       #40
      ---         BLOCKEND  ---      ---       LVL=0

      0100926EH   BLOCK     CODE     ---       LVL=0
      0100926EH   LINE      CODE     ---       #57
      0100926EH   LINE      CODE     ---       #58
      0100926EH   LINE      CODE     ---       #59
      01009271H   LINE      CODE     ---       #60
      ---         BLOCKEND  ---      ---       LVL=0

      01007FA8H   BLOCK     CODE     ---       LVL=0
      02000007H   SYMBOL    XDATA    ---       rowData
      0200000AH   SYMBOL    XDATA    BYTE      rowNumber
      01007FB6H   BLOCK     CODE     NEAR LAB  LVL=1
      0200000BH   SYMBOL    XDATA    BYTE      status
      ---         BLOCKEND  ---      ---       LVL=1
      01007FA8H   LINE      CODE     ---       #345
      01007FB6H   LINE      CODE     ---       #346
      01007FB6H   LINE      CODE     ---       #349
      01007FB9H   LINE      CODE     ---       #351
      01007FC5H   LINE      CODE     ---       #352
      01007FC5H   LINE      CODE     ---       #354
      01007FCEH   LINE      CODE     ---       #355
      01007FCEH   LINE      CODE     ---       #357
      01007FD4H   LINE      CODE     ---       #360
      01007FF2H   LINE      CODE     ---       #361
      01007FF2H   LINE      CODE     ---       #362
      01007FFAH   LINE      CODE     ---       #363
      01007FFAH   LINE      CODE     ---       #365
      01007FFAH   LINE      CODE     ---       #368
      01008010H   LINE      CODE     ---       #369
      01008010H   LINE      CODE     ---       #370
      01008014H   LINE      CODE     ---       #371
      01008014H   LINE      CODE     ---       #374
      0100801AH   LINE      CODE     ---       #375
      0100801AH   LINE      CODE     ---       #376
      01008036H   LINE      CODE     ---       #378
      01008036H   LINE      CODE     ---       #380
      0100803CH   LINE      CODE     ---       #382
      01008044H   LINE      CODE     ---       #383
      01008044H   LINE      CODE     ---       #385
      01008044H   LINE      CODE     ---       #388
      0100805AH   LINE      CODE     ---       #389
      0100805AH   LINE      CODE     ---       #390
      0100805EH   LINE      CODE     ---       #391
      0100805EH   LINE      CODE     ---       #392
      01008060H   LINE      CODE     ---       #394
      01008060H   LINE      CODE     ---       #395
      01008066H   LINE      CODE     ---       #396
      01008066H   LINE      CODE     ---       #397
      01008068H   LINE      CODE     ---       #399
      01008068H   LINE      CODE     ---       #400
LX51 LINKER/LOCATER V4.64.0.0                                                         03/12/2018  09:19:57  PAGE 65


      0100806EH   LINE      CODE     ---       #401
      0100806EH   LINE      CODE     ---       #402
      0100806EH   LINE      CODE     ---       #405
      01008071H   LINE      CODE     ---       #406
      01008073H   LINE      CODE     ---       #408
      01008073H   LINE      CODE     ---       #409
      01008079H   LINE      CODE     ---       #410
      01008079H   LINE      CODE     ---       #411
      0100807BH   LINE      CODE     ---       #413
      0100807BH   LINE      CODE     ---       #414
      01008081H   LINE      CODE     ---       #415
      01008081H   LINE      CODE     ---       #417
      01008086H   LINE      CODE     ---       #418
      ---         BLOCKEND  ---      ---       LVL=0

      ---         MODULE    ---      ---       RS485_CTS
      0100922CH   PUBLIC    CODE     ---       _RS485_CTS_Write

      0100922CH   BLOCK     CODE     ---       LVL=0
      00000007H   SYMBOL    DATA     BYTE      control
      0100922CH   LINE      CODE     ---       #37
      0100922CH   LINE      CODE     ---       #38
      0100922CH   LINE      CODE     ---       #39
      01009231H   LINE      CODE     ---       #40
      ---         BLOCKEND  ---      ---       LVL=0

      ---         MODULE    ---      ---       BOOTLOADABLE
      010091CBH   PUBLIC    CODE     ---       Bootloadable_Load
      000000CAH   SFRSYM    DATA     BYTE      SFRPRT5SEL
      000000DAH   SFRSYM    DATA     BYTE      SFRPRT6SEL
      000000D0H.6 SFRSYM    DATA     BIT       AC
      000000A8H.7 SFRSYM    DATA     BIT       EA
      000000A8H   SFRSYM    DATA     BYTE      IE
      00000085H   SFRSYM    DATA     BYTE      DPH1
      00000084H   SFRSYM    DATA     BYTE      DPL1
      000000D0H.7 SFRSYM    DATA     BIT       CY
      000000A0H   SFRSYM    DATA     BYTE      P2AX
      00000095H   SFRSYM    DATA     BYTE      DPX1
      00000081H   SFRSYM    DATA     BYTE      SP
      000000D0H.2 SFRSYM    DATA     BIT       OV
      00000080H   SFRSYM    DATA     BYTE      SFRPRT0DR
      00000090H   SFRSYM    DATA     BYTE      SFRPRT1DR
      000000F2H   SFRSYM    DATA     BYTE      SFRPRT12SEL
      00000098H   SFRSYM    DATA     BYTE      SFRPRT2DR
      000000B0H   SFRSYM    DATA     BYTE      SFRPRT3DR
      000000C0H   SFRSYM    DATA     BYTE      SFRPRT4DR
      000000FAH   SFRSYM    DATA     BYTE      SFRPRT15SEL
      000000C8H   SFRSYM    DATA     BYTE      SFRPRT5DR
      000000D8H   SFRSYM    DATA     BYTE      SFRPRT6DR
      00000089H   SFRSYM    DATA     BYTE      SFRPRT0PS
      00000091H   SFRSYM    DATA     BYTE      SFRPRT1PS
      00000099H   SFRSYM    DATA     BYTE      SFRPRT2PS
      000000B1H   SFRSYM    DATA     BYTE      SFRPRT3PS
      000000C1H   SFRSYM    DATA     BYTE      SFRPRT4PS
      000000C9H   SFRSYM    DATA     BYTE      SFRPRT5PS
      000000D9H   SFRSYM    DATA     BYTE      SFRPRT6PS
      000000EAH   SFRSYM    DATA     BYTE      MXAX
      000000F0H   SFRSYM    DATA     BYTE      B
      000000E0H   SFRSYM    DATA     BYTE      ACC
      000000D0H   SFRSYM    DATA     BIT       P
      000000D0H.3 SFRSYM    DATA     BIT       RS0
      000000D0H.4 SFRSYM    DATA     BIT       RS1
      00000083H   SFRSYM    DATA     BYTE      DPH
      000000E8H   SFRSYM    DATA     BYTE      SFRPRT12DR
      00000082H   SFRSYM    DATA     BYTE      DPL
LX51 LINKER/LOCATER V4.64.0.0                                                         03/12/2018  09:19:57  PAGE 66


      000000F8H   SFRSYM    DATA     BYTE      SFRPRT15DR
      00000086H   SFRSYM    DATA     BYTE      DPS
      000000E9H   SFRSYM    DATA     BYTE      SFRPRT12PS
      00000093H   SFRSYM    DATA     BYTE      DPX
      000000F9H   SFRSYM    DATA     BYTE      SFRPRT15PS
      000000D0H.5 SFRSYM    DATA     BIT       F0
      000000D0H.1 SFRSYM    DATA     BIT       F1
      0000008AH   SFRSYM    DATA     BYTE      SFRPRT0SEL
      000000D0H   SFRSYM    DATA     BYTE      PSW
      000000A2H   SFRSYM    DATA     BYTE      SFRPRT1SEL
      0000009AH   SFRSYM    DATA     BYTE      SFRPRT2SEL
      000000B2H   SFRSYM    DATA     BYTE      SFRPRT3SEL
      000000C2H   SFRSYM    DATA     BYTE      SFRPRT4SEL

      010091CBH   BLOCK     CODE     ---       LVL=0
      010091CBH   LINE      CODE     ---       #41
      010091CBH   LINE      CODE     ---       #42
      010091CBH   LINE      CODE     ---       #44
      010091D1H   LINE      CODE     ---       #46
      010091D4H   LINE      CODE     ---       #47
      ---         BLOCKEND  ---      ---       LVL=0
      00000002H   SYMBOL    DATA     WORD      idx

      ---         MODULE    ---      ---       FTDI_ENABLE_REG
      01009232H   PUBLIC    CODE     ---       _FTDI_ENABLE_REG_Write

      01009232H   BLOCK     CODE     ---       LVL=0
      00000007H   SYMBOL    DATA     BYTE      control
      01009232H   LINE      CODE     ---       #37
      01009232H   LINE      CODE     ---       #38
      01009232H   LINE      CODE     ---       #39
      01009237H   LINE      CODE     ---       #40
      ---         BLOCKEND  ---      ---       LVL=0

      ---         MODULE    ---      ---       RESET_FF
      01009238H   PUBLIC    CODE     ---       _RESET_FF_Write

      01009238H   BLOCK     CODE     ---       LVL=0
      00000007H   SYMBOL    DATA     BYTE      control
      01009238H   LINE      CODE     ---       #37
      01009238H   LINE      CODE     ---       #38
      01009238H   LINE      CODE     ---       #39
      0100923DH   LINE      CODE     ---       #40
      ---         BLOCKEND  ---      ---       LVL=0

      ---         MODULE    ---      ---       FF_STATUS
      0100923EH   PUBLIC    CODE     ---       FF_STATUS_Read
      000000CAH   SFRSYM    DATA     BYTE      SFRPRT5SEL
      000000DAH   SFRSYM    DATA     BYTE      SFRPRT6SEL
      000000D0H.6 SFRSYM    DATA     BIT       AC
      000000A8H.7 SFRSYM    DATA     BIT       EA
      000000A8H   SFRSYM    DATA     BYTE      IE
      00000085H   SFRSYM    DATA     BYTE      DPH1
      00000084H   SFRSYM    DATA     BYTE      DPL1
      000000D0H.7 SFRSYM    DATA     BIT       CY
      000000A0H   SFRSYM    DATA     BYTE      P2AX
      00000095H   SFRSYM    DATA     BYTE      DPX1
      00000081H   SFRSYM    DATA     BYTE      SP
      000000D0H.2 SFRSYM    DATA     BIT       OV
      00000080H   SFRSYM    DATA     BYTE      SFRPRT0DR
      00000090H   SFRSYM    DATA     BYTE      SFRPRT1DR
      000000F2H   SFRSYM    DATA     BYTE      SFRPRT12SEL
      00000098H   SFRSYM    DATA     BYTE      SFRPRT2DR
      000000B0H   SFRSYM    DATA     BYTE      SFRPRT3DR
      000000C0H   SFRSYM    DATA     BYTE      SFRPRT4DR
LX51 LINKER/LOCATER V4.64.0.0                                                         03/12/2018  09:19:57  PAGE 67


      000000FAH   SFRSYM    DATA     BYTE      SFRPRT15SEL
      000000C8H   SFRSYM    DATA     BYTE      SFRPRT5DR
      000000D8H   SFRSYM    DATA     BYTE      SFRPRT6DR
      00000089H   SFRSYM    DATA     BYTE      SFRPRT0PS
      00000091H   SFRSYM    DATA     BYTE      SFRPRT1PS
      00000099H   SFRSYM    DATA     BYTE      SFRPRT2PS
      000000B1H   SFRSYM    DATA     BYTE      SFRPRT3PS
      000000C1H   SFRSYM    DATA     BYTE      SFRPRT4PS
      000000C9H   SFRSYM    DATA     BYTE      SFRPRT5PS
      000000D9H   SFRSYM    DATA     BYTE      SFRPRT6PS
      000000EAH   SFRSYM    DATA     BYTE      MXAX
      000000F0H   SFRSYM    DATA     BYTE      B
      000000E0H   SFRSYM    DATA     BYTE      ACC
      000000D0H   SFRSYM    DATA     BIT       P
      000000D0H.3 SFRSYM    DATA     BIT       RS0
      000000D0H.4 SFRSYM    DATA     BIT       RS1
      00000083H   SFRSYM    DATA     BYTE      DPH
      000000E8H   SFRSYM    DATA     BYTE      SFRPRT12DR
      00000082H   SFRSYM    DATA     BYTE      DPL
      000000F8H   SFRSYM    DATA     BYTE      SFRPRT15DR
      00000086H   SFRSYM    DATA     BYTE      DPS
      000000E9H   SFRSYM    DATA     BYTE      SFRPRT12PS
      00000093H   SFRSYM    DATA     BYTE      DPX
      000000F9H   SFRSYM    DATA     BYTE      SFRPRT15PS
      000000D0H.5 SFRSYM    DATA     BIT       F0
      000000D0H.1 SFRSYM    DATA     BIT       F1
      0000008AH   SFRSYM    DATA     BYTE      SFRPRT0SEL
      000000D0H   SFRSYM    DATA     BYTE      PSW
      000000A2H   SFRSYM    DATA     BYTE      SFRPRT1SEL
      0000009AH   SFRSYM    DATA     BYTE      SFRPRT2SEL
      000000B2H   SFRSYM    DATA     BYTE      SFRPRT3SEL
      000000C2H   SFRSYM    DATA     BYTE      SFRPRT4SEL

      0100923EH   BLOCK     CODE     ---       LVL=0
      0100923EH   LINE      CODE     ---       #37
      0100923EH   LINE      CODE     ---       #38
      0100923EH   LINE      CODE     ---       #39
      01009243H   LINE      CODE     ---       #40
      ---         BLOCKEND  ---      ---       LVL=0
      00000007H   SYMBOL    DATA     BYTE      interruptState
      00000007H   SYMBOL    DATA     BYTE      interruptState
      00000007H   SYMBOL    DATA     BYTE      mask

      ---         MODULE    ---      ---       MY_TIMER
      02001629H   PUBLIC    XDATA    BYTE      MY_TIMER_initVar
      0100916CH   PUBLIC    CODE     ---       MY_TIMER_ClearFIFO
      010090DBH   PUBLIC    CODE     ---       MY_TIMER_ReadCounter
      010091E9H   PUBLIC    CODE     ---       _MY_TIMER_WriteCounter
      010091DFH   PUBLIC    CODE     ---       MY_TIMER_ReadCapture
      010091D5H   PUBLIC    CODE     ---       _MY_TIMER_WritePeriod
      0100924AH   PUBLIC    CODE     ---       MY_TIMER_ReadStatusRegister
      01009244H   PUBLIC    CODE     ---       _MY_TIMER_SetInterruptMode
      0100905CH   PUBLIC    CODE     ---       MY_TIMER_Start
      010091FBH   PUBLIC    CODE     ---       MY_TIMER_Enable
      01008BD4H   PUBLIC    CODE     ---       MY_TIMER_Init
      000000CAH   SFRSYM    DATA     BYTE      SFRPRT5SEL
      000000DAH   SFRSYM    DATA     BYTE      SFRPRT6SEL
      000000D0H.6 SFRSYM    DATA     BIT       AC
      000000A8H.7 SFRSYM    DATA     BIT       EA
      000000A8H   SFRSYM    DATA     BYTE      IE
      00000085H   SFRSYM    DATA     BYTE      DPH1
      00000084H   SFRSYM    DATA     BYTE      DPL1
      000000D0H.7 SFRSYM    DATA     BIT       CY
      000000A0H   SFRSYM    DATA     BYTE      P2AX
      00000095H   SFRSYM    DATA     BYTE      DPX1
LX51 LINKER/LOCATER V4.64.0.0                                                         03/12/2018  09:19:57  PAGE 68


      00000081H   SFRSYM    DATA     BYTE      SP
      000000D0H.2 SFRSYM    DATA     BIT       OV
      00000080H   SFRSYM    DATA     BYTE      SFRPRT0DR
      00000090H   SFRSYM    DATA     BYTE      SFRPRT1DR
      000000F2H   SFRSYM    DATA     BYTE      SFRPRT12SEL
      00000098H   SFRSYM    DATA     BYTE      SFRPRT2DR
      000000B0H   SFRSYM    DATA     BYTE      SFRPRT3DR
      000000C0H   SFRSYM    DATA     BYTE      SFRPRT4DR
      000000FAH   SFRSYM    DATA     BYTE      SFRPRT15SEL
      000000C8H   SFRSYM    DATA     BYTE      SFRPRT5DR
      000000D8H   SFRSYM    DATA     BYTE      SFRPRT6DR
      00000089H   SFRSYM    DATA     BYTE      SFRPRT0PS
      00000091H   SFRSYM    DATA     BYTE      SFRPRT1PS
      00000099H   SFRSYM    DATA     BYTE      SFRPRT2PS
      000000B1H   SFRSYM    DATA     BYTE      SFRPRT3PS
      000000C1H   SFRSYM    DATA     BYTE      SFRPRT4PS
      000000C9H   SFRSYM    DATA     BYTE      SFRPRT5PS
      000000D9H   SFRSYM    DATA     BYTE      SFRPRT6PS
      000000EAH   SFRSYM    DATA     BYTE      MXAX
      000000F0H   SFRSYM    DATA     BYTE      B
      000000E0H   SFRSYM    DATA     BYTE      ACC
      000000D0H   SFRSYM    DATA     BIT       P
      000000D0H.3 SFRSYM    DATA     BIT       RS0
      000000D0H.4 SFRSYM    DATA     BIT       RS1
      00000083H   SFRSYM    DATA     BYTE      DPH
      000000E8H   SFRSYM    DATA     BYTE      SFRPRT12DR
      00000082H   SFRSYM    DATA     BYTE      DPL
      000000F8H   SFRSYM    DATA     BYTE      SFRPRT15DR
      00000086H   SFRSYM    DATA     BYTE      DPS
      000000E9H   SFRSYM    DATA     BYTE      SFRPRT12PS
      00000093H   SFRSYM    DATA     BYTE      DPX
      000000F9H   SFRSYM    DATA     BYTE      SFRPRT15PS
      000000D0H.5 SFRSYM    DATA     BIT       F0
      000000D0H.1 SFRSYM    DATA     BIT       F1
      0000008AH   SFRSYM    DATA     BYTE      SFRPRT0SEL
      000000D0H   SFRSYM    DATA     BYTE      PSW
      000000A2H   SFRSYM    DATA     BYTE      SFRPRT1SEL
      0000009AH   SFRSYM    DATA     BYTE      SFRPRT2SEL
      000000B2H   SFRSYM    DATA     BYTE      SFRPRT3SEL
      000000C2H   SFRSYM    DATA     BYTE      SFRPRT4SEL

      01008BD4H   BLOCK     CODE     ---       LVL=0
      01008BD4H   BLOCK     CODE     NEAR LAB  LVL=1
      00000007H   SYMBOL    DATA     BYTE      MY_TIMER_interruptState
      ---         BLOCKEND  ---      ---       LVL=1
      01008BD4H   LINE      CODE     ---       #43
      01008BD4H   LINE      CODE     ---       #44
      01008BD4H   LINE      CODE     ---       #118
      01008BDFH   LINE      CODE     ---       #119
      01008BEAH   LINE      CODE     ---       #142
      01008BEDH   LINE      CODE     ---       #145
      01008BF4H   LINE      CODE     ---       #148
      01008BF7H   LINE      CODE     ---       #159
      01008BFAH   LINE      CODE     ---       #162
      01008BFFH   LINE      CODE     ---       #163
      ---         BLOCKEND  ---      ---       LVL=0

      010091FBH   BLOCK     CODE     ---       LVL=0
      010091FBH   LINE      CODE     ---       #180
      010091FBH   LINE      CODE     ---       #181
      010091FBH   LINE      CODE     ---       #190
      01009202H   LINE      CODE     ---       #192
      ---         BLOCKEND  ---      ---       LVL=0

      0100905CH   BLOCK     CODE     ---       LVL=0
LX51 LINKER/LOCATER V4.64.0.0                                                         03/12/2018  09:19:57  PAGE 69


      0100905CH   LINE      CODE     ---       #215
      0100905CH   LINE      CODE     ---       #216
      0100905CH   LINE      CODE     ---       #217
      01009062H   LINE      CODE     ---       #218
      01009062H   LINE      CODE     ---       #219
      01009065H   LINE      CODE     ---       #221
      0100906BH   LINE      CODE     ---       #222
      0100906BH   LINE      CODE     ---       #225
      0100906EH   LINE      CODE     ---       #226
      ---         BLOCKEND  ---      ---       LVL=0

      01009244H   BLOCK     CODE     ---       LVL=0
      00000007H   SYMBOL    DATA     BYTE      interruptMode
      01009244H   LINE      CODE     ---       #279
      01009244H   LINE      CODE     ---       #280
      01009244H   LINE      CODE     ---       #281
      01009249H   LINE      CODE     ---       #282
      ---         BLOCKEND  ---      ---       LVL=0

      0100924AH   BLOCK     CODE     ---       LVL=0
      0100924AH   LINE      CODE     ---       #333
      0100924AH   LINE      CODE     ---       #334
      0100924AH   LINE      CODE     ---       #335
      0100924FH   LINE      CODE     ---       #336
      ---         BLOCKEND  ---      ---       LVL=0
      00000007H   SYMBOL    DATA     BYTE      control

      010091D5H   BLOCK     CODE     ---       LVL=0
      00000004H   SYMBOL    DATA     DWORD     period
      010091D5H   LINE      CODE     ---       #431
      010091D5H   LINE      CODE     ---       #432
      010091D5H   LINE      CODE     ---       #437
      010091DEH   LINE      CODE     ---       #439
      ---         BLOCKEND  ---      ---       LVL=0

      010091DFH   BLOCK     CODE     ---       LVL=0
      010091DFH   LINE      CODE     ---       #456
      010091DFH   LINE      CODE     ---       #457
      010091DFH   LINE      CODE     ---       #461
      010091E8H   LINE      CODE     ---       #463
      ---         BLOCKEND  ---      ---       LVL=0

      010091E9H   BLOCK     CODE     ---       LVL=0
      00000004H   SYMBOL    DATA     DWORD     counter
      010091E9H   LINE      CODE     ---       #480
      010091E9H   LINE      CODE     ---       #481
      010091E9H   LINE      CODE     ---       #489
      010091F2H   LINE      CODE     ---       #491
      ---         BLOCKEND  ---      ---       LVL=0

      010090DBH   BLOCK     CODE     ---       LVL=0
      010090DBH   LINE      CODE     ---       #508
      010090DBH   LINE      CODE     ---       #509
      010090DBH   LINE      CODE     ---       #516
      010090E0H   LINE      CODE     ---       #523
      010090E9H   LINE      CODE     ---       #525
      ---         BLOCKEND  ---      ---       LVL=0

      0100916CH   BLOCK     CODE     ---       LVL=0
      0100916CH   LINE      CODE     ---       #763
      0100916CH   LINE      CODE     ---       #764
      0100916CH   LINE      CODE     ---       #765
      01009173H   LINE      CODE     ---       #766
      01009173H   LINE      CODE     ---       #767
      01009176H   LINE      CODE     ---       #768
LX51 LINKER/LOCATER V4.64.0.0                                                         03/12/2018  09:19:57  PAGE 70


      01009178H   LINE      CODE     ---       #769
      ---         BLOCKEND  ---      ---       LVL=0

      ---         MODULE    ---      ---       CYFLASH
      0200161EH   PUBLIC    XDATA    ---       dieTemperature
      01008C9EH   PUBLIC    CODE     ---       CyEEPROM_Start
      01008F48H   PUBLIC    CODE     ---       CySetTemp
      000000CAH   SFRSYM    DATA     BYTE      SFRPRT5SEL
      000000DAH   SFRSYM    DATA     BYTE      SFRPRT6SEL
      000000D0H.6 SFRSYM    DATA     BIT       AC
      000000A8H.7 SFRSYM    DATA     BIT       EA
      000000A8H   SFRSYM    DATA     BYTE      IE
      00000085H   SFRSYM    DATA     BYTE      DPH1
      00000084H   SFRSYM    DATA     BYTE      DPL1
      000000D0H.7 SFRSYM    DATA     BIT       CY
      000000A0H   SFRSYM    DATA     BYTE      P2AX
      00000095H   SFRSYM    DATA     BYTE      DPX1
      00000081H   SFRSYM    DATA     BYTE      SP
      000000D0H.2 SFRSYM    DATA     BIT       OV
      00000080H   SFRSYM    DATA     BYTE      SFRPRT0DR
      00000090H   SFRSYM    DATA     BYTE      SFRPRT1DR
      000000F2H   SFRSYM    DATA     BYTE      SFRPRT12SEL
      00000098H   SFRSYM    DATA     BYTE      SFRPRT2DR
      000000B0H   SFRSYM    DATA     BYTE      SFRPRT3DR
      000000C0H   SFRSYM    DATA     BYTE      SFRPRT4DR
      000000FAH   SFRSYM    DATA     BYTE      SFRPRT15SEL
      000000C8H   SFRSYM    DATA     BYTE      SFRPRT5DR
      000000D8H   SFRSYM    DATA     BYTE      SFRPRT6DR
      00000089H   SFRSYM    DATA     BYTE      SFRPRT0PS
      00000091H   SFRSYM    DATA     BYTE      SFRPRT1PS
      00000099H   SFRSYM    DATA     BYTE      SFRPRT2PS
      000000B1H   SFRSYM    DATA     BYTE      SFRPRT3PS
      000000C1H   SFRSYM    DATA     BYTE      SFRPRT4PS
      000000C9H   SFRSYM    DATA     BYTE      SFRPRT5PS
      000000D9H   SFRSYM    DATA     BYTE      SFRPRT6PS
      000000EAH   SFRSYM    DATA     BYTE      MXAX
      000000F0H   SFRSYM    DATA     BYTE      B
      000000E0H   SFRSYM    DATA     BYTE      ACC
      000000D0H   SFRSYM    DATA     BIT       P
      000000D0H.3 SFRSYM    DATA     BIT       RS0
      000000D0H.4 SFRSYM    DATA     BIT       RS1
      00000083H   SFRSYM    DATA     BYTE      DPH
      000000E8H   SFRSYM    DATA     BYTE      SFRPRT12DR
      00000082H   SFRSYM    DATA     BYTE      DPL
      000000F8H   SFRSYM    DATA     BYTE      SFRPRT15DR
      00000086H   SFRSYM    DATA     BYTE      DPS
      000000E9H   SFRSYM    DATA     BYTE      SFRPRT12PS
      00000093H   SFRSYM    DATA     BYTE      DPX
      000000F9H   SFRSYM    DATA     BYTE      SFRPRT15PS
      000000D0H.5 SFRSYM    DATA     BIT       F0
      000000D0H.1 SFRSYM    DATA     BIT       F1
      0000008AH   SFRSYM    DATA     BYTE      SFRPRT0SEL
      000000D0H   SFRSYM    DATA     BYTE      PSW
      000000A2H   SFRSYM    DATA     BYTE      SFRPRT1SEL
      0000009AH   SFRSYM    DATA     BYTE      SFRPRT2SEL
      000000B2H   SFRSYM    DATA     BYTE      SFRPRT3SEL
      000000C2H   SFRSYM    DATA     BYTE      SFRPRT4SEL
      01008970H   SYMBOL    CODE     ---       CyFlashGetSpcAlgorithm
      01008872H   SYMBOL    CODE     ---       CySetTempInt
      0200161BH   SYMBOL    XDATA    ---       rowBuffer
      00000007H   SYMBOL    DATA     BYTE      interruptState
      00000007H   SYMBOL    DATA     BYTE      interruptState

      01008872H   BLOCK     CODE     ---       LVL=0
      01008872H   BLOCK     CODE     NEAR LAB  LVL=1
LX51 LINKER/LOCATER V4.64.0.0                                                         03/12/2018  09:19:57  PAGE 71


      02000008H   SYMBOL    XDATA    BYTE      status
      ---         BLOCKEND  ---      ---       LVL=1
      01008872H   LINE      CODE     ---       #155
      01008872H   LINE      CODE     ---       #156
      01008872H   LINE      CODE     ---       #160
      01008875H   LINE      CODE     ---       #163
      0100887BH   LINE      CODE     ---       #165
      01008881H   LINE      CODE     ---       #166
      01008881H   LINE      CODE     ---       #168
      0100888BH   LINE      CODE     ---       #169
      0100888BH   LINE      CODE     ---       #171
      0100888BH   LINE      CODE     ---       #172
      0100889AH   LINE      CODE     ---       #173
      0100889AH   LINE      CODE     ---       #174
      0100889FH   LINE      CODE     ---       #176
      010088A7H   LINE      CODE     ---       #177
      010088A7H   LINE      CODE     ---       #179
      010088ADH   LINE      CODE     ---       #180
      010088AFH   LINE      CODE     ---       #181
      010088AFH   LINE      CODE     ---       #182
      010088AFH   LINE      CODE     ---       #184
      010088B7H   LINE      CODE     ---       #185
      010088B7H   LINE      CODE     ---       #187
      010088BAH   LINE      CODE     ---       #188
      010088BCH   LINE      CODE     ---       #190
      010088BCH   LINE      CODE     ---       #191
      010088C2H   LINE      CODE     ---       #192
      010088C2H   LINE      CODE     ---       #194
      010088C7H   LINE      CODE     ---       #195
      ---         BLOCKEND  ---      ---       LVL=0

      01008970H   BLOCK     CODE     ---       LVL=0
      01008970H   BLOCK     CODE     NEAR LAB  LVL=1
      02000008H   SYMBOL    XDATA    BYTE      status
      ---         BLOCKEND  ---      ---       LVL=1
      01008970H   LINE      CODE     ---       #215
      01008970H   LINE      CODE     ---       #216
      01008970H   LINE      CODE     ---       #220
      01008973H   LINE      CODE     ---       #222
      01008979H   LINE      CODE     ---       #223
      01008979H   LINE      CODE     ---       #224
      01008981H   LINE      CODE     ---       #226
      01008985H   LINE      CODE     ---       #227
      01008985H   LINE      CODE     ---       #228
      0100898DH   LINE      CODE     ---       #229
      0100898DH   LINE      CODE     ---       #231
      01008993H   LINE      CODE     ---       #232
      01008995H   LINE      CODE     ---       #234
      010089ABH   LINE      CODE     ---       #235
      010089ABH   LINE      CODE     ---       #236
      010089AFH   LINE      CODE     ---       #237
      010089AFH   LINE      CODE     ---       #238
      010089AFH   LINE      CODE     ---       #239
      010089B2H   LINE      CODE     ---       #240
      010089B4H   LINE      CODE     ---       #242
      010089B4H   LINE      CODE     ---       #243
      010089BAH   LINE      CODE     ---       #244
      010089BAH   LINE      CODE     ---       #246
      010089BFH   LINE      CODE     ---       #247
      ---         BLOCKEND  ---      ---       LVL=0

      01008F48H   BLOCK     CODE     ---       LVL=0
      01008F48H   BLOCK     CODE     NEAR LAB  LVL=1
      02000007H   SYMBOL    XDATA    BYTE      status
      ---         BLOCKEND  ---      ---       LVL=1
LX51 LINKER/LOCATER V4.64.0.0                                                         03/12/2018  09:19:57  PAGE 72


      01008F48H   LINE      CODE     ---       #273
      01008F48H   LINE      CODE     ---       #274
      01008F48H   LINE      CODE     ---       #275
      01008F50H   LINE      CODE     ---       #277
      01008F52H   LINE      CODE     ---       #278
      01008F52H   LINE      CODE     ---       #279
      01008F5AH   LINE      CODE     ---       #280
      01008F5AH   LINE      CODE     ---       #282
      01008F5FH   LINE      CODE     ---       #283
      ---         BLOCKEND  ---      ---       LVL=0
      00000004H   SYMBOL    DATA     WORD      rowAddress
      00000001H   SYMBOL    DATA     ---       rowData
      00000007H   SYMBOL    DATA     BYTE      status
      00000007H   SYMBOL    DATA     BYTE      interruptState

      01008C9EH   BLOCK     CODE     ---       LVL=0
      01008C9EH   BLOCK     CODE     NEAR LAB  LVL=1
      00000007H   SYMBOL    DATA     BYTE      interruptState
      ---         BLOCKEND  ---      ---       LVL=1
      01008C9EH   LINE      CODE     ---       #636
      01008C9EH   LINE      CODE     ---       #637
      01008C9EH   LINE      CODE     ---       #640
      01008CA1H   LINE      CODE     ---       #647
      01008CA8H   LINE      CODE     ---       #648
      01008CAFH   LINE      CODE     ---       #661
      01008CB5H   LINE      CODE     ---       #668
      01008CBCH   LINE      CODE     ---       #669
      01008CC3H   LINE      CODE     ---       #671
      01008CCBH   LINE      CODE     ---       #672
      01008CCBH   LINE      CODE     ---       #674
      01008CCBH   LINE      CODE     ---       #676
      01008CCEH   LINE      CODE     ---       #677
      ---         BLOCKEND  ---      ---       LVL=0
      00000007H   SYMBOL    DATA     BYTE      interruptState

      ---         MODULE    ---      ---       CYLIB
      02001617H   PUBLIC    XDATA    DWORD     cydelay_32k_ms
      02001616H   PUBLIC    XDATA    BYTE      CyResetStatus
      02001612H   PUBLIC    XDATA    DWORD     cydelay_freq_hz
      02001611H   PUBLIC    XDATA    BYTE      cydelay_freq_mhz
      0200160DH   PUBLIC    XDATA    DWORD     cydelay_freq_khz
      01008F16H   PUBLIC    CODE     ---       _CyIntSetPriority
      010088C8H   PUBLIC    CODE     ---       _CyIntSetVector
      01008487H   PUBLIC    CODE     ---       _?CyDelay
      01009203H   PUBLIC    CODE     ---       CySoftwareReset
      000000CAH   SFRSYM    DATA     BYTE      SFRPRT5SEL
      000000DAH   SFRSYM    DATA     BYTE      SFRPRT6SEL
      000000D0H.6 SFRSYM    DATA     BIT       AC
      000000A8H.7 SFRSYM    DATA     BIT       EA
      000000A8H   SFRSYM    DATA     BYTE      IE
      00000085H   SFRSYM    DATA     BYTE      DPH1
      00000084H   SFRSYM    DATA     BYTE      DPL1
      000000D0H.7 SFRSYM    DATA     BIT       CY
      000000A0H   SFRSYM    DATA     BYTE      P2AX
      00000095H   SFRSYM    DATA     BYTE      DPX1
      00000081H   SFRSYM    DATA     BYTE      SP
      000000D0H.2 SFRSYM    DATA     BIT       OV
      00000080H   SFRSYM    DATA     BYTE      SFRPRT0DR
      00000090H   SFRSYM    DATA     BYTE      SFRPRT1DR
      000000F2H   SFRSYM    DATA     BYTE      SFRPRT12SEL
      00000098H   SFRSYM    DATA     BYTE      SFRPRT2DR
      000000B0H   SFRSYM    DATA     BYTE      SFRPRT3DR
      000000C0H   SFRSYM    DATA     BYTE      SFRPRT4DR
      000000FAH   SFRSYM    DATA     BYTE      SFRPRT15SEL
      000000C8H   SFRSYM    DATA     BYTE      SFRPRT5DR
LX51 LINKER/LOCATER V4.64.0.0                                                         03/12/2018  09:19:57  PAGE 73


      000000D8H   SFRSYM    DATA     BYTE      SFRPRT6DR
      00000089H   SFRSYM    DATA     BYTE      SFRPRT0PS
      00000091H   SFRSYM    DATA     BYTE      SFRPRT1PS
      00000099H   SFRSYM    DATA     BYTE      SFRPRT2PS
      000000B1H   SFRSYM    DATA     BYTE      SFRPRT3PS
      000000C1H   SFRSYM    DATA     BYTE      SFRPRT4PS
      000000C9H   SFRSYM    DATA     BYTE      SFRPRT5PS
      000000D9H   SFRSYM    DATA     BYTE      SFRPRT6PS
      000000EAH   SFRSYM    DATA     BYTE      MXAX
      000000F0H   SFRSYM    DATA     BYTE      B
      000000E0H   SFRSYM    DATA     BYTE      ACC
      000000D0H   SFRSYM    DATA     BIT       P
      000000D0H.3 SFRSYM    DATA     BIT       RS0
      000000D0H.4 SFRSYM    DATA     BIT       RS1
      00000083H   SFRSYM    DATA     BYTE      DPH
      000000E8H   SFRSYM    DATA     BYTE      SFRPRT12DR
      00000082H   SFRSYM    DATA     BYTE      DPL
      000000F8H   SFRSYM    DATA     BYTE      SFRPRT15DR
      00000086H   SFRSYM    DATA     BYTE      DPS
      000000E9H   SFRSYM    DATA     BYTE      SFRPRT12PS
      00000093H   SFRSYM    DATA     BYTE      DPX
      000000F9H   SFRSYM    DATA     BYTE      SFRPRT15PS
      000000D0H.5 SFRSYM    DATA     BIT       F0
      000000D0H.1 SFRSYM    DATA     BIT       F1
      0000008AH   SFRSYM    DATA     BYTE      SFRPRT0SEL
      000000D0H   SFRSYM    DATA     BYTE      PSW
      000000A2H   SFRSYM    DATA     BYTE      SFRPRT1SEL
      0000009AH   SFRSYM    DATA     BYTE      SFRPRT2SEL
      000000B2H   SFRSYM    DATA     BYTE      SFRPRT3SEL
      000000C2H   SFRSYM    DATA     BYTE      SFRPRT4SEL
      00000007H   SYMBOL    DATA     BYTE      wait
      00000007H   SYMBOL    DATA     BYTE      pDiv
      00000005H   SYMBOL    DATA     BYTE      qDiv
      00000003H   SYMBOL    DATA     BYTE      current
      00000007H   SYMBOL    DATA     BYTE      source
      00000007H   SYMBOL    DATA     BYTE      wait
      00000007H   SYMBOL    DATA     BYTE      poweredOn
      00000006H   SYMBOL    DATA     BYTE      freq
      00000007H   SYMBOL    DATA     BYTE      source
      00000007H   SYMBOL    DATA     BYTE      source
      00000007H   SYMBOL    DATA     BYTE      divider
      00000006H   SYMBOL    DATA     WORD      divider
      00000005H   SYMBOL    DATA     BYTE      masterClkDiv
      00000006H   SYMBOL    DATA     WORD      busClkDiv
      00000001H   SYMBOL    DATA     BYTE      interruptState
      00000007H   SYMBOL    DATA     BYTE      divider
      00000007H   SYMBOL    DATA     BYTE      source
      00000007H   SYMBOL    DATA     BYTE      source
      00000007H   SYMBOL    DATA     BYTE      mode
      00000006H   SYMBOL    DATA     BYTE      state
      00000007H   SYMBOL    DATA     BYTE      mode
      00000007H   SYMBOL    DATA     BYTE      wait
      00000007H   SYMBOL    DATA     BYTE      setting
      00000007H   SYMBOL    DATA     BYTE      setting
      00000007H   SYMBOL    DATA     BYTE      setting
      00000000H   SYMBOL    XSTK     BYTE      reason

      01009203H   BLOCK     CODE     ---       LVL=0
      01009203H   LINE      CODE     ---       #1666
      01009203H   LINE      CODE     ---       #1667
      01009203H   LINE      CODE     ---       #1668
      0100920AH   LINE      CODE     ---       #1669
      ---         BLOCKEND  ---      ---       LVL=0

      01008487H   BLOCK     CODE     ---       LVL=0
LX51 LINKER/LOCATER V4.64.0.0                                                         03/12/2018  09:19:57  PAGE 74


      00000000H   SYMBOL    XSTK     DWORD     milliseconds
      01008487H   LINE      CODE     ---       #1692
      01008490H   LINE      CODE     ---       #1694
      010084A6H   LINE      CODE     ---       #1695
      010084A6H   LINE      CODE     ---       #1700
      010084B7H   LINE      CODE     ---       #1701
      010084E1H   LINE      CODE     ---       #1702
      010084E3H   LINE      CODE     ---       #1704
      01008508H   LINE      CODE     ---       #1705
      ---         BLOCKEND  ---      ---       LVL=0
      00000000H   SYMBOL    XSTK     DWORD     freq
      00000007H   SYMBOL    DATA     BYTE      ticks
      00000005H   SYMBOL    DATA     BYTE      lpMode
      0200160CH   SYMBOL    XDATA    BYTE      interruptStatus
      00000005H   SYMBOL    DATA     BYTE      interruptState
      00000005H   SYMBOL    DATA     BYTE      interruptState
      00000003H   SYMBOL    DATA     BYTE      interruptState

      010088C8H   BLOCK     CODE     ---       LVL=0
      02000000H   SYMBOL    XDATA    BYTE      number
      02000001H   SYMBOL    XDATA    ---       address
      010088D5H   BLOCK     CODE     NEAR LAB  LVL=1
      02000003H   SYMBOL    XDATA    ---       oldIsr
      ---         BLOCKEND  ---      ---       LVL=1
      010088C8H   LINE      CODE     ---       #2641
      010088D5H   LINE      CODE     ---       #2642
      010088D5H   LINE      CODE     ---       #2648
      010088F3H   LINE      CODE     ---       #2652
      01008913H   LINE      CODE     ---       #2654
      0100891BH   LINE      CODE     ---       #2655
      ---         BLOCKEND  ---      ---       LVL=0
      00000007H   SYMBOL    DATA     BYTE      number

      01008F16H   BLOCK     CODE     ---       LVL=0
      00000004H   SYMBOL    DATA     BYTE      number
      00000005H   SYMBOL    DATA     BYTE      priority
      01008F16H   LINE      CODE     ---       #2696
      01008F18H   LINE      CODE     ---       #2697
      01008F18H   LINE      CODE     ---       #2702
      01008F2EH   LINE      CODE     ---       #2704
      ---         BLOCKEND  ---      ---       LVL=0
      00000007H   SYMBOL    DATA     BYTE      number
      00000007H   SYMBOL    DATA     BYTE      priority
      00000005H   SYMBOL    DATA     BYTE      number
      00000006H   SYMBOL    DATA     ---       stateReg

      ---         MODULE    ---      ---       SPI_IMU
      02001626H   PUBLIC    XDATA    BYTE      SPI_IMU_initVar
      02001625H   PUBLIC    XDATA    BYTE      SPI_IMU_swStatusTx
      02001624H   PUBLIC    XDATA    BYTE      SPI_IMU_swStatusRx
      010090F9H   PUBLIC    CODE     ---       SPI_IMU_ReadStatus
      01008E65H   PUBLIC    CODE     ---       SPI_IMU_ClearFIFO
      010090A7H   PUBLIC    CODE     ---       SPI_IMU_ClearTxBuffer
      010090EAH   PUBLIC    CODE     ---       SPI_IMU_ClearRxBuffer
      0100925CH   PUBLIC    CODE     ---       SPI_IMU_ReadRxData
      01009179H   PUBLIC    CODE     ---       _SPI_IMU_WriteTxData
      01009256H   PUBLIC    CODE     ---       SPI_IMU_ReadRxStatus
      01009250H   PUBLIC    CODE     ---       SPI_IMU_ReadTxStatus
      0100927AH   PUBLIC    CODE     ---       SPI_IMU_EnableRxInt
      01009279H   PUBLIC    CODE     ---       SPI_IMU_EnableTxInt
      0100906FH   PUBLIC    CODE     ---       SPI_IMU_Start
      01008DE0H   PUBLIC    CODE     ---       SPI_IMU_Enable
      01008F2FH   PUBLIC    CODE     ---       SPI_IMU_Init
      000000CAH   SFRSYM    DATA     BYTE      SFRPRT5SEL
      000000DAH   SFRSYM    DATA     BYTE      SFRPRT6SEL
LX51 LINKER/LOCATER V4.64.0.0                                                         03/12/2018  09:19:57  PAGE 75


      000000D0H.6 SFRSYM    DATA     BIT       AC
      000000A8H.7 SFRSYM    DATA     BIT       EA
      000000A8H   SFRSYM    DATA     BYTE      IE
      00000085H   SFRSYM    DATA     BYTE      DPH1
      00000084H   SFRSYM    DATA     BYTE      DPL1
      000000D0H.7 SFRSYM    DATA     BIT       CY
      000000A0H   SFRSYM    DATA     BYTE      P2AX
      00000095H   SFRSYM    DATA     BYTE      DPX1
      00000081H   SFRSYM    DATA     BYTE      SP
      000000D0H.2 SFRSYM    DATA     BIT       OV
      00000080H   SFRSYM    DATA     BYTE      SFRPRT0DR
      00000090H   SFRSYM    DATA     BYTE      SFRPRT1DR
      000000F2H   SFRSYM    DATA     BYTE      SFRPRT12SEL
      00000098H   SFRSYM    DATA     BYTE      SFRPRT2DR
      000000B0H   SFRSYM    DATA     BYTE      SFRPRT3DR
      000000C0H   SFRSYM    DATA     BYTE      SFRPRT4DR
      000000FAH   SFRSYM    DATA     BYTE      SFRPRT15SEL
      000000C8H   SFRSYM    DATA     BYTE      SFRPRT5DR
      000000D8H   SFRSYM    DATA     BYTE      SFRPRT6DR
      00000089H   SFRSYM    DATA     BYTE      SFRPRT0PS
      00000091H   SFRSYM    DATA     BYTE      SFRPRT1PS
      00000099H   SFRSYM    DATA     BYTE      SFRPRT2PS
      000000B1H   SFRSYM    DATA     BYTE      SFRPRT3PS
      000000C1H   SFRSYM    DATA     BYTE      SFRPRT4PS
      000000C9H   SFRSYM    DATA     BYTE      SFRPRT5PS
      000000D9H   SFRSYM    DATA     BYTE      SFRPRT6PS
      000000EAH   SFRSYM    DATA     BYTE      MXAX
      000000F0H   SFRSYM    DATA     BYTE      B
      000000E0H   SFRSYM    DATA     BYTE      ACC
      000000D0H   SFRSYM    DATA     BIT       P
      000000D0H.3 SFRSYM    DATA     BIT       RS0
      000000D0H.4 SFRSYM    DATA     BIT       RS1
      00000083H   SFRSYM    DATA     BYTE      DPH
      000000E8H   SFRSYM    DATA     BYTE      SFRPRT12DR
      00000082H   SFRSYM    DATA     BYTE      DPL
      000000F8H   SFRSYM    DATA     BYTE      SFRPRT15DR
      00000086H   SFRSYM    DATA     BYTE      DPS
      000000E9H   SFRSYM    DATA     BYTE      SFRPRT12PS
      00000093H   SFRSYM    DATA     BYTE      DPX
      000000F9H   SFRSYM    DATA     BYTE      SFRPRT15PS
      000000D0H.5 SFRSYM    DATA     BIT       F0
      000000D0H.1 SFRSYM    DATA     BIT       F1
      0000008AH   SFRSYM    DATA     BYTE      SFRPRT0SEL
      000000D0H   SFRSYM    DATA     BYTE      PSW
      000000A2H   SFRSYM    DATA     BYTE      SFRPRT1SEL
      0000009AH   SFRSYM    DATA     BYTE      SFRPRT2SEL
      000000B2H   SFRSYM    DATA     BYTE      SFRPRT3SEL
      000000C2H   SFRSYM    DATA     BYTE      SFRPRT4SEL

      01008F2FH   BLOCK     CODE     ---       LVL=0
      01008F2FH   LINE      CODE     ---       #63
      01008F2FH   LINE      CODE     ---       #64
      01008F2FH   LINE      CODE     ---       #66
      01008F35H   LINE      CODE     ---       #83
      01008F38H   LINE      CODE     ---       #97
      01008F3BH   LINE      CODE     ---       #98
      01008F3EH   LINE      CODE     ---       #101
      01008F43H   LINE      CODE     ---       #102
      01008F47H   LINE      CODE     ---       #103
      ---         BLOCKEND  ---      ---       LVL=0

      01008DE0H   BLOCK     CODE     ---       LVL=0
      01008DE0H   BLOCK     CODE     NEAR LAB  LVL=1
      00000007H   SYMBOL    DATA     BYTE      enableInterrupts
      ---         BLOCKEND  ---      ---       LVL=1
LX51 LINKER/LOCATER V4.64.0.0                                                         03/12/2018  09:19:57  PAGE 76


      01008DE0H   LINE      CODE     ---       #120
      01008DE0H   LINE      CODE     ---       #121
      01008DE0H   LINE      CODE     ---       #124
      01008DE3H   LINE      CODE     ---       #125
      01008DEAH   LINE      CODE     ---       #126
      01008DF1H   LINE      CODE     ---       #127
      01008DF8H   LINE      CODE     ---       #128
      01008DFBH   LINE      CODE     ---       #131
      01008DFEH   LINE      CODE     ---       #134
      01008E01H   LINE      CODE     ---       #135
      01008E04H   LINE      CODE     ---       #136
      ---         BLOCKEND  ---      ---       LVL=0

      0100906FH   BLOCK     CODE     ---       LVL=0
      0100906FH   LINE      CODE     ---       #163
      0100906FH   LINE      CODE     ---       #164
      0100906FH   LINE      CODE     ---       #165
      01009075H   LINE      CODE     ---       #166
      01009075H   LINE      CODE     ---       #167
      01009078H   LINE      CODE     ---       #168
      0100907EH   LINE      CODE     ---       #169
      0100907EH   LINE      CODE     ---       #171
      01009081H   LINE      CODE     ---       #172
      ---         BLOCKEND  ---      ---       LVL=0
      00000007H   SYMBOL    DATA     BYTE      enableInterrupts

      01009279H   BLOCK     CODE     ---       LVL=0
      01009279H   LINE      CODE     ---       #227
      01009279H   LINE      CODE     ---       #228
      01009279H   LINE      CODE     ---       #232
      ---         BLOCKEND  ---      ---       LVL=0

      0100927AH   BLOCK     CODE     ---       LVL=0
      0100927AH   LINE      CODE     ---       #252
      0100927AH   LINE      CODE     ---       #253
      0100927AH   LINE      CODE     ---       #257
      ---         BLOCKEND  ---      ---       LVL=0
      00000007H   SYMBOL    DATA     BYTE      intSrc
      00000007H   SYMBOL    DATA     BYTE      intSrc

      01009250H   BLOCK     CODE     ---       LVL=0
      01009250H   BLOCK     CODE     NEAR LAB  LVL=1
      00000007H   SYMBOL    DATA     BYTE      tmpStatus
      ---         BLOCKEND  ---      ---       LVL=1
      01009250H   LINE      CODE     ---       #386
      01009250H   LINE      CODE     ---       #387
      01009250H   LINE      CODE     ---       #401
      01009255H   LINE      CODE     ---       #405
      01009255H   LINE      CODE     ---       #406
      ---         BLOCKEND  ---      ---       LVL=0

      01009256H   BLOCK     CODE     ---       LVL=0
      01009256H   BLOCK     CODE     NEAR LAB  LVL=1
      00000007H   SYMBOL    DATA     BYTE      tmpStatus
      ---         BLOCKEND  ---      ---       LVL=1
      01009256H   LINE      CODE     ---       #437
      01009256H   LINE      CODE     ---       #438
      01009256H   LINE      CODE     ---       #452
      0100925BH   LINE      CODE     ---       #456
      0100925BH   LINE      CODE     ---       #457
      ---         BLOCKEND  ---      ---       LVL=0

      01009179H   BLOCK     CODE     ---       LVL=0
      00000007H   SYMBOL    DATA     BYTE      txData
      01009179H   LINE      CODE     ---       #494
LX51 LINKER/LOCATER V4.64.0.0                                                         03/12/2018  09:19:57  PAGE 77


      01009179H   LINE      CODE     ---       #495
      01009179H   LINE      CODE     ---       #557
      01009180H   LINE      CODE     ---       #558
      01009180H   LINE      CODE     ---       #559
      01009180H   LINE      CODE     ---       #562
      01009185H   LINE      CODE     ---       #565
      ---         BLOCKEND  ---      ---       LVL=0

      0100925CH   BLOCK     CODE     ---       LVL=0
      0100925CH   BLOCK     CODE     NEAR LAB  LVL=1
      00000007H   SYMBOL    DATA     BYTE      rxData
      ---         BLOCKEND  ---      ---       LVL=1
      0100925CH   LINE      CODE     ---       #602
      0100925CH   LINE      CODE     ---       #603
      0100925CH   LINE      CODE     ---       #633
      01009261H   LINE      CODE     ---       #637
      01009261H   LINE      CODE     ---       #638
      ---         BLOCKEND  ---      ---       LVL=0
      00000007H   SYMBOL    DATA     BYTE      size
      00000007H   SYMBOL    DATA     BYTE      size

      010090EAH   BLOCK     CODE     ---       LVL=0
      010090EAH   LINE      CODE     ---       #806
      010090EAH   LINE      CODE     ---       #807
      010090EAH   LINE      CODE     ---       #809
      010090F1H   LINE      CODE     ---       #810
      010090F1H   LINE      CODE     ---       #811
      010090F6H   LINE      CODE     ---       #812
      010090F8H   LINE      CODE     ---       #824
      ---         BLOCKEND  ---      ---       LVL=0

      010090A7H   BLOCK     CODE     ---       LVL=0
      010090A7H   BLOCK     CODE     NEAR LAB  LVL=1
      00000007H   SYMBOL    DATA     BYTE      enableInterrupts
      ---         BLOCKEND  ---      ---       LVL=1
      010090A7H   LINE      CODE     ---       #861
      010090A7H   LINE      CODE     ---       #862
      010090A7H   LINE      CODE     ---       #865
      010090AAH   LINE      CODE     ---       #867
      010090B1H   LINE      CODE     ---       #868
      010090B5H   LINE      CODE     ---       #875
      010090B8H   LINE      CODE     ---       #890
      ---         BLOCKEND  ---      ---       LVL=0
      00000005H   SYMBOL    DATA     BYTE      byteCount
      00000006H   SYMBOL    DATA     BYTE      bufIndex

      01008E65H   BLOCK     CODE     ---       LVL=0
      01008E65H   BLOCK     CODE     NEAR LAB  LVL=1
      00000007H   SYMBOL    DATA     BYTE      enableInterrupts
      ---         BLOCKEND  ---      ---       LVL=1
      01008E65H   LINE      CODE     ---       #995
      01008E65H   LINE      CODE     ---       #996
      01008E65H   LINE      CODE     ---       #1000
      01008E6CH   LINE      CODE     ---       #1001
      01008E6CH   LINE      CODE     ---       #1002
      01008E71H   LINE      CODE     ---       #1003
      01008E73H   LINE      CODE     ---       #1005
      01008E76H   LINE      CODE     ---       #1007
      01008E7DH   LINE      CODE     ---       #1008
      01008E81H   LINE      CODE     ---       #1015
      01008E84H   LINE      CODE     ---       #1016
      ---         BLOCKEND  ---      ---       LVL=0
      00000007H   SYMBOL    DATA     BYTE      intSrc

      010090F9H   BLOCK     CODE     ---       LVL=0
LX51 LINKER/LOCATER V4.64.0.0                                                         03/12/2018  09:19:57  PAGE 78


      010090F9H   BLOCK     CODE     NEAR LAB  LVL=1
      00000007H   SYMBOL    DATA     BYTE      tmpStatus
      ---         BLOCKEND  ---      ---       LVL=1
      010090F9H   LINE      CODE     ---       #1125
      010090F9H   LINE      CODE     ---       #1126
      010090F9H   LINE      CODE     ---       #1144
      010090FEH   LINE      CODE     ---       #1145
      01009104H   LINE      CODE     ---       #1146
      01009107H   LINE      CODE     ---       #1150
      01009107H   LINE      CODE     ---       #1151
      ---         BLOCKEND  ---      ---       LVL=0

      ---         MODULE    ---      ---       OPTO_PIN
      010090CBH   PUBLIC    CODE     ---       _Opto_Pin_Write

      010090CBH   BLOCK     CODE     ---       LVL=0
      00000007H   SYMBOL    DATA     BYTE      value
      010090CBH   BLOCK     CODE     NEAR LAB  LVL=1
      00000006H   SYMBOL    DATA     BYTE      staticBits
      ---         BLOCKEND  ---      ---       LVL=1
      010090CBH   LINE      CODE     ---       #53
      010090CBH   LINE      CODE     ---       #54
      010090CBH   LINE      CODE     ---       #55
      010090D2H   LINE      CODE     ---       #56
      010090DAH   LINE      CODE     ---       #57
      ---         BLOCKEND  ---      ---       LVL=0
      00000007H   SYMBOL    DATA     BYTE      mode

      ---         MODULE    ---      ---       CHIP_SELECT_A
      01009262H   PUBLIC    CODE     ---       _Chip_Select_A_Write

      01009262H   BLOCK     CODE     ---       LVL=0
      00000007H   SYMBOL    DATA     BYTE      control
      01009262H   LINE      CODE     ---       #37
      01009262H   LINE      CODE     ---       #38
      01009262H   LINE      CODE     ---       #39
      01009267H   LINE      CODE     ---       #40
      ---         BLOCKEND  ---      ---       LVL=0

      ---         MODULE    ---      ---       CHIP_SELECT_B
      01009268H   PUBLIC    CODE     ---       _Chip_Select_B_Write

      01009268H   BLOCK     CODE     ---       LVL=0
      00000007H   SYMBOL    DATA     BYTE      control
      01009268H   LINE      CODE     ---       #37
      01009268H   LINE      CODE     ---       #38
      01009268H   LINE      CODE     ---       #39
      0100926DH   LINE      CODE     ---       #40
      ---         BLOCKEND  ---      ---       LVL=0

      ---         MODULE    ---      ---       CYBOOTASMKEIL
      01008FCFH   PUBLIC    CODE     NEAR LAB  CyEnterCriticalSection
      01008C00H   PUBLIC    CODE     NEAR LAB  _CyDelayCycles
      01008D8CH   PUBLIC    CODE     NEAR LAB  _CyDelayUs
      01008F60H   PUBLIC    CODE     NEAR LAB  _CyExitCriticalSection

      ---         MODULE    ---      ---       CYMEM
      02000000H   PUBLIC    XDATA    BYTE      ?_cyconfigcpy?BYTE
      01008BA0H   PUBLIC    CODE     NEAR LAB  _cyconfigcpy
      01009108H   PUBLIC    CODE     NEAR LAB  _cyread16
      0100910AH   PUBLIC    CODE     NEAR LAB  _cyread16_nodpx
      01009082H   PUBLIC    CODE     NEAR LAB  _cyread24
      01009084H   PUBLIC    CODE     NEAR LAB  _cyread24_nodpx
      01009193H   PUBLIC    CODE     NEAR LAB  _cyread8
      01009195H   PUBLIC    CODE     NEAR LAB  _cyread8_nodpx
LX51 LINKER/LOCATER V4.64.0.0                                                         03/12/2018  09:19:57  PAGE 79


      01009117H   PUBLIC    CODE     NEAR LAB  _cywrite16
      01009119H   PUBLIC    CODE     NEAR LAB  _cywrite16_nodpx
      010090B9H   PUBLIC    CODE     NEAR LAB  _cywrite24
      010090BBH   PUBLIC    CODE     NEAR LAB  _cywrite24_nodpx
      0100919FH   PUBLIC    CODE     NEAR LAB  _cywrite8
      010091A1H   PUBLIC    CODE     NEAR LAB  _cywrite8_nodpx

      ---         MODULE    ---      ---       ?C_STARTUP
      00000000H   PUBLIC    NUMBER   ---       ?C?XPAGE1RST
      00000093H   PUBLIC    DATA     BYTE      ?C?XPAGE1SFR
      01002600H   PUBLIC    CODE     NEAR LAB  ?C_STARTUP
      010079C4H   PUBLIC    CODE     NEAR LAB  STARTUP1
      01002604H   PUBLIC    CODE     NEAR LAB  _dma_wait

      ---         MODULE    ---      ---       UART_RS485_INT
      01008155H   PUBLIC    CODE     ---       UART_RS485_RXISR
      000000CAH   SFRSYM    DATA     BYTE      SFRPRT5SEL
      000000DAH   SFRSYM    DATA     BYTE      SFRPRT6SEL
      000000D0H.6 SFRSYM    DATA     BIT       AC
      000000A8H.7 SFRSYM    DATA     BIT       EA
      000000A8H   SFRSYM    DATA     BYTE      IE
      00000085H   SFRSYM    DATA     BYTE      DPH1
      00000084H   SFRSYM    DATA     BYTE      DPL1
      000000D0H.7 SFRSYM    DATA     BIT       CY
      000000A0H   SFRSYM    DATA     BYTE      P2AX
      00000095H   SFRSYM    DATA     BYTE      DPX1
      00000081H   SFRSYM    DATA     BYTE      SP
      000000D0H.2 SFRSYM    DATA     BIT       OV
      00000080H   SFRSYM    DATA     BYTE      SFRPRT0DR
      00000090H   SFRSYM    DATA     BYTE      SFRPRT1DR
      000000F2H   SFRSYM    DATA     BYTE      SFRPRT12SEL
      00000098H   SFRSYM    DATA     BYTE      SFRPRT2DR
      000000B0H   SFRSYM    DATA     BYTE      SFRPRT3DR
      000000C0H   SFRSYM    DATA     BYTE      SFRPRT4DR
      000000FAH   SFRSYM    DATA     BYTE      SFRPRT15SEL
      000000C8H   SFRSYM    DATA     BYTE      SFRPRT5DR
      000000D8H   SFRSYM    DATA     BYTE      SFRPRT6DR
      00000089H   SFRSYM    DATA     BYTE      SFRPRT0PS
      00000091H   SFRSYM    DATA     BYTE      SFRPRT1PS
      00000099H   SFRSYM    DATA     BYTE      SFRPRT2PS
      000000B1H   SFRSYM    DATA     BYTE      SFRPRT3PS
      000000C1H   SFRSYM    DATA     BYTE      SFRPRT4PS
      000000C9H   SFRSYM    DATA     BYTE      SFRPRT5PS
      000000D9H   SFRSYM    DATA     BYTE      SFRPRT6PS
      000000EAH   SFRSYM    DATA     BYTE      MXAX
      000000F0H   SFRSYM    DATA     BYTE      B
      000000E0H   SFRSYM    DATA     BYTE      ACC
      000000D0H   SFRSYM    DATA     BIT       P
      000000D0H.3 SFRSYM    DATA     BIT       RS0
      000000D0H.4 SFRSYM    DATA     BIT       RS1
      00000083H   SFRSYM    DATA     BYTE      DPH
      000000E8H   SFRSYM    DATA     BYTE      SFRPRT12DR
      00000082H   SFRSYM    DATA     BYTE      DPL
      000000F8H   SFRSYM    DATA     BYTE      SFRPRT15DR
      00000086H   SFRSYM    DATA     BYTE      DPS
      000000E9H   SFRSYM    DATA     BYTE      SFRPRT12PS
      00000093H   SFRSYM    DATA     BYTE      DPX
      000000F9H   SFRSYM    DATA     BYTE      SFRPRT15PS
      000000D0H.5 SFRSYM    DATA     BIT       F0
      000000D0H.1 SFRSYM    DATA     BIT       F1
      0000008AH   SFRSYM    DATA     BYTE      SFRPRT0SEL
      000000D0H   SFRSYM    DATA     BYTE      PSW
      000000A2H   SFRSYM    DATA     BYTE      SFRPRT1SEL
      0000009AH   SFRSYM    DATA     BYTE      SFRPRT2SEL
      000000B2H   SFRSYM    DATA     BYTE      SFRPRT3SEL
LX51 LINKER/LOCATER V4.64.0.0                                                         03/12/2018  09:19:57  PAGE 80


      000000C2H   SFRSYM    DATA     BYTE      SFRPRT4SEL

      01008155H   BLOCK     CODE     ---       LVL=0
      01008178H   BLOCK     CODE     NEAR LAB  LVL=1
      00000006H   SYMBOL    DATA     BYTE      readData
      00000007H   SYMBOL    DATA     BYTE      readStatus
      00000003H   SYMBOL    DATA     BYTE      increment_pointer
      00000002H   SYMBOL    DATA     BYTE      int_en
      ---         BLOCKEND  ---      ---       LVL=1
      01008155H   LINE      CODE     ---       #59
      01008178H   LINE      CODE     ---       #63
      0100817AH   LINE      CODE     ---       #79
      0100817EH   LINE      CODE     ---       #80
      01008186H   LINE      CODE     ---       #84
      01008186H   LINE      CODE     ---       #86
      0100818BH   LINE      CODE     ---       #90
      0100818CH   LINE      CODE     ---       #95
      01008191H   LINE      CODE     ---       #96
      01008191H   LINE      CODE     ---       #101
      01008197H   LINE      CODE     ---       #109
      01008197H   LINE      CODE     ---       #111
      0100819BH   LINE      CODE     ---       #112
      0100819BH   LINE      CODE     ---       #114
      010081A0H   LINE      CODE     ---       #141
      010081AFH   LINE      CODE     ---       #142
      010081B1H   LINE      CODE     ---       #146
      010081B4H   LINE      CODE     ---       #147
      010081B4H   LINE      CODE     ---       #148
      010081BAH   LINE      CODE     ---       #149
      010081BAH   LINE      CODE     ---       #150
      010081C0H   LINE      CODE     ---       #151
      010081C0H   LINE      CODE     ---       #153
      010081C6H   LINE      CODE     ---       #156
      010081CCH   LINE      CODE     ---       #157
      010081CCH   LINE      CODE     ---       #158
      010081CEH   LINE      CODE     ---       #159
      010081CEH   LINE      CODE     ---       #162
      010081DAH   LINE      CODE     ---       #163
      010081DAH   LINE      CODE     ---       #164
      010081E0H   LINE      CODE     ---       #172
      010081E0H   LINE      CODE     ---       #173
      010081E0H   LINE      CODE     ---       #174
      010081E0H   LINE      CODE     ---       #175
      010081E4H   LINE      CODE     ---       #187
      010081EBH   LINE      CODE     ---       #189
      ---         BLOCKEND  ---      ---       LVL=0

      ---         MODULE    ---      ---       CYPM
      000000CAH   SFRSYM    DATA     BYTE      SFRPRT5SEL
      000000DAH   SFRSYM    DATA     BYTE      SFRPRT6SEL
      000000D0H.6 SFRSYM    DATA     BIT       AC
      000000A8H.7 SFRSYM    DATA     BIT       EA
      000000A8H   SFRSYM    DATA     BYTE      IE
      00000085H   SFRSYM    DATA     BYTE      DPH1
      00000084H   SFRSYM    DATA     BYTE      DPL1
      000000D0H.7 SFRSYM    DATA     BIT       CY
      000000A0H   SFRSYM    DATA     BYTE      P2AX
      00000095H   SFRSYM    DATA     BYTE      DPX1
      00000081H   SFRSYM    DATA     BYTE      SP
      000000D0H.2 SFRSYM    DATA     BIT       OV
      00000080H   SFRSYM    DATA     BYTE      SFRPRT0DR
      00000090H   SFRSYM    DATA     BYTE      SFRPRT1DR
      000000F2H   SFRSYM    DATA     BYTE      SFRPRT12SEL
      00000098H   SFRSYM    DATA     BYTE      SFRPRT2DR
      000000B0H   SFRSYM    DATA     BYTE      SFRPRT3DR
LX51 LINKER/LOCATER V4.64.0.0                                                         03/12/2018  09:19:57  PAGE 81


      000000C0H   SFRSYM    DATA     BYTE      SFRPRT4DR
      000000FAH   SFRSYM    DATA     BYTE      SFRPRT15SEL
      000000C8H   SFRSYM    DATA     BYTE      SFRPRT5DR
      000000D8H   SFRSYM    DATA     BYTE      SFRPRT6DR
      00000089H   SFRSYM    DATA     BYTE      SFRPRT0PS
      00000091H   SFRSYM    DATA     BYTE      SFRPRT1PS
      00000099H   SFRSYM    DATA     BYTE      SFRPRT2PS
      000000B1H   SFRSYM    DATA     BYTE      SFRPRT3PS
      000000C1H   SFRSYM    DATA     BYTE      SFRPRT4PS
      000000C9H   SFRSYM    DATA     BYTE      SFRPRT5PS
      000000D9H   SFRSYM    DATA     BYTE      SFRPRT6PS
      000000EAH   SFRSYM    DATA     BYTE      MXAX
      000000F0H   SFRSYM    DATA     BYTE      B
      000000E0H   SFRSYM    DATA     BYTE      ACC
      000000D0H   SFRSYM    DATA     BIT       P
      000000D0H.3 SFRSYM    DATA     BIT       RS0
      000000D0H.4 SFRSYM    DATA     BIT       RS1
      00000083H   SFRSYM    DATA     BYTE      DPH
      000000E8H   SFRSYM    DATA     BYTE      SFRPRT12DR
      00000082H   SFRSYM    DATA     BYTE      DPL
      000000F8H   SFRSYM    DATA     BYTE      SFRPRT15DR
      00000086H   SFRSYM    DATA     BYTE      DPS
      000000E9H   SFRSYM    DATA     BYTE      SFRPRT12PS
      00000093H   SFRSYM    DATA     BYTE      DPX
      000000F9H   SFRSYM    DATA     BYTE      SFRPRT15PS
      000000D0H.5 SFRSYM    DATA     BIT       F0
      000000D0H.1 SFRSYM    DATA     BIT       F1
      0000008AH   SFRSYM    DATA     BYTE      SFRPRT0SEL
      000000D0H   SFRSYM    DATA     BYTE      PSW
      000000A2H   SFRSYM    DATA     BYTE      SFRPRT1SEL
      0000009AH   SFRSYM    DATA     BYTE      SFRPRT2SEL
      000000B2H   SFRSYM    DATA     BYTE      SFRPRT3SEL
      000000C2H   SFRSYM    DATA     BYTE      SFRPRT4SEL
      020015A3H   SYMBOL    XDATA    ---       cyPmClockBackup
      020015B3H   SYMBOL    XDATA    ---       cyPmBackup
      00000006H   SYMBOL    DATA     WORD      clkBusDivTmp
      020015A2H   SYMBOL    XDATA    BYTE      interruptStatus
      00000005H   SYMBOL    DATA     BYTE      interruptState

      ---         MODULE    ---      ---       CYSPC
      0200162AH   PUBLIC    XDATA    BYTE      SpcLockState
      01008EFBH   PUBLIC    CODE     ---       CySpcGetAlgorithm
      010091ABH   PUBLIC    CODE     ---       CySpcUnlock
      01008EA4H   PUBLIC    CODE     ---       CySpcLock
      01008D5EH   PUBLIC    CODE     ---       _CySpcGetTemp
      0200000CH   PUBLIC    XDATA    BYTE      ?_CySpcWriteRow?BYTE
      0100891CH   PUBLIC    CODE     ---       _CySpcWriteRow
      0200000CH   PUBLIC    XDATA    BYTE      ?_CySpcLoadRow?BYTE
      01008614H   PUBLIC    CODE     ---       _CySpcLoadRow
      01008759H   PUBLIC    CODE     ---       _CySpcReadData
      01008FE4H   PUBLIC    CODE     ---       CySpcStart
      000000CAH   SFRSYM    DATA     BYTE      SFRPRT5SEL
      000000DAH   SFRSYM    DATA     BYTE      SFRPRT6SEL
      000000D0H.6 SFRSYM    DATA     BIT       AC
      000000A8H.7 SFRSYM    DATA     BIT       EA
      000000A8H   SFRSYM    DATA     BYTE      IE
      00000085H   SFRSYM    DATA     BYTE      DPH1
      00000084H   SFRSYM    DATA     BYTE      DPL1
      000000D0H.7 SFRSYM    DATA     BIT       CY
      000000A0H   SFRSYM    DATA     BYTE      P2AX
      00000095H   SFRSYM    DATA     BYTE      DPX1
      00000081H   SFRSYM    DATA     BYTE      SP
      000000D0H.2 SFRSYM    DATA     BIT       OV
      00000080H   SFRSYM    DATA     BYTE      SFRPRT0DR
      00000090H   SFRSYM    DATA     BYTE      SFRPRT1DR
LX51 LINKER/LOCATER V4.64.0.0                                                         03/12/2018  09:19:57  PAGE 82


      000000F2H   SFRSYM    DATA     BYTE      SFRPRT12SEL
      00000098H   SFRSYM    DATA     BYTE      SFRPRT2DR
      000000B0H   SFRSYM    DATA     BYTE      SFRPRT3DR
      000000C0H   SFRSYM    DATA     BYTE      SFRPRT4DR
      000000FAH   SFRSYM    DATA     BYTE      SFRPRT15SEL
      000000C8H   SFRSYM    DATA     BYTE      SFRPRT5DR
      000000D8H   SFRSYM    DATA     BYTE      SFRPRT6DR
      00000089H   SFRSYM    DATA     BYTE      SFRPRT0PS
      00000091H   SFRSYM    DATA     BYTE      SFRPRT1PS
      00000099H   SFRSYM    DATA     BYTE      SFRPRT2PS
      000000B1H   SFRSYM    DATA     BYTE      SFRPRT3PS
      000000C1H   SFRSYM    DATA     BYTE      SFRPRT4PS
      000000C9H   SFRSYM    DATA     BYTE      SFRPRT5PS
      000000D9H   SFRSYM    DATA     BYTE      SFRPRT6PS
      000000EAH   SFRSYM    DATA     BYTE      MXAX
      000000F0H   SFRSYM    DATA     BYTE      B
      000000E0H   SFRSYM    DATA     BYTE      ACC
      000000D0H   SFRSYM    DATA     BIT       P
      000000D0H.3 SFRSYM    DATA     BIT       RS0
      000000D0H.4 SFRSYM    DATA     BIT       RS1
      00000083H   SFRSYM    DATA     BYTE      DPH
      000000E8H   SFRSYM    DATA     BYTE      SFRPRT12DR
      00000082H   SFRSYM    DATA     BYTE      DPL
      000000F8H   SFRSYM    DATA     BYTE      SFRPRT15DR
      00000086H   SFRSYM    DATA     BYTE      DPS
      000000E9H   SFRSYM    DATA     BYTE      SFRPRT12PS
      00000093H   SFRSYM    DATA     BYTE      DPX
      000000F9H   SFRSYM    DATA     BYTE      SFRPRT15PS
      000000D0H.5 SFRSYM    DATA     BIT       F0
      000000D0H.1 SFRSYM    DATA     BIT       F1
      0000008AH   SFRSYM    DATA     BYTE      SFRPRT0SEL
      000000D0H   SFRSYM    DATA     BYTE      PSW
      000000A2H   SFRSYM    DATA     BYTE      SFRPRT1SEL
      0000009AH   SFRSYM    DATA     BYTE      SFRPRT2SEL
      000000B2H   SFRSYM    DATA     BYTE      SFRPRT3SEL
      000000C2H   SFRSYM    DATA     BYTE      SFRPRT4SEL

      01008FE4H   BLOCK     CODE     ---       LVL=0
      01008FE4H   BLOCK     CODE     NEAR LAB  LVL=1
      00000007H   SYMBOL    DATA     BYTE      interruptState
      ---         BLOCKEND  ---      ---       LVL=1
      01008FE4H   LINE      CODE     ---       #78
      01008FE4H   LINE      CODE     ---       #79
      01008FE4H   LINE      CODE     ---       #81
      01008FE7H   LINE      CODE     ---       #83
      01008FEEH   LINE      CODE     ---       #84
      01008FF5H   LINE      CODE     ---       #87
      01008FF8H   LINE      CODE     ---       #88
      ---         BLOCKEND  ---      ---       LVL=0
      00000007H   SYMBOL    DATA     BYTE      interruptState

      01008759H   BLOCK     CODE     ---       LVL=0
      02000009H   SYMBOL    XDATA    ---       buffer
      0200000CH   SYMBOL    XDATA    BYTE      size
      01008767H   BLOCK     CODE     NEAR LAB  LVL=1
      0200000DH   SYMBOL    XDATA    BYTE      i
      ---         BLOCKEND  ---      ---       LVL=1
      01008759H   LINE      CODE     ---       #135
      01008767H   LINE      CODE     ---       #136
      01008767H   LINE      CODE     ---       #139
      01008775H   LINE      CODE     ---       #140
      01008775H   LINE      CODE     ---       #141
      01008783H   LINE      CODE     ---       #142
      01008783H   LINE      CODE     ---       #143
      0100878AH   LINE      CODE     ---       #144
LX51 LINKER/LOCATER V4.64.0.0                                                         03/12/2018  09:19:57  PAGE 83


      0100878CH   LINE      CODE     ---       #145
      010087ABH   LINE      CODE     ---       #146
      010087B3H   LINE      CODE     ---       #148
      010087B8H   LINE      CODE     ---       #149
      ---         BLOCKEND  ---      ---       LVL=0
      00000005H   SYMBOL    DATA     BYTE      status
      00000007H   SYMBOL    DATA     BYTE      i

      01008614H   BLOCK     CODE     ---       LVL=0
      00000007H   SYMBOL    DATA     BYTE      array
      0200000DH   SYMBOL    XDATA    ---       buffer
      02000010H   SYMBOL    XDATA    WORD      size
      0100861FH   BLOCK     CODE     NEAR LAB  LVL=1
      02000012H   SYMBOL    XDATA    BYTE      status
      00000006H   SYMBOL    DATA     WORD      i
      ---         BLOCKEND  ---      ---       LVL=1
      01008614H   LINE      CODE     ---       #258
      0100861FH   LINE      CODE     ---       #259
      0100861FH   LINE      CODE     ---       #260
      01008625H   LINE      CODE     ---       #264
      0100862DH   LINE      CODE     ---       #265
      0100862DH   LINE      CODE     ---       #266
      01008633H   LINE      CODE     ---       #267
      01008636H   LINE      CODE     ---       #268
      01008639H   LINE      CODE     ---       #271
      01008641H   LINE      CODE     ---       #272
      01008641H   LINE      CODE     ---       #273
      01008646H   LINE      CODE     ---       #275
      01008656H   LINE      CODE     ---       #276
      01008656H   LINE      CODE     ---       #277
      0100866CH   LINE      CODE     ---       #278
      01008673H   LINE      CODE     ---       #279
      01008673H   LINE      CODE     ---       #281
      01008673H   LINE      CODE     ---       #282
      01008679H   LINE      CODE     ---       #283
      01008679H   LINE      CODE     ---       #284
      0100867BH   LINE      CODE     ---       #286
      0100867BH   LINE      CODE     ---       #287
      01008681H   LINE      CODE     ---       #288
      01008681H   LINE      CODE     ---       #290
      01008686H   LINE      CODE     ---       #291
      ---         BLOCKEND  ---      ---       LVL=0

      0100891CH   BLOCK     CODE     ---       LVL=0
      00000004H   SYMBOL    DATA     BYTE      array
      0200000DH   SYMBOL    XDATA    WORD      address
      00000003H   SYMBOL    DATA     BYTE      tempPolarity
      02000010H   SYMBOL    XDATA    BYTE      tempMagnitude
      01008926H   BLOCK     CODE     NEAR LAB  LVL=1
      00000005H   SYMBOL    DATA     BYTE      status
      ---         BLOCKEND  ---      ---       LVL=1
      0100891CH   LINE      CODE     ---       #464
      01008926H   LINE      CODE     ---       #466
      01008926H   LINE      CODE     ---       #467
      01008928H   LINE      CODE     ---       #470
      01008930H   LINE      CODE     ---       #471
      01008930H   LINE      CODE     ---       #472
      01008936H   LINE      CODE     ---       #473
      01008939H   LINE      CODE     ---       #474
      0100893CH   LINE      CODE     ---       #477
      01008944H   LINE      CODE     ---       #478
      01008944H   LINE      CODE     ---       #479
      01008949H   LINE      CODE     ---       #480
      01008951H   LINE      CODE     ---       #481
      0100895BH   LINE      CODE     ---       #482
LX51 LINKER/LOCATER V4.64.0.0                                                         03/12/2018  09:19:57  PAGE 84


      0100895DH   LINE      CODE     ---       #483
      01008965H   LINE      CODE     ---       #484
      01008967H   LINE      CODE     ---       #486
      01008967H   LINE      CODE     ---       #487
      01008969H   LINE      CODE     ---       #488
      01008969H   LINE      CODE     ---       #489
      0100896BH   LINE      CODE     ---       #491
      0100896BH   LINE      CODE     ---       #492
      0100896DH   LINE      CODE     ---       #493
      0100896DH   LINE      CODE     ---       #495
      0100896FH   LINE      CODE     ---       #496
      ---         BLOCKEND  ---      ---       LVL=0
      00000007H   SYMBOL    DATA     BYTE      array
      00000005H   SYMBOL    DATA     BYTE      sectorNumber
      00000006H   SYMBOL    DATA     BYTE      status

      01008D5EH   BLOCK     CODE     ---       LVL=0
      00000007H   SYMBOL    DATA     BYTE      numSamples
      01008D5EH   BLOCK     CODE     NEAR LAB  LVL=1
      00000006H   SYMBOL    DATA     BYTE      status
      ---         BLOCKEND  ---      ---       LVL=1
      01008D5EH   LINE      CODE     ---       #573
      01008D5EH   LINE      CODE     ---       #574
      01008D5EH   LINE      CODE     ---       #575
      01008D60H   LINE      CODE     ---       #578
      01008D68H   LINE      CODE     ---       #579
      01008D68H   LINE      CODE     ---       #580
      01008D6EH   LINE      CODE     ---       #581
      01008D71H   LINE      CODE     ---       #582
      01008D74H   LINE      CODE     ---       #585
      01008D7CH   LINE      CODE     ---       #586
      01008D7CH   LINE      CODE     ---       #587
      01008D81H   LINE      CODE     ---       #588
      01008D83H   LINE      CODE     ---       #590
      01008D83H   LINE      CODE     ---       #591
      01008D85H   LINE      CODE     ---       #592
      01008D85H   LINE      CODE     ---       #593
      01008D87H   LINE      CODE     ---       #595
      01008D87H   LINE      CODE     ---       #596
      01008D89H   LINE      CODE     ---       #597
      01008D89H   LINE      CODE     ---       #599
      01008D8BH   LINE      CODE     ---       #600
      ---         BLOCKEND  ---      ---       LVL=0

      01008EA4H   BLOCK     CODE     ---       LVL=0
      01008EA4H   BLOCK     CODE     NEAR LAB  LVL=1
      0200000CH   SYMBOL    XDATA    BYTE      status
      00000007H   SYMBOL    DATA     BYTE      interruptState
      ---         BLOCKEND  ---      ---       LVL=1
      01008EA4H   LINE      CODE     ---       #618
      01008EA4H   LINE      CODE     ---       #619
      01008EA4H   LINE      CODE     ---       #620
      01008EAAH   LINE      CODE     ---       #624
      01008EADH   LINE      CODE     ---       #626
      01008EB3H   LINE      CODE     ---       #627
      01008EB3H   LINE      CODE     ---       #628
      01008EB5H   LINE      CODE     ---       #629
      01008EBAH   LINE      CODE     ---       #647
      01008EBAH   LINE      CODE     ---       #650
      01008EBDH   LINE      CODE     ---       #652
      01008EC2H   LINE      CODE     ---       #653
      ---         BLOCKEND  ---      ---       LVL=0

      010091ABH   BLOCK     CODE     ---       LVL=0
      010091ABH   BLOCK     CODE     NEAR LAB  LVL=1
LX51 LINKER/LOCATER V4.64.0.0                                                         03/12/2018  09:19:57  PAGE 85


      00000007H   SYMBOL    DATA     BYTE      interruptState
      ---         BLOCKEND  ---      ---       LVL=1
      010091ABH   LINE      CODE     ---       #670
      010091ABH   LINE      CODE     ---       #671
      010091ABH   LINE      CODE     ---       #675
      010091AEH   LINE      CODE     ---       #678
      010091B3H   LINE      CODE     ---       #698
      010091B6H   LINE      CODE     ---       #699
      ---         BLOCKEND  ---      ---       LVL=0

      01008EFBH   BLOCK     CODE     ---       LVL=0
      01008EFBH   BLOCK     CODE     NEAR LAB  LVL=1
      00000007H   SYMBOL    DATA     BYTE      status
      ---         BLOCKEND  ---      ---       LVL=1
      01008EFBH   LINE      CODE     ---       #716
      01008EFBH   LINE      CODE     ---       #717
      01008EFBH   LINE      CODE     ---       #718
      01008EFDH   LINE      CODE     ---       #721
      01008F05H   LINE      CODE     ---       #722
      01008F05H   LINE      CODE     ---       #723
      01008F0BH   LINE      CODE     ---       #724
      01008F0EH   LINE      CODE     ---       #725
      01008F11H   LINE      CODE     ---       #726
      01008F13H   LINE      CODE     ---       #728
      01008F13H   LINE      CODE     ---       #729
      01008F15H   LINE      CODE     ---       #730
      01008F15H   LINE      CODE     ---       #732
      01008F15H   LINE      CODE     ---       #733
      ---         BLOCKEND  ---      ---       LVL=0

      ---         MODULE    ---      ---       SPI_IMU_INTCLOCK
      01009126H   PUBLIC    CODE     ---       SPI_IMU_IntClock_Start

      01009126H   BLOCK     CODE     ---       LVL=0
      01009126H   LINE      CODE     ---       #45
      01009126H   LINE      CODE     ---       #46
      01009126H   LINE      CODE     ---       #48
      0100912DH   LINE      CODE     ---       #49
      01009134H   LINE      CODE     ---       #50
      ---         BLOCKEND  ---      ---       LVL=0
      00000007H   SYMBOL    DATA     BYTE      state
      00000007H   SYMBOL    DATA     BYTE      modeBitMask
      00000007H   SYMBOL    DATA     BYTE      modeBitMask
      00000007H   SYMBOL    DATA     BYTE      oldSrc

      ---         MODULE    ---      ---       ?C?FPADD
      01004D51H   PUBLIC    CODE     ---       ?C?FPADD
      01004D4DH   PUBLIC    CODE     ---       ?C?FPSUB

      ---         MODULE    ---      ---       ?C?FPMUL
      01004E42H   PUBLIC    CODE     ---       ?C?FPMUL

      ---         MODULE    ---      ---       ?C?FPDIV
      01004F4BH   PUBLIC    CODE     ---       ?C?FPDIV

      ---         MODULE    ---      ---       ?C?FPCMP
      01004FEAH   PUBLIC    CODE     ---       ?C?FPCMP
      01004FE8H   PUBLIC    CODE     ---       ?C?FPCMP3

      ---         MODULE    ---      ---       ?C?FPNEG
      01005061H   PUBLIC    CODE     ---       ?C?FPNEG

      ---         MODULE    ---      ---       ?C?FCAST
      0100507CH   PUBLIC    CODE     ---       ?C?FCASTC
      01005077H   PUBLIC    CODE     ---       ?C?FCASTI
LX51 LINKER/LOCATER V4.64.0.0                                                         03/12/2018  09:19:57  PAGE 86


      01005072H   PUBLIC    CODE     ---       ?C?FCASTL

      ---         MODULE    ---      ---       PRINTF
      020008AEH   PUBLIC    XDATA    ---       ?_PRINTF?BYTE
      020008AEH   PUBLIC    XDATA    ---       ?_SPRINTF?BYTE
      01005DC5H   PUBLIC    CODE     ---       _PRINTF
      01005DBFH   PUBLIC    CODE     ---       _SPRINTF

      ---         MODULE    ---      ---       FABS
      01009186H   PUBLIC    CODE     ---       _FABS

      ---         MODULE    ---      ---       ?C?FPGETOPN
      010050B0H   PUBLIC    CODE     ---       ?C?FPGETOPN2
      010050E5H   PUBLIC    CODE     ---       ?C?FPNANRESULT
      010050EFH   PUBLIC    CODE     ---       ?C?FPOVERFLOW
      010050C7H   PUBLIC    CODE     ---       ?C?FPRESULT
      010050DBH   PUBLIC    CODE     ---       ?C?FPRESULT2
      010050ECH   PUBLIC    CODE     ---       ?C?FPUNDERFLOW

      ---         MODULE    ---      ---       ?C?FPROUND
      010050FAH   PUBLIC    CODE     ---       ?C?FPROUND

      ---         MODULE    ---      ---       ?C?FPCONVERT
      01005137H   PUBLIC    CODE     ---       ?C?FPCONVERT

      ---         MODULE    ---      ---       ?C?FTNPWR
      0100526CH   PUBLIC    CODE     ---       ?C?FTNPWR

      ---         MODULE    ---      ---       ?C_INIT
      01007A99H   PUBLIC    CODE     ---       ?C_START

      ---         MODULE    ---      ---       ?C?CLDPTR
      010052ACH   PUBLIC    CODE     ---       ?C?CLDPTR

      ---         MODULE    ---      ---       ?C?CLDOPTR
      010052C5H   PUBLIC    CODE     ---       ?C?CLDOPTR

      ---         MODULE    ---      ---       ?C?CSTPTR
      010052F2H   PUBLIC    CODE     ---       ?C?CSTPTR

      ---         MODULE    ---      ---       ?C?IMUL
      01005304H   PUBLIC    CODE     ---       ?C?IMUL

      ---         MODULE    ---      ---       ?C?LMUL
      01005316H   PUBLIC    CODE     ---       ?C?LMUL

      ---         MODULE    ---      ---       ?C?ULDIV
      010053A1H   PUBLIC    CODE     ---       ?C?ULDIV

      ---         MODULE    ---      ---       ?C?LNEG
      01005433H   PUBLIC    CODE     ---       ?C?LNEG

      ---         MODULE    ---      ---       ?C?ULCMP
      01005441H   PUBLIC    CODE     ---       ?C?ULCMP

      ---         MODULE    ---      ---       ?C?ULSHR
      01005452H   PUBLIC    CODE     ---       ?C?ULSHR

      ---         MODULE    ---      ---       ?C?SLSHR
      01005465H   PUBLIC    CODE     ---       ?C?SLSHR

      ---         MODULE    ---      ---       ?C?LSHL
      01005479H   PUBLIC    CODE     ---       ?C?LSHL

      ---         MODULE    ---      ---       ?C?LLDPTR
LX51 LINKER/LOCATER V4.64.0.0                                                         03/12/2018  09:19:57  PAGE 87


      0100548CH   PUBLIC    CODE     ---       ?C?LLDPTR

      ---         MODULE    ---      ---       ?C?LSTPTR
      010054ACH   PUBLIC    CODE     ---       ?C?LSTPTR

      ---         MODULE    ---      ---       ?C?LSTXDATA
      010054C6H   PUBLIC    CODE     ---       ?C?LSTXDATA

      ---         MODULE    ---      ---       ?C?OFFX256
      010054D2H   PUBLIC    CODE     ---       ?C?OFFX256

      ---         MODULE    ---      ---       ?C?OFFXADD
      010054E3H   PUBLIC    CODE     ---       ?C?OFFXADD

      ---         MODULE    ---      ---       ?C?PLDIXDATA
      010054EFH   PUBLIC    CODE     ---       ?C?PLDIXDATA

      ---         MODULE    ---      ---       ?C?PSTXDATA
      01005506H   PUBLIC    CODE     ---       ?C?PSTXDATA

      ---         MODULE    ---      ---       ?C?CCASE
      0100550FH   PUBLIC    CODE     ---       ?C?CCASE

      ---         MODULE    ---      ---       ?C_XBP
      00000028H   PUBLIC    DATA     ---       ?C_XBP

      ---         MODULE    ---      ---       ?C?ADDXBP
      01005535H   PUBLIC    CODE     ---       ?C?ADDXBP

      ---         MODULE    ---      ---       ?C?LIMUL
      01005559H   PUBLIC    CODE     ---       ?C?LIMUL

      ---         MODULE    ---      ---       PUTCHAR
      01008DB9H   PUBLIC    CODE     ---       _PUTCHAR

      ---         MODULE    ---      ---       STRCAT
      020008AEH   PUBLIC    XDATA    ---       ?_STRCAT?BYTE
      01008687H   PUBLIC    CODE     ---       _STRCAT

      ---         MODULE    ---      ---       STRLEN
      01008FF9H   PUBLIC    CODE     ---       _STRLEN

      ---         MODULE    ---      ---       ?C?MEMSET
      01005586H   PUBLIC    CODE     ---       ?C?MEMSET

      ---         MODULE    ---      ---       ?C?COPYAMD
      0100566EH   PUBLIC    CODE     ---       ?C?COPYAMD

      ---         MODULE    ---      ---       ?C?STRCPYAMD
      0100574CH   PUBLIC    CODE     ---       ?C?STRCPYAMD

      ---         MODULE    ---      ---       ?C?IILDX
      01005769H   PUBLIC    CODE     ---       ?C?IILDX

      ---         MODULE    ---      ---       ?C?ILDIX
      0100577FH   PUBLIC    CODE     ---       ?C?ILDIX

      ---         MODULE    ---      ---       ?C?LLDIDATA
      01005795H   PUBLIC    CODE     ---       ?C?LLDIDATA

      ---         MODULE    ---      ---       ?C?LLDXDATA
      010057A1H   PUBLIC    CODE     ---       ?C?LLDXDATA

      ---         MODULE    ---      ---       ?C?LLDPDATA
      010057ADH   PUBLIC    CODE     ---       ?C?LLDPDATA
LX51 LINKER/LOCATER V4.64.0.0                                                         03/12/2018  09:19:57  PAGE 88



      ---         MODULE    ---      ---       ?C?LLDCODE
      010057B9H   PUBLIC    CODE     ---       ?C?LLDCODE

      ---         MODULE    ---      ---       ?C?LSTIDATA
      010057C9H   PUBLIC    CODE     ---       ?C?LSTIDATA

      ---         MODULE    ---      ---       ?C?LSTPDATA
      010057D5H   PUBLIC    CODE     ---       ?C?LSTPDATA



INTER-MODULE CROSS-REFERENCE LISTING


NAME . . . . . . . . . . . . . . . . . CLASS    MODULE NAMES
============================================================

?_Bootloadable_SetFlashByte?BYTE . . . XDATA    BOOTLOADABLE  
?_cyconfigcpy?BYTE . . . . . . . . . . XDATA    CYMEM  CYFITTER_CFG  
?_CySpcLoadMultiByte?BYTE. . . . . . . XDATA    CYSPC  EEPROM  
?_CySpcLoadRow?BYTE. . . . . . . . . . XDATA    CYSPC  EEPROM  
?_CySpcLoadRowFull?BYTE. . . . . . . . XDATA    CYSPC  CYFLASH  
?_CySpcWriteRow?BYTE . . . . . . . . . XDATA    CYSPC  CYFLASH  EEPROM  
?_CyWriteRowFull?BYTE. . . . . . . . . XDATA    CYFLASH  
?_PRINTF?BYTE. . . . . . . . . . . . . XDATA    PRINTF  
?_SPRINTF?BYTE . . . . . . . . . . . . XDATA    PRINTF  COMMAND_PROCESSING  
?_strcat?BYTE. . . . . . . . . . . . . XDATA    STRCAT  COMMAND_PROCESSING  
?C?ADDXBP. . . . . . . . . . . . . . . CODE     ?C?ADDXBP  CYLIB  
?C?CCASE . . . . . . . . . . . . . . . CODE     ?C?CCASE  COMMAND_PROCESSING  PRINTF  
?C?CLDOPTR . . . . . . . . . . . . . . CODE     ?C?CLDOPTR  PRINTF  
?C?CLDPTR. . . . . . . . . . . . . . . CODE     ?C?CLDPTR  COMMAND_PROCESSING  CYSPC  PRINTF  SPI_IMU  STRCAT  STRLEN  U
                                                ART_RS485  
?C?CODESEG . . . . . . . . . . . . . . NUMBER   ** LX51 GENERATED **  
?C?COPYAMD . . . . . . . . . . . . . . CODE     ?C?COPYAMD  COMMAND_PROCESSING  INTERRUPTIONS  
?C?CSTPTR. . . . . . . . . . . . . . . CODE     ?C?CSTPTR  CYSPC  PRINTF  STRCAT  
?C?FCASTC. . . . . . . . . . . . . . . CODE     ?C?FCAST  
?C?FCASTI. . . . . . . . . . . . . . . CODE     ?C?FCAST  IMU_FUNCTIONS  
?C?FCASTL. . . . . . . . . . . . . . . CODE     ?C?FCAST  COMMAND_PROCESSING  IMU_FUNCTIONS  
?C?FPADD . . . . . . . . . . . . . . . CODE     ?C?FPADD  ?C?FPCONVERT  IMU_FUNCTIONS  UTILS  
?C?FPCMP . . . . . . . . . . . . . . . CODE     ?C?FPCMP  
?C?FPCMP3. . . . . . . . . . . . . . . CODE     ?C?FPCMP  IMU_FUNCTIONS  
?C?FPCONVERT . . . . . . . . . . . . . CODE     ?C?FPCONVERT  PRINTF  
?C?FPDIV . . . . . . . . . . . . . . . CODE     ?C?FPDIV  ?C?FPCONVERT  COMMAND_PROCESSING  IMU_FUNCTIONS  
?C?FPGETOPN2 . . . . . . . . . . . . . CODE     ?C?FPGETOPN  ?C?FPADD  ?C?FPDIV  ?C?FPMUL  
?C?FPMUL . . . . . . . . . . . . . . . CODE     ?C?FPMUL  ?C?FPCONVERT  ?C?FTNPWR  IMU_FUNCTIONS  UTILS  
?C?FPNANRESULT . . . . . . . . . . . . CODE     ?C?FPGETOPN  ?C?FPADD  ?C?FPDIV  ?C?FPMUL  
?C?FPNEG . . . . . . . . . . . . . . . CODE     ?C?FPNEG  IMU_FUNCTIONS  
?C?FPOVERFLOW. . . . . . . . . . . . . CODE     ?C?FPGETOPN  ?C?FPADD  ?C?FPDIV  ?C?FPMUL  
?C?FPRESULT. . . . . . . . . . . . . . CODE     ?C?FPGETOPN  ?C?FPADD  ?C?FPDIV  ?C?FPMUL  
?C?FPRESULT2 . . . . . . . . . . . . . CODE     ?C?FPGETOPN  ?C?FPDIV  ?C?FPMUL  
?C?FPROUND . . . . . . . . . . . . . . CODE     ?C?FPROUND  PRINTF  
?C?FPSUB . . . . . . . . . . . . . . . CODE     ?C?FPADD  IMU_FUNCTIONS  UTILS  
?C?FPUNDERFLOW . . . . . . . . . . . . CODE     ?C?FPGETOPN  ?C?FPADD  ?C?FPDIV  ?C?FPMUL  
?C?FTNPWR. . . . . . . . . . . . . . . CODE     ?C?FTNPWR  ?C?FPCONVERT  
?C?IILDX . . . . . . . . . . . . . . . CODE     ?C?IILDX  STRCAT  
?C?ILDIX . . . . . . . . . . . . . . . CODE     ?C?ILDIX  STRCAT  
?C?IMUL. . . . . . . . . . . . . . . . CODE     ?C?IMUL  COMMAND_PROCESSING  
?C?LIMUL . . . . . . . . . . . . . . . CODE     ?C?LIMUL  CYSPC  
?C?LLDCODE . . . . . . . . . . . . . . CODE     ?C?LLDCODE  ?C?LLDPTR  
?C?LLDIDATA. . . . . . . . . . . . . . CODE     ?C?LLDIDATA  ?C?LLDPTR  
?C?LLDPDATA. . . . . . . . . . . . . . CODE     ?C?LLDPDATA  ?C?LLDPTR  
?C?LLDPTR. . . . . . . . . . . . . . . CODE     ?C?LLDPTR  CYLIB  UTILS  
?C?LLDXDATA. . . . . . . . . . . . . . CODE     ?C?LLDXDATA  ?C?LLDPTR  
?C?LMUL. . . . . . . . . . . . . . . . CODE     ?C?LMUL  CYLIB  CYPM  
LX51 LINKER/LOCATER V4.64.0.0                                                         03/12/2018  09:19:57  PAGE 89


?C?LNEG. . . . . . . . . . . . . . . . CODE     ?C?LNEG  ?C?FCAST  
?C?LSHL. . . . . . . . . . . . . . . . CODE     ?C?LSHL  CYLIB  
?C?LSTIDATA. . . . . . . . . . . . . . CODE     ?C?LSTIDATA  ?C?LSTPTR  
?C?LSTPDATA. . . . . . . . . . . . . . CODE     ?C?LSTPDATA  ?C?LSTPTR  
?C?LSTPTR. . . . . . . . . . . . . . . CODE     ?C?LSTPTR  CYLIB  UTILS  
?C?LSTXDATA. . . . . . . . . . . . . . CODE     ?C?LSTXDATA  ?C?LSTPTR  BOOTLOADABLE  COMMAND_PROCESSING  CYFITTER_CFG  
                                                CYLIB  CYSPC  IMU_FUNCTIONS  INTERRUPTIONS  UTILS  
?C?MEMSET. . . . . . . . . . . . . . . CODE     ?C?MEMSET  COMMAND_PROCESSING  IMU_FUNCTIONS  
?C?OFFX256 . . . . . . . . . . . . . . CODE     ?C?OFFX256  COMMAND_PROCESSING  
?C?OFFXADD . . . . . . . . . . . . . . CODE     ?C?OFFXADD  COMMAND_PROCESSING  IMU_FUNCTIONS  
?C?PLDIXDATA . . . . . . . . . . . . . CODE     ?C?PLDIXDATA  PRINTF  
?C?PSTXDATA. . . . . . . . . . . . . . CODE     ?C?PSTXDATA  PRINTF  
?C?SLSHR . . . . . . . . . . . . . . . CODE     ?C?SLSHR  UTILS  
?C?STRCPYAMD . . . . . . . . . . . . . CODE     ?C?STRCPYAMD  COMMAND_PROCESSING  
?C?ULCMP . . . . . . . . . . . . . . . CODE     ?C?ULCMP  CYFLASH  
?C?ULDIV . . . . . . . . . . . . . . . CODE     ?C?ULDIV  BOOTLOADABLE  CYLIB  CYPM  
?C?ULSHR . . . . . . . . . . . . . . . CODE     ?C?ULSHR  CYLIB  
?C?XDATASEG. . . . . . . . . . . . . . NUMBER   ** LX51 GENERATED **  
?C?XPAGE1RST . . . . . . . . . . . . . NUMBER   ?C_STARTUP  INTERRUPTIONS  ISR_RS485_RX  UART_RS485_INT  
?C?XPAGE1SFR . . . . . . . . . . . . . DATA     ?C_STARTUP  INTERRUPTIONS  ISR_RS485_RX  UART_RS485_INT  
?C_START . . . . . . . . . . . . . . . CODE     ?C_INIT  ?C_STARTUP  
?C_STARTUP . . . . . . . . . . . . . . CODE     ?C_STARTUP  MAIN  
?C_XBP . . . . . . . . . . . . . . . . DATA     ?C_XBP  ?C?ADDXBP  ?C_STARTUP  CYLIB  
_?CyDelay. . . . . . . . . . . . . . . CODE     CYLIB  COMMAND_PROCESSING  CYBOOTASMKEIL  IMU_FUNCTIONS  MAIN  
_?CyDelayFreq. . . . . . . . . . . . . CODE     CYLIB  
_?CyHalt . . . . . . . . . . . . . . . CODE     CYLIB  
_Bootloadable_SetFlashByte . . . . . . CODE     BOOTLOADABLE  
_cfg_write_bytes . . . . . . . . . . . CODE     CYMEM  
_cfg_write_bytes_code. . . . . . . . . CODE     CYMEM  
_Chip_Select_A_Write . . . . . . . . . CODE     CHIP_SELECT_A  IMU_FUNCTIONS  
_Chip_Select_B_Write . . . . . . . . . CODE     CHIP_SELECT_B  IMU_FUNCTIONS  
_ChipSelector. . . . . . . . . . . . . CODE     IMU_FUNCTIONS  
_CLOCK_UART_ClearModeRegister. . . . . CODE     CLOCK_UART  
_CLOCK_UART_SetDividerRegister . . . . CODE     CLOCK_UART  COMMAND_PROCESSING  
_CLOCK_UART_SetModeRegister. . . . . . CODE     CLOCK_UART  
_CLOCK_UART_SetSourceRegister. . . . . CODE     CLOCK_UART  
_CLOCK_UART_StandbyPower . . . . . . . CODE     CLOCK_UART  
_commWrite . . . . . . . . . . . . . . CODE     COMMAND_PROCESSING  
_CyBusClk_SetDivider . . . . . . . . . CODE     CYLIB  CYPM  
_cyconfigcpy . . . . . . . . . . . . . CODE     CYMEM  CYFITTER_CFG  
_cyconfigcpycode . . . . . . . . . . . CODE     CYMEM  
_CyCpuClk_SetDivider . . . . . . . . . CODE     CYLIB  
_CyDelay . . . . . . . . . . . . . . . CODE     CYBOOTASMKEIL  
_CyDelayCycles . . . . . . . . . . . . CODE     CYBOOTASMKEIL  CYFITTER_CFG  CYLIB  CYPM  
_CyDelayUs . . . . . . . . . . . . . . CODE     CYBOOTASMKEIL  CYFLASH  CYLIB  CYPM  CYSPC  IMU_FUNCTIONS  
_CyEnableInts. . . . . . . . . . . . . CODE     CYLIB  
_CyExitCriticalSection . . . . . . . . CODE     CYBOOTASMKEIL  CYFLASH  CYLIB  CYPM  CYSPC  EEPROM  FF_STATUS  MY_TIMER 
                                                 SPI_IMU  UART_RS485  
_CyFlash_SetWaitCycles . . . . . . . . CODE     CYFLASH  CYPM  
_CyGetUniqueId . . . . . . . . . . . . CODE     CYLIB  
_CyILO_SetPowerMode. . . . . . . . . . CODE     CYLIB  CYPM  
_CyILO_SetSource . . . . . . . . . . . CODE     CYLIB  
_CyIMO_SetFreq . . . . . . . . . . . . CODE     CYLIB  CYPM  
_CyIMO_SetSource . . . . . . . . . . . CODE     CYLIB  CYPM  
_CyIMO_Start . . . . . . . . . . . . . CODE     CYLIB  CYPM  
_CyIntGetPriority. . . . . . . . . . . CODE     CYLIB  
_CyIntGetState . . . . . . . . . . . . CODE     CYLIB  
_CyIntGetVector. . . . . . . . . . . . CODE     CYLIB  
_CyIntSetPriority. . . . . . . . . . . CODE     CYLIB  UART_RS485  
_CyIntSetVector. . . . . . . . . . . . CODE     CYLIB  UART_RS485  
_CyMasterClk_SetDivider. . . . . . . . CODE     CYLIB  CYPM  
_CyMasterClk_SetSource . . . . . . . . CODE     CYLIB  CYPM  
_cymemzero . . . . . . . . . . . . . . CODE     CYMEM  
_CyPLL_OUT_SetPQ . . . . . . . . . . . CODE     CYLIB  
_CyPLL_OUT_SetSource . . . . . . . . . CODE     CYLIB  
LX51 LINKER/LOCATER V4.64.0.0                                                         03/12/2018  09:19:57  PAGE 90


_CyPLL_OUT_Start . . . . . . . . . . . CODE     CYLIB  CYPM  
_CyPmAltAct. . . . . . . . . . . . . . CODE     CYPM  
_CyPmCtwSetInterval. . . . . . . . . . CODE     CYPM  
_CyPmFtwSetInterval. . . . . . . . . . CODE     CYPM  CYLIB  
_CyPmHibernateEx . . . . . . . . . . . CODE     CYPM  
_CyPmReadStatus. . . . . . . . . . . . CODE     CYPM  CYLIB  
_CyPmSleep . . . . . . . . . . . . . . CODE     CYPM  
_cyread16. . . . . . . . . . . . . . . CODE     CYMEM  
_cyread16_nodpx. . . . . . . . . . . . CODE     CYMEM  CLOCK_UART  CYLIB  ISR_RS485_RX  PACER_TIMER  SPI_IMU_INTCLOCK  
_cyread24. . . . . . . . . . . . . . . CODE     CYMEM  
_cyread24_nodpx. . . . . . . . . . . . CODE     CYMEM  MY_TIMER  
_cyread32. . . . . . . . . . . . . . . CODE     CYMEM  
_cyread32_nodpx. . . . . . . . . . . . CODE     CYMEM  
_cyread8 . . . . . . . . . . . . . . . CODE     CYMEM  CYFITTER_CFG  CYLIB  CYSPC  
_cyread8_nodpx . . . . . . . . . . . . CODE     CYMEM  
_CySetFlashEEBuffer. . . . . . . . . . CODE     CYFLASH  
_CySpcEraseSector. . . . . . . . . . . CODE     CYSPC  EEPROM  
_CySpcGetTemp. . . . . . . . . . . . . CODE     CYSPC  CYFLASH  
_CySpcLoadMultiByte. . . . . . . . . . CODE     CYSPC  EEPROM  
_CySpcLoadRow. . . . . . . . . . . . . CODE     CYSPC  EEPROM  
_CySpcLoadRowFull. . . . . . . . . . . CODE     CYSPC  CYFLASH  
_CySpcReadData . . . . . . . . . . . . CODE     CYSPC  CYFLASH  
_CySpcWriteRow . . . . . . . . . . . . CODE     CYSPC  CYFLASH  EEPROM  
_CyUsbClk_SetSource. . . . . . . . . . CODE     CYLIB  
_CyVdLvAnalogEnable. . . . . . . . . . CODE     CYLIB  CYPM  
_CyVdLvDigitEnable . . . . . . . . . . CODE     CYLIB  CYPM  
_CyVdStickyStatus. . . . . . . . . . . CODE     CYLIB  
_CyWdtStart. . . . . . . . . . . . . . CODE     CYLIB  
_cywrite16 . . . . . . . . . . . . . . CODE     CYMEM  CYFITTER_CFG  
_cywrite16_nodpx . . . . . . . . . . . CODE     CYMEM  CLOCK_UART  CYFITTER_CFG  CYLIB  ISR_RS485_RX  PACER_TIMER  SPI_I
                                                MU_INTCLOCK  
_cywrite24 . . . . . . . . . . . . . . CODE     CYMEM  
_cywrite24_nodpx . . . . . . . . . . . CODE     CYMEM  MY_TIMER  
_cywrite32 . . . . . . . . . . . . . . CODE     CYMEM  
_cywrite32_nodpx . . . . . . . . . . . CODE     CYMEM  
_cywrite8. . . . . . . . . . . . . . . CODE     CYMEM  CYFITTER_CFG  
_cywrite8_nodpx. . . . . . . . . . . . CODE     CYMEM  
_CyWriteRowData. . . . . . . . . . . . CODE     CYFLASH  BOOTLOADABLE  
_CyWriteRowFull. . . . . . . . . . . . CODE     CYFLASH  
_CyXTAL_32KHZ_SetPowerMode . . . . . . CODE     CYLIB  
_CyXTAL_SetFbVoltage . . . . . . . . . CODE     CYLIB  
_CyXTAL_SetStartup . . . . . . . . . . CODE     CYLIB  
_CyXTAL_SetWdVoltage . . . . . . . . . CODE     CYLIB  
_CyXTAL_Start. . . . . . . . . . . . . CODE     CYLIB  CYPM  
_dma_wait. . . . . . . . . . . . . . . CODE     ?C_STARTUP  
_EEPROM_ByteWritePos . . . . . . . . . CODE     EEPROM  
_EEPROM_EraseSector. . . . . . . . . . CODE     EEPROM  
_EEPROM_ReadByte . . . . . . . . . . . CODE     EEPROM  
_EEPROM_StartErase . . . . . . . . . . CODE     EEPROM  
_EEPROM_StartWrite . . . . . . . . . . CODE     EEPROM  
_EEPROM_Write. . . . . . . . . . . . . CODE     EEPROM  COMMAND_PROCESSING  
_EEPROM_WriteByte. . . . . . . . . . . CODE     EEPROM  
_FABS. . . . . . . . . . . . . . . . . CODE     FABS  IMU_FUNCTIONS  
_FF_STATUS_WriteMask . . . . . . . . . CODE     FF_STATUS  
_FTDI_ENABLE_REG_Write . . . . . . . . CODE     FTDI_ENABLE_REG  COMMAND_PROCESSING  MAIN  
_get_param_list. . . . . . . . . . . . CODE     COMMAND_PROCESSING  
_infoGet . . . . . . . . . . . . . . . CODE     COMMAND_PROCESSING  INTERRUPTIONS  
_infoPrepare . . . . . . . . . . . . . CODE     COMMAND_PROCESSING  
_infoReading . . . . . . . . . . . . . CODE     COMMAND_PROCESSING  
_invSqrt . . . . . . . . . . . . . . . CODE     UTILS  
_ISR_RS485_RX_SetPriority. . . . . . . CODE     ISR_RS485_RX  
_ISR_RS485_RX_SetVector. . . . . . . . CODE     ISR_RS485_RX  
_ISR_RS485_RX_StartEx. . . . . . . . . CODE     ISR_RS485_RX  MAIN  
_LCRChecksum . . . . . . . . . . . . . CODE     COMMAND_PROCESSING  
_memStore. . . . . . . . . . . . . . . CODE     COMMAND_PROCESSING  
LX51 LINKER/LOCATER V4.64.0.0                                                         03/12/2018  09:19:57  PAGE 91


_MY_TIMER_SetInterruptMode . . . . . . CODE     MY_TIMER  
_MY_TIMER_WriteControlRegister . . . . CODE     MY_TIMER  
_MY_TIMER_WriteCounter . . . . . . . . CODE     MY_TIMER  INTERRUPTIONS  
_MY_TIMER_WritePeriod. . . . . . . . . CODE     MY_TIMER  
_Opto_Pin_SetDriveMode . . . . . . . . CODE     OPTO_PIN  
_Opto_Pin_Write. . . . . . . . . . . . CODE     OPTO_PIN  IMU_FUNCTIONS  MAIN  
_PACER_TIMER_SetInterruptMode. . . . . CODE     PACER_TIMER  
_PACER_TIMER_WriteControlRegister. . . CODE     PACER_TIMER  
_PACER_TIMER_WriteCounter. . . . . . . CODE     PACER_TIMER  
_PACER_TIMER_WritePeriod . . . . . . . CODE     PACER_TIMER  
_PRINTF. . . . . . . . . . . . . . . . CODE     PRINTF  
_PUTCHAR . . . . . . . . . . . . . . . CODE     PUTCHAR  PRINTF  
_ReadAcc . . . . . . . . . . . . . . . CODE     IMU_FUNCTIONS  
_ReadControlRegister . . . . . . . . . CODE     IMU_FUNCTIONS  
_ReadGyro. . . . . . . . . . . . . . . CODE     IMU_FUNCTIONS  
_ReadIMU . . . . . . . . . . . . . . . CODE     IMU_FUNCTIONS  
_ReadMag . . . . . . . . . . . . . . . CODE     IMU_FUNCTIONS  
_ReadMagCal. . . . . . . . . . . . . . CODE     IMU_FUNCTIONS  
_ReadQuat. . . . . . . . . . . . . . . CODE     IMU_FUNCTIONS  
_ReadTemp. . . . . . . . . . . . . . . CODE     IMU_FUNCTIONS  
_RESET_FF_Write. . . . . . . . . . . . CODE     RESET_FF  MAIN  
_RS485_CTS_Write . . . . . . . . . . . CODE     RS485_CTS  COMMAND_PROCESSING  INTERRUPTIONS  MAIN  
_sendAcknowledgment. . . . . . . . . . CODE     COMMAND_PROCESSING  
_SetAnalogRoutingPumps . . . . . . . . CODE     CYFITTER_CFG  
_SPI_IMU_IntClock_ClearModeRegister. . CODE     SPI_IMU_INTCLOCK  
_SPI_IMU_IntClock_SetDividerRegister . CODE     SPI_IMU_INTCLOCK  
_SPI_IMU_IntClock_SetModeRegister. . . CODE     SPI_IMU_INTCLOCK  
_SPI_IMU_IntClock_SetSourceRegister. . CODE     SPI_IMU_INTCLOCK  
_SPI_IMU_IntClock_StandbyPower . . . . CODE     SPI_IMU_INTCLOCK  
_SPI_IMU_PutArray. . . . . . . . . . . CODE     SPI_IMU  
_SPI_IMU_SetInterruptMode. . . . . . . CODE     SPI_IMU  
_SPI_IMU_SetRxInterruptMode. . . . . . CODE     SPI_IMU  
_SPI_IMU_SetTxInterruptMode. . . . . . CODE     SPI_IMU  
_SPI_IMU_WriteTxData . . . . . . . . . CODE     SPI_IMU  IMU_FUNCTIONS  
_SPRINTF . . . . . . . . . . . . . . . CODE     PRINTF  COMMAND_PROCESSING  
_strcat. . . . . . . . . . . . . . . . CODE     STRCAT  COMMAND_PROCESSING  
_STRLEN. . . . . . . . . . . . . . . . CODE     STRLEN  COMMAND_PROCESSING  
_UART_RS485_PutArray . . . . . . . . . CODE     UART_RS485  
_UART_RS485_PutChar. . . . . . . . . . CODE     UART_RS485  COMMAND_PROCESSING  
_UART_RS485_PutCRLF. . . . . . . . . . CODE     UART_RS485  
_UART_RS485_PutString. . . . . . . . . CODE     UART_RS485  COMMAND_PROCESSING  
_UART_RS485_SendBreak. . . . . . . . . CODE     UART_RS485  
_UART_RS485_SetRxAddress1. . . . . . . CODE     UART_RS485  
_UART_RS485_SetRxAddress2. . . . . . . CODE     UART_RS485  
_UART_RS485_SetRxAddressMode . . . . . CODE     UART_RS485  
_UART_RS485_SetRxInterruptMode . . . . CODE     UART_RS485  
_UART_RS485_SetTxAddressMode . . . . . CODE     UART_RS485  
_UART_RS485_SetTxInterruptMode . . . . CODE     UART_RS485  
_UART_RS485_WriteControlRegister . . . CODE     UART_RS485  
_UART_RS485_WriteTxData. . . . . . . . CODE     UART_RS485  
_v3_normalize. . . . . . . . . . . . . CODE     UTILS  IMU_FUNCTIONS  
_v4_normalize. . . . . . . . . . . . . CODE     UTILS  IMU_FUNCTIONS  
_WriteControlRegister. . . . . . . . . CODE     IMU_FUNCTIONS  
AC . . . . . . . . . . . . . . . . . . DATA     COMMAND_PROCESSING  
ACC. . . . . . . . . . . . . . . . . . DATA     COMMAND_PROCESSING  
Accel. . . . . . . . . . . . . . . . . XDATA    GLOBALS  IMU_FUNCTIONS  
B. . . . . . . . . . . . . . . . . . . DATA     COMMAND_PROCESSING  
Bootloadable_Load. . . . . . . . . . . CODE     BOOTLOADABLE  COMMAND_PROCESSING  
c_mem. . . . . . . . . . . . . . . . . XDATA    GLOBALS  COMMAND_PROCESSING  IMU_FUNCTIONS  INTERRUPTIONS  
Chip_Select_A_Read . . . . . . . . . . CODE     CHIP_SELECT_A  
Chip_Select_B_Read . . . . . . . . . . CODE     CHIP_SELECT_B  
CLOCK_UART_GetDividerRegister. . . . . CODE     CLOCK_UART  
CLOCK_UART_GetModeRegister . . . . . . CODE     CLOCK_UART  
CLOCK_UART_GetSourceRegister . . . . . CODE     CLOCK_UART  
CLOCK_UART_Start . . . . . . . . . . . CODE     CLOCK_UART  
LX51 LINKER/LOCATER V4.64.0.0                                                         03/12/2018  09:19:57  PAGE 92


CLOCK_UART_Stop. . . . . . . . . . . . CODE     CLOCK_UART  
CLOCK_UART_StopBlock . . . . . . . . . CODE     CLOCK_UART  
cmd_get_imu_readings . . . . . . . . . CODE     COMMAND_PROCESSING  
cmd_ping . . . . . . . . . . . . . . . CODE     COMMAND_PROCESSING  
cmd_set_baudrate . . . . . . . . . . . CODE     COMMAND_PROCESSING  
cmd_store_params . . . . . . . . . . . CODE     COMMAND_PROCESSING  
commProcess. . . . . . . . . . . . . . CODE     COMMAND_PROCESSING  INTERRUPTIONS  
CY . . . . . . . . . . . . . . . . . . DATA     COMMAND_PROCESSING  
cydelay_32k_ms . . . . . . . . . . . . XDATA    CYLIB  
cydelay_freq_hz. . . . . . . . . . . . XDATA    CYLIB  
cydelay_freq_khz . . . . . . . . . . . XDATA    CYLIB  
cydelay_freq_mhz . . . . . . . . . . . XDATA    CYLIB  CYBOOTASMKEIL  
CyDisableInts. . . . . . . . . . . . . CODE     CYLIB  
CyEEPROM_ReadRelease . . . . . . . . . CODE     CYFLASH  EEPROM  
CyEEPROM_ReadReserve . . . . . . . . . CODE     CYFLASH  EEPROM  
CyEEPROM_Start . . . . . . . . . . . . CODE     CYFLASH  EEPROM  
CyEEPROM_Stop. . . . . . . . . . . . . CODE     CYFLASH  EEPROM  
CyEnterCriticalSection . . . . . . . . CODE     CYBOOTASMKEIL  CYFLASH  CYLIB  CYPM  CYSPC  EEPROM  FF_STATUS  MY_TIMER 
                                                 SPI_IMU  UART_RS485  
cyfitter_cfg . . . . . . . . . . . . . CODE     CYFITTER_CFG  ?C_STARTUP  
CyFlash_Start. . . . . . . . . . . . . CODE     CYFLASH  
CyFlash_Stop . . . . . . . . . . . . . CODE     CYFLASH  
CyILO_Disable33K . . . . . . . . . . . CODE     CYLIB  
CyILO_Enable33K. . . . . . . . . . . . CODE     CYLIB  
CyILO_Start100K. . . . . . . . . . . . CODE     CYLIB  CYPM  
CyILO_Start1K. . . . . . . . . . . . . CODE     CYLIB  CYPM  
CyILO_Stop100K . . . . . . . . . . . . CODE     CYLIB  
CyILO_Stop1K . . . . . . . . . . . . . CODE     CYLIB  
CyIMO_DisableDoubler . . . . . . . . . CODE     CYLIB  CYPM  
CyIMO_EnableDoubler. . . . . . . . . . CODE     CYLIB  CYPM  
CyIMO_Stop . . . . . . . . . . . . . . CODE     CYLIB  CYPM  
CyPLL_OUT_Stop . . . . . . . . . . . . CODE     CYLIB  CYPM  
CyPmHibernate. . . . . . . . . . . . . CODE     CYPM  
CyPmOppsSet. . . . . . . . . . . . . . CODE     CYPM  
CyPmRestoreClocks. . . . . . . . . . . CODE     CYPM  
CyPmSaveClocks . . . . . . . . . . . . CODE     CYPM  
CyResetStatus. . . . . . . . . . . . . XDATA    CYLIB  ?C_STARTUP  
CySetTemp. . . . . . . . . . . . . . . CODE     CYFLASH  COMMAND_PROCESSING  EEPROM  
CySoftwareReset. . . . . . . . . . . . CODE     CYLIB  BOOTLOADABLE  
CySpcGetAlgorithm. . . . . . . . . . . CODE     CYSPC  CYFLASH  
CySpcLock. . . . . . . . . . . . . . . CODE     CYSPC  CYFLASH  EEPROM  
CySpcStart . . . . . . . . . . . . . . CODE     CYSPC  CYFLASH  EEPROM  
CySpcStop. . . . . . . . . . . . . . . CODE     CYSPC  
CySpcUnlock. . . . . . . . . . . . . . CODE     CYSPC  CYFLASH  EEPROM  
CyVdHvAnalogDisable. . . . . . . . . . CODE     CYLIB  CYPM  
CyVdHvAnalogEnable . . . . . . . . . . CODE     CYLIB  CYPM  
CyVdLvAnalogDisable. . . . . . . . . . CODE     CYLIB  CYPM  
CyVdLvDigitDisable . . . . . . . . . . CODE     CYLIB  CYPM  
CyVdRealTimeStatus . . . . . . . . . . CODE     CYLIB  
CyWdtClear . . . . . . . . . . . . . . CODE     CYLIB  
CyXTAL_32KHZ_ReadStatus. . . . . . . . CODE     CYLIB  
CyXTAL_32KHZ_Start . . . . . . . . . . CODE     CYLIB  CYPM  
CyXTAL_32KHZ_Stop. . . . . . . . . . . CODE     CYLIB  
CyXTAL_DisableErrStatus. . . . . . . . CODE     CYLIB  
CyXTAL_DisableFaultRecovery. . . . . . CODE     CYLIB  
CyXTAL_EnableErrStatus . . . . . . . . CODE     CYLIB  
CyXTAL_EnableFaultRecovery . . . . . . CODE     CYLIB  
CyXTAL_ReadStatus. . . . . . . . . . . CODE     CYLIB  
CyXTAL_Stop. . . . . . . . . . . . . . CODE     CYLIB  CYPM  
dieTemperature . . . . . . . . . . . . XDATA    CYFLASH  EEPROM  
DPH. . . . . . . . . . . . . . . . . . DATA     COMMAND_PROCESSING  
DPH1 . . . . . . . . . . . . . . . . . DATA     COMMAND_PROCESSING  
DPL. . . . . . . . . . . . . . . . . . DATA     COMMAND_PROCESSING  
DPL1 . . . . . . . . . . . . . . . . . DATA     COMMAND_PROCESSING  
DPS. . . . . . . . . . . . . . . . . . DATA     COMMAND_PROCESSING  
LX51 LINKER/LOCATER V4.64.0.0                                                         03/12/2018  09:19:57  PAGE 93


DPX. . . . . . . . . . . . . . . . . . DATA     COMMAND_PROCESSING  
DPX1 . . . . . . . . . . . . . . . . . DATA     COMMAND_PROCESSING  
EA . . . . . . . . . . . . . . . . . . DATA     COMMAND_PROCESSING  
EEPROM_ADDR. . . . . . . . . . . . . . XDATA    COMMAND_PROCESSING  
EEPROM_Enable. . . . . . . . . . . . . CODE     EEPROM  
EEPROM_Query . . . . . . . . . . . . . CODE     EEPROM  
EEPROM_Start . . . . . . . . . . . . . CODE     EEPROM  MAIN  
EEPROM_Stop. . . . . . . . . . . . . . CODE     EEPROM  
EEPROM_UpdateTemperature . . . . . . . CODE     EEPROM  
F0 . . . . . . . . . . . . . . . . . . DATA     COMMAND_PROCESSING  
F1 . . . . . . . . . . . . . . . . . . DATA     COMMAND_PROCESSING  
FF_STATUS_InterruptDisable . . . . . . CODE     FF_STATUS  
FF_STATUS_InterruptEnable. . . . . . . CODE     FF_STATUS  
FF_STATUS_Read . . . . . . . . . . . . CODE     FF_STATUS  MAIN  
FF_STATUS_ReadMask . . . . . . . . . . CODE     FF_STATUS  
FTDI_ENABLE_REG_Read . . . . . . . . . CODE     FTDI_ENABLE_REG  
function_scheduler . . . . . . . . . . CODE     INTERRUPTIONS  MAIN  
g_imu. . . . . . . . . . . . . . . . . XDATA    GLOBALS  COMMAND_PROCESSING  IMU_FUNCTIONS  INTERRUPTIONS  
g_imuNew . . . . . . . . . . . . . . . XDATA    GLOBALS  IMU_FUNCTIONS  INTERRUPTIONS  
g_mem. . . . . . . . . . . . . . . . . XDATA    GLOBALS  COMMAND_PROCESSING  
g_rx . . . . . . . . . . . . . . . . . XDATA    GLOBALS  COMMAND_PROCESSING  INTERRUPTIONS  MAIN  
Gyro . . . . . . . . . . . . . . . . . XDATA    GLOBALS  IMU_FUNCTIONS  
IE . . . . . . . . . . . . . . . . . . DATA     COMMAND_PROCESSING  
IMU_connected. . . . . . . . . . . . . XDATA    GLOBALS  COMMAND_PROCESSING  IMU_FUNCTIONS  
imus_data_size . . . . . . . . . . . . XDATA    GLOBALS  COMMAND_PROCESSING  IMU_FUNCTIONS  
ImusReset. . . . . . . . . . . . . . . CODE     IMU_FUNCTIONS  
infoSend . . . . . . . . . . . . . . . CODE     COMMAND_PROCESSING  
InitIMU. . . . . . . . . . . . . . . . CODE     IMU_FUNCTIONS  
InitIMUgeneral . . . . . . . . . . . . CODE     IMU_FUNCTIONS  MAIN  
InitIMUMagCal. . . . . . . . . . . . . CODE     IMU_FUNCTIONS  
interrupt_flag . . . . . . . . . . . . BIT      GLOBALS  INTERRUPTIONS  MAIN  
interrupt_manager. . . . . . . . . . . CODE     INTERRUPTIONS  MAIN  
ISR_RS485_RX_ClearPending. . . . . . . CODE     ISR_RS485_RX  
ISR_RS485_RX_Disable . . . . . . . . . CODE     ISR_RS485_RX  COMMAND_PROCESSING  
ISR_RS485_RX_Enable. . . . . . . . . . CODE     ISR_RS485_RX  COMMAND_PROCESSING  
ISR_RS485_RX_ExInterrupt . . . . . . . CODE     INTERRUPTIONS  MAIN  
ISR_RS485_RX_GetPriority . . . . . . . CODE     ISR_RS485_RX  
ISR_RS485_RX_GetState. . . . . . . . . CODE     ISR_RS485_RX  
ISR_RS485_RX_GetVector . . . . . . . . CODE     ISR_RS485_RX  
ISR_RS485_RX_Interrupt . . . . . . . . CODE     ISR_RS485_RX  
ISR_RS485_RX_SetPending. . . . . . . . CODE     ISR_RS485_RX  
ISR_RS485_RX_Start . . . . . . . . . . CODE     ISR_RS485_RX  
ISR_RS485_RX_Stop. . . . . . . . . . . CODE     ISR_RS485_RX  
Mag. . . . . . . . . . . . . . . . . . XDATA    GLOBALS  IMU_FUNCTIONS  
MagCal . . . . . . . . . . . . . . . . XDATA    GLOBALS  COMMAND_PROCESSING  IMU_FUNCTIONS  
main . . . . . . . . . . . . . . . . . CODE     MAIN  ?C_INIT  
memInit. . . . . . . . . . . . . . . . CODE     COMMAND_PROCESSING  
memRecall. . . . . . . . . . . . . . . CODE     COMMAND_PROCESSING  MAIN  
memRestore . . . . . . . . . . . . . . CODE     COMMAND_PROCESSING  
MXAX . . . . . . . . . . . . . . . . . DATA     COMMAND_PROCESSING  
MY_TIMER_ClearFIFO . . . . . . . . . . CODE     MY_TIMER  
MY_TIMER_Enable. . . . . . . . . . . . CODE     MY_TIMER  
MY_TIMER_Init. . . . . . . . . . . . . CODE     MY_TIMER  
MY_TIMER_initVar . . . . . . . . . . . XDATA    MY_TIMER  
MY_TIMER_ReadCapture . . . . . . . . . CODE     MY_TIMER  
MY_TIMER_ReadControlRegister . . . . . CODE     MY_TIMER  
MY_TIMER_ReadCounter . . . . . . . . . CODE     MY_TIMER  INTERRUPTIONS  
MY_TIMER_ReadPeriod. . . . . . . . . . CODE     MY_TIMER  
MY_TIMER_ReadStatusRegister. . . . . . CODE     MY_TIMER  
MY_TIMER_SoftwareCapture . . . . . . . CODE     MY_TIMER  
MY_TIMER_Start . . . . . . . . . . . . CODE     MY_TIMER  MAIN  
MY_TIMER_Stop. . . . . . . . . . . . . CODE     MY_TIMER  
N_IMU_Connected. . . . . . . . . . . . XDATA    GLOBALS  COMMAND_PROCESSING  IMU_FUNCTIONS  
Opto_Pin_Read. . . . . . . . . . . . . CODE     OPTO_PIN  
Opto_Pin_ReadDataReg . . . . . . . . . CODE     OPTO_PIN  
LX51 LINKER/LOCATER V4.64.0.0                                                         03/12/2018  09:19:57  PAGE 94


OV . . . . . . . . . . . . . . . . . . DATA     COMMAND_PROCESSING  
P. . . . . . . . . . . . . . . . . . . DATA     COMMAND_PROCESSING  
P2AX . . . . . . . . . . . . . . . . . DATA     COMMAND_PROCESSING  
PACER_TIMER_Enable . . . . . . . . . . CODE     PACER_TIMER  
PACER_TIMER_Init . . . . . . . . . . . CODE     PACER_TIMER  
PACER_TIMER_initVar. . . . . . . . . . XDATA    PACER_TIMER  
PACER_TIMER_ReadCapture. . . . . . . . CODE     PACER_TIMER  
PACER_TIMER_ReadControlRegister. . . . CODE     PACER_TIMER  
PACER_TIMER_ReadCounter. . . . . . . . CODE     PACER_TIMER  
PACER_TIMER_ReadPeriod . . . . . . . . CODE     PACER_TIMER  
PACER_TIMER_ReadStatusRegister . . . . CODE     PACER_TIMER  
PACER_TIMER_SoftwareCapture. . . . . . CODE     PACER_TIMER  
PACER_TIMER_Start. . . . . . . . . . . CODE     PACER_TIMER  MAIN  
PACER_TIMER_Stop . . . . . . . . . . . CODE     PACER_TIMER  
PSW. . . . . . . . . . . . . . . . . . DATA     COMMAND_PROCESSING  
Quat . . . . . . . . . . . . . . . . . XDATA    GLOBALS  IMU_FUNCTIONS  
ReadAllIMUs. . . . . . . . . . . . . . CODE     IMU_FUNCTIONS  INTERRUPTIONS  
RESET_FF_Read. . . . . . . . . . . . . CODE     RESET_FF  
RS0. . . . . . . . . . . . . . . . . . DATA     COMMAND_PROCESSING  
RS1. . . . . . . . . . . . . . . . . . DATA     COMMAND_PROCESSING  
RS485_CTS_Read . . . . . . . . . . . . CODE     RS485_CTS  
SFRPRT0DR. . . . . . . . . . . . . . . DATA     COMMAND_PROCESSING  
SFRPRT0PS. . . . . . . . . . . . . . . DATA     COMMAND_PROCESSING  
SFRPRT0SEL . . . . . . . . . . . . . . DATA     COMMAND_PROCESSING  
SFRPRT12DR . . . . . . . . . . . . . . DATA     COMMAND_PROCESSING  
SFRPRT12PS . . . . . . . . . . . . . . DATA     COMMAND_PROCESSING  
SFRPRT12SEL. . . . . . . . . . . . . . DATA     COMMAND_PROCESSING  
SFRPRT15DR . . . . . . . . . . . . . . DATA     COMMAND_PROCESSING  
SFRPRT15PS . . . . . . . . . . . . . . DATA     COMMAND_PROCESSING  
SFRPRT15SEL. . . . . . . . . . . . . . DATA     COMMAND_PROCESSING  
SFRPRT1DR. . . . . . . . . . . . . . . DATA     COMMAND_PROCESSING  
SFRPRT1PS. . . . . . . . . . . . . . . DATA     COMMAND_PROCESSING  
SFRPRT1SEL . . . . . . . . . . . . . . DATA     COMMAND_PROCESSING  
SFRPRT2DR. . . . . . . . . . . . . . . DATA     COMMAND_PROCESSING  
SFRPRT2PS. . . . . . . . . . . . . . . DATA     COMMAND_PROCESSING  
SFRPRT2SEL . . . . . . . . . . . . . . DATA     COMMAND_PROCESSING  
SFRPRT3DR. . . . . . . . . . . . . . . DATA     COMMAND_PROCESSING  
SFRPRT3PS. . . . . . . . . . . . . . . DATA     COMMAND_PROCESSING  
SFRPRT3SEL . . . . . . . . . . . . . . DATA     COMMAND_PROCESSING  
SFRPRT4DR. . . . . . . . . . . . . . . DATA     COMMAND_PROCESSING  
SFRPRT4PS. . . . . . . . . . . . . . . DATA     COMMAND_PROCESSING  
SFRPRT4SEL . . . . . . . . . . . . . . DATA     COMMAND_PROCESSING  
SFRPRT5DR. . . . . . . . . . . . . . . DATA     COMMAND_PROCESSING  
SFRPRT5PS. . . . . . . . . . . . . . . DATA     COMMAND_PROCESSING  
SFRPRT5SEL . . . . . . . . . . . . . . DATA     COMMAND_PROCESSING  
SFRPRT6DR. . . . . . . . . . . . . . . DATA     COMMAND_PROCESSING  
SFRPRT6PS. . . . . . . . . . . . . . . DATA     COMMAND_PROCESSING  
SFRPRT6SEL . . . . . . . . . . . . . . DATA     COMMAND_PROCESSING  
single_imu_size. . . . . . . . . . . . XDATA    GLOBALS  COMMAND_PROCESSING  IMU_FUNCTIONS  
SP . . . . . . . . . . . . . . . . . . DATA     COMMAND_PROCESSING  
SpcLockState . . . . . . . . . . . . . XDATA    CYSPC  
SPI_delay. . . . . . . . . . . . . . . CODE     IMU_FUNCTIONS  
SPI_IMU_ClearFIFO. . . . . . . . . . . CODE     SPI_IMU  IMU_FUNCTIONS  MAIN  
SPI_IMU_ClearRxBuffer. . . . . . . . . CODE     SPI_IMU  IMU_FUNCTIONS  MAIN  
SPI_IMU_ClearTxBuffer. . . . . . . . . CODE     SPI_IMU  IMU_FUNCTIONS  MAIN  
SPI_IMU_DisableInt . . . . . . . . . . CODE     SPI_IMU  
SPI_IMU_DisableRxInt . . . . . . . . . CODE     SPI_IMU  
SPI_IMU_DisableTxInt . . . . . . . . . CODE     SPI_IMU  
SPI_IMU_Enable . . . . . . . . . . . . CODE     SPI_IMU  MAIN  
SPI_IMU_EnableInt. . . . . . . . . . . CODE     SPI_IMU  
SPI_IMU_EnableRxInt. . . . . . . . . . CODE     SPI_IMU  
SPI_IMU_EnableTxInt. . . . . . . . . . CODE     SPI_IMU  
SPI_IMU_GetRxBufferSize. . . . . . . . CODE     SPI_IMU  
SPI_IMU_GetTxBufferSize. . . . . . . . CODE     SPI_IMU  
SPI_IMU_Init . . . . . . . . . . . . . CODE     SPI_IMU  MAIN  
LX51 LINKER/LOCATER V4.64.0.0                                                         03/12/2018  09:19:57  PAGE 95


SPI_IMU_initVar. . . . . . . . . . . . XDATA    SPI_IMU  
SPI_IMU_IntClock_GetDividerRegister. . CODE     SPI_IMU_INTCLOCK  
SPI_IMU_IntClock_GetModeRegister . . . CODE     SPI_IMU_INTCLOCK  
SPI_IMU_IntClock_GetSourceRegister . . CODE     SPI_IMU_INTCLOCK  
SPI_IMU_IntClock_Start . . . . . . . . CODE     SPI_IMU_INTCLOCK  SPI_IMU  
SPI_IMU_IntClock_Stop. . . . . . . . . CODE     SPI_IMU_INTCLOCK  SPI_IMU  
SPI_IMU_IntClock_StopBlock . . . . . . CODE     SPI_IMU_INTCLOCK  
SPI_IMU_ReadRxData . . . . . . . . . . CODE     SPI_IMU  IMU_FUNCTIONS  
SPI_IMU_ReadRxStatus . . . . . . . . . CODE     SPI_IMU  
SPI_IMU_ReadStatus . . . . . . . . . . CODE     SPI_IMU  IMU_FUNCTIONS  
SPI_IMU_ReadTxStatus . . . . . . . . . CODE     SPI_IMU  
SPI_IMU_Start. . . . . . . . . . . . . CODE     SPI_IMU  MAIN  
SPI_IMU_Stop . . . . . . . . . . . . . CODE     SPI_IMU  
SPI_IMU_swStatusRx . . . . . . . . . . XDATA    SPI_IMU  
SPI_IMU_swStatusTx . . . . . . . . . . XDATA    SPI_IMU  
STARTUP1 . . . . . . . . . . . . . . . CODE     ?C_STARTUP  
Temp . . . . . . . . . . . . . . . . . XDATA    GLOBALS  IMU_FUNCTIONS  
timer_value. . . . . . . . . . . . . . XDATA    GLOBALS  COMMAND_PROCESSING  IMU_FUNCTIONS  INTERRUPTIONS  
timer_value0 . . . . . . . . . . . . . XDATA    GLOBALS  COMMAND_PROCESSING  IMU_FUNCTIONS  INTERRUPTIONS  
UART_RS485_ClearRxBuffer . . . . . . . CODE     UART_RS485  MAIN  
UART_RS485_ClearTxBuffer . . . . . . . CODE     UART_RS485  COMMAND_PROCESSING  MAIN  
UART_RS485_Enable. . . . . . . . . . . CODE     UART_RS485  
UART_RS485_errorStatus . . . . . . . . XDATA    UART_RS485  UART_RS485_INT  
UART_RS485_GetByte . . . . . . . . . . CODE     UART_RS485  
UART_RS485_GetChar . . . . . . . . . . CODE     UART_RS485  INTERRUPTIONS  
UART_RS485_GetRxBufferSize . . . . . . CODE     UART_RS485  INTERRUPTIONS  
UART_RS485_GetTxBufferSize . . . . . . CODE     UART_RS485  
UART_RS485_Init. . . . . . . . . . . . CODE     UART_RS485  MAIN  
UART_RS485_initVar . . . . . . . . . . XDATA    UART_RS485  
UART_RS485_ReadControlRegister . . . . CODE     UART_RS485  
UART_RS485_ReadRxData. . . . . . . . . CODE     UART_RS485  
UART_RS485_ReadRxStatus. . . . . . . . CODE     UART_RS485  MAIN  
UART_RS485_ReadTxStatus. . . . . . . . CODE     UART_RS485  COMMAND_PROCESSING  
UART_RS485_rxBuffer. . . . . . . . . . XDATA    UART_RS485  UART_RS485_INT  
UART_RS485_rxBufferLoopDetect. . . . . XDATA    UART_RS485  UART_RS485_INT  
UART_RS485_rxBufferOverflow. . . . . . XDATA    UART_RS485  UART_RS485_INT  
UART_RS485_rxBufferRead. . . . . . . . XDATA    UART_RS485  UART_RS485_INT  
UART_RS485_rxBufferWrite . . . . . . . XDATA    UART_RS485  UART_RS485_INT  
UART_RS485_RXISR . . . . . . . . . . . CODE     UART_RS485_INT  UART_RS485  
UART_RS485_Start . . . . . . . . . . . CODE     UART_RS485  MAIN  
UART_RS485_Stop. . . . . . . . . . . . CODE     UART_RS485  MAIN  

Program Size: data=41.3 xdata=5675 const=981 code=27771
LX51 RUN COMPLETE.  0 WARNING(S),  0 ERROR(S)
