LX51 LINKER/LOCATER V4.64.0.0                                                           01/12/2017  16:14:04  PAGE 1


LX51 LINKER/LOCATER V4.64.0.0, INVOKED BY:
C:\PROGRAM FILES (X86)\CYPRESS\PSOC CREATOR\3.3\PSOC CREATOR\IMPORT\KEIL\PK51\9.51\C51\BIN\LX51.EXE .\DP8051_Keil_951\Re
>> lease\command_processing.obj, .\DP8051_Keil_951\Release\globals.obj, .\DP8051_Keil_951\Release\interruptions.obj, .\D
>> P8051_Keil_951\Release\main.obj, .\DP8051_Keil_951\Release\utils.obj, .\DP8051_Keil_951\Release\IMU_functions.obj, .\
>> DP8051_Keil_951\Release\firmware.lib, C:\Program Files (x86)\Cypress\PSoC Creator\3.3\PSoC Creator\psoc\content\cycom
>> ponentlibrary\CyComponentLibrary.cylib\DP8051\DP8051_Keil_951\Release\CyComponentLibrary.lib TO .\DP8051_Keil_951\Rel
>> ease\firmware.omf CODE RU RC (10) DW (16) WL (2) PR (.\DP8051_Keil_951\Release/firmware.map) IX CL (XDATA (X:0X0000-X
>> :0X1FFF)) CL (CODE (C:0X2600-C:0XFFBF)) CL (CONST (C:0X2600-C:0XFFBF))


CPU MODE:     8051 MODE
MEMORY MODEL: LARGE WITH FLOATING POINT ARITHMETIC


INPUT MODULES INCLUDED:
  .\DP8051_Keil_951\Release\command_processing.obj (COMMAND_PROCESSING)
         COMMENT TYPE 0: C51 V9.51
  .\DP8051_Keil_951\Release\globals.obj (GLOBALS)
         COMMENT TYPE 0: C51 V9.51
  .\DP8051_Keil_951\Release\interruptions.obj (INTERRUPTIONS)
         COMMENT TYPE 0: C51 V9.51
  .\DP8051_Keil_951\Release\main.obj (MAIN)
         COMMENT TYPE 0: C51 V9.51
  .\DP8051_Keil_951\Release\utils.obj (UTILS)
         COMMENT TYPE 0: C51 V9.51
  .\DP8051_Keil_951\Release\IMU_functions.obj (IMU_FUNCTIONS)
         COMMENT TYPE 0: C51 V9.51
  .\DP8051_Keil_951\Release\firmware.lib (UART_RS485)
         COMMENT TYPE 0: C51 V9.51
  .\DP8051_Keil_951\Release\firmware.lib (ISR_RS485_RX)
         COMMENT TYPE 0: C51 V9.51
  .\DP8051_Keil_951\Release\firmware.lib (PACER_TIMER)
         COMMENT TYPE 0: C51 V9.51
  .\DP8051_Keil_951\Release\firmware.lib (CLOCK_UART)
         COMMENT TYPE 0: C51 V9.51
  .\DP8051_Keil_951\Release\firmware.lib (EEPROM)
         COMMENT TYPE 0: C51 V9.51
  .\DP8051_Keil_951\Release\firmware.lib (RS485_CTS)
         COMMENT TYPE 0: C51 V9.51
  .\DP8051_Keil_951\Release\firmware.lib (BOOTLOADABLE)
         COMMENT TYPE 0: C51 V9.51
  .\DP8051_Keil_951\Release\firmware.lib (FTDI_ENABLE_REG)
         COMMENT TYPE 0: C51 V9.51
  .\DP8051_Keil_951\Release\firmware.lib (RESET_FF)
         COMMENT TYPE 0: C51 V9.51
  .\DP8051_Keil_951\Release\firmware.lib (FF_STATUS)
         COMMENT TYPE 0: C51 V9.51
  .\DP8051_Keil_951\Release\firmware.lib (MY_TIMER)
         COMMENT TYPE 0: C51 V9.51
  .\DP8051_Keil_951\Release\firmware.lib (CYFLASH)
         COMMENT TYPE 0: C51 V9.51
  .\DP8051_Keil_951\Release\firmware.lib (CYLIB)
         COMMENT TYPE 0: C51 V9.51
  .\DP8051_Keil_951\Release\firmware.lib (?C_STARTUP)
         COMMENT TYPE 0: AX51 V3.07d
  .\DP8051_Keil_951\Release\firmware.lib (ISR_WATCHDOG)
         COMMENT TYPE 0: C51 V9.51
  .\DP8051_Keil_951\Release\firmware.lib (WATCHDOG_COUNTER)
         COMMENT TYPE 0: C51 V9.51
  .\DP8051_Keil_951\Release\firmware.lib (WATCHDOG_ENABLER)
         COMMENT TYPE 0: C51 V9.51
  .\DP8051_Keil_951\Release\firmware.lib (WATCHDOG_REFRESH)
         COMMENT TYPE 0: C51 V9.51
  .\DP8051_Keil_951\Release\firmware.lib (SPI_IMU)
         COMMENT TYPE 0: C51 V9.51
  .\DP8051_Keil_951\Release\firmware.lib (ISR_IMU)
LX51 LINKER/LOCATER V4.64.0.0                                                         01/12/2017  16:14:04  PAGE 2


         COMMENT TYPE 0: C51 V9.51
  .\DP8051_Keil_951\Release\firmware.lib (OPTO_PIN)
         COMMENT TYPE 0: C51 V9.51
  .\DP8051_Keil_951\Release\firmware.lib (CHIP_SELECT_A)
         COMMENT TYPE 0: C51 V9.51
  .\DP8051_Keil_951\Release\firmware.lib (CHIP_SELECT_B)
         COMMENT TYPE 0: C51 V9.51
  .\DP8051_Keil_951\Release\firmware.lib (CYFITTER_CFG)
         COMMENT TYPE 0: C51 V9.51
  .\DP8051_Keil_951\Release\firmware.lib (UART_RS485_INT)
         COMMENT TYPE 0: C51 V9.51
  .\DP8051_Keil_951\Release\firmware.lib (CYBOOTASMKEIL)
         COMMENT TYPE 0: AX51 V3.07d
  .\DP8051_Keil_951\Release\firmware.lib (CYMEM)
         COMMENT TYPE 0: AX51 V3.07d
  .\DP8051_Keil_951\Release\firmware.lib (CYPM)
         COMMENT TYPE 0: C51 V9.51
  .\DP8051_Keil_951\Release\firmware.lib (CYSPC)
         COMMENT TYPE 0: C51 V9.51
  .\DP8051_Keil_951\Release\firmware.lib (SPI_IMU_INTCLOCK)
         COMMENT TYPE 0: C51 V9.51
  C:\PROGRAM FILES (X86)\CYPRESS\PSOC CREATOR\3.3\PSOC CREATOR\IMPORT\KEIL\PK51\9.51\C51\LIB\C51FPL.LIB (?C?FPADD)
         COMMENT TYPE 1: A51 / ASM51 Assembler
  C:\PROGRAM FILES (X86)\CYPRESS\PSOC CREATOR\3.3\PSOC CREATOR\IMPORT\KEIL\PK51\9.51\C51\LIB\C51FPL.LIB (?C?FPCMP)
         COMMENT TYPE 1: A51 / ASM51 Assembler
  C:\PROGRAM FILES (X86)\CYPRESS\PSOC CREATOR\3.3\PSOC CREATOR\IMPORT\KEIL\PK51\9.51\C51\LIB\C51FPL.LIB (?C?CASTF)
         COMMENT TYPE 1: A51 / ASM51 Assembler
  C:\PROGRAM FILES (X86)\CYPRESS\PSOC CREATOR\3.3\PSOC CREATOR\IMPORT\KEIL\PK51\9.51\C51\LIB\C51FPL.LIB (PRINTF)
         COMMENT TYPE 1: A51 / ASM51 Assembler
  C:\PROGRAM FILES (X86)\CYPRESS\PSOC CREATOR\3.3\PSOC CREATOR\IMPORT\KEIL\PK51\9.51\C51\LIB\C51FPL.LIB (?C?FPGETOPN)
         COMMENT TYPE 1: A51 / ASM51 Assembler
  C:\PROGRAM FILES (X86)\CYPRESS\PSOC CREATOR\3.3\PSOC CREATOR\IMPORT\KEIL\PK51\9.51\C51\LIB\C51FPL.LIB (?C?FPROUND)
         COMMENT TYPE 1: A51 / ASM51 Assembler
  C:\PROGRAM FILES (X86)\CYPRESS\PSOC CREATOR\3.3\PSOC CREATOR\IMPORT\KEIL\PK51\9.51\C51\LIB\C51FPL.LIB (?C?FPCONVERT)
         COMMENT TYPE 1: A51 / ASM51 Assembler
  C:\PROGRAM FILES (X86)\CYPRESS\PSOC CREATOR\3.3\PSOC CREATOR\IMPORT\KEIL\PK51\9.51\C51\LIB\C51FPL.LIB (?C?FPMUL)
         COMMENT TYPE 1: A51 / ASM51 Assembler
  C:\PROGRAM FILES (X86)\CYPRESS\PSOC CREATOR\3.3\PSOC CREATOR\IMPORT\KEIL\PK51\9.51\C51\LIB\C51FPL.LIB (?C?FPDIV)
         COMMENT TYPE 1: A51 / ASM51 Assembler
  C:\PROGRAM FILES (X86)\CYPRESS\PSOC CREATOR\3.3\PSOC CREATOR\IMPORT\KEIL\PK51\9.51\C51\LIB\C51FPL.LIB (?C?FTNPWR)
         COMMENT TYPE 1: A51 / ASM51 Assembler
  C:\PROGRAM FILES (X86)\CYPRESS\PSOC CREATOR\3.3\PSOC CREATOR\IMPORT\KEIL\PK51\9.51\C51\LIB\C51L.LIB (?C_INIT)
         COMMENT TYPE 1: A51 / ASM51 Assembler
  C:\PROGRAM FILES (X86)\CYPRESS\PSOC CREATOR\3.3\PSOC CREATOR\IMPORT\KEIL\PK51\9.51\C51\LIB\C51L.LIB (?C?CLDPTR)
         COMMENT TYPE 1: A51 / ASM51 Assembler
  C:\PROGRAM FILES (X86)\CYPRESS\PSOC CREATOR\3.3\PSOC CREATOR\IMPORT\KEIL\PK51\9.51\C51\LIB\C51L.LIB (?C?CLDOPTR)
         COMMENT TYPE 1: A51 / ASM51 Assembler
  C:\PROGRAM FILES (X86)\CYPRESS\PSOC CREATOR\3.3\PSOC CREATOR\IMPORT\KEIL\PK51\9.51\C51\LIB\C51L.LIB (?C?CSTPTR)
         COMMENT TYPE 1: A51 / ASM51 Assembler
  C:\PROGRAM FILES (X86)\CYPRESS\PSOC CREATOR\3.3\PSOC CREATOR\IMPORT\KEIL\PK51\9.51\C51\LIB\C51L.LIB (?C?IMUL)
         COMMENT TYPE 1: A51 / ASM51 Assembler
  C:\PROGRAM FILES (X86)\CYPRESS\PSOC CREATOR\3.3\PSOC CREATOR\IMPORT\KEIL\PK51\9.51\C51\LIB\C51L.LIB (?C?LMUL)
         COMMENT TYPE 1: A51 / ASM51 Assembler
  C:\PROGRAM FILES (X86)\CYPRESS\PSOC CREATOR\3.3\PSOC CREATOR\IMPORT\KEIL\PK51\9.51\C51\LIB\C51L.LIB (?C?ULDIV)
         COMMENT TYPE 1: A51 / ASM51 Assembler
  C:\PROGRAM FILES (X86)\CYPRESS\PSOC CREATOR\3.3\PSOC CREATOR\IMPORT\KEIL\PK51\9.51\C51\LIB\C51L.LIB (?C?SLDIV)
         COMMENT TYPE 1: A51 / ASM51 Assembler
  C:\PROGRAM FILES (X86)\CYPRESS\PSOC CREATOR\3.3\PSOC CREATOR\IMPORT\KEIL\PK51\9.51\C51\LIB\C51L.LIB (?C?LNEG)
         COMMENT TYPE 1: A51 / ASM51 Assembler
  C:\PROGRAM FILES (X86)\CYPRESS\PSOC CREATOR\3.3\PSOC CREATOR\IMPORT\KEIL\PK51\9.51\C51\LIB\C51L.LIB (?C?SLCMP)
         COMMENT TYPE 1: A51 / ASM51 Assembler
  C:\PROGRAM FILES (X86)\CYPRESS\PSOC CREATOR\3.3\PSOC CREATOR\IMPORT\KEIL\PK51\9.51\C51\LIB\C51L.LIB (?C?ULCMP)
         COMMENT TYPE 1: A51 / ASM51 Assembler
  C:\PROGRAM FILES (X86)\CYPRESS\PSOC CREATOR\3.3\PSOC CREATOR\IMPORT\KEIL\PK51\9.51\C51\LIB\C51L.LIB (?C?ULSHR)
         COMMENT TYPE 1: A51 / ASM51 Assembler
LX51 LINKER/LOCATER V4.64.0.0                                                         01/12/2017  16:14:04  PAGE 3


  C:\PROGRAM FILES (X86)\CYPRESS\PSOC CREATOR\3.3\PSOC CREATOR\IMPORT\KEIL\PK51\9.51\C51\LIB\C51L.LIB (?C?SLSHR)
         COMMENT TYPE 1: A51 / ASM51 Assembler
  C:\PROGRAM FILES (X86)\CYPRESS\PSOC CREATOR\3.3\PSOC CREATOR\IMPORT\KEIL\PK51\9.51\C51\LIB\C51L.LIB (?C?LSHL)
         COMMENT TYPE 1: A51 / ASM51 Assembler
  C:\PROGRAM FILES (X86)\CYPRESS\PSOC CREATOR\3.3\PSOC CREATOR\IMPORT\KEIL\PK51\9.51\C51\LIB\C51L.LIB (?C?LLDPTR)
         COMMENT TYPE 1: A51 / ASM51 Assembler
  C:\PROGRAM FILES (X86)\CYPRESS\PSOC CREATOR\3.3\PSOC CREATOR\IMPORT\KEIL\PK51\9.51\C51\LIB\C51L.LIB (?C?LSTPTR)
         COMMENT TYPE 1: A51 / ASM51 Assembler
  C:\PROGRAM FILES (X86)\CYPRESS\PSOC CREATOR\3.3\PSOC CREATOR\IMPORT\KEIL\PK51\9.51\C51\LIB\C51L.LIB (?C?LSTXDATA)
         COMMENT TYPE 1: A51 / ASM51 Assembler
  C:\PROGRAM FILES (X86)\CYPRESS\PSOC CREATOR\3.3\PSOC CREATOR\IMPORT\KEIL\PK51\9.51\C51\LIB\C51L.LIB (?C?OFFXADD)
         COMMENT TYPE 1: A51 / ASM51 Assembler
  C:\PROGRAM FILES (X86)\CYPRESS\PSOC CREATOR\3.3\PSOC CREATOR\IMPORT\KEIL\PK51\9.51\C51\LIB\C51L.LIB (?C?PLDIXDATA)
         COMMENT TYPE 1: A51 / ASM51 Assembler
  C:\PROGRAM FILES (X86)\CYPRESS\PSOC CREATOR\3.3\PSOC CREATOR\IMPORT\KEIL\PK51\9.51\C51\LIB\C51L.LIB (?C?PSTXDATA)
         COMMENT TYPE 1: A51 / ASM51 Assembler
  C:\PROGRAM FILES (X86)\CYPRESS\PSOC CREATOR\3.3\PSOC CREATOR\IMPORT\KEIL\PK51\9.51\C51\LIB\C51L.LIB (?C?CCASE)
         COMMENT TYPE 1: A51 / ASM51 Assembler
  C:\PROGRAM FILES (X86)\CYPRESS\PSOC CREATOR\3.3\PSOC CREATOR\IMPORT\KEIL\PK51\9.51\C51\LIB\C51L.LIB (?C_XBP)
         COMMENT TYPE 1: A51 / ASM51 Assembler
  C:\PROGRAM FILES (X86)\CYPRESS\PSOC CREATOR\3.3\PSOC CREATOR\IMPORT\KEIL\PK51\9.51\C51\LIB\C51L.LIB (?C?ADDXBP)
         COMMENT TYPE 1: A51 / ASM51 Assembler
  C:\PROGRAM FILES (X86)\CYPRESS\PSOC CREATOR\3.3\PSOC CREATOR\IMPORT\KEIL\PK51\9.51\C51\LIB\C51L.LIB (?C?LIMUL)
         COMMENT TYPE 1: A51 / ASM51 Assembler
  C:\PROGRAM FILES (X86)\CYPRESS\PSOC CREATOR\3.3\PSOC CREATOR\IMPORT\KEIL\PK51\9.51\C51\LIB\C51L.LIB (PUTCHAR)
         COMMENT TYPE 1: A51 / ASM51 Assembler
  C:\PROGRAM FILES (X86)\CYPRESS\PSOC CREATOR\3.3\PSOC CREATOR\IMPORT\KEIL\PK51\9.51\C51\LIB\C51L.LIB (STRCAT)
         COMMENT TYPE 1: C51 Compiler
  C:\PROGRAM FILES (X86)\CYPRESS\PSOC CREATOR\3.3\PSOC CREATOR\IMPORT\KEIL\PK51\9.51\C51\LIB\C51L.LIB (STRLEN)
         COMMENT TYPE 1: A51 / ASM51 Assembler
  C:\PROGRAM FILES (X86)\CYPRESS\PSOC CREATOR\3.3\PSOC CREATOR\IMPORT\KEIL\PK51\9.51\C51\LIB\C51L.LIB (?C?MEMSET)
         COMMENT TYPE 1: A51 / ASM51 Assembler
  C:\PROGRAM FILES (X86)\CYPRESS\PSOC CREATOR\3.3\PSOC CREATOR\IMPORT\KEIL\PK51\9.51\C51\LIB\C51L.LIB (?C?COPYAMD)
         COMMENT TYPE 1: A51 / ASM51 Assembler
  C:\PROGRAM FILES (X86)\CYPRESS\PSOC CREATOR\3.3\PSOC CREATOR\IMPORT\KEIL\PK51\9.51\C51\LIB\C51L.LIB (?C?STRCPYAMD)
         COMMENT TYPE 1: A51 / ASM51 Assembler
  C:\PROGRAM FILES (X86)\CYPRESS\PSOC CREATOR\3.3\PSOC CREATOR\IMPORT\KEIL\PK51\9.51\C51\LIB\C51L.LIB (?C?IILDX)
         COMMENT TYPE 1: A51 / ASM51 Assembler
  C:\PROGRAM FILES (X86)\CYPRESS\PSOC CREATOR\3.3\PSOC CREATOR\IMPORT\KEIL\PK51\9.51\C51\LIB\C51L.LIB (?C?ILDIX)
         COMMENT TYPE 1: A51 / ASM51 Assembler
  C:\PROGRAM FILES (X86)\CYPRESS\PSOC CREATOR\3.3\PSOC CREATOR\IMPORT\KEIL\PK51\9.51\C51\LIB\C51L.LIB (?C?LLDIDATA)
         COMMENT TYPE 1: A51 / ASM51 Assembler
  C:\PROGRAM FILES (X86)\CYPRESS\PSOC CREATOR\3.3\PSOC CREATOR\IMPORT\KEIL\PK51\9.51\C51\LIB\C51L.LIB (?C?LLDXDATA)
         COMMENT TYPE 1: A51 / ASM51 Assembler
  C:\PROGRAM FILES (X86)\CYPRESS\PSOC CREATOR\3.3\PSOC CREATOR\IMPORT\KEIL\PK51\9.51\C51\LIB\C51L.LIB (?C?LLDPDATA)
         COMMENT TYPE 1: A51 / ASM51 Assembler
  C:\PROGRAM FILES (X86)\CYPRESS\PSOC CREATOR\3.3\PSOC CREATOR\IMPORT\KEIL\PK51\9.51\C51\LIB\C51L.LIB (?C?LLDCODE)
         COMMENT TYPE 1: A51 / ASM51 Assembler
  C:\PROGRAM FILES (X86)\CYPRESS\PSOC CREATOR\3.3\PSOC CREATOR\IMPORT\KEIL\PK51\9.51\C51\LIB\C51L.LIB (?C?LSTIDATA)
         COMMENT TYPE 1: A51 / ASM51 Assembler
  C:\PROGRAM FILES (X86)\CYPRESS\PSOC CREATOR\3.3\PSOC CREATOR\IMPORT\KEIL\PK51\9.51\C51\LIB\C51L.LIB (?C?LSTPDATA)
         COMMENT TYPE 1: A51 / ASM51 Assembler


ACTIVE MEMORY CLASSES OF MODULE:  .\DP8051_Keil_951\Release\firmware.omf (COMMAND_PROCESSING)

BASE        START       END         USED      MEMORY CLASS
==========================================================
X:000000H   X:000000H   X:001FFFH   0010B3H   XDATA
C:000000H   C:002600H   C:00FFBFH   004F28H   CODE
C:000000H   C:002600H   C:00FFBFH   0002DFH   CONST
I:000000H   I:000000H   I:00007FH   000021H   DATA
I:000020H.0 I:000020H.0 I:00002FH.7 000001H.6 BIT
I:000000H   I:000000H   I:0000FFH   000001H   IDATA

LX51 LINKER/LOCATER V4.64.0.0                                                         01/12/2017  16:14:04  PAGE 4



MEMORY MAP OF MODULE:  .\DP8051_Keil_951\Release\firmware.omf (COMMAND_PROCESSING)


START     STOP      LENGTH    ALIGN  RELOC    MEMORY CLASS   SEGMENT NAME
=========================================================================

* * * * * * * * * * *   D A T A   M E M O R Y   * * * * * * * * * * * * *
000000H   000007H   000008H   ---    AT..     DATA           "REG BANK 0"
000008H   000018H   000011H   BYTE   UNIT     DATA           _DATA_GROUP_
000019H   00001EH   000006H   BYTE   UNIT     DATA           ?DT?INTERRUPTIONS
00001FH.0 00001FH.7 000001H.0 ---    ---      **GAP**
000020H.0 000021H.1 000001H.2 BIT    UNIT     BIT            _BIT_GROUP_
000021H.2 000021H.5 000000H.4 BIT    UNIT     BIT            ?BI?GLOBALS
000021H.6 000021H   000000H.2 ---    ---      **GAP**
000022H   000023H   000002H   BYTE   UNIT     DATA           ?C?LIB_DATA
000024H   000024H   000001H   BYTE   UNIT     IDATA          ?STACK

* * * * * * * * * * *   C O D E   M E M O R Y   * * * * * * * * * * * * *
002600H   002619H   00001AH   ---    OFFS..   CODE           ?CO?KEILSTART?3
00261AH   00309DH   000A84H   BYTE   UNIT     CODE           ?C?LIB_CODE
00309EH   003842H   0007A5H   BYTE   UNIT     CODE           ?PR?_INFOPREPARE?COMMAND_PROCESSING
003843H   003F16H   0006D4H   BYTE   UNIT     CODE           ?PR?_GET_PARAM_LIST?COMMAND_PROCESSING
003F17H   0044EEH   0005D8H   BYTE   UNIT     CODE           ?CO?COMMAND_PROCESSING
0044EFH   004971H   000483H   BYTE   UNIT     CODE           ?PR?PRINTF?PRINTF
004972H   004CFBH   00038AH   BYTE   UNIT     CODE           ?PR?ISR_IMU_INTERRUPT?ISR_IMU
004CFCH   005028H   00032DH   BYTE   UNIT     CODE           ?PR?INITIMUGENERAL?IMU_FUNCTIONS
005029H   005355H   00032DH   BYTE   UNIT     CODE           ?PR?READALLIMUS?IMU_FUNCTIONS
005356H   00562EH   0002D9H   BYTE   UNIT     CODE           ?PR?CMD_GET_IMU_READINGS?COMMAND_PROCESSING
00562FH   005776H   000148H   BYTE   UNIT     CODE           ?PR?CLOCKSETUP?CYFITTER_CFG
005777H   0058A6H   000130H   BYTE   UNIT     CODE           ?PR?_CLOCK_UART_SETDIVIDERREGISTER?CLOCK_UART
0058A7H   0059CDH   000127H   BYTE   UNIT     CODE           ?PR?INTERRUPT_MANAGER?INTERRUPTIONS
0059CEH   005AEEH   000121H   BYTE   UNIT     CODE           ?PR?COMMPROCESS?COMMAND_PROCESSING
005AEFH   005C08H   00011AH   BYTE   UNIT     CODE           ?C_C51STARTUP
005C09H   005D13H   00010BH   BYTE   UNIT     CODE           ?PR?CYFITTER_CFG?CYFITTER_CFG
005D14H   005E0EH   0000FBH   BYTE   UNIT     CODE           ?PR?_READACC?IMU_FUNCTIONS
005E0FH   005F09H   0000FBH   BYTE   UNIT     CODE           ?PR?_READGYRO?IMU_FUNCTIONS
005F0AH   005FFFH   0000F6H   BYTE   UNIT     CODE           ?PR?_READMAG?IMU_FUNCTIONS
006000H   0060F0H   0000F1H   BYTE   UNIT     CODE           ?PR?INITIMU?IMU_FUNCTIONS
0060F1H   0061E1H   0000F1H   BYTE   UNIT     CODE           ?PR?INITIMUMAGCAL?IMU_FUNCTIONS
0061E2H   0062C0H   0000DFH   BYTE   UNIT     CODE           ?PR?_EEPROM_WRITE?EEPROM
0062C1H   006380H   0000C0H   BYTE   UNIT     CODE           ?PR?MAIN?MAIN
006381H   006440H   0000C0H   BYTE   UNIT     CODE           ?PR?CFG_DMA_INIT?CYFITTER_CFG
006441H   0064F1H   0000B1H   BYTE   UNIT     CODE           ?PR?UART_RS485_RXISR?UART_RS485_INT
0064F2H   00659EH   0000ADH   BYTE   UNIT     CODE           ?PR?_MEMSTORE?COMMAND_PROCESSING
00659FH   00662BH   00008DH   BYTE   UNIT     CODE           ?PR?_COMMWRITE?COMMAND_PROCESSING
00662CH   0066B3H   000088H   BYTE   UNIT     CODE           ?PR?_?CYDELAY?CYLIB
0066B4H   006737H   000084H   BYTE   UNIT     CODE           ?PR?_READMAGCAL?IMU_FUNCTIONS
006738H   0067AAH   000073H   BYTE   UNIT     CODE           ?PR?_CYSPCLOADROW?CYSPC
0067ABH   006815H   00006BH   BYTE   UNIT     CODE           ?PR?_STRCAT?STRCAT
006816H   00687EH   000069H   BYTE   UNIT     CODE           ?PR?_READIMU?IMU_FUNCTIONS
00687FH   0068DFH   000061H   BYTE   UNIT     CODE           ?C_INITSEG
0068E0H   00693FH   000060H   BYTE   UNIT     CODE           ?PR?_CYSPCREADDATA?CYSPC
006940H   00699AH   00005BH   BYTE   UNIT     CODE           ?PR?UART_RS485_GETCHAR?UART_RS485
00699BH   0069F0H   000056H   BYTE   UNIT     CODE           ?PR?CYSETTEMPINT?CYFLASH
0069F1H   006A44H   000054H   BYTE   UNIT     CODE           ?PR?_CYINTSETVECTOR?CYLIB
006A45H   006A98H   000054H   BYTE   UNIT     CODE           ?PR?_CYSPCWRITEROW?CYSPC
006A99H   006AE8H   000050H   BYTE   UNIT     CODE           ?PR?CYFLASHGETSPCALGORITHM?CYFLASH
006AE9H   006B37H   00004FH   BYTE   UNIT     CODE           ?PR?UART_RS485_GETRXBUFFERSIZE?UART_RS485
006B38H   006B84H   00004DH   BYTE   UNIT     CODE           ?PR?MEMRECALL?COMMAND_PROCESSING
006B85H   006BCDH   000049H   BYTE   UNIT     CODE           ?PR?_CHIPSELECTOR?IMU_FUNCTIONS
006BCEH   006C14H   000047H   BYTE   UNIT     CODE           ?PR?MEMRESTORE?COMMAND_PROCESSING
006C15H   006C58H   000044H   BYTE   UNIT     CODE           ?PR?FUNCTION_SCHEDULER?INTERRUPTIONS
006C59H   006C9CH   000044H   BYTE   UNIT     CODE           ?C?LDIV
006C9DH   006CDDH   000041H   BYTE   UNIT     CODE           ?PR?CMD_SET_WATCHDOG?COMMAND_PROCESSING
LX51 LINKER/LOCATER V4.64.0.0                                                         01/12/2017  16:14:04  PAGE 5


006CDEH   006D19H   00003CH   BYTE   UNIT     CODE           ?PR?PACER_TIMER_INIT?PACER_TIMER
006D1AH   006D51H   000038H   BYTE   UNIT     CODE           ?PR?WATCHDOG_COUNTER_INIT?WATCHDOG_COUNTER
006D52H   006D85H   000034H   BYTE   UNIT     CODE           ?PR?_UART_RS485_PUTSTRING?UART_RS485
006D86H   006DB9H   000034H   BYTE   UNIT     CODE           ?PR?_CYCONFIGCPY?CYMEM
006DBAH   006DECH   000033H   BYTE   UNIT     CODE           ?PR?UART_RS485_INIT?UART_RS485
006DEDH   006DFFH   000013H   BYTE   UNIT     CODE           ?PR?UART_RS485_START?UART_RS485
006E00H   006E3AH   00003BH   PAGE   UNIT     CODE           ?PR?CYDELAYCYCLES?CYBOOTASMKEIL
006E3BH   006E6CH   000032H   BYTE   UNIT     CODE           ?PR?_LCRCHECKSUM?COMMAND_PROCESSING
006E6DH   006E9DH   000031H   BYTE   UNIT     CODE           ?PR?CYEEPROM_START?CYFLASH
006E9EH   006ECDH   000030H   BYTE   UNIT     CODE           ?PR?_WRITECONTROLREGISTER?IMU_FUNCTIONS
006ECEH   006EFCH   00002FH   BYTE   UNIT     CODE           ?PR?UART_RS485_CLEARRXBUFFER?UART_RS485
006EFDH   006F2AH   00002EH   BYTE   UNIT     CODE           ?PR?_CYSPCGETTEMP?CYSPC
006F2BH   006F2BH   000001H   BYTE   UNIT     CODE           ?PR?SETZEROS?COMMAND_PROCESSING
006F2CH   006F58H   00002DH   DWORD  UNIT     CODE           ?PR?CYDELAYUS?CYBOOTASMKEIL
006F59H   006F84H   00002CH   BYTE   UNIT     CODE           ?PR?MY_TIMER_INIT?MY_TIMER
006F85H   006FABH   000027H   BYTE   UNIT     CODE           ?PR?PUTCHAR?PUTCHAR
006FACH   006FD1H   000026H   BYTE   UNIT     CODE           ?PR?CYCONFIGCPYCODE?CYMEM
006FD2H   006FF6H   000025H   BYTE   UNIT     CODE           ?PR?SPI_IMU_ENABLE?SPI_IMU
006FF7H   00701AH   000024H   BYTE   UNIT     CODE           ?PR?MEMINIT?COMMAND_PROCESSING
00701BH   00703CH   000022H   BYTE   UNIT     CODE           ?PR?UART_RS485_ENABLE?UART_RS485
00703DH   00705EH   000022H   BYTE   UNIT     CODE           ?PR?UART_RS485_STOP?UART_RS485
00705FH   00707EH   000020H   BYTE   UNIT     CODE           ?PR?CMD_SET_BAUDRATE?COMMAND_PROCESSING
00707FH   00709EH   000020H   BYTE   UNIT     CODE           ?PR?SPI_IMU_CLEARFIFO?SPI_IMU
00709FH   0070BDH   00001FH   BYTE   UNIT     CODE           ?PR?_ISR_RS485_RX_STARTEX?ISR_RS485_RX
0070BEH   0070DCH   00001FH   BYTE   UNIT     CODE           ?PR?_ISR_WATCHDOG_STARTEX?ISR_WATCHDOG
0070DDH   0070FBH   00001FH   BYTE   UNIT     CODE           ?PR?CYSPCLOCK?CYSPC
0070FCH   007118H   00001DH   BYTE   UNIT     CODE           ?PR?ANALOGSETDEFAULT?CYFITTER_CFG
007119H   007134H   00001CH   BYTE   UNIT     CODE           ?PR?_WATCHDOG_COUNTER_WRITECOUNTER?WATCHDOG_COUNTER
007135H   00714FH   00001BH   BYTE   UNIT     CODE           ?PR?CYSPCGETALGORITHM?CYSPC
007150H   007168H   000019H   BYTE   UNIT     CODE           ?PR?_INFOGET?COMMAND_PROCESSING
007169H   007181H   000019H   BYTE   UNIT     CODE           ?PR?_CYINTSETPRIORITY?CYLIB
007182H   00719AH   000019H   BYTE   UNIT     CODE           ?PR?SPI_IMU_INIT?SPI_IMU
00719BH   0071B2H   000018H   BYTE   UNIT     CODE           ?PR?CYSETTEMP?CYFLASH
0071B3H   0071CAH   000018H   BYTE   UNIT     CODE           ?PR?CYEXITCRITICALSECTION?CYBOOTASMKEIL
0071CBH   0071E1H   000017H   BYTE   UNIT     CODE           ?PR?_READCONTROLREGISTER?IMU_FUNCTIONS
0071E2H   0071F7H   000016H   BYTE   UNIT     CODE           ?PR?PACER_TIMER_ENABLE?PACER_TIMER
0071F8H   00720DH   000016H   BYTE   UNIT     CODE           ?PR?WATCHDOG_COUNTER_ENABLE?WATCHDOG_COUNTER
00720EH   007222H   000015H   BYTE   UNIT     CODE           ?PR?_SENDACKNOWLEDGMENT?COMMAND_PROCESSING
007223H   007237H   000015H   BYTE   UNIT     CODE           ?PR?CMD_STORE_PARAMS?COMMAND_PROCESSING
007238H   00724CH   000015H   BYTE   UNIT     CODE           ?PR?CYENTERCRITICALSECTION?CYBOOTASMKEIL
00724DH   007261H   000015H   BYTE   UNIT     CODE           ?PR?CYSPCSTART?CYSPC
007262H   007276H   000015H   BYTE   UNIT     CODE           ?PR?_STRLEN?STRLEN
007277H   00728AH   000014H   BYTE   UNIT     CODE           ?PR?CMD_PING?COMMAND_PROCESSING
00728BH   00729EH   000014H   BYTE   UNIT     CODE           ?PR?UART_RS485_READRXSTATUS?UART_RS485
00729FH   0072B1H   000013H   BYTE   UNIT     CODE           ?PR?PACER_TIMER_START?PACER_TIMER
0072B2H   0072C4H   000013H   BYTE   UNIT     CODE           ?PR?MY_TIMER_START?MY_TIMER
0072C5H   0072D7H   000013H   BYTE   UNIT     CODE           ?PR?WATCHDOG_COUNTER_START?WATCHDOG_COUNTER
0072D8H   0072EAH   000013H   BYTE   UNIT     CODE           ?PR?SPI_IMU_START?SPI_IMU
0072EBH   0072FDH   000013H   BYTE   UNIT     CODE           ?PR?CYREAD24?CYMEM
0072FEH   00730FH   000012H   BYTE   UNIT     CODE           ?PR?UART_RS485_CLEARTXBUFFER?UART_RS485
007310H   007321H   000012H   BYTE   UNIT     CODE           ?PR?SPI_IMU_CLEARTXBUFFER?SPI_IMU
007322H   007333H   000012H   BYTE   UNIT     CODE           ?PR?CYWRITE24?CYMEM
007334H   007343H   000010H   BYTE   UNIT     CODE           ?PR?_OPTO_PIN_WRITE?OPTO_PIN
007344H   007352H   00000FH   BYTE   UNIT     CODE           ?PR?MY_TIMER_READCOUNTER?MY_TIMER
007353H   007361H   00000FH   BYTE   UNIT     CODE           ?PR?SPI_IMU_CLEARRXBUFFER?SPI_IMU
007362H   007370H   00000FH   BYTE   UNIT     CODE           ?PR?SPI_IMU_READSTATUS?SPI_IMU
007371H   00737FH   00000FH   BYTE   UNIT     CODE           ?PR?CYREAD16?CYMEM
007380H   00738EH   00000FH   BYTE   UNIT     CODE           ?PR?CYWRITE16?CYMEM
00738FH   00739DH   00000FH   BYTE   UNIT     CODE           ?PR?SPI_IMU_INTCLOCK_START?SPI_IMU_INTCLOCK
00739EH   0073ABH   00000EH   BYTE   UNIT     CODE           ?PR?_ISR_RS485_RX_SETVECTOR?ISR_RS485_RX
0073ACH   0073B9H   00000EH   BYTE   UNIT     CODE           ?PR?_PACER_TIMER_WRITEPERIOD?PACER_TIMER
0073BAH   0073C7H   00000EH   BYTE   UNIT     CODE           ?PR?_PACER_TIMER_WRITECOUNTER?PACER_TIMER
0073C8H   0073D5H   00000EH   BYTE   UNIT     CODE           ?PR?_ISR_WATCHDOG_SETVECTOR?ISR_WATCHDOG
0073D6H   0073E3H   00000EH   BYTE   UNIT     CODE           ?PR?_WATCHDOG_COUNTER_WRITEPERIOD?WATCHDOG_COUNTER
0073E4H   0073F0H   00000DH   BYTE   UNIT     CODE           ?PR?_UART_RS485_PUTCHAR?UART_RS485
LX51 LINKER/LOCATER V4.64.0.0                                                         01/12/2017  16:14:04  PAGE 6


0073F1H   0073FDH   00000DH   BYTE   UNIT     CODE           ?PR?MY_TIMER_CLEARFIFO?MY_TIMER
0073FEH   00740AH   00000DH   BYTE   UNIT     CODE           ?PR?_SPI_IMU_WRITETXDATA?SPI_IMU
00740BH   007416H   00000CH   BYTE   UNIT     CODE           ?PR?CYREAD8?CYMEM
007417H   007422H   00000CH   BYTE   UNIT     CODE           ?PR?CYWRITE8?CYMEM
007423H   00742EH   00000CH   BYTE   UNIT     CODE           ?PR?CYSPCUNLOCK?CYSPC
00742FH   007438H   00000AH   BYTE   UNIT     CODE           ?PR?_ISR_RS485_RX_SETPRIORITY?ISR_RS485_RX
007439H   007442H   00000AH   BYTE   UNIT     CODE           ?PR?CLOCK_UART_GETDIVIDERREGISTER?CLOCK_UART
007443H   00744CH   00000AH   BYTE   UNIT     CODE           ?PR?BOOTLOADABLE_LOAD?BOOTLOADABLE
00744DH   007456H   00000AH   BYTE   UNIT     CODE           ?PR?_MY_TIMER_WRITEPERIOD?MY_TIMER
007457H   007460H   00000AH   BYTE   UNIT     CODE           ?PR?MY_TIMER_READCAPTURE?MY_TIMER
007461H   00746AH   00000AH   BYTE   UNIT     CODE           ?PR?_MY_TIMER_WRITECOUNTER?MY_TIMER
00746BH   007474H   00000AH   BYTE   UNIT     CODE           ?PR?_ISR_WATCHDOG_SETPRIORITY?ISR_WATCHDOG
007475H   00747CH   000008H   BYTE   UNIT     CODE           ?PR?CLOCK_UART_GETSOURCEREGISTER?CLOCK_UART
00747DH   007484H   000008H   BYTE   UNIT     CODE           ?PR?MY_TIMER_ENABLE?MY_TIMER
007485H   00748CH   000008H   BYTE   UNIT     CODE           ?PR?CYSOFTWARERESET?CYLIB
00748DH   007493H   000007H   BYTE   UNIT     CODE           ?PR?ISR_RS485_RX_ENABLE?ISR_RS485_RX
007494H   00749AH   000007H   BYTE   UNIT     CODE           ?PR?ISR_RS485_RX_DISABLE?ISR_RS485_RX
00749BH   0074A1H   000007H   BYTE   UNIT     CODE           ?PR?EEPROM_ENABLE?EEPROM
0074A2H   0074A8H   000007H   BYTE   UNIT     CODE           ?PR?ISR_WATCHDOG_ENABLE?ISR_WATCHDOG
0074A9H   0074AFH   000007H   BYTE   UNIT     CODE           ?PR?ISR_WATCHDOG_DISABLE?ISR_WATCHDOG
0074B0H   0074B5H   000006H   BYTE   UNIT     CODE           ?PR?UART_RS485_READTXSTATUS?UART_RS485
0074B6H   0074BBH   000006H   BYTE   UNIT     CODE           ?PR?_PACER_TIMER_SETINTERRUPTMODE?PACER_TIMER
0074BCH   0074C1H   000006H   BYTE   UNIT     CODE           ?PR?_RS485_CTS_WRITE?RS485_CTS
0074C2H   0074C7H   000006H   BYTE   UNIT     CODE           ?PR?_FTDI_ENABLE_REG_WRITE?FTDI_ENABLE_REG
0074C8H   0074CDH   000006H   BYTE   UNIT     CODE           ?PR?_RESET_FF_WRITE?RESET_FF
0074CEH   0074D3H   000006H   BYTE   UNIT     CODE           ?PR?FF_STATUS_READ?FF_STATUS
0074D4H   0074D9H   000006H   BYTE   UNIT     CODE           ?PR?_MY_TIMER_SETINTERRUPTMODE?MY_TIMER
0074DAH   0074DFH   000006H   BYTE   UNIT     CODE           ?PR?MY_TIMER_READSTATUSREGISTER?MY_TIMER
0074E0H   0074E5H   000006H   BYTE   UNIT     CODE           ?PR?_WATCHDOG_COUNTER_SETINTERRUPTMODE?WATCHDOG_COUNTER
0074E6H   0074EBH   000006H   BYTE   UNIT     CODE           ?PR?_WATCHDOG_ENABLER_WRITE?WATCHDOG_ENABLER
0074ECH   0074F1H   000006H   BYTE   UNIT     CODE           ?PR?_WATCHDOG_REFRESH_WRITE?WATCHDOG_REFRESH
0074F2H   0074F7H   000006H   BYTE   UNIT     CODE           ?PR?SPI_IMU_READTXSTATUS?SPI_IMU
0074F8H   0074FDH   000006H   BYTE   UNIT     CODE           ?PR?SPI_IMU_READRXSTATUS?SPI_IMU
0074FEH   007503H   000006H   BYTE   UNIT     CODE           ?PR?SPI_IMU_READRXDATA?SPI_IMU
007504H   007509H   000006H   BYTE   UNIT     CODE           ?PR?_CHIP_SELECT_A_WRITE?CHIP_SELECT_A
00750AH   00750FH   000006H   BYTE   UNIT     CODE           ?PR?_CHIP_SELECT_B_WRITE?CHIP_SELECT_B
007510H   007513H   000004H   BYTE   UNIT     CODE           ?PR?EEPROM_START?EEPROM
007514H   007516H   000003H   BYTE   UNIT     CODE           ?PR?ISR_WATCHDOG_HANDLER?INTERRUPTIONS
007517H   007519H   000003H   BYTE   UNIT     CODE           ?PR?ISR_RS485_RX_EXINTERRUPT?INTERRUPTIONS
00751AH   00751CH   000003H   BYTE   UNIT     CODE           ?PR?_CYCLOCKSTARTUPERROR?CYFITTER_CFG
00751DH   00751DH   000001H   BYTE   UNIT     CODE           ?PR?CMD_GET_MEASUREMENTS?COMMAND_PROCESSING
00751EH   00751EH   000001H   BYTE   UNIT     CODE           ?PR?CMD_SET_INPUTS?COMMAND_PROCESSING
00751FH   00751FH   000001H   BYTE   UNIT     CODE           ?PR?CMD_ACTIVATE?COMMAND_PROCESSING
007520H   007520H   000001H   BYTE   UNIT     CODE           ?PR?CMD_GET_ACTIVATE?COMMAND_PROCESSING
007521H   007521H   000001H   BYTE   UNIT     CODE           ?PR?CMD_GET_CURRENTS?COMMAND_PROCESSING
007522H   007522H   000001H   BYTE   UNIT     CODE           ?PR?CMD_GET_INPUTS?COMMAND_PROCESSING
007523H   007523H   000001H   BYTE   UNIT     CODE           ?PR?CMD_GET_EMG?COMMAND_PROCESSING
007524H   007524H   000001H   BYTE   UNIT     CODE           ?PR?ISR_RS485_RX_INTERRUPT?ISR_RS485_RX
007525H   007525H   000001H   BYTE   UNIT     CODE           ?PR?ISR_WATCHDOG_INTERRUPT?ISR_WATCHDOG
007526H   007526H   000001H   BYTE   UNIT     CODE           ?PR?SPI_IMU_ENABLETXINT?SPI_IMU
007527H   007527H   000001H   BYTE   UNIT     CODE           ?PR?SPI_IMU_ENABLERXINT?SPI_IMU
007528H   007806H   0002DFH   BYTE   UNIT     CONST          ?CO?CYFITTER_CFG

* * * * * * * * * * *  X D A T A   M E M O R Y  * * * * * * * * * * * * *
000000H   00051CH   00051DH   BYTE   UNIT     XDATA          ?XD?GLOBALS
00051DH   0009F4H   0004D8H   BYTE   UNIT     XDATA          _XDATA_GROUP_
0009F5H   000E42H   00044EH   BYTE   UNIT     XDATA          ?XD?COMMAND_PROCESSING
000E43H   000F86H   000144H   BYTE   UNIT     XDATA          ?XD?ISR_IMU
000F87H   001008H   000082H   BYTE   UNIT     XDATA          ?XD?INTERRUPTIONS
001009H   00104BH   000043H   BYTE   UNIT     XDATA          ?XD?CYPM
00104CH   001072H   000027H   BYTE   UNIT     XDATA          ?XD?UART_RS485
001073H   001092H   000020H   BYTE   UNIT     XDATA          ?XD?UTILS
001093H   0010A1H   00000FH   BYTE   UNIT     XDATA          ?XD?CYLIB
0010A2H   0010A6H   000005H   BYTE   UNIT     XDATA          ?XD?CYFLASH
0010A7H   0010AAH   000004H   BYTE   UNIT     XDATA          ?XD?CYFITTER_CFG
LX51 LINKER/LOCATER V4.64.0.0                                                         01/12/2017  16:14:04  PAGE 7


0010ABH   0010ADH   000003H   BYTE   UNIT     XDATA          ?XD?SPI_IMU
0010AEH   0010AEH   000001H   BYTE   UNIT     XDATA          ?XD?IMU_FUNCTIONS
0010AFH   0010AFH   000001H   BYTE   UNIT     XDATA          ?XD?PACER_TIMER
0010B0H   0010B0H   000001H   BYTE   UNIT     XDATA          ?XD?MY_TIMER
0010B1H   0010B1H   000001H   BYTE   UNIT     XDATA          ?XD?WATCHDOG_COUNTER
0010B2H   0010B2H   000001H   BYTE   UNIT     XDATA          ?XD?CYSPC

* * * * * * * * *   R E M O V E D     S E G M E N T S   * * * * * * * *
   *DEL*:           000013H   BYTE   UNIT     CODE           ?PR?INFOSEND?COMMAND_PROCESSING
   *DEL*:           00044CH   BYTE   UNIT     XDATA          ?XD?INFOSEND?COMMAND_PROCESSING
   *DEL*:           000001H   BYTE   UNIT     CODE           ?PR?CMD_GET_CURR_AND_MEAS?COMMAND_PROCESSING
   *DEL*:           000075H   BYTE   UNIT     CODE           ?PR?_FILTER_V?UTILS
   *DEL*:           000075H   BYTE   UNIT     CODE           ?PR?_FILTER_I1?UTILS
   *DEL*:           000079H   BYTE   UNIT     CODE           ?PR?_FILTER_CH1?UTILS
   *DEL*:           000079H   BYTE   UNIT     CODE           ?PR?_FILTER_CH2?UTILS
   *DEL*:           00006BH   BYTE   UNIT     CODE           ?PR?_CHECK_ENC_DATA?UTILS
   *DEL*:           000054H   BYTE   UNIT     CODE           ?PR?_MY_ROUND?UTILS
   *DEL*:           000004H   BYTE   UNIT     XDATA          ?XD?_MY_ROUND?UTILS
   *DEL*:           000081H   BYTE   UNIT     CODE           ?PR?_MY_MOD?UTILS
   *DEL*:           000008H   BYTE   UNIT     XDATA          ?XD?_MY_MOD?UTILS
   *DEL*:           000001H   BYTE   UNIT     CODE           ?PR?CALIBRATION?UTILS
   *DEL*:           0000DBH   BYTE   UNIT     CODE           ?PR?_CALC_TURNS_FCN?UTILS
   *DEL*:           000008H   BYTE   UNIT     XDATA          ?XD?_CALC_TURNS_FCN?UTILS
   *DEL*:           000003H   BYTE   UNIT     IDATA          ?ID?_CHECK_ENC_DATA?UTILS
   *DEL*:           000001H   BYTE   UNIT     DATA           ?DT?_CHECK_ENC_DATA?UTILS
   *DEL*:           000035H   BYTE   UNIT     CODE           ?PR?IMUSRESET?IMU_FUNCTIONS
   *DEL*:           000002H   BYTE   UNIT     XDATA          ?XD?IMUSRESET?IMU_FUNCTIONS
   *DEL*:           000003H   BYTE   UNIT     CODE           ?PR?UART_RS485_READCONTROLREGISTER?UART_RS485
   *DEL*:           000006H   BYTE   UNIT     CODE           ?PR?_UART_RS485_WRITECONTROLREGISTER?UART_RS485
   *DEL*:           000001H   BYTE   UNIT     XDATA          ?XD?_UART_RS485_WRITECONTROLREGISTER?UART_RS485
   *DEL*:           000006H   BYTE   UNIT     CODE           ?PR?_UART_RS485_SETRXINTERRUPTMODE?UART_RS485
   *DEL*:           00004AH   BYTE   UNIT     CODE           ?PR?UART_RS485_READRXDATA?UART_RS485
   *DEL*:           00001FH   BYTE   UNIT     CODE           ?PR?UART_RS485_GETBYTE?UART_RS485
   *DEL*:           000006H   BYTE   UNIT     CODE           ?PR?_UART_RS485_SETRXADDRESSMODE?UART_RS485
   *DEL*:           000001H   BYTE   UNIT     XDATA          ?XD?_UART_RS485_SETRXADDRESSMODE?UART_RS485
   *DEL*:           000006H   BYTE   UNIT     CODE           ?PR?_UART_RS485_SETRXADDRESS1?UART_RS485
   *DEL*:           000006H   BYTE   UNIT     CODE           ?PR?_UART_RS485_SETRXADDRESS2?UART_RS485
   *DEL*:           000006H   BYTE   UNIT     CODE           ?PR?_UART_RS485_SETTXINTERRUPTMODE?UART_RS485
   *DEL*:           00000CH   BYTE   UNIT     CODE           ?PR?_UART_RS485_WRITETXDATA?UART_RS485
   *DEL*:           000032H   BYTE   UNIT     CODE           ?PR?_UART_RS485_PUTARRAY?UART_RS485
   *DEL*:           000003H   BYTE   UNIT     XDATA          ?XD?_UART_RS485_PUTARRAY?UART_RS485
   *DEL*:           000014H   BYTE   UNIT     CODE           ?PR?_UART_RS485_PUTCRLF?UART_RS485
   *DEL*:           000017H   BYTE   UNIT     CODE           ?PR?UART_RS485_GETTXBUFFERSIZE?UART_RS485
   *DEL*:           000059H   BYTE   UNIT     CODE           ?PR?_UART_RS485_SENDBREAK?UART_RS485
   *DEL*:           000001H   BYTE   UNIT     XDATA          ?XD?_UART_RS485_SENDBREAK?UART_RS485
   *DEL*:           000006H   BYTE   UNIT     CODE           ?PR?_UART_RS485_SETTXADDRESSMODE?UART_RS485
   *DEL*:           000001H   BYTE   UNIT     XDATA          ?XD?_UART_RS485_SETTXADDRESSMODE?UART_RS485
   *DEL*:           000013H   BYTE   UNIT     CODE           ?PR?ISR_RS485_RX_START?ISR_RS485_RX
   *DEL*:           000004H   BYTE   UNIT     CODE           ?PR?ISR_RS485_RX_STOP?ISR_RS485_RX
   *DEL*:           00000AH   BYTE   UNIT     CODE           ?PR?ISR_RS485_RX_GETVECTOR?ISR_RS485_RX
   *DEL*:           00000BH   BYTE   UNIT     CODE           ?PR?ISR_RS485_RX_GETPRIORITY?ISR_RS485_RX
   *DEL*:           00000EH   BYTE   UNIT     CODE           ?PR?ISR_RS485_RX_GETSTATE?ISR_RS485_RX
   *DEL*:           000007H   BYTE   UNIT     CODE           ?PR?ISR_RS485_RX_SETPENDING?ISR_RS485_RX
   *DEL*:           000007H   BYTE   UNIT     CODE           ?PR?ISR_RS485_RX_CLEARPENDING?ISR_RS485_RX
   *DEL*:           000016H   BYTE   UNIT     CODE           ?PR?PACER_TIMER_STOP?PACER_TIMER
   *DEL*:           00000AH   BYTE   UNIT     CODE           ?PR?PACER_TIMER_SOFTWARECAPTURE?PACER_TIMER
   *DEL*:           000006H   BYTE   UNIT     CODE           ?PR?PACER_TIMER_READSTATUSREGISTER?PACER_TIMER
   *DEL*:           000006H   BYTE   UNIT     CODE           ?PR?PACER_TIMER_READCONTROLREGISTER?PACER_TIMER
   *DEL*:           000006H   BYTE   UNIT     CODE           ?PR?_PACER_TIMER_WRITECONTROLREGISTER?PACER_TIMER
   *DEL*:           00000AH   BYTE   UNIT     CODE           ?PR?PACER_TIMER_READPERIOD?PACER_TIMER
   *DEL*:           00000AH   BYTE   UNIT     CODE           ?PR?PACER_TIMER_READCAPTURE?PACER_TIMER
   *DEL*:           000013H   BYTE   UNIT     CODE           ?PR?PACER_TIMER_READCOUNTER?PACER_TIMER
   *DEL*:           00000FH   BYTE   UNIT     CODE           ?PR?CLOCK_UART_START?CLOCK_UART
   *DEL*:           00000FH   BYTE   UNIT     CODE           ?PR?CLOCK_UART_STOP?CLOCK_UART
   *DEL*:           00006DH   BYTE   UNIT     CODE           ?PR?CLOCK_UART_STOPBLOCK?CLOCK_UART
LX51 LINKER/LOCATER V4.64.0.0                                                         01/12/2017  16:14:04  PAGE 8


   *DEL*:           000002H   BYTE   UNIT     XDATA          ?XD?CLOCK_UART_STOPBLOCK?CLOCK_UART
   *DEL*:           000013H   BYTE   UNIT     CODE           ?PR?_CLOCK_UART_STANDBYPOWER?CLOCK_UART
   *DEL*:           00000DH   BYTE   UNIT     CODE           ?PR?_CLOCK_UART_SETMODEREGISTER?CLOCK_UART
   *DEL*:           00000EH   BYTE   UNIT     CODE           ?PR?_CLOCK_UART_CLEARMODEREGISTER?CLOCK_UART
   *DEL*:           000008H   BYTE   UNIT     CODE           ?PR?CLOCK_UART_GETMODEREGISTER?CLOCK_UART
   *DEL*:           000062H   BYTE   UNIT     CODE           ?PR?_CLOCK_UART_SETSOURCEREGISTER?CLOCK_UART
   *DEL*:           000003H   BYTE   UNIT     XDATA          ?XD?_CLOCK_UART_SETSOURCEREGISTER?CLOCK_UART
   *DEL*:           000004H   BYTE   UNIT     CODE           ?PR?EEPROM_STOP?EEPROM
   *DEL*:           000124H   BYTE   UNIT     CODE           ?PR?_EEPROM_WRITEBYTE?EEPROM
   *DEL*:           000008H   BYTE   UNIT     XDATA          ?XD?_EEPROM_WRITEBYTE?EEPROM
   *DEL*:           00003AH   BYTE   UNIT     CODE           ?PR?_EEPROM_READBYTE?EEPROM
   *DEL*:           000004H   BYTE   UNIT     XDATA          ?XD?_EEPROM_READBYTE?EEPROM
   *DEL*:           000004H   BYTE   UNIT     CODE           ?PR?EEPROM_UPDATETEMPERATURE?EEPROM
   *DEL*:           00006FH   BYTE   UNIT     CODE           ?PR?_EEPROM_ERASESECTOR?EEPROM
   *DEL*:           000002H   BYTE   UNIT     XDATA          ?XD?_EEPROM_ERASESECTOR?EEPROM
   *DEL*:           0000B9H   BYTE   UNIT     CODE           ?PR?_EEPROM_STARTWRITE?EEPROM
   *DEL*:           000005H   BYTE   UNIT     XDATA          ?XD?_EEPROM_STARTWRITE?EEPROM
   *DEL*:           000046H   BYTE   UNIT     CODE           ?PR?_EEPROM_STARTERASE?EEPROM
   *DEL*:           000002H   BYTE   UNIT     XDATA          ?XD?_EEPROM_STARTERASE?EEPROM
   *DEL*:           00003BH   BYTE   UNIT     CODE           ?PR?EEPROM_QUERY?EEPROM
   *DEL*:           000001H   BYTE   UNIT     XDATA          ?XD?EEPROM_QUERY?EEPROM
   *DEL*:           0000E5H   BYTE   UNIT     CODE           ?PR?_EEPROM_BYTEWRITEPOS?EEPROM
   *DEL*:           000004H   BYTE   UNIT     XDATA          ?XD?_EEPROM_BYTEWRITEPOS?EEPROM
   *DEL*:           000006H   BYTE   UNIT     CODE           ?PR?RS485_CTS_READ?RS485_CTS
   *DEL*:           0000FBH   BYTE   UNIT     CODE           ?PR?_BOOTLOADABLE_SETFLASHBYTE?BOOTLOADABLE
   *DEL*:           000110H   BYTE   UNIT     XDATA          ?XD?_BOOTLOADABLE_SETFLASHBYTE?BOOTLOADABLE
   *DEL*:           000006H   BYTE   UNIT     CODE           ?PR?FTDI_ENABLE_REG_READ?FTDI_ENABLE_REG
   *DEL*:           000006H   BYTE   UNIT     CODE           ?PR?RESET_FF_READ?RESET_FF
   *DEL*:           00000EH   BYTE   UNIT     CODE           ?PR?FF_STATUS_INTERRUPTENABLE?FF_STATUS
   *DEL*:           00000EH   BYTE   UNIT     CODE           ?PR?FF_STATUS_INTERRUPTDISABLE?FF_STATUS
   *DEL*:           000009H   BYTE   UNIT     CODE           ?PR?_FF_STATUS_WRITEMASK?FF_STATUS
   *DEL*:           000006H   BYTE   UNIT     CODE           ?PR?FF_STATUS_READMASK?FF_STATUS
   *DEL*:           000008H   BYTE   UNIT     CODE           ?PR?MY_TIMER_STOP?MY_TIMER
   *DEL*:           000006H   BYTE   UNIT     CODE           ?PR?MY_TIMER_SOFTWARECAPTURE?MY_TIMER
   *DEL*:           000006H   BYTE   UNIT     CODE           ?PR?MY_TIMER_READCONTROLREGISTER?MY_TIMER
   *DEL*:           000006H   BYTE   UNIT     CODE           ?PR?_MY_TIMER_WRITECONTROLREGISTER?MY_TIMER
   *DEL*:           00000AH   BYTE   UNIT     CODE           ?PR?MY_TIMER_READPERIOD?MY_TIMER
   *DEL*:           000031H   BYTE   UNIT     CODE           ?PR?CYFLASH_START?CYFLASH
   *DEL*:           000015H   BYTE   UNIT     CODE           ?PR?CYFLASH_STOP?CYFLASH
   *DEL*:           00007DH   BYTE   UNIT     CODE           ?PR?_CYSETFLASHEEBUFFER?CYFLASH
   *DEL*:           000004H   BYTE   UNIT     XDATA          ?XD?_CYSETFLASHEEBUFFER?CYFLASH
   *DEL*:           000034H   BYTE   UNIT     CODE           ?PR?_CYWRITEROWDATA?CYFLASH
   *DEL*:           000003H   BYTE   UNIT     XDATA          ?XD?_CYWRITEROWDATA?CYFLASH
   *DEL*:           000190H   BYTE   UNIT     CODE           ?PR?_CYWRITEROWFULL?CYFLASH
   *DEL*:           000009H   BYTE   UNIT     XDATA          ?XD?_CYWRITEROWFULL?CYFLASH
   *DEL*:           000044H   BYTE   UNIT     CODE           ?PR?_CYFLASH_SETWAITCYCLES?CYFLASH
   *DEL*:           000001H   BYTE   UNIT     XDATA          ?XD?_CYFLASH_SETWAITCYCLES?CYFLASH
   *DEL*:           000015H   BYTE   UNIT     CODE           ?PR?CYEEPROM_STOP?CYFLASH
   *DEL*:           000010H   BYTE   UNIT     CODE           ?PR?CYEEPROM_READRESERVE?CYFLASH
   *DEL*:           000008H   BYTE   UNIT     CODE           ?PR?CYEEPROM_READRELEASE?CYFLASH
   *DEL*:           00006EH   BYTE   UNIT     CODE           ?PR?_CYPLL_OUT_START?CYLIB
   *DEL*:           000004H   BYTE   UNIT     XDATA          ?XD?_CYPLL_OUT_START?CYLIB
   *DEL*:           000008H   BYTE   UNIT     CODE           ?PR?CYPLL_OUT_STOP?CYLIB
   *DEL*:           000036H   BYTE   UNIT     CODE           ?PR?_CYPLL_OUT_SETPQ?CYLIB
   *DEL*:           000010H   BYTE   UNIT     CODE           ?PR?_CYPLL_OUT_SETSOURCE?CYLIB
   *DEL*:           000053H   BYTE   UNIT     CODE           ?PR?_CYIMO_START?CYLIB
   *DEL*:           000003H   BYTE   UNIT     XDATA          ?XD?_CYIMO_START?CYLIB
   *DEL*:           00000FH   BYTE   UNIT     CODE           ?PR?CYIMO_STOP?CYLIB
   *DEL*:           000027H   BYTE   UNIT     CODE           ?PR?CYUSB_POWERONCHECK?CYLIB
   *DEL*:           0000B6H   BYTE   UNIT     CODE           ?PR?_CYIMO_SETTRIMVALUE?CYLIB
   *DEL*:           000001H   BYTE   UNIT     XDATA          ?XD?_CYIMO_SETTRIMVALUE?CYLIB
   *DEL*:           000118H   BYTE   UNIT     CODE           ?PR?_CYIMO_SETFREQ?CYLIB
   *DEL*:           000003H   BYTE   UNIT     XDATA          ?XD?_CYIMO_SETFREQ?CYLIB
   *DEL*:           00002FH   BYTE   UNIT     CODE           ?PR?_CYIMO_SETSOURCE?CYLIB
   *DEL*:           000008H   BYTE   UNIT     CODE           ?PR?CYIMO_ENABLEDOUBLER?CYLIB
LX51 LINKER/LOCATER V4.64.0.0                                                         01/12/2017  16:14:04  PAGE 9


   *DEL*:           000008H   BYTE   UNIT     CODE           ?PR?CYIMO_DISABLEDOUBLER?CYLIB
   *DEL*:           00000DH   BYTE   UNIT     CODE           ?PR?_CYMASTERCLK_SETSOURCE?CYLIB
   *DEL*:           000006H   BYTE   UNIT     CODE           ?PR?_CYMASTERCLK_SETDIVIDER?CYLIB
   *DEL*:           000023H   BYTE   UNIT     CODE           ?PR?_CYBUSCLK_INTERNAL_SETDIVIDER?CYLIB
   *DEL*:           00007AH   BYTE   UNIT     CODE           ?PR?_CYBUSCLK_SETDIVIDER?CYLIB
   *DEL*:           000002H   BYTE   UNIT     XDATA          ?XD?_CYBUSCLK_SETDIVIDER?CYLIB
   *DEL*:           00000EH   BYTE   UNIT     CODE           ?PR?_CYCPUCLK_SETDIVIDER?CYLIB
   *DEL*:           00000DH   BYTE   UNIT     CODE           ?PR?_CYUSBCLK_SETSOURCE?CYLIB
   *DEL*:           000008H   BYTE   UNIT     CODE           ?PR?CYILO_START1K?CYLIB
   *DEL*:           000008H   BYTE   UNIT     CODE           ?PR?CYILO_STOP1K?CYLIB
   *DEL*:           000008H   BYTE   UNIT     CODE           ?PR?CYILO_START100K?CYLIB
   *DEL*:           000008H   BYTE   UNIT     CODE           ?PR?CYILO_STOP100K?CYLIB
   *DEL*:           000008H   BYTE   UNIT     CODE           ?PR?CYILO_ENABLE33K?CYLIB
   *DEL*:           000008H   BYTE   UNIT     CODE           ?PR?CYILO_DISABLE33K?CYLIB
   *DEL*:           000011H   BYTE   UNIT     CODE           ?PR?_CYILO_SETSOURCE?CYLIB
   *DEL*:           000029H   BYTE   UNIT     CODE           ?PR?_CYILO_SETPOWERMODE?CYLIB
   *DEL*:           00005EH   BYTE   UNIT     CODE           ?PR?CYXTAL_32KHZ_START?CYLIB
   *DEL*:           000002H   BYTE   UNIT     XDATA          ?XD?CYXTAL_32KHZ_START?CYLIB
   *DEL*:           000020H   BYTE   UNIT     CODE           ?PR?CYXTAL_32KHZ_STOP?CYLIB
   *DEL*:           000008H   BYTE   UNIT     CODE           ?PR?CYXTAL_32KHZ_READSTATUS?CYLIB
   *DEL*:           000066H   BYTE   UNIT     CODE           ?PR?_CYXTAL_32KHZ_SETPOWERMODE?CYLIB
   *DEL*:           000001H   BYTE   UNIT     XDATA          ?XD?_CYXTAL_32KHZ_SETPOWERMODE?CYLIB
   *DEL*:           0000A0H   BYTE   UNIT     CODE           ?PR?_CYXTAL_START?CYLIB
   *DEL*:           000006H   BYTE   UNIT     XDATA          ?XD?_CYXTAL_START?CYLIB
   *DEL*:           000008H   BYTE   UNIT     CODE           ?PR?CYXTAL_STOP?CYLIB
   *DEL*:           000008H   BYTE   UNIT     CODE           ?PR?CYXTAL_ENABLEERRSTATUS?CYLIB
   *DEL*:           000008H   BYTE   UNIT     CODE           ?PR?CYXTAL_DISABLEERRSTATUS?CYLIB
   *DEL*:           00000FH   BYTE   UNIT     CODE           ?PR?CYXTAL_READSTATUS?CYLIB
   *DEL*:           000008H   BYTE   UNIT     CODE           ?PR?CYXTAL_ENABLEFAULTRECOVERY?CYLIB
   *DEL*:           000008H   BYTE   UNIT     CODE           ?PR?CYXTAL_DISABLEFAULTRECOVERY?CYLIB
   *DEL*:           00000DH   BYTE   UNIT     CODE           ?PR?_CYXTAL_SETSTARTUP?CYLIB
   *DEL*:           00000DH   BYTE   UNIT     CODE           ?PR?_CYXTAL_SETFBVOLTAGE?CYLIB
   *DEL*:           00000EH   BYTE   UNIT     CODE           ?PR?_CYXTAL_SETWDVOLTAGE?CYLIB
   *DEL*:           000015H   BYTE   UNIT     CODE           ?PR?_?CYHALT?CYLIB
   *DEL*:           0000B8H   BYTE   UNIT     CODE           ?PR?_?CYDELAYFREQ?CYLIB
   *DEL*:           000026H   BYTE   UNIT     CODE           ?PR?_CYWDTSTART?CYLIB
   *DEL*:           000007H   BYTE   UNIT     CODE           ?PR?CYWDTCLEAR?CYLIB
   *DEL*:           000084H   BYTE   UNIT     CODE           ?PR?_CYVDLVDIGITENABLE?CYLIB
   *DEL*:           000007H   BYTE   UNIT     XDATA          ?XD?_CYVDLVDIGITENABLE?CYLIB
   *DEL*:           000083H   BYTE   UNIT     CODE           ?PR?_CYVDLVANALOGENABLE?CYLIB
   *DEL*:           000007H   BYTE   UNIT     XDATA          ?XD?_CYVDLVANALOGENABLE?CYLIB
   *DEL*:           00001DH   BYTE   UNIT     CODE           ?PR?CYVDLVDIGITDISABLE?CYLIB
   *DEL*:           000018H   BYTE   UNIT     CODE           ?PR?CYVDLVANALOGDISABLE?CYLIB
   *DEL*:           000056H   BYTE   UNIT     CODE           ?PR?CYVDHVANALOGENABLE?CYLIB
   *DEL*:           000005H   BYTE   UNIT     XDATA          ?XD?CYVDHVANALOGENABLE?CYLIB
   *DEL*:           000011H   BYTE   UNIT     CODE           ?PR?CYVDHVANALOGDISABLE?CYLIB
   *DEL*:           000039H   BYTE   UNIT     CODE           ?PR?_CYVDSTICKYSTATUS?CYLIB
   *DEL*:           000002H   BYTE   UNIT     XDATA          ?XD?_CYVDSTICKYSTATUS?CYLIB
   *DEL*:           000018H   BYTE   UNIT     CODE           ?PR?CYVDREALTIMESTATUS?CYLIB
   *DEL*:           000001H   BYTE   UNIT     XDATA          ?XD?CYVDREALTIMESTATUS?CYLIB
   *DEL*:           0000D0H   BYTE   UNIT     CODE           ?PR?CYDISABLEINTS?CYLIB
   *DEL*:           000005H   BYTE   UNIT     XDATA          ?XD?CYDISABLEINTS?CYLIB
   *DEL*:           000067H   BYTE   UNIT     CODE           ?PR?_CYENABLEINTS?CYLIB
   *DEL*:           000004H   BYTE   UNIT     XDATA          ?XD?_CYENABLEINTS?CYLIB
   *DEL*:           000018H   BYTE   UNIT     CODE           ?PR?_CYINTGETVECTOR?CYLIB
   *DEL*:           000014H   BYTE   UNIT     CODE           ?PR?_CYINTGETPRIORITY?CYLIB
   *DEL*:           000036H   BYTE   UNIT     CODE           ?PR?_CYINTGETSTATE?CYLIB
   *DEL*:           000248H   BYTE   UNIT     CODE           ?PR?_CYGETUNIQUEID?CYLIB
   *DEL*:           000003H   BYTE   UNIT     XDATA          ?XD?_CYGETUNIQUEID?CYLIB
   *DEL*:           000013H   BYTE   UNIT     CODE           ?PR?ISR_WATCHDOG_START?ISR_WATCHDOG
   *DEL*:           000004H   BYTE   UNIT     CODE           ?PR?ISR_WATCHDOG_STOP?ISR_WATCHDOG
   *DEL*:           00000AH   BYTE   UNIT     CODE           ?PR?ISR_WATCHDOG_GETVECTOR?ISR_WATCHDOG
   *DEL*:           00000BH   BYTE   UNIT     CODE           ?PR?ISR_WATCHDOG_GETPRIORITY?ISR_WATCHDOG
   *DEL*:           00000EH   BYTE   UNIT     CODE           ?PR?ISR_WATCHDOG_GETSTATE?ISR_WATCHDOG
   *DEL*:           000007H   BYTE   UNIT     CODE           ?PR?ISR_WATCHDOG_SETPENDING?ISR_WATCHDOG
LX51 LINKER/LOCATER V4.64.0.0                                                         01/12/2017  16:14:04  PAGE 10


   *DEL*:           000007H   BYTE   UNIT     CODE           ?PR?ISR_WATCHDOG_CLEARPENDING?ISR_WATCHDOG
   *DEL*:           000016H   BYTE   UNIT     CODE           ?PR?WATCHDOG_COUNTER_STOP?WATCHDOG_COUNTER
   *DEL*:           000006H   BYTE   UNIT     CODE           ?PR?WATCHDOG_COUNTER_READSTATUSREGISTER?WATCHDOG_COUNTER
   *DEL*:           000006H   BYTE   UNIT     CODE           ?PR?WATCHDOG_COUNTER_READCONTROLREGISTER?WATCHDOG_COUNTER
   *DEL*:           000006H   BYTE   UNIT     CODE           ?PR?_WATCHDOG_COUNTER_WRITECONTROLREGISTER?WATCHDOG_COUNTE
                                                             -R
   *DEL*:           000013H   BYTE   UNIT     CODE           ?PR?WATCHDOG_COUNTER_READCOUNTER?WATCHDOG_COUNTER
   *DEL*:           00000AH   BYTE   UNIT     CODE           ?PR?WATCHDOG_COUNTER_READCAPTURE?WATCHDOG_COUNTER
   *DEL*:           00000AH   BYTE   UNIT     CODE           ?PR?WATCHDOG_COUNTER_READPERIOD?WATCHDOG_COUNTER
   *DEL*:           000006H   BYTE   UNIT     CODE           ?PR?WATCHDOG_ENABLER_READ?WATCHDOG_ENABLER
   *DEL*:           000006H   BYTE   UNIT     CODE           ?PR?WATCHDOG_REFRESH_READ?WATCHDOG_REFRESH
   *DEL*:           00001EH   BYTE   UNIT     CODE           ?PR?SPI_IMU_STOP?SPI_IMU
   *DEL*:           000001H   BYTE   UNIT     CODE           ?PR?SPI_IMU_DISABLETXINT?SPI_IMU
   *DEL*:           000001H   BYTE   UNIT     CODE           ?PR?SPI_IMU_DISABLERXINT?SPI_IMU
   *DEL*:           000006H   BYTE   UNIT     CODE           ?PR?_SPI_IMU_SETTXINTERRUPTMODE?SPI_IMU
   *DEL*:           000006H   BYTE   UNIT     CODE           ?PR?_SPI_IMU_SETRXINTERRUPTMODE?SPI_IMU
   *DEL*:           00000EH   BYTE   UNIT     CODE           ?PR?SPI_IMU_GETRXBUFFERSIZE?SPI_IMU
   *DEL*:           000017H   BYTE   UNIT     CODE           ?PR?SPI_IMU_GETTXBUFFERSIZE?SPI_IMU
   *DEL*:           00002EH   BYTE   UNIT     CODE           ?PR?_SPI_IMU_PUTARRAY?SPI_IMU
   *DEL*:           000003H   BYTE   UNIT     XDATA          ?XD?_SPI_IMU_PUTARRAY?SPI_IMU
   *DEL*:           000007H   BYTE   UNIT     CODE           ?PR?SPI_IMU_ENABLEINT?SPI_IMU
   *DEL*:           000007H   BYTE   UNIT     CODE           ?PR?SPI_IMU_DISABLEINT?SPI_IMU
   *DEL*:           00000DH   BYTE   UNIT     CODE           ?PR?_SPI_IMU_SETINTERRUPTMODE?SPI_IMU
   *DEL*:           000013H   BYTE   UNIT     CODE           ?PR?ISR_IMU_START?ISR_IMU
   *DEL*:           00001FH   BYTE   UNIT     CODE           ?PR?_ISR_IMU_STARTEX?ISR_IMU
   *DEL*:           000002H   BYTE   UNIT     XDATA          ?XD?_ISR_IMU_STARTEX?ISR_IMU
   *DEL*:           000004H   BYTE   UNIT     CODE           ?PR?ISR_IMU_STOP?ISR_IMU
   *DEL*:           00000EH   BYTE   UNIT     CODE           ?PR?_ISR_IMU_SETVECTOR?ISR_IMU
   *DEL*:           00000AH   BYTE   UNIT     CODE           ?PR?ISR_IMU_GETVECTOR?ISR_IMU
   *DEL*:           00000AH   BYTE   UNIT     CODE           ?PR?_ISR_IMU_SETPRIORITY?ISR_IMU
   *DEL*:           00000BH   BYTE   UNIT     CODE           ?PR?ISR_IMU_GETPRIORITY?ISR_IMU
   *DEL*:           000007H   BYTE   UNIT     CODE           ?PR?ISR_IMU_ENABLE?ISR_IMU
   *DEL*:           00000EH   BYTE   UNIT     CODE           ?PR?ISR_IMU_GETSTATE?ISR_IMU
   *DEL*:           000007H   BYTE   UNIT     CODE           ?PR?ISR_IMU_DISABLE?ISR_IMU
   *DEL*:           000007H   BYTE   UNIT     CODE           ?PR?ISR_IMU_SETPENDING?ISR_IMU
   *DEL*:           000007H   BYTE   UNIT     CODE           ?PR?ISR_IMU_CLEARPENDING?ISR_IMU
   *DEL*:           00000DH   BYTE   UNIT     CODE           ?PR?_OPTO_PIN_SETDRIVEMODE?OPTO_PIN
   *DEL*:           000013H   BYTE   UNIT     CODE           ?PR?OPTO_PIN_READ?OPTO_PIN
   *DEL*:           000013H   BYTE   UNIT     CODE           ?PR?OPTO_PIN_READDATAREG?OPTO_PIN
   *DEL*:           000006H   BYTE   UNIT     CODE           ?PR?CHIP_SELECT_A_READ?CHIP_SELECT_A
   *DEL*:           000006H   BYTE   UNIT     CODE           ?PR?CHIP_SELECT_B_READ?CHIP_SELECT_B
   *DEL*:           000014H   BYTE   UNIT     CODE           ?PR?_SETANALOGROUTINGPUMPS?CYFITTER_CFG
   *DEL*:           000004H   BYTE   UNIT     CODE           ?PR?_CyDelay?CYBOOTASMKEIL
   *DEL*:           000019H   BYTE   UNIT     CODE           ?PR?CYMEMZERO?CYMEM
   *DEL*:           00002DH   BYTE   UNIT     CODE           ?PR?CFG_WRITE_BYTES?CYMEM
   *DEL*:           00002EH   BYTE   UNIT     CODE           ?PR?CY_WRITE_BYTES_CODE?CYMEM
   *DEL*:           000015H   BYTE   UNIT     CODE           ?PR?CYREAD32?CYMEM
   *DEL*:           000015H   BYTE   UNIT     CODE           ?PR?CYWRITE32?CYMEM
   *DEL*:           0001A9H   BYTE   UNIT     CODE           ?PR?CYPMSAVECLOCKS?CYPM
   *DEL*:           00024CH   BYTE   UNIT     CODE           ?PR?CYPMRESTORECLOCKS?CYPM
   *DEL*:           000003H   BYTE   UNIT     XDATA          ?XD?CYPMRESTORECLOCKS?CYPM
   *DEL*:           0000E0H   BYTE   UNIT     CODE           ?PR?_CYPMALTACT?CYPM
   *DEL*:           000004H   BYTE   UNIT     XDATA          ?XD?_CYPMALTACT?CYPM
   *DEL*:           000160H   BYTE   UNIT     CODE           ?PR?_CYPMSLEEP?CYPM
   *DEL*:           000004H   BYTE   UNIT     XDATA          ?XD?_CYPMSLEEP?CYPM
   *DEL*:           000008H   BYTE   UNIT     CODE           ?PR?CYPMHIBERNATE?CYPM
   *DEL*:           0000D6H   BYTE   UNIT     CODE           ?PR?_CYPMHIBERNATEEX?CYPM
   *DEL*:           000003H   BYTE   UNIT     XDATA          ?XD?_CYPMHIBERNATEEX?CYPM
   *DEL*:           000039H   BYTE   UNIT     CODE           ?PR?_CYPMREADSTATUS?CYPM
   *DEL*:           000002H   BYTE   UNIT     XDATA          ?XD?_CYPMREADSTATUS?CYPM
   *DEL*:           000076H   BYTE   UNIT     CODE           ?PR?CYPMHIBSAVESET?CYPM
   *DEL*:           000040H   BYTE   UNIT     CODE           ?PR?CYPMHIBRESTORE?CYPM
   *DEL*:           000049H   BYTE   UNIT     CODE           ?PR?_CYPMCTWSETINTERVAL?CYPM
   *DEL*:           000001H   BYTE   UNIT     XDATA          ?XD?_CYPMCTWSETINTERVAL?CYPM
   *DEL*:           000017H   BYTE   UNIT     CODE           ?PR?CYPMOPPSSET?CYPM
LX51 LINKER/LOCATER V4.64.0.0                                                         01/12/2017  16:14:04  PAGE 11


   *DEL*:           00004DH   BYTE   UNIT     CODE           ?PR?_CYPMFTWSETINTERVAL?CYPM
   *DEL*:           000001H   BYTE   UNIT     XDATA          ?XD?_CYPMFTWSETINTERVAL?CYPM
   *DEL*:           00018CH   BYTE   UNIT     CODE           ?PR?CYPMHIBSLPSAVESET?CYPM
   *DEL*:           00010DH   BYTE   UNIT     CODE           ?PR?CYPMHIBSLPRESTORE?CYPM
   *DEL*:           000082H   BYTE   UNIT     CODE           ?PR?CYPMHVILVISAVEDISABLE?CYPM
   *DEL*:           000033H   BYTE   UNIT     CODE           ?PR?CYPMHVILVIRESTORE?CYPM
   *DEL*:           00000EH   BYTE   UNIT     CONST          ?CO?CYPM
   *DEL*:           000015H   BYTE   UNIT     CODE           ?PR?CYSPCSTOP?CYSPC
   *DEL*:           0000A7H   BYTE   UNIT     CODE           ?PR?_CYSPCLOADMULTIBYTE?CYSPC
   *DEL*:           000007H   BYTE   UNIT     XDATA          ?XD?_CYSPCLOADMULTIBYTE?CYSPC
   *DEL*:           000143H   BYTE   UNIT     CODE           ?PR?_CYSPCLOADROWFULL?CYSPC
   *DEL*:           00000FH   BYTE   UNIT     XDATA          ?XD?_CYSPCLOADROWFULL?CYSPC
   *DEL*:           000030H   BYTE   UNIT     CODE           ?PR?_CYSPCERASESECTOR?CYSPC
   *DEL*:           00000FH   BYTE   UNIT     CODE           ?PR?SPI_IMU_INTCLOCK_STOP?SPI_IMU_INTCLOCK
   *DEL*:           00006EH   BYTE   UNIT     CODE           ?PR?SPI_IMU_INTCLOCK_STOPBLOCK?SPI_IMU_INTCLOCK
   *DEL*:           000002H   BYTE   UNIT     XDATA          ?XD?SPI_IMU_INTCLOCK_STOPBLOCK?SPI_IMU_INTCLOCK
   *DEL*:           000013H   BYTE   UNIT     CODE           ?PR?_SPI_IMU_INTCLOCK_STANDBYPOWER?SPI_IMU_INTCLOCK
   *DEL*:           000131H   BYTE   UNIT     CODE           ?PR?_SPI_IMU_INTCLOCK_SETDIVIDERREGISTER?SPI_IMU_INTCLOCK
   *DEL*:           000007H   BYTE   UNIT     XDATA          ?XD?_SPI_IMU_INTCLOCK_SETDIVIDERREGISTER?SPI_IMU_INTCLOCK
   *DEL*:           00000AH   BYTE   UNIT     CODE           ?PR?SPI_IMU_INTCLOCK_GETDIVIDERREGISTER?SPI_IMU_INTCLOCK
   *DEL*:           00000DH   BYTE   UNIT     CODE           ?PR?_SPI_IMU_INTCLOCK_SETMODEREGISTER?SPI_IMU_INTCLOCK
   *DEL*:           00000EH   BYTE   UNIT     CODE           ?PR?_SPI_IMU_INTCLOCK_CLEARMODEREGISTER?SPI_IMU_INTCLOCK
   *DEL*:           000008H   BYTE   UNIT     CODE           ?PR?SPI_IMU_INTCLOCK_GETMODEREGISTER?SPI_IMU_INTCLOCK
   *DEL*:           000062H   BYTE   UNIT     CODE           ?PR?_SPI_IMU_INTCLOCK_SETSOURCEREGISTER?SPI_IMU_INTCLOCK
   *DEL*:           000003H   BYTE   UNIT     XDATA          ?XD?_SPI_IMU_INTCLOCK_SETSOURCEREGISTER?SPI_IMU_INTCLOCK
   *DEL*:           000008H   BYTE   UNIT     CODE           ?PR?SPI_IMU_INTCLOCK_GETSOURCEREGISTER?SPI_IMU_INTCLOCK



OVERLAY MAP OF MODULE:   .\DP8051_Keil_951\Release\firmware.omf (COMMAND_PROCESSING)


FUNCTION/MODULE                                BIT_GROUP   DATA_GROUP   XDATA_GROUP
--> CALLED FUNCTION/MODULE                    START  STOP  START  STOP  START  STOP
===================================================================================
ISR_WATCHDOG_HANDLER/INTERRUPTIONS            ----- -----  ----- -----  ----- -----

*** NEW ROOT ********************************

ISR_RS485_RX_EXINTERRUPT/INTERRUPTIONS        ----- -----  ----- -----  ----- -----

*** NEW ROOT ********************************

ISR_RS485_RX_INTERRUPT/ISR_RS485_RX           ----- -----  ----- -----  ----- -----

*** NEW ROOT ********************************

?C_C51STARTUP                                 ----- -----  ----- -----  ----- -----
  +--> ?CO?KEILSTART?3
  +--> CYFITTER_CFG/CYFITTER_CFG
  +--> MAIN/MAIN
  +--> ?C_INITSEG

?CO?KEILSTART?3                               ----- -----  ----- -----  ----- -----

CYFITTER_CFG/CYFITTER_CFG                     ----- -----  ----- -----  ----- -----
  +--> CYREAD8/CYMEM
  +--> CYWRITE8/CYMEM
  +--> CFG_DMA_INIT/CYFITTER_CFG
  +--> _CYCONFIGCPY/CYMEM
  +--> ?CO?CYFITTER_CFG
  +--> CYCONFIGCPYCODE/CYMEM
  +--> CLOCKSETUP/CYFITTER_CFG
  +--> ANALOGSETDEFAULT/CYFITTER_CFG

LX51 LINKER/LOCATER V4.64.0.0                                                         01/12/2017  16:14:04  PAGE 12


CYREAD8/CYMEM                                 ----- -----  ----- -----  ----- -----

CYWRITE8/CYMEM                                ----- -----  ----- -----  ----- -----

CFG_DMA_INIT/CYFITTER_CFG                     ----- -----  ----- -----  ----- -----
  +--> CYWRITE16/CYMEM
  +--> ?CO?CYFITTER_CFG

CYWRITE16/CYMEM                               ----- -----  ----- -----  ----- -----

?CO?CYFITTER_CFG                              ----- -----  ----- -----  ----- -----

_CYCONFIGCPY/CYMEM                            ----- -----  ----- -----  051DH 0524H

CYCONFIGCPYCODE/CYMEM                         ----- -----  ----- -----  ----- -----

CLOCKSETUP/CYFITTER_CFG                       ----- -----  ----- -----  051DH 0521H
  +--> CYWRITE16/CYMEM
  +--> CYREAD8/CYMEM
  +--> CYDELAYCYCLES/CYBOOTASMKEIL
  +--> _CYCLOCKSTARTUPERROR/CYFITTER_CFG

CYDELAYCYCLES/CYBOOTASMKEIL                   ----- -----  ----- -----  ----- -----

_CYCLOCKSTARTUPERROR/CYFITTER_CFG             ----- -----  ----- -----  ----- -----

ANALOGSETDEFAULT/CYFITTER_CFG                 ----- -----  ----- -----  ----- -----
  +--> CYREAD8/CYMEM

MAIN/MAIN                                     ----- -----  ----- -----  051DH 0521H
  +--> EEPROM_START/EEPROM
  +--> MEMRECALL/COMMAND_PROCESSING
  +--> _?CYDELAY/CYLIB
  +--> _FTDI_ENABLE_REG_WRITE/FTDI_ENABLE_REG
  +--> UART_RS485_STOP/UART_RS485
  +--> UART_RS485_START/UART_RS485
  +--> UART_RS485_INIT/UART_RS485
  +--> UART_RS485_CLEARRXBUFFER/UART_RS485
  +--> UART_RS485_CLEARTXBUFFER/UART_RS485
  +--> _ISR_RS485_RX_STARTEX/ISR_RS485_RX
  +--> WATCHDOG_COUNTER_START/WATCHDOG_COUNTER
  +--> _ISR_WATCHDOG_STARTEX/ISR_WATCHDOG
  +--> _RS485_CTS_WRITE/RS485_CTS
  +--> MY_TIMER_START/MY_TIMER
  +--> PACER_TIMER_START/PACER_TIMER
  +--> SPI_IMU_START/SPI_IMU
  +--> SPI_IMU_INIT/SPI_IMU
  +--> SPI_IMU_ENABLE/SPI_IMU
  +--> SPI_IMU_CLEARRXBUFFER/SPI_IMU
  +--> SPI_IMU_CLEARTXBUFFER/SPI_IMU
  +--> SPI_IMU_CLEARFIFO/SPI_IMU
  +--> _OPTO_PIN_WRITE/OPTO_PIN
  +--> INITIMUGENERAL/IMU_FUNCTIONS
  +--> _RESET_FF_WRITE/RESET_FF
  +--> FUNCTION_SCHEDULER/INTERRUPTIONS
  +--> FF_STATUS_READ/FF_STATUS
  +--> _WATCHDOG_REFRESH_WRITE/WATCHDOG_REFRESH
  +--> INTERRUPT_MANAGER/INTERRUPTIONS
  +--> UART_RS485_READRXSTATUS/UART_RS485

EEPROM_START/EEPROM                           ----- -----  ----- -----  ----- -----
  +--> EEPROM_ENABLE/EEPROM

EEPROM_ENABLE/EEPROM                          ----- -----  ----- -----  ----- -----
  +--> CYSETTEMP/CYFLASH
LX51 LINKER/LOCATER V4.64.0.0                                                         01/12/2017  16:14:04  PAGE 13


  +--> CYEEPROM_START/CYFLASH

CYSETTEMP/CYFLASH                             ----- -----  ----- -----  0529H 0529H
  +--> CYFLASHGETSPCALGORITHM/CYFLASH
  +--> CYSETTEMPINT/CYFLASH

CYFLASHGETSPCALGORITHM/CYFLASH                ----- -----  ----- -----  052AH 052AH
  +--> CYSPCSTART/CYSPC
  +--> CYSPCLOCK/CYSPC
  +--> CYSPCGETALGORITHM/CYSPC
  +--> CYDELAYUS/CYBOOTASMKEIL
  +--> CYSPCUNLOCK/CYSPC

CYSPCSTART/CYSPC                              ----- -----  ----- -----  ----- -----
  +--> CYENTERCRITICALSECTION/CYBOOTASMKEIL
  +--> CYEXITCRITICALSECTION/CYBOOTASMKEIL

CYENTERCRITICALSECTION/CYBOOTASMKEIL          ----- -----  ----- -----  ----- -----

CYEXITCRITICALSECTION/CYBOOTASMKEIL           ----- -----  ----- -----  ----- -----

CYSPCLOCK/CYSPC                               ----- -----  ----- -----  052EH 052EH
  +--> CYENTERCRITICALSECTION/CYBOOTASMKEIL
  +--> CYEXITCRITICALSECTION/CYBOOTASMKEIL

CYSPCGETALGORITHM/CYSPC                       ----- -----  ----- -----  ----- -----

CYDELAYUS/CYBOOTASMKEIL                       ----- -----  ----- -----  ----- -----
  +--> CYDELAYCYCLES/CYBOOTASMKEIL

CYSPCUNLOCK/CYSPC                             ----- -----  ----- -----  ----- -----
  +--> CYENTERCRITICALSECTION/CYBOOTASMKEIL
  +--> CYEXITCRITICALSECTION/CYBOOTASMKEIL

CYSETTEMPINT/CYFLASH                          ----- -----  ----- -----  052AH 052AH
  +--> CYSPCSTART/CYSPC
  +--> CYSPCLOCK/CYSPC
  +--> _CYSPCGETTEMP/CYSPC
  +--> _CYSPCREADDATA/CYSPC
  +--> CYDELAYUS/CYBOOTASMKEIL
  +--> CYSPCUNLOCK/CYSPC

_CYSPCGETTEMP/CYSPC                           ----- -----  ----- -----  ----- -----

_CYSPCREADDATA/CYSPC                          ----- -----  ----- -----  052BH 052FH
  +--> CYDELAYUS/CYBOOTASMKEIL

CYEEPROM_START/CYFLASH                        ----- -----  ----- -----  ----- -----
  +--> CYENTERCRITICALSECTION/CYBOOTASMKEIL
  +--> CYEXITCRITICALSECTION/CYBOOTASMKEIL

MEMRECALL/COMMAND_PROCESSING                  ----- -----  ----- -----  ----- -----
  +--> MEMRESTORE/COMMAND_PROCESSING

MEMRESTORE/COMMAND_PROCESSING                 ----- -----  ----- -----  ----- -----
  +--> MEMINIT/COMMAND_PROCESSING
  +--> _MEMSTORE/COMMAND_PROCESSING

MEMINIT/COMMAND_PROCESSING                    ----- -----  ----- -----  ----- -----
  +--> _MEMSTORE/COMMAND_PROCESSING

_MEMSTORE/COMMAND_PROCESSING                  ----- -----  ----- -----  0522H 0528H
  +--> ISR_RS485_RX_DISABLE/ISR_RS485_RX
  +--> CYSETTEMP/CYFLASH
  +--> _EEPROM_WRITE/EEPROM
LX51 LINKER/LOCATER V4.64.0.0                                                         01/12/2017  16:14:04  PAGE 14


  +--> ISR_RS485_RX_ENABLE/ISR_RS485_RX

ISR_RS485_RX_DISABLE/ISR_RS485_RX             ----- -----  ----- -----  ----- -----

_EEPROM_WRITE/EEPROM                          ----- -----  ----- -----  0529H 052DH
  +--> CYSPCSTART/CYSPC
  +--> CYSPCLOCK/CYSPC
  +--> _CYSPCLOADROW/CYSPC
  +--> _CYSPCWRITEROW/CYSPC
  +--> CYSPCUNLOCK/CYSPC

_CYSPCLOADROW/CYSPC                           ----- -----  ----- -----  052EH 0534H

_CYSPCWRITEROW/CYSPC                          ----- -----  ----- -----  052EH 0532H

ISR_RS485_RX_ENABLE/ISR_RS485_RX              ----- -----  ----- -----  ----- -----

_?CYDELAY/CYLIB                               ----- -----  ----- -----  ----- -----
  +--> CYDELAYCYCLES/CYBOOTASMKEIL

_FTDI_ENABLE_REG_WRITE/FTDI_ENABLE_REG        ----- -----  ----- -----  ----- -----

UART_RS485_STOP/UART_RS485                    ----- -----  ----- -----  ----- -----
  +--> CYENTERCRITICALSECTION/CYBOOTASMKEIL
  +--> CYEXITCRITICALSECTION/CYBOOTASMKEIL

UART_RS485_START/UART_RS485                   ----- -----  ----- -----  ----- -----
  +--> UART_RS485_INIT/UART_RS485
  +--> UART_RS485_ENABLE/UART_RS485

UART_RS485_INIT/UART_RS485                    ----- -----  ----- -----  ----- -----
  +--> _CYINTSETVECTOR/CYLIB
  +--> _CYINTSETPRIORITY/CYLIB

_CYINTSETVECTOR/CYLIB                         ----- -----  ----- -----  0522H 0526H
  +--> CYREAD16/CYMEM
  +--> CYWRITE16/CYMEM

CYREAD16/CYMEM                                ----- -----  ----- -----  ----- -----

_CYINTSETPRIORITY/CYLIB                       ----- -----  ----- -----  ----- -----

UART_RS485_ENABLE/UART_RS485                  ----- -----  ----- -----  ----- -----
  +--> CYENTERCRITICALSECTION/CYBOOTASMKEIL
  +--> CYEXITCRITICALSECTION/CYBOOTASMKEIL

UART_RS485_CLEARRXBUFFER/UART_RS485           ----- -----  ----- -----  ----- -----
  +--> CYENTERCRITICALSECTION/CYBOOTASMKEIL
  +--> CYEXITCRITICALSECTION/CYBOOTASMKEIL

UART_RS485_CLEARTXBUFFER/UART_RS485           ----- -----  ----- -----  ----- -----
  +--> CYENTERCRITICALSECTION/CYBOOTASMKEIL
  +--> CYEXITCRITICALSECTION/CYBOOTASMKEIL

_ISR_RS485_RX_STARTEX/ISR_RS485_RX            ----- -----  ----- -----  0522H 0523H
  +--> ISR_RS485_RX_DISABLE/ISR_RS485_RX
  +--> _ISR_RS485_RX_SETVECTOR/ISR_RS485_RX
  +--> _ISR_RS485_RX_SETPRIORITY/ISR_RS485_RX
  +--> ISR_RS485_RX_ENABLE/ISR_RS485_RX

_ISR_RS485_RX_SETVECTOR/ISR_RS485_RX          ----- -----  ----- -----  ----- -----
  +--> CYWRITE16/CYMEM

_ISR_RS485_RX_SETPRIORITY/ISR_RS485_RX        ----- -----  ----- -----  ----- -----

LX51 LINKER/LOCATER V4.64.0.0                                                         01/12/2017  16:14:04  PAGE 15


WATCHDOG_COUNTER_START/WATCHDOG_COUNTER       ----- -----  ----- -----  ----- -----
  +--> WATCHDOG_COUNTER_INIT/WATCHDOG_COUNTER
  +--> WATCHDOG_COUNTER_ENABLE/WATCHDOG_COUNTER

WATCHDOG_COUNTER_INIT/WATCHDOG_COUNTER        ----- -----  ----- -----  ----- -----
  +--> _WATCHDOG_COUNTER_WRITEPERIOD/WATCHDOG_COUNTER
  +--> _WATCHDOG_COUNTER_WRITECOUNTER/WATCHDOG_COUNTER
  +--> _WATCHDOG_COUNTER_SETINTERRUPTMODE/WATCHDOG_COUNTER

_WATCHDOG_COUNTER_WRITEPERIOD/WATCHDOG_C+     ----- -----  ----- -----  ----- -----
... OUNTER
  +--> CYWRITE16/CYMEM

_WATCHDOG_COUNTER_WRITECOUNTER/WATCHDOG_+     ----- -----  ----- -----  ----- -----
... COUNTER
  +--> CYWRITE16/CYMEM

_WATCHDOG_COUNTER_SETINTERRUPTMODE/WATCH+     ----- -----  ----- -----  ----- -----
... DOG_COUNTER

WATCHDOG_COUNTER_ENABLE/WATCHDOG_COUNTER      ----- -----  ----- -----  ----- -----

_ISR_WATCHDOG_STARTEX/ISR_WATCHDOG            ----- -----  ----- -----  0522H 0523H
  +--> ISR_WATCHDOG_DISABLE/ISR_WATCHDOG
  +--> _ISR_WATCHDOG_SETVECTOR/ISR_WATCHDOG
  +--> _ISR_WATCHDOG_SETPRIORITY/ISR_WATCHDOG
  +--> ISR_WATCHDOG_ENABLE/ISR_WATCHDOG

ISR_WATCHDOG_DISABLE/ISR_WATCHDOG             ----- -----  ----- -----  ----- -----

_ISR_WATCHDOG_SETVECTOR/ISR_WATCHDOG          ----- -----  ----- -----  ----- -----
  +--> CYWRITE16/CYMEM

_ISR_WATCHDOG_SETPRIORITY/ISR_WATCHDOG        ----- -----  ----- -----  ----- -----

ISR_WATCHDOG_ENABLE/ISR_WATCHDOG              ----- -----  ----- -----  ----- -----

_RS485_CTS_WRITE/RS485_CTS                    ----- -----  ----- -----  ----- -----

MY_TIMER_START/MY_TIMER                       ----- -----  ----- -----  ----- -----
  +--> MY_TIMER_INIT/MY_TIMER
  +--> MY_TIMER_ENABLE/MY_TIMER

MY_TIMER_INIT/MY_TIMER                        ----- -----  ----- -----  ----- -----
  +--> _MY_TIMER_WRITEPERIOD/MY_TIMER
  +--> _MY_TIMER_WRITECOUNTER/MY_TIMER
  +--> CYENTERCRITICALSECTION/CYBOOTASMKEIL
  +--> CYEXITCRITICALSECTION/CYBOOTASMKEIL
  +--> MY_TIMER_CLEARFIFO/MY_TIMER
  +--> _MY_TIMER_SETINTERRUPTMODE/MY_TIMER

_MY_TIMER_WRITEPERIOD/MY_TIMER                ----- -----  ----- -----  ----- -----
  +--> CYWRITE24/CYMEM

CYWRITE24/CYMEM                               ----- -----  ----- -----  ----- -----

_MY_TIMER_WRITECOUNTER/MY_TIMER               ----- -----  ----- -----  ----- -----
  +--> CYWRITE24/CYMEM

MY_TIMER_CLEARFIFO/MY_TIMER                   ----- -----  ----- -----  ----- -----
  +--> MY_TIMER_READSTATUSREGISTER/MY_TIMER
  +--> MY_TIMER_READCAPTURE/MY_TIMER

MY_TIMER_READSTATUSREGISTER/MY_TIMER          ----- -----  ----- -----  ----- -----

LX51 LINKER/LOCATER V4.64.0.0                                                         01/12/2017  16:14:04  PAGE 16


MY_TIMER_READCAPTURE/MY_TIMER                 ----- -----  ----- -----  ----- -----
  +--> CYREAD24/CYMEM

CYREAD24/CYMEM                                ----- -----  ----- -----  ----- -----

_MY_TIMER_SETINTERRUPTMODE/MY_TIMER           ----- -----  ----- -----  ----- -----

MY_TIMER_ENABLE/MY_TIMER                      ----- -----  ----- -----  ----- -----

PACER_TIMER_START/PACER_TIMER                 ----- -----  ----- -----  ----- -----
  +--> PACER_TIMER_INIT/PACER_TIMER
  +--> PACER_TIMER_ENABLE/PACER_TIMER

PACER_TIMER_INIT/PACER_TIMER                  ----- -----  ----- -----  ----- -----
  +--> _PACER_TIMER_WRITEPERIOD/PACER_TIMER
  +--> _PACER_TIMER_WRITECOUNTER/PACER_TIMER
  +--> _PACER_TIMER_SETINTERRUPTMODE/PACER_TIMER

_PACER_TIMER_WRITEPERIOD/PACER_TIMER          ----- -----  ----- -----  ----- -----
  +--> CYWRITE16/CYMEM

_PACER_TIMER_WRITECOUNTER/PACER_TIMER         ----- -----  ----- -----  ----- -----
  +--> CYWRITE16/CYMEM

_PACER_TIMER_SETINTERRUPTMODE/PACER_TIME+     ----- -----  ----- -----  ----- -----
... R

PACER_TIMER_ENABLE/PACER_TIMER                ----- -----  ----- -----  ----- -----

SPI_IMU_START/SPI_IMU                         ----- -----  ----- -----  ----- -----
  +--> SPI_IMU_INIT/SPI_IMU
  +--> SPI_IMU_ENABLE/SPI_IMU

SPI_IMU_INIT/SPI_IMU                          ----- -----  ----- -----  ----- -----
  +--> SPI_IMU_CLEARFIFO/SPI_IMU
  +--> SPI_IMU_READTXSTATUS/SPI_IMU
  +--> SPI_IMU_READRXSTATUS/SPI_IMU

SPI_IMU_CLEARFIFO/SPI_IMU                     ----- -----  ----- -----  ----- -----
  +--> CYENTERCRITICALSECTION/CYBOOTASMKEIL
  +--> CYEXITCRITICALSECTION/CYBOOTASMKEIL

SPI_IMU_READTXSTATUS/SPI_IMU                  ----- -----  ----- -----  ----- -----

SPI_IMU_READRXSTATUS/SPI_IMU                  ----- -----  ----- -----  ----- -----

SPI_IMU_ENABLE/SPI_IMU                        ----- -----  ----- -----  ----- -----
  +--> CYENTERCRITICALSECTION/CYBOOTASMKEIL
  +--> CYEXITCRITICALSECTION/CYBOOTASMKEIL
  +--> SPI_IMU_INTCLOCK_START/SPI_IMU_INTCLOCK
  +--> SPI_IMU_ENABLETXINT/SPI_IMU
  +--> SPI_IMU_ENABLERXINT/SPI_IMU

SPI_IMU_INTCLOCK_START/SPI_IMU_INTCLOCK       ----- -----  ----- -----  ----- -----

SPI_IMU_ENABLETXINT/SPI_IMU                   ----- -----  ----- -----  ----- -----

SPI_IMU_ENABLERXINT/SPI_IMU                   ----- -----  ----- -----  ----- -----

SPI_IMU_CLEARRXBUFFER/SPI_IMU                 ----- -----  ----- -----  ----- -----

SPI_IMU_CLEARTXBUFFER/SPI_IMU                 ----- -----  ----- -----  ----- -----
  +--> CYENTERCRITICALSECTION/CYBOOTASMKEIL
  +--> CYEXITCRITICALSECTION/CYBOOTASMKEIL

LX51 LINKER/LOCATER V4.64.0.0                                                         01/12/2017  16:14:04  PAGE 17


_OPTO_PIN_WRITE/OPTO_PIN                      ----- -----  ----- -----  ----- -----

INITIMUGENERAL/IMU_FUNCTIONS                  ----- -----  ----- -----  0522H 0547H
  +--> _CHIPSELECTOR/IMU_FUNCTIONS
  +--> _?CYDELAY/CYLIB
  +--> INITIMUMAGCAL/IMU_FUNCTIONS
  +--> _READMAGCAL/IMU_FUNCTIONS
  +--> _READCONTROLREGISTER/IMU_FUNCTIONS
  +--> _OPTO_PIN_WRITE/OPTO_PIN
  +--> INITIMU/IMU_FUNCTIONS

_CHIPSELECTOR/IMU_FUNCTIONS                   ----- -----  ----- -----  09EFH 09F0H
  +--> _CHIP_SELECT_A_WRITE/CHIP_SELECT_A
  +--> _CHIP_SELECT_B_WRITE/CHIP_SELECT_B

_CHIP_SELECT_A_WRITE/CHIP_SELECT_A            ----- -----  ----- -----  ----- -----

_CHIP_SELECT_B_WRITE/CHIP_SELECT_B            ----- -----  ----- -----  ----- -----

INITIMUMAGCAL/IMU_FUNCTIONS                   ----- -----  ----- -----  ----- -----
  +--> _WRITECONTROLREGISTER/IMU_FUNCTIONS
  +--> _?CYDELAY/CYLIB

_WRITECONTROLREGISTER/IMU_FUNCTIONS           ----- -----  ----- -----  0548H 0549H
  +--> SPI_IMU_CLEARRXBUFFER/SPI_IMU
  +--> SPI_IMU_CLEARTXBUFFER/SPI_IMU
  +--> SPI_IMU_CLEARFIFO/SPI_IMU
  +--> _SPI_IMU_WRITETXDATA/SPI_IMU
  +--> SPI_IMU_READSTATUS/SPI_IMU

_SPI_IMU_WRITETXDATA/SPI_IMU                  ----- -----  ----- -----  ----- -----

SPI_IMU_READSTATUS/SPI_IMU                    ----- -----  ----- -----  ----- -----

_READMAGCAL/IMU_FUNCTIONS                     ----- -----  ----- -----  0548H 054AH
  +--> _READCONTROLREGISTER/IMU_FUNCTIONS

_READCONTROLREGISTER/IMU_FUNCTIONS            ----- -----  ----- -----  ----- -----
  +--> _SPI_IMU_WRITETXDATA/SPI_IMU
  +--> SPI_IMU_READSTATUS/SPI_IMU
  +--> SPI_IMU_READRXDATA/SPI_IMU

SPI_IMU_READRXDATA/SPI_IMU                    ----- -----  ----- -----  ----- -----

INITIMU/IMU_FUNCTIONS                         ----- -----  ----- -----  ----- -----
  +--> _WRITECONTROLREGISTER/IMU_FUNCTIONS
  +--> _?CYDELAY/CYLIB

_RESET_FF_WRITE/RESET_FF                      ----- -----  ----- -----  ----- -----

FUNCTION_SCHEDULER/INTERRUPTIONS              ----- -----  ----- -----  ----- -----
  +--> MY_TIMER_READCOUNTER/MY_TIMER
  +--> INTERRUPT_MANAGER/INTERRUPTIONS
  +--> READALLIMUS/IMU_FUNCTIONS
  +--> _MY_TIMER_WRITECOUNTER/MY_TIMER

MY_TIMER_READCOUNTER/MY_TIMER                 ----- -----  ----- -----  ----- -----
  +--> CYREAD24/CYMEM

INTERRUPT_MANAGER/INTERRUPTIONS               20H.0 20H.0  0008H 0009H  ----- -----
  +--> UART_RS485_GETRXBUFFERSIZE/UART_RS485
  +--> UART_RS485_GETCHAR/UART_RS485
  +--> _INFOGET/COMMAND_PROCESSING
  +--> COMMPROCESS/COMMAND_PROCESSING
  +--> _RS485_CTS_WRITE/RS485_CTS
LX51 LINKER/LOCATER V4.64.0.0                                                         01/12/2017  16:14:04  PAGE 18



UART_RS485_GETRXBUFFERSIZE/UART_RS485         ----- -----  ----- -----  ----- -----

UART_RS485_GETCHAR/UART_RS485                 ----- -----  ----- -----  ----- -----

_INFOGET/COMMAND_PROCESSING                   ----- -----  ----- -----  ----- -----
  +--> _INFOPREPARE/COMMAND_PROCESSING
  +--> _UART_RS485_PUTSTRING/UART_RS485

_INFOPREPARE/COMMAND_PROCESSING               ----- -----  ----- -----  0522H 058AH
  +--> ?CO?COMMAND_PROCESSING
  +--> _STRCAT/STRCAT
  +--> PRINTF/PRINTF

?CO?COMMAND_PROCESSING                        ----- -----  ----- -----  ----- -----

_STRCAT/STRCAT                                ----- -----  ----- -----  058BH 0593H

PRINTF/PRINTF                                 20H.1 21H.1  0014H 0018H  09BDH 09ECH
  +--> PUTCHAR/PUTCHAR

PUTCHAR/PUTCHAR                               ----- -----  ----- -----  ----- -----

_UART_RS485_PUTSTRING/UART_RS485              ----- -----  ----- -----  0522H 0524H
  +--> _UART_RS485_PUTCHAR/UART_RS485

_UART_RS485_PUTCHAR/UART_RS485                ----- -----  ----- -----  ----- -----

COMMPROCESS/COMMAND_PROCESSING                ----- -----  000AH 000AH  ----- -----
  +--> _LCRCHECKSUM/COMMAND_PROCESSING
  +--> CMD_ACTIVATE/COMMAND_PROCESSING
  +--> CMD_SET_INPUTS/COMMAND_PROCESSING
  +--> CMD_GET_MEASUREMENTS/COMMAND_PROCESSING
  +--> CMD_GET_CURRENTS/COMMAND_PROCESSING
  +--> CMD_GET_EMG/COMMAND_PROCESSING
  +--> CMD_SET_WATCHDOG/COMMAND_PROCESSING
  +--> CMD_GET_ACTIVATE/COMMAND_PROCESSING
  +--> CMD_SET_BAUDRATE/COMMAND_PROCESSING
  +--> CMD_GET_INPUTS/COMMAND_PROCESSING
  +--> _INFOGET/COMMAND_PROCESSING
  +--> SETZEROS/COMMAND_PROCESSING
  +--> _GET_PARAM_LIST/COMMAND_PROCESSING
  +--> CMD_PING/COMMAND_PROCESSING
  +--> CMD_STORE_PARAMS/COMMAND_PROCESSING
  +--> _MEMSTORE/COMMAND_PROCESSING
  +--> _SENDACKNOWLEDGMENT/COMMAND_PROCESSING
  +--> MEMRESTORE/COMMAND_PROCESSING
  +--> MEMINIT/COMMAND_PROCESSING
  +--> _?CYDELAY/CYLIB
  +--> _FTDI_ENABLE_REG_WRITE/FTDI_ENABLE_REG
  +--> BOOTLOADABLE_LOAD/BOOTLOADABLE
  +--> CMD_GET_IMU_READINGS/COMMAND_PROCESSING

_LCRCHECKSUM/COMMAND_PROCESSING               ----- -----  0014H 0015H  09BDH 09BFH

CMD_ACTIVATE/COMMAND_PROCESSING               ----- -----  ----- -----  ----- -----

CMD_SET_INPUTS/COMMAND_PROCESSING             ----- -----  ----- -----  ----- -----

CMD_GET_MEASUREMENTS/COMMAND_PROCESSING       ----- -----  ----- -----  ----- -----

CMD_GET_CURRENTS/COMMAND_PROCESSING           ----- -----  ----- -----  ----- -----

CMD_GET_EMG/COMMAND_PROCESSING                ----- -----  ----- -----  ----- -----

LX51 LINKER/LOCATER V4.64.0.0                                                         01/12/2017  16:14:04  PAGE 19


CMD_SET_WATCHDOG/COMMAND_PROCESSING           ----- -----  ----- -----  ----- -----
  +--> _WATCHDOG_ENABLER_WRITE/WATCHDOG_ENABLER
  +--> _WATCHDOG_COUNTER_WRITEPERIOD/WATCHDOG_COUNTER

_WATCHDOG_ENABLER_WRITE/WATCHDOG_ENABLER      ----- -----  ----- -----  ----- -----

CMD_GET_ACTIVATE/COMMAND_PROCESSING           ----- -----  ----- -----  ----- -----

CMD_SET_BAUDRATE/COMMAND_PROCESSING           ----- -----  ----- -----  ----- -----
  +--> _CLOCK_UART_SETDIVIDERREGISTER/CLOCK_UART

_CLOCK_UART_SETDIVIDERREGISTER/CLOCK_UAR+     ----- -----  ----- -----  0522H 0528H
... T
  +--> CLOCK_UART_GETSOURCEREGISTER/CLOCK_UART
  +--> CLOCK_UART_GETDIVIDERREGISTER/CLOCK_UART
  +--> CYWRITE16/CYMEM

CLOCK_UART_GETSOURCEREGISTER/CLOCK_UART       ----- -----  ----- -----  ----- -----

CLOCK_UART_GETDIVIDERREGISTER/CLOCK_UART      ----- -----  ----- -----  ----- -----
  +--> CYREAD16/CYMEM

CMD_GET_INPUTS/COMMAND_PROCESSING             ----- -----  ----- -----  ----- -----

SETZEROS/COMMAND_PROCESSING                   ----- -----  ----- -----  ----- -----

_GET_PARAM_LIST/COMMAND_PROCESSING            ----- -----  000BH 0013H  0522H 09BCH
  +--> ?CO?COMMAND_PROCESSING
  +--> _STRLEN/STRLEN
  +--> PRINTF/PRINTF
  +--> _LCRCHECKSUM/COMMAND_PROCESSING
  +--> _COMMWRITE/COMMAND_PROCESSING
  +--> UART_RS485_CLEARTXBUFFER/UART_RS485

_STRLEN/STRLEN                                ----- -----  ----- -----  ----- -----

_COMMWRITE/COMMAND_PROCESSING                 ----- -----  0014H 0015H  09BDH 09C1H
  +--> _UART_RS485_PUTCHAR/UART_RS485
  +--> UART_RS485_READTXSTATUS/UART_RS485
  +--> _RS485_CTS_WRITE/RS485_CTS

UART_RS485_READTXSTATUS/UART_RS485            ----- -----  ----- -----  ----- -----

CMD_PING/COMMAND_PROCESSING                   ----- -----  ----- -----  0522H 0523H
  +--> _COMMWRITE/COMMAND_PROCESSING

CMD_STORE_PARAMS/COMMAND_PROCESSING           ----- -----  ----- -----  ----- -----
  +--> _MEMSTORE/COMMAND_PROCESSING
  +--> _SENDACKNOWLEDGMENT/COMMAND_PROCESSING

_SENDACKNOWLEDGMENT/COMMAND_PROCESSING        ----- -----  ----- -----  0522H 0523H
  +--> _COMMWRITE/COMMAND_PROCESSING

BOOTLOADABLE_LOAD/BOOTLOADABLE                ----- -----  ----- -----  ----- -----
  +--> CYSOFTWARERESET/CYLIB

CYSOFTWARERESET/CYLIB                         ----- -----  ----- -----  ----- -----

CMD_GET_IMU_READINGS/COMMAND_PROCESSING       ----- -----  ----- -----  0522H 0697H
  +--> _LCRCHECKSUM/COMMAND_PROCESSING
  +--> _COMMWRITE/COMMAND_PROCESSING

READALLIMUS/IMU_FUNCTIONS                     ----- -----  ----- -----  0522H 0523H
  +--> _CHIPSELECTOR/IMU_FUNCTIONS
  +--> _READIMU/IMU_FUNCTIONS
LX51 LINKER/LOCATER V4.64.0.0                                                         01/12/2017  16:14:04  PAGE 20



_READIMU/IMU_FUNCTIONS                        ----- -----  ----- -----  09EFH 09F0H
  +--> _READACC/IMU_FUNCTIONS
  +--> _READGYRO/IMU_FUNCTIONS
  +--> _READMAG/IMU_FUNCTIONS

_READACC/IMU_FUNCTIONS                        ----- -----  ----- -----  09F1H 09F4H
  +--> _READCONTROLREGISTER/IMU_FUNCTIONS

_READGYRO/IMU_FUNCTIONS                       ----- -----  ----- -----  09F1H 09F4H
  +--> _READCONTROLREGISTER/IMU_FUNCTIONS

_READMAG/IMU_FUNCTIONS                        ----- -----  ----- -----  09F1H 09F4H
  +--> _READCONTROLREGISTER/IMU_FUNCTIONS

FF_STATUS_READ/FF_STATUS                      ----- -----  ----- -----  ----- -----

_WATCHDOG_REFRESH_WRITE/WATCHDOG_REFRESH      ----- -----  ----- -----  ----- -----

UART_RS485_READRXSTATUS/UART_RS485            ----- -----  ----- -----  ----- -----

?C_INITSEG                                    ----- -----  ----- -----  ----- -----

*** NEW ROOT ********************************

ISR_WATCHDOG_INTERRUPT/ISR_WATCHDOG           ----- -----  ----- -----  ----- -----

*** NEW ROOT ********************************

ISR_IMU_INTERRUPT/ISR_IMU                     ----- -----  ----- -----  09EDH 09EEH
  +--> _CHIPSELECTOR/IMU_FUNCTIONS
  +--> _READIMU/IMU_FUNCTIONS

*** NEW ROOT ********************************

UART_RS485_RXISR/UART_RS485_INT               ----- -----  ----- -----  ----- -----



PUBLIC SYMBOLS OF MODULE:  .\DP8051_Keil_951\Release\firmware.omf (COMMAND_PROCESSING)


      VALUE       CLASS    TYPE      PUBLIC SYMBOL NAME
      =================================================
*DEL*:00000000H   XDATA    BYTE      ?_Bootloadable_SetFlashByte?BYTE
*DEL*:00000000H   XDATA    BYTE      ?_calc_turns_fcn?BYTE
      0200051DH   XDATA    BYTE      ?_cyconfigcpy?BYTE
*DEL*:00000000H   XDATA    BYTE      ?_CySpcLoadMultiByte?BYTE
      0200052EH   XDATA    BYTE      ?_CySpcLoadRow?BYTE
*DEL*:00000000H   XDATA    BYTE      ?_CySpcLoadRowFull?BYTE
      0200052EH   XDATA    BYTE      ?_CySpcWriteRow?BYTE
*DEL*:00000000H   XDATA    BYTE      ?_CyWriteRowFull?BYTE
*DEL*:00000000H   XDATA    BYTE      ?_my_mod?BYTE
      020009BDH   XDATA    ---       ?_PRINTF?BYTE
      020009BDH   XDATA    ---       ?_SPRINTF?BYTE
      0200058BH   XDATA    ---       ?_strcat?BYTE
      01002DF2H   CODE     ---       ?C?ADDXBP
      0100278BH   CODE     ---       ?C?CASTF
      01002DCCH   CODE     ---       ?C?CCASE
      01002B7DH   CODE     ---       ?C?CLDOPTR
      01002B64H   CODE     ---       ?C?CLDPTR
      00000000H   NUMBER   ---       ?C?CODESEG
      01002F2BH   CODE     ---       ?C?COPYAMD
      01002BAAH   CODE     ---       ?C?CSTPTR
      01002621H   CODE     ---       ?C?FPADD
LX51 LINKER/LOCATER V4.64.0.0                                                         01/12/2017  16:14:04  PAGE 21


      01002714H   CODE     ---       ?C?FPCMP
      01002712H   CODE     ---       ?C?FPCMP3
      01002849H   CODE     ---       ?C?FPCONVERT
      01002A57H   CODE     ---       ?C?FPDIV
      010027C2H   CODE     ---       ?C?FPGETOPN2
      0100294EH   CODE     ---       ?C?FPMUL
      010027F7H   CODE     ---       ?C?FPNANRESULT
      01002801H   CODE     ---       ?C?FPOVERFLOW
      010027D9H   CODE     ---       ?C?FPRESULT
      010027EDH   CODE     ---       ?C?FPRESULT2
      0100280CH   CODE     ---       ?C?FPROUND
      0100261DH   CODE     ---       ?C?FPSUB
      010027FEH   CODE     ---       ?C?FPUNDERFLOW
      01002B24H   CODE     ---       ?C?FTNPWR
      01003026H   CODE     ---       ?C?IILDX
      0100303CH   CODE     ---       ?C?ILDIX
      01002BBCH   CODE     ---       ?C?IMUL
      01002E16H   CODE     ---       ?C?LIMUL
      01003076H   CODE     ---       ?C?LLDCODE
      01003052H   CODE     ---       ?C?LLDIDATA
      0100306AH   CODE     ---       ?C?LLDPDATA
      01002D5AH   CODE     ---       ?C?LLDPTR
      0100305EH   CODE     ---       ?C?LLDXDATA
      01002BCEH   CODE     ---       ?C?LMUL
      01002CEBH   CODE     ---       ?C?LNEG
      01002D47H   CODE     ---       ?C?LSHL
      01003086H   CODE     ---       ?C?LSTIDATA
      01003092H   CODE     ---       ?C?LSTPDATA
      01002D7AH   CODE     ---       ?C?LSTPTR
      01002D94H   CODE     ---       ?C?LSTXDATA
      01002E43H   CODE     ---       ?C?MEMSET
      01002DA0H   CODE     ---       ?C?OFFXADD
      01002DACH   CODE     ---       ?C?PLDIXDATA
      01002DC3H   CODE     ---       ?C?PSTXDATA
      01002CF9H   CODE     ---       ?C?SLCMP
      01006C59H   CODE     ---       ?C?SLDIV
      01002D33H   CODE     ---       ?C?SLSHR
      01003009H   CODE     ---       ?C?STRCPYAMD
      01002D0FH   CODE     ---       ?C?ULCMP
      01002C59H   CODE     ---       ?C?ULDIV
      01002D20H   CODE     ---       ?C?ULSHR
      00000000H   NUMBER   ---       ?C?XDATASEG
      00000000H   NUMBER   ---       ?C?XPAGE1RST
      00000093H   DATA     BYTE      ?C?XPAGE1SFR
      01005BC4H   CODE     ---       ?C_START
      01002600H   CODE     NEAR LAB  ?C_STARTUP
      00000022H   DATA     ---       ?C_XBP
      0100662CH   CODE     ---       _?CyDelay
*DEL*:00000000H   CODE     ---       _?CyDelayFreq
*DEL*:00000000H   CODE     ---       _?CyHalt
*DEL*:00000000H   CODE     ---       _Bootloadable_SetFlashByte
*DEL*:00000000H   CODE     ---       _calc_turns_fcn
*DEL*:00000000H   CODE     NEAR LAB  _cfg_write_bytes
*DEL*:00000000H   CODE     NEAR LAB  _cfg_write_bytes_code
*DEL*:00000000H   CODE     ---       _check_enc_data
      01007504H   CODE     ---       _Chip_Select_A_Write
      0100750AH   CODE     ---       _Chip_Select_B_Write
      01006B85H   CODE     ---       _ChipSelector
*DEL*:00000000H   CODE     ---       _CLOCK_UART_ClearModeRegister
      01005777H   CODE     ---       _CLOCK_UART_SetDividerRegister
*DEL*:00000000H   CODE     ---       _CLOCK_UART_SetModeRegister
*DEL*:00000000H   CODE     ---       _CLOCK_UART_SetSourceRegister
*DEL*:00000000H   CODE     ---       _CLOCK_UART_StandbyPower
      0100659FH   CODE     ---       _commWrite
*DEL*:00000000H   CODE     ---       _CyBusClk_SetDivider
LX51 LINKER/LOCATER V4.64.0.0                                                         01/12/2017  16:14:04  PAGE 22


      01006D86H   CODE     NEAR LAB  _cyconfigcpy
      01006FACH   CODE     NEAR LAB  _cyconfigcpycode
*DEL*:00000000H   CODE     ---       _CyCpuClk_SetDivider
*DEL*:00000000H   CODE     NEAR LAB  _CyDelay
      01006E00H   CODE     NEAR LAB  _CyDelayCycles
      01006F2CH   CODE     NEAR LAB  _CyDelayUs
*DEL*:00000000H   CODE     ---       _CyEnableInts
      010071B3H   CODE     NEAR LAB  _CyExitCriticalSection
*DEL*:00000000H   CODE     ---       _CyFlash_SetWaitCycles
*DEL*:00000000H   CODE     ---       _CyGetUniqueId
*DEL*:00000000H   CODE     ---       _CyILO_SetPowerMode
*DEL*:00000000H   CODE     ---       _CyILO_SetSource
*DEL*:00000000H   CODE     ---       _CyIMO_SetFreq
*DEL*:00000000H   CODE     ---       _CyIMO_SetSource
*DEL*:00000000H   CODE     ---       _CyIMO_Start
*DEL*:00000000H   CODE     ---       _CyIntGetPriority
*DEL*:00000000H   CODE     ---       _CyIntGetState
*DEL*:00000000H   CODE     ---       _CyIntGetVector
      01007169H   CODE     ---       _CyIntSetPriority
      010069F1H   CODE     ---       _CyIntSetVector
*DEL*:00000000H   CODE     ---       _CyMasterClk_SetDivider
*DEL*:00000000H   CODE     ---       _CyMasterClk_SetSource
*DEL*:00000000H   CODE     NEAR LAB  _cymemzero
*DEL*:00000000H   CODE     ---       _CyPLL_OUT_SetPQ
*DEL*:00000000H   CODE     ---       _CyPLL_OUT_SetSource
*DEL*:00000000H   CODE     ---       _CyPLL_OUT_Start
*DEL*:00000000H   CODE     ---       _CyPmAltAct
*DEL*:00000000H   CODE     ---       _CyPmCtwSetInterval
*DEL*:00000000H   CODE     ---       _CyPmFtwSetInterval
*DEL*:00000000H   CODE     ---       _CyPmHibernateEx
*DEL*:00000000H   CODE     ---       _CyPmReadStatus
*DEL*:00000000H   CODE     ---       _CyPmSleep
      01007371H   CODE     NEAR LAB  _cyread16
      01007373H   CODE     NEAR LAB  _cyread16_nodpx
      010072EBH   CODE     NEAR LAB  _cyread24
      010072EDH   CODE     NEAR LAB  _cyread24_nodpx
*DEL*:00000000H   CODE     NEAR LAB  _cyread32
*DEL*:00000002H   CODE     NEAR LAB  _cyread32_nodpx
      0100740BH   CODE     NEAR LAB  _cyread8
      0100740DH   CODE     NEAR LAB  _cyread8_nodpx
*DEL*:00000000H   CODE     ---       _CySetFlashEEBuffer
*DEL*:00000000H   CODE     ---       _CySpcEraseSector
      01006EFDH   CODE     ---       _CySpcGetTemp
*DEL*:00000000H   CODE     ---       _CySpcLoadMultiByte
      01006738H   CODE     ---       _CySpcLoadRow
*DEL*:00000000H   CODE     ---       _CySpcLoadRowFull
      010068E0H   CODE     ---       _CySpcReadData
      01006A45H   CODE     ---       _CySpcWriteRow
*DEL*:00000000H   CODE     ---       _CyUsbClk_SetSource
*DEL*:00000000H   CODE     ---       _CyVdLvAnalogEnable
*DEL*:00000000H   CODE     ---       _CyVdLvDigitEnable
*DEL*:00000000H   CODE     ---       _CyVdStickyStatus
*DEL*:00000000H   CODE     ---       _CyWdtStart
      01007380H   CODE     NEAR LAB  _cywrite16
      01007382H   CODE     NEAR LAB  _cywrite16_nodpx
      01007322H   CODE     NEAR LAB  _cywrite24
      01007324H   CODE     NEAR LAB  _cywrite24_nodpx
*DEL*:00000000H   CODE     NEAR LAB  _cywrite32
*DEL*:00000002H   CODE     NEAR LAB  _cywrite32_nodpx
      01007417H   CODE     NEAR LAB  _cywrite8
      01007419H   CODE     NEAR LAB  _cywrite8_nodpx
*DEL*:00000000H   CODE     ---       _CyWriteRowData
*DEL*:00000000H   CODE     ---       _CyWriteRowFull
*DEL*:00000000H   CODE     ---       _CyXTAL_32KHZ_SetPowerMode
*DEL*:00000000H   CODE     ---       _CyXTAL_SetFbVoltage
LX51 LINKER/LOCATER V4.64.0.0                                                         01/12/2017  16:14:04  PAGE 23


*DEL*:00000000H   CODE     ---       _CyXTAL_SetStartup
*DEL*:00000000H   CODE     ---       _CyXTAL_SetWdVoltage
*DEL*:00000000H   CODE     ---       _CyXTAL_Start
      01002604H   CODE     NEAR LAB  _dma_wait
*DEL*:00000000H   CODE     ---       _EEPROM_ByteWritePos
*DEL*:00000000H   CODE     ---       _EEPROM_EraseSector
*DEL*:00000000H   CODE     ---       _EEPROM_ReadByte
*DEL*:00000000H   CODE     ---       _EEPROM_StartErase
*DEL*:00000000H   CODE     ---       _EEPROM_StartWrite
      010061E2H   CODE     ---       _EEPROM_Write
*DEL*:00000000H   CODE     ---       _EEPROM_WriteByte
*DEL*:00000000H   CODE     ---       _FF_STATUS_WriteMask
*DEL*:00000000H   CODE     ---       _filter_ch1
*DEL*:00000000H   CODE     ---       _filter_ch2
*DEL*:00000000H   CODE     ---       _filter_i1
*DEL*:00000000H   CODE     ---       _filter_v
      010074C2H   CODE     ---       _FTDI_ENABLE_REG_Write
      01003843H   CODE     ---       _get_param_list
      01007150H   CODE     ---       _infoGet
      0100309EH   CODE     ---       _infoPrepare
*DEL*:00000000H   CODE     ---       _isr_imu_SetPriority
*DEL*:00000000H   CODE     ---       _isr_imu_SetVector
*DEL*:00000000H   CODE     ---       _isr_imu_StartEx
      0100742FH   CODE     ---       _ISR_RS485_RX_SetPriority
      0100739EH   CODE     ---       _ISR_RS485_RX_SetVector
      0100709FH   CODE     ---       _ISR_RS485_RX_StartEx
      0100746BH   CODE     ---       _ISR_WATCHDOG_SetPriority
      010073C8H   CODE     ---       _ISR_WATCHDOG_SetVector
      010070BEH   CODE     ---       _ISR_WATCHDOG_StartEx
      01006E3BH   CODE     ---       _LCRChecksum
      010064F2H   CODE     ---       _memStore
*DEL*:00000000H   CODE     ---       _my_mod
*DEL*:00000000H   CODE     ---       _my_round
      010074D4H   CODE     ---       _MY_TIMER_SetInterruptMode
*DEL*:00000000H   CODE     ---       _MY_TIMER_WriteControlRegister
      01007461H   CODE     ---       _MY_TIMER_WriteCounter
      0100744DH   CODE     ---       _MY_TIMER_WritePeriod
*DEL*:00000000H   CODE     ---       _Opto_Pin_SetDriveMode
      01007334H   CODE     ---       _Opto_Pin_Write
      010074B6H   CODE     ---       _PACER_TIMER_SetInterruptMode
*DEL*:00000000H   CODE     ---       _PACER_TIMER_WriteControlRegister
      010073BAH   CODE     ---       _PACER_TIMER_WriteCounter
      010073ACH   CODE     ---       _PACER_TIMER_WritePeriod
      0100455AH   CODE     ---       _PRINTF
      01006F85H   CODE     ---       _PUTCHAR
      01005D14H   CODE     ---       _ReadAcc
      010071CBH   CODE     ---       _ReadControlRegister
      01005E0FH   CODE     ---       _ReadGyro
      01006816H   CODE     ---       _ReadIMU
      01005F0AH   CODE     ---       _ReadMag
      010066B4H   CODE     ---       _ReadMagCal
      010074C8H   CODE     ---       _RESET_FF_Write
      010074BCH   CODE     ---       _RS485_CTS_Write
      0100720EH   CODE     ---       _sendAcknowledgment
*DEL*:00000000H   CODE     ---       _SetAnalogRoutingPumps
*DEL*:00000000H   CODE     ---       _SPI_IMU_IntClock_ClearModeRegister
*DEL*:00000000H   CODE     ---       _SPI_IMU_IntClock_SetDividerRegister
*DEL*:00000000H   CODE     ---       _SPI_IMU_IntClock_SetModeRegister
*DEL*:00000000H   CODE     ---       _SPI_IMU_IntClock_SetSourceRegister
*DEL*:00000000H   CODE     ---       _SPI_IMU_IntClock_StandbyPower
*DEL*:00000000H   CODE     ---       _SPI_IMU_PutArray
*DEL*:00000000H   CODE     ---       _SPI_IMU_SetInterruptMode
*DEL*:00000000H   CODE     ---       _SPI_IMU_SetRxInterruptMode
*DEL*:00000000H   CODE     ---       _SPI_IMU_SetTxInterruptMode
      010073FEH   CODE     ---       _SPI_IMU_WriteTxData
LX51 LINKER/LOCATER V4.64.0.0                                                         01/12/2017  16:14:04  PAGE 24


      01004554H   CODE     ---       _SPRINTF
      010067ABH   CODE     ---       _strcat
      01007262H   CODE     ---       _STRLEN
*DEL*:00000000H   CODE     ---       _UART_RS485_PutArray
      010073E4H   CODE     ---       _UART_RS485_PutChar
*DEL*:00000000H   CODE     ---       _UART_RS485_PutCRLF
      01006D52H   CODE     ---       _UART_RS485_PutString
*DEL*:00000000H   CODE     ---       _UART_RS485_SendBreak
*DEL*:00000000H   CODE     ---       _UART_RS485_SetRxAddress1
*DEL*:00000000H   CODE     ---       _UART_RS485_SetRxAddress2
*DEL*:00000000H   CODE     ---       _UART_RS485_SetRxAddressMode
*DEL*:00000000H   CODE     ---       _UART_RS485_SetRxInterruptMode
*DEL*:00000000H   CODE     ---       _UART_RS485_SetTxAddressMode
*DEL*:00000000H   CODE     ---       _UART_RS485_SetTxInterruptMode
*DEL*:00000000H   CODE     ---       _UART_RS485_WriteControlRegister
*DEL*:00000000H   CODE     ---       _UART_RS485_WriteTxData
      010074E0H   CODE     ---       _WATCHDOG_COUNTER_SetInterruptMode
*DEL*:00000000H   CODE     ---       _WATCHDOG_COUNTER_WriteControlRegister
      01007119H   CODE     ---       _WATCHDOG_COUNTER_WriteCounter
      010073D6H   CODE     ---       _WATCHDOG_COUNTER_WritePeriod
      010074E6H   CODE     ---       _WATCHDOG_ENABLER_Write
      010074ECH   CODE     ---       _WATCHDOG_REFRESH_Write
      01006E9EH   CODE     ---       _WriteControlRegister
*SFR* 000000D0H.6 DATA     BIT       AC
*SFR* 000000E0H   DATA     BYTE      ACC
      0200045AH   XDATA    ---       Accel
      020004C2H   XDATA    ---       ADC_buf
*SFR* 000000F0H   DATA     BYTE      B
      01007443H   CODE     ---       Bootloadable_Load
      02000000H   XDATA    ---       c_mem
*DEL*:00000000H   CODE     ---       calibration
*DEL*:00000000H   CODE     ---       Chip_Select_A_Read
*DEL*:00000000H   CODE     ---       Chip_Select_B_Read
      01007439H   CODE     ---       CLOCK_UART_GetDividerRegister
*DEL*:00000000H   CODE     ---       CLOCK_UART_GetModeRegister
      01007475H   CODE     ---       CLOCK_UART_GetSourceRegister
*DEL*:00000000H   CODE     ---       CLOCK_UART_Start
*DEL*:00000000H   CODE     ---       CLOCK_UART_Stop
*DEL*:00000000H   CODE     ---       CLOCK_UART_StopBlock
      0100751FH   CODE     ---       cmd_activate
      01007520H   CODE     ---       cmd_get_activate
*DEL*:00000000H   CODE     ---       cmd_get_curr_and_meas
      01007521H   CODE     ---       cmd_get_currents
      01007523H   CODE     ---       cmd_get_emg
      01005356H   CODE     ---       cmd_get_imu_readings
      01007522H   CODE     ---       cmd_get_inputs
      0100751DH   CODE     ---       cmd_get_measurements
      01007277H   CODE     ---       cmd_ping
      0100705FH   CODE     ---       cmd_set_baudrate
      0100751EH   CODE     ---       cmd_set_inputs
      01006C9DH   CODE     ---       cmd_set_watchdog
      01007223H   CODE     ---       cmd_store_params
      010059CEH   CODE     ---       commProcess
*SFR* 000000D0H.7 DATA     BIT       CY
      0200109EH   XDATA    DWORD     cydelay_32k_ms
      02001099H   XDATA    DWORD     cydelay_freq_hz
      02001094H   XDATA    DWORD     cydelay_freq_khz
      02001098H   XDATA    BYTE      cydelay_freq_mhz
*DEL*:00000000H   CODE     ---       CyDisableInts
*DEL*:00000000H   CODE     ---       CyEEPROM_ReadRelease
*DEL*:00000000H   CODE     ---       CyEEPROM_ReadReserve
      01006E6DH   CODE     ---       CyEEPROM_Start
*DEL*:00000000H   CODE     ---       CyEEPROM_Stop
      01007238H   CODE     NEAR LAB  CyEnterCriticalSection
      01005C09H   CODE     ---       cyfitter_cfg
LX51 LINKER/LOCATER V4.64.0.0                                                         01/12/2017  16:14:04  PAGE 25


*DEL*:00000000H   CODE     ---       CyFlash_Start
*DEL*:00000000H   CODE     ---       CyFlash_Stop
*DEL*:00000000H   CODE     ---       CyILO_Disable33K
*DEL*:00000000H   CODE     ---       CyILO_Enable33K
*DEL*:00000000H   CODE     ---       CyILO_Start100K
*DEL*:00000000H   CODE     ---       CyILO_Start1K
*DEL*:00000000H   CODE     ---       CyILO_Stop100K
*DEL*:00000000H   CODE     ---       CyILO_Stop1K
*DEL*:00000000H   CODE     ---       CyIMO_DisableDoubler
*DEL*:00000000H   CODE     ---       CyIMO_EnableDoubler
*DEL*:00000000H   CODE     ---       CyIMO_Stop
*DEL*:00000000H   CODE     ---       CyPLL_OUT_Stop
*DEL*:00000000H   CODE     ---       CyPmHibernate
*DEL*:00000000H   CODE     ---       CyPmOppsSet
*DEL*:00000000H   CODE     ---       CyPmRestoreClocks
*DEL*:00000000H   CODE     ---       CyPmSaveClocks
      0200109DH   XDATA    BYTE      CyResetStatus
      0100719BH   CODE     ---       CySetTemp
      01007485H   CODE     ---       CySoftwareReset
      01007135H   CODE     ---       CySpcGetAlgorithm
      010070DDH   CODE     ---       CySpcLock
      0100724DH   CODE     ---       CySpcStart
*DEL*:00000000H   CODE     ---       CySpcStop
      01007423H   CODE     ---       CySpcUnlock
*DEL*:00000000H   CODE     ---       CyVdHvAnalogDisable
*DEL*:00000000H   CODE     ---       CyVdHvAnalogEnable
*DEL*:00000000H   CODE     ---       CyVdLvAnalogDisable
*DEL*:00000000H   CODE     ---       CyVdLvDigitDisable
*DEL*:00000000H   CODE     ---       CyVdRealTimeStatus
*DEL*:00000000H   CODE     ---       CyWdtClear
*DEL*:00000000H   CODE     ---       CyXTAL_32KHZ_ReadStatus
*DEL*:00000000H   CODE     ---       CyXTAL_32KHZ_Start
*DEL*:00000000H   CODE     ---       CyXTAL_32KHZ_Stop
*DEL*:00000000H   CODE     ---       CyXTAL_DisableErrStatus
*DEL*:00000000H   CODE     ---       CyXTAL_DisableFaultRecovery
*DEL*:00000000H   CODE     ---       CyXTAL_EnableErrStatus
*DEL*:00000000H   CODE     ---       CyXTAL_EnableFaultRecovery
*DEL*:00000000H   CODE     ---       CyXTAL_ReadStatus
*DEL*:00000000H   CODE     ---       CyXTAL_Stop
      0200051CH   XDATA    BYTE      dev_pwm_limit
      0200022FH   XDATA    LONG      dev_tension
      020010A5H   XDATA    ---       dieTemperature
*SFR* 00000083H   DATA     BYTE      DPH
*SFR* 00000085H   DATA     BYTE      DPH1
*SFR* 00000082H   DATA     BYTE      DPL
*SFR* 00000084H   DATA     BYTE      DPL1
*SFR* 00000086H   DATA     BYTE      DPS
*SFR* 00000093H   DATA     BYTE      DPX
*SFR* 00000095H   DATA     BYTE      DPX1
*SFR* 000000A8H.7 DATA     BIT       EA
      02000E41H   XDATA    ---       EEPROM_ADDR
      0100749BH   CODE     ---       EEPROM_Enable
*DEL*:00000000H   CODE     ---       EEPROM_Query
      01007510H   CODE     ---       EEPROM_Start
*DEL*:00000000H   CODE     ---       EEPROM_Stop
*DEL*:00000000H   CODE     ---       EEPROM_UpdateTemperature
*SFR* 000000D0H.5 DATA     BIT       F0
*SFR* 000000D0H.1 DATA     BIT       F1
*DEL*:00000000H   CODE     ---       FF_STATUS_InterruptDisable
*DEL*:00000000H   CODE     ---       FF_STATUS_InterruptEnable
      010074CEH   CODE     ---       FF_STATUS_Read
*DEL*:00000000H   CODE     ---       FF_STATUS_ReadMask
      0200051AH   XDATA    INT       frsAccReg
      02000019H   XDATA    INT       frsGyroReg
*DEL*:00000000H   CODE     ---       FTDI_ENABLE_REG_Read
LX51 LINKER/LOCATER V4.64.0.0                                                         01/12/2017  16:14:04  PAGE 26


      01006C15H   CODE     ---       function_scheduler
      0200001BH   XDATA    ---       g_imu
      020002ECH   XDATA    ---       g_imuNew
      02000015H   XDATA    ---       g_mem
      02000266H   XDATA    ---       g_rx
      020001C5H   XDATA    ---       Gyro
*SFR* 000000A8H   DATA     BYTE      IE
      020004C5H   XDATA    ---       IMU_conf
      02000004H   XDATA    ---       IMU_connected
      020004C0H   XDATA    INT       imus_data_size
*DEL*:00000000H   CODE     ---       ImusReset
*DEL*:00000000H   CODE     ---       infoSend
      01006000H   CODE     ---       InitIMU
      01004CFCH   CODE     ---       InitIMUgeneral
      010060F1H   CODE     ---       InitIMUMagCal
      00000021H.4 BIT      BIT       interrupt_flag
      010058A7H   CODE     ---       interrupt_manager
*DEL*:00000000H   CODE     ---       isr_imu_ClearPending
*DEL*:00000000H   CODE     ---       isr_imu_Disable
*DEL*:00000000H   CODE     ---       isr_imu_Enable
*DEL*:00000000H   CODE     ---       isr_imu_GetPriority
*DEL*:00000000H   CODE     ---       isr_imu_GetState
*DEL*:00000000H   CODE     ---       isr_imu_GetVector
      01004972H   CODE     ---       isr_imu_Interrupt
*DEL*:00000000H   CODE     ---       isr_imu_SetPending
*DEL*:00000000H   CODE     ---       isr_imu_Start
*DEL*:00000000H   CODE     ---       isr_imu_Stop
*DEL*:00000000H   CODE     ---       ISR_RS485_RX_ClearPending
      01007494H   CODE     ---       ISR_RS485_RX_Disable
      0100748DH   CODE     ---       ISR_RS485_RX_Enable
      01007517H   CODE     ---       ISR_RS485_RX_ExInterrupt
*DEL*:00000000H   CODE     ---       ISR_RS485_RX_GetPriority
*DEL*:00000000H   CODE     ---       ISR_RS485_RX_GetState
*DEL*:00000000H   CODE     ---       ISR_RS485_RX_GetVector
      01007524H   CODE     ---       ISR_RS485_RX_Interrupt
*DEL*:00000000H   CODE     ---       ISR_RS485_RX_SetPending
*DEL*:00000000H   CODE     ---       ISR_RS485_RX_Start
*DEL*:00000000H   CODE     ---       ISR_RS485_RX_Stop
*DEL*:00000000H   CODE     ---       ISR_WATCHDOG_ClearPending
      010074A9H   CODE     ---       ISR_WATCHDOG_Disable
      010074A2H   CODE     ---       ISR_WATCHDOG_Enable
*DEL*:00000000H   CODE     ---       ISR_WATCHDOG_GetPriority
*DEL*:00000000H   CODE     ---       ISR_WATCHDOG_GetState
*DEL*:00000000H   CODE     ---       ISR_WATCHDOG_GetVector
      01007514H   CODE     ---       ISR_WATCHDOG_Handler
      01007525H   CODE     ---       ISR_WATCHDOG_Interrupt
*DEL*:00000000H   CODE     ---       ISR_WATCHDOG_SetPending
*DEL*:00000000H   CODE     ---       ISR_WATCHDOG_Start
*DEL*:00000000H   CODE     ---       ISR_WATCHDOG_Stop
      0200015FH   XDATA    ---       Mag
      02000233H   XDATA    ---       MagCal
      010062C1H   CODE     ---       main
      01006FF7H   CODE     ---       memInit
      01006B38H   CODE     ---       memRecall
      01006BCEH   CODE     ---       memRestore
*SFR* 000000EAH   DATA     BYTE      MXAX
      010073F1H   CODE     ---       MY_TIMER_ClearFIFO
      0100747DH   CODE     ---       MY_TIMER_Enable
      01006F59H   CODE     ---       MY_TIMER_Init
      020010B0H   XDATA    BYTE      MY_TIMER_initVar
      01007457H   CODE     ---       MY_TIMER_ReadCapture
*DEL*:00000000H   CODE     ---       MY_TIMER_ReadControlRegister
      01007344H   CODE     ---       MY_TIMER_ReadCounter
*DEL*:00000000H   CODE     ---       MY_TIMER_ReadPeriod
      010074DAH   CODE     ---       MY_TIMER_ReadStatusRegister
LX51 LINKER/LOCATER V4.64.0.0                                                         01/12/2017  16:14:04  PAGE 27


*DEL*:00000000H   CODE     ---       MY_TIMER_SoftwareCapture
      010072B2H   CODE     ---       MY_TIMER_Start
*DEL*:00000000H   CODE     ---       MY_TIMER_Stop
      0200015EH   XDATA    BYTE      N_IMU_Connected
*DEL*:00000000H   CODE     ---       Opto_Pin_Read
*DEL*:00000000H   CODE     ---       Opto_Pin_ReadDataReg
*SFR* 000000D0H.2 DATA     BIT       OV
*SFR* 000000D0H   DATA     BIT       P
*SFR* 000000A0H   DATA     BYTE      P2AX
      010071E2H   CODE     ---       PACER_TIMER_Enable
      01006CDEH   CODE     ---       PACER_TIMER_Init
      020010AFH   XDATA    BYTE      PACER_TIMER_initVar
*DEL*:00000000H   CODE     ---       PACER_TIMER_ReadCapture
*DEL*:00000000H   CODE     ---       PACER_TIMER_ReadControlRegister
*DEL*:00000000H   CODE     ---       PACER_TIMER_ReadCounter
*DEL*:00000000H   CODE     ---       PACER_TIMER_ReadPeriod
*DEL*:00000000H   CODE     ---       PACER_TIMER_ReadStatusRegister
*DEL*:00000000H   CODE     ---       PACER_TIMER_SoftwareCapture
      0100729FH   CODE     ---       PACER_TIMER_Start
*DEL*:00000000H   CODE     ---       PACER_TIMER_Stop
*SFR* 000000D0H   DATA     BYTE      PSW
      020004C4H   XDATA    CHAR      pwm_sign
      020002EBH   XDATA    BYTE      rateAcc
      02000451H   XDATA    BYTE      rateGyro
      01005029H   CODE     ---       readAllIMUs
*DEL*:00000000H   CODE     ---       RESET_FF_Read
      00000021H.2 BIT      BIT       reset_last_value_flag
*SFR* 000000D0H.3 DATA     BIT       RS0
*SFR* 000000D0H.4 DATA     BIT       RS1
*DEL*:00000000H   CODE     ---       RS485_CTS_Read
      01006F2BH   CODE     ---       setZeros
*SFR* 00000080H   DATA     BYTE      SFRPRT0DR
*SFR* 00000089H   DATA     BYTE      SFRPRT0PS
*SFR* 0000008AH   DATA     BYTE      SFRPRT0SEL
*SFR* 000000E8H   DATA     BYTE      SFRPRT12DR
*SFR* 000000E9H   DATA     BYTE      SFRPRT12PS
*SFR* 000000F2H   DATA     BYTE      SFRPRT12SEL
*SFR* 000000F8H   DATA     BYTE      SFRPRT15DR
*SFR* 000000F9H   DATA     BYTE      SFRPRT15PS
*SFR* 000000FAH   DATA     BYTE      SFRPRT15SEL
*SFR* 00000090H   DATA     BYTE      SFRPRT1DR
*SFR* 00000091H   DATA     BYTE      SFRPRT1PS
*SFR* 000000A2H   DATA     BYTE      SFRPRT1SEL
*SFR* 00000098H   DATA     BYTE      SFRPRT2DR
*SFR* 00000099H   DATA     BYTE      SFRPRT2PS
*SFR* 0000009AH   DATA     BYTE      SFRPRT2SEL
*SFR* 000000B0H   DATA     BYTE      SFRPRT3DR
*SFR* 000000B1H   DATA     BYTE      SFRPRT3PS
*SFR* 000000B2H   DATA     BYTE      SFRPRT3SEL
*SFR* 000000C0H   DATA     BYTE      SFRPRT4DR
*SFR* 000000C1H   DATA     BYTE      SFRPRT4PS
*SFR* 000000C2H   DATA     BYTE      SFRPRT4SEL
*SFR* 000000C8H   DATA     BYTE      SFRPRT5DR
*SFR* 000000C9H   DATA     BYTE      SFRPRT5PS
*SFR* 000000CAH   DATA     BYTE      SFRPRT5SEL
*SFR* 000000D8H   DATA     BYTE      SFRPRT6DR
*SFR* 000000D9H   DATA     BYTE      SFRPRT6PS
*SFR* 000000DAH   DATA     BYTE      SFRPRT6SEL
      0200042FH   XDATA    ---       single_imu_size
*SFR* 00000081H   DATA     BYTE      SP
      020010B2H   XDATA    BYTE      SpcLockState
      0100707FH   CODE     ---       SPI_IMU_ClearFIFO
      01007353H   CODE     ---       SPI_IMU_ClearRxBuffer
      01007310H   CODE     ---       SPI_IMU_ClearTxBuffer
*DEL*:00000000H   CODE     ---       SPI_IMU_DisableInt
LX51 LINKER/LOCATER V4.64.0.0                                                         01/12/2017  16:14:04  PAGE 28


*DEL*:00000000H   CODE     ---       SPI_IMU_DisableRxInt
*DEL*:00000000H   CODE     ---       SPI_IMU_DisableTxInt
      01006FD2H   CODE     ---       SPI_IMU_Enable
*DEL*:00000000H   CODE     ---       SPI_IMU_EnableInt
      01007527H   CODE     ---       SPI_IMU_EnableRxInt
      01007526H   CODE     ---       SPI_IMU_EnableTxInt
*DEL*:00000000H   CODE     ---       SPI_IMU_GetRxBufferSize
*DEL*:00000000H   CODE     ---       SPI_IMU_GetTxBufferSize
      01007182H   CODE     ---       SPI_IMU_Init
      020010ADH   XDATA    BYTE      SPI_IMU_initVar
*DEL*:00000000H   CODE     ---       SPI_IMU_IntClock_GetDividerRegister
*DEL*:00000000H   CODE     ---       SPI_IMU_IntClock_GetModeRegister
*DEL*:00000000H   CODE     ---       SPI_IMU_IntClock_GetSourceRegister
      0100738FH   CODE     ---       SPI_IMU_IntClock_Start
*DEL*:00000000H   CODE     ---       SPI_IMU_IntClock_Stop
*DEL*:00000000H   CODE     ---       SPI_IMU_IntClock_StopBlock
      010074FEH   CODE     ---       SPI_IMU_ReadRxData
      010074F8H   CODE     ---       SPI_IMU_ReadRxStatus
      01007362H   CODE     ---       SPI_IMU_ReadStatus
      010074F2H   CODE     ---       SPI_IMU_ReadTxStatus
      010072D8H   CODE     ---       SPI_IMU_Start
*DEL*:00000000H   CODE     ---       SPI_IMU_Stop
      020010ABH   XDATA    BYTE      SPI_IMU_swStatusRx
      020010ACH   XDATA    BYTE      SPI_IMU_swStatusTx
      01005AEFH   CODE     NEAR LAB  STARTUP1
      02000456H   XDATA    FLOAT     tau_feedback
      00000021H.5 BIT      BIT       tension_valid
      0200022BH   XDATA    DWORD     timer_value
      02000452H   XDATA    DWORD     timer_value0
      01006ECEH   CODE     ---       UART_RS485_ClearRxBuffer
      010072FEH   CODE     ---       UART_RS485_ClearTxBuffer
      0100701BH   CODE     ---       UART_RS485_Enable
      02001072H   XDATA    BYTE      UART_RS485_errorStatus
*DEL*:00000000H   CODE     ---       UART_RS485_GetByte
      01006940H   CODE     ---       UART_RS485_GetChar
      01006AE9H   CODE     ---       UART_RS485_GetRxBufferSize
*DEL*:00000000H   CODE     ---       UART_RS485_GetTxBufferSize
      01006DBAH   CODE     ---       UART_RS485_Init
      02001070H   XDATA    BYTE      UART_RS485_initVar
*DEL*:00000000H   CODE     ---       UART_RS485_ReadControlRegister
*DEL*:00000000H   CODE     ---       UART_RS485_ReadRxData
      0100728BH   CODE     ---       UART_RS485_ReadRxStatus
      010074B0H   CODE     ---       UART_RS485_ReadTxStatus
      0200104FH   XDATA    ---       UART_RS485_rxBuffer
      0200104DH   XDATA    BYTE      UART_RS485_rxBufferLoopDetect
      02001071H   XDATA    BYTE      UART_RS485_rxBufferOverflow
      0200104EH   XDATA    BYTE      UART_RS485_rxBufferRead
      0200106FH   XDATA    BYTE      UART_RS485_rxBufferWrite
      01006441H   CODE     ---       UART_RS485_RXISR
      01006DEDH   CODE     ---       UART_RS485_Start
      0100703DH   CODE     ---       UART_RS485_Stop
      010071F8H   CODE     ---       WATCHDOG_COUNTER_Enable
      01006D1AH   CODE     ---       WATCHDOG_COUNTER_Init
      020010B1H   XDATA    BYTE      WATCHDOG_COUNTER_initVar
*DEL*:00000000H   CODE     ---       WATCHDOG_COUNTER_ReadCapture
*DEL*:00000000H   CODE     ---       WATCHDOG_COUNTER_ReadControlRegister
*DEL*:00000000H   CODE     ---       WATCHDOG_COUNTER_ReadCounter
*DEL*:00000000H   CODE     ---       WATCHDOG_COUNTER_ReadPeriod
*DEL*:00000000H   CODE     ---       WATCHDOG_COUNTER_ReadStatusRegister
      010072C5H   CODE     ---       WATCHDOG_COUNTER_Start
*DEL*:00000000H   CODE     ---       WATCHDOG_COUNTER_Stop
*DEL*:00000000H   CODE     ---       WATCHDOG_ENABLER_Read
      00000021H.3 BIT      BIT       watchdog_flag
*DEL*:00000000H   CODE     ---       WATCHDOG_REFRESH_Read

LX51 LINKER/LOCATER V4.64.0.0                                                         01/12/2017  16:14:04  PAGE 29




SYMBOL TABLE OF MODULE:  .\DP8051_Keil_951\Release\firmware.omf (COMMAND_PROCESSING)

      VALUE       REP       CLASS    TYPE      SYMBOL NAME
      ====================================================
      ---         MODULE    ---      ---       COMMAND_PROCESSING
      02000E41H   PUBLIC    XDATA    ---       EEPROM_ADDR
      01005356H   PUBLIC    CODE     ---       cmd_get_imu_readings
      01007523H   PUBLIC    CODE     ---       cmd_get_emg
      01007223H   PUBLIC    CODE     ---       cmd_store_params
      01007522H   PUBLIC    CODE     ---       cmd_get_inputs
      01006C9DH   PUBLIC    CODE     ---       cmd_set_watchdog
      01007277H   PUBLIC    CODE     ---       cmd_ping
      0100705FH   PUBLIC    CODE     ---       cmd_set_baudrate
      01007521H   PUBLIC    CODE     ---       cmd_get_currents
      01007520H   PUBLIC    CODE     ---       cmd_get_activate
      0100751FH   PUBLIC    CODE     ---       cmd_activate
      0100751EH   PUBLIC    CODE     ---       cmd_set_inputs
      0100751DH   PUBLIC    CODE     ---       cmd_get_measurements
      01006FF7H   PUBLIC    CODE     ---       memInit
      01006BCEH   PUBLIC    CODE     ---       memRestore
      01006B38H   PUBLIC    CODE     ---       memRecall
      010064F2H   PUBLIC    CODE     ---       _memStore
      0100720EH   PUBLIC    CODE     ---       _sendAcknowledgment
      01006E3BH   PUBLIC    CODE     ---       _LCRChecksum
      0100659FH   PUBLIC    CODE     ---       _commWrite
      0100309EH   PUBLIC    CODE     ---       _infoPrepare
      01003843H   PUBLIC    CODE     ---       _get_param_list
      01006F2BH   PUBLIC    CODE     ---       setZeros
      01007150H   PUBLIC    CODE     ---       _infoGet
      010059CEH   PUBLIC    CODE     ---       commProcess
      000000CAH   SFRSYM    DATA     BYTE      SFRPRT5SEL
      000000DAH   SFRSYM    DATA     BYTE      SFRPRT6SEL
      000000D0H.6 SFRSYM    DATA     BIT       AC
      000000A8H.7 SFRSYM    DATA     BIT       EA
      000000A8H   SFRSYM    DATA     BYTE      IE
      00000085H   SFRSYM    DATA     BYTE      DPH1
      00000084H   SFRSYM    DATA     BYTE      DPL1
      000000D0H.7 SFRSYM    DATA     BIT       CY
      000000A0H   SFRSYM    DATA     BYTE      P2AX
      00000095H   SFRSYM    DATA     BYTE      DPX1
      00000081H   SFRSYM    DATA     BYTE      SP
      000000D0H.2 SFRSYM    DATA     BIT       OV
      00000080H   SFRSYM    DATA     BYTE      SFRPRT0DR
      00000090H   SFRSYM    DATA     BYTE      SFRPRT1DR
      000000F2H   SFRSYM    DATA     BYTE      SFRPRT12SEL
      00000098H   SFRSYM    DATA     BYTE      SFRPRT2DR
      000000B0H   SFRSYM    DATA     BYTE      SFRPRT3DR
      000000C0H   SFRSYM    DATA     BYTE      SFRPRT4DR
      000000FAH   SFRSYM    DATA     BYTE      SFRPRT15SEL
      000000C8H   SFRSYM    DATA     BYTE      SFRPRT5DR
      000000D8H   SFRSYM    DATA     BYTE      SFRPRT6DR
      00000089H   SFRSYM    DATA     BYTE      SFRPRT0PS
      00000091H   SFRSYM    DATA     BYTE      SFRPRT1PS
      00000099H   SFRSYM    DATA     BYTE      SFRPRT2PS
      000000B1H   SFRSYM    DATA     BYTE      SFRPRT3PS
      000000C1H   SFRSYM    DATA     BYTE      SFRPRT4PS
      000000C9H   SFRSYM    DATA     BYTE      SFRPRT5PS
      000000D9H   SFRSYM    DATA     BYTE      SFRPRT6PS
      000000EAH   SFRSYM    DATA     BYTE      MXAX
      000000F0H   SFRSYM    DATA     BYTE      B
      000000E0H   SFRSYM    DATA     BYTE      ACC
      000000D0H   SFRSYM    DATA     BIT       P
      000000D0H.3 SFRSYM    DATA     BIT       RS0
LX51 LINKER/LOCATER V4.64.0.0                                                         01/12/2017  16:14:04  PAGE 30


      000000D0H.4 SFRSYM    DATA     BIT       RS1
      00000083H   SFRSYM    DATA     BYTE      DPH
      000000E8H   SFRSYM    DATA     BYTE      SFRPRT12DR
      00000082H   SFRSYM    DATA     BYTE      DPL
      000000F8H   SFRSYM    DATA     BYTE      SFRPRT15DR
      00000086H   SFRSYM    DATA     BYTE      DPS
      000000E9H   SFRSYM    DATA     BYTE      SFRPRT12PS
      00000093H   SFRSYM    DATA     BYTE      DPX
      000000F9H   SFRSYM    DATA     BYTE      SFRPRT15PS
      000000D0H.5 SFRSYM    DATA     BIT       F0
      000000D0H.1 SFRSYM    DATA     BIT       F1
      0000008AH   SFRSYM    DATA     BYTE      SFRPRT0SEL
      000000D0H   SFRSYM    DATA     BYTE      PSW
      000000A2H   SFRSYM    DATA     BYTE      SFRPRT1SEL
      0000009AH   SFRSYM    DATA     BYTE      SFRPRT2SEL
      000000B2H   SFRSYM    DATA     BYTE      SFRPRT3SEL
      000000C2H   SFRSYM    DATA     BYTE      SFRPRT4SEL
      01004058H   SYMBOL    CODE     ---       _?ix1000
      01004473H   SYMBOL    CODE     ---       _?ix1001
      01004482H   SYMBOL    CODE     ---       _?ix1002
      010044A0H   SYMBOL    CODE     ---       _?ix1003
      010044ADH   SYMBOL    CODE     ---       _?ix1004
      010044C5H   SYMBOL    CODE     ---       _?ix1005

      010059CEH   BLOCK     CODE     ---       LVL=0
      010059CEH   BLOCK     CODE     NEAR LAB  LVL=1
      0000000AH   SYMBOL    DATA     BYTE      rx_cmd
      ---         BLOCKEND  ---      ---       LVL=1
      010059CEH   LINE      CODE     ---       #39
      010059CEH   LINE      CODE     ---       #43
      010059D4H   LINE      CODE     ---       #47
      010059FFH   LINE      CODE     ---       #49
      01005A05H   LINE      CODE     ---       #51
      01005A05H   LINE      CODE     ---       #54
      01005A47H   LINE      CODE     ---       #57
      01005A47H   LINE      CODE     ---       #58
      01005A4AH   LINE      CODE     ---       #59
      01005A4BH   LINE      CODE     ---       #63
      01005A4BH   LINE      CODE     ---       #64
      01005A4EH   LINE      CODE     ---       #65
      01005A4FH   LINE      CODE     ---       #69
      01005A4FH   LINE      CODE     ---       #70
      01005A52H   LINE      CODE     ---       #71
      01005A53H   LINE      CODE     ---       #75
      01005A53H   LINE      CODE     ---       #76
      01005A56H   LINE      CODE     ---       #77
      01005A57H   LINE      CODE     ---       #82
      01005A57H   LINE      CODE     ---       #83
      01005A5AH   LINE      CODE     ---       #84
      01005A5BH   LINE      CODE     ---       #88
      01005A5BH   LINE      CODE     ---       #89
      01005A5EH   LINE      CODE     ---       #90
      01005A5FH   LINE      CODE     ---       #94
      01005A5FH   LINE      CODE     ---       #95
      01005A62H   LINE      CODE     ---       #96
      01005A63H   LINE      CODE     ---       #100
      01005A63H   LINE      CODE     ---       #101
      01005A66H   LINE      CODE     ---       #102
      01005A67H   LINE      CODE     ---       #106
      01005A67H   LINE      CODE     ---       #107
      01005A6AH   LINE      CODE     ---       #108
      01005A6BH   LINE      CODE     ---       #112
      01005A6BH   LINE      CODE     ---       #113
      01005A76H   LINE      CODE     ---       #114
      01005A77H   LINE      CODE     ---       #118
LX51 LINKER/LOCATER V4.64.0.0                                                         01/12/2017  16:14:04  PAGE 31


      01005A77H   LINE      CODE     ---       #119
      01005A7AH   LINE      CODE     ---       #120
      01005A7BH   LINE      CODE     ---       #124
      01005A7BH   LINE      CODE     ---       #125
      01005A86H   LINE      CODE     ---       #126
      01005A87H   LINE      CODE     ---       #130
      01005A87H   LINE      CODE     ---       #131
      01005A8AH   LINE      CODE     ---       #132
      01005A8BH   LINE      CODE     ---       #136
      01005A8BH   LINE      CODE     ---       #137
      01005A8EH   LINE      CODE     ---       #138
      01005A8FH   LINE      CODE     ---       #142
      01005A8FH   LINE      CODE     ---       #143
      01005A99H   LINE      CODE     ---       #144
      01005A9FH   LINE      CODE     ---       #146
      01005AA4H   LINE      CODE     ---       #147
      01005AA5H   LINE      CODE     ---       #151
      01005AA5H   LINE      CODE     ---       #152
      01005AABH   LINE      CODE     ---       #153
      01005AB1H   LINE      CODE     ---       #155
      01005AB6H   LINE      CODE     ---       #156
      01005AB7H   LINE      CODE     ---       #160
      01005AB7H   LINE      CODE     ---       #161
      01005ABDH   LINE      CODE     ---       #162
      01005AC3H   LINE      CODE     ---       #164
      01005AC8H   LINE      CODE     ---       #165
      01005AC9H   LINE      CODE     ---       #169
      01005AC9H   LINE      CODE     ---       #171
      01005ACEH   LINE      CODE     ---       #172
      01005AD8H   LINE      CODE     ---       #173
      01005ADDH   LINE      CODE     ---       #174
      01005AE7H   LINE      CODE     ---       #175
      01005AEAH   LINE      CODE     ---       #176
      01005AEBH   LINE      CODE     ---       #180
      01005AEBH   LINE      CODE     ---       #181
      01005AEBH   LINE      CODE     ---       #185
      01005AEBH   LINE      CODE     ---       #186
      01005AEEH   LINE      CODE     ---       #187
      01005AEEH   LINE      CODE     ---       #191
      01005AEEH   LINE      CODE     ---       #192
      01005AEEH   LINE      CODE     ---       #194
      01005AEEH   LINE      CODE     ---       #196
      ---         BLOCKEND  ---      ---       LVL=0

      01007150H   BLOCK     CODE     ---       LVL=0
      00000006H   SYMBOL    DATA     WORD      info_type
      01007150H   BLOCK     CODE     NEAR LAB  LVL=1
      020009F5H   SYMBOL    XDATA    ---       packet_string
      ---         BLOCKEND  ---      ---       LVL=1
      01007150H   LINE      CODE     ---       #214
      01007150H   LINE      CODE     ---       #219
      01007156H   LINE      CODE     ---       #220
      01007156H   LINE      CODE     ---       #221
      0100715FH   LINE      CODE     ---       #222
      01007168H   LINE      CODE     ---       #223
      01007168H   LINE      CODE     ---       #225
      01007168H   LINE      CODE     ---       #226
      01007168H   LINE      CODE     ---       #227
      01007168H   LINE      CODE     ---       #228
      ---         BLOCKEND  ---      ---       LVL=0

      01006F2BH   BLOCK     CODE     ---       LVL=0
      01006F2BH   LINE      CODE     ---       #234
      01006F2BH   LINE      CODE     ---       #235
      01006F2BH   LINE      CODE     ---       #237
LX51 LINKER/LOCATER V4.64.0.0                                                         01/12/2017  16:14:04  PAGE 32


      ---         BLOCKEND  ---      ---       LVL=0

      01003843H   BLOCK     CODE     ---       LVL=0
      02000522H   SYMBOL    XDATA    WORD      index
      0100384BH   BLOCK     CODE     NEAR LAB  LVL=1
      02000524H   SYMBOL    XDATA    ---       packet_data
      0200093FH   SYMBOL    XDATA    WORD      packet_lenght
      0000000BH   SYMBOL    DATA     WORD      i
      0000000DH   SYMBOL    DATA     WORD      j
      02000941H   SYMBOL    XDATA    ---       id_str
      02000950H   SYMBOL    XDATA    ---       n_imu_str
      0200096EH   SYMBOL    XDATA    ---       ids_str
      0200097BH   SYMBOL    XDATA    ---       mag_param_str
      02000993H   SYMBOL    XDATA    ---       imu_table_str
      0000000FH   SYMBOL    DATA     BYTE      id_str_len
      00000010H   SYMBOL    DATA     BYTE      n_imu_str_len
      00000011H   SYMBOL    DATA     BYTE      ids_str_len
      00000012H   SYMBOL    DATA     BYTE      mag_param_str_len
      00000013H   SYMBOL    DATA     BYTE      imu_table_str_len
      ---         BLOCKEND  ---      ---       LVL=1
      01003843H   LINE      CODE     ---       #243
      0100384BH   LINE      CODE     ---       #244
      0100384BH   LINE      CODE     ---       #246
      0100385EH   LINE      CODE     ---       #247
      01003873H   LINE      CODE     ---       #253
      01003886H   LINE      CODE     ---       #254
      01003899H   LINE      CODE     ---       #255
      010038ACH   LINE      CODE     ---       #256
      010038BFH   LINE      CODE     ---       #257
      010038D2H   LINE      CODE     ---       #260
      010038DDH   LINE      CODE     ---       #261
      010038E8H   LINE      CODE     ---       #262
      010038F3H   LINE      CODE     ---       #263
      010038FEH   LINE      CODE     ---       #264
      01003909H   LINE      CODE     ---       #266
      0100390FH   LINE      CODE     ---       #267
      01003919H   LINE      CODE     ---       #269
      0100393CH   LINE      CODE     ---       #270
      0100393CH   LINE      CODE     ---       #273
      01003942H   LINE      CODE     ---       #274
      01003945H   LINE      CODE     ---       #275
      0100394DH   LINE      CODE     ---       #276
      01003959H   LINE      CODE     ---       #277
      01003985H   LINE      CODE     ---       #281
      0100398BH   LINE      CODE     ---       #282
      0100398EH   LINE      CODE     ---       #283
      01003996H   LINE      CODE     ---       #284
      010039A2H   LINE      CODE     ---       #285
      010039CEH   LINE      CODE     ---       #289
      010039D4H   LINE      CODE     ---       #290
      010039DCH   LINE      CODE     ---       #291
      010039F0H   LINE      CODE     ---       #292
      01003A0CH   LINE      CODE     ---       #293
      01003A16H   LINE      CODE     ---       #294
      01003A22H   LINE      CODE     ---       #295
      01003A63H   LINE      CODE     ---       #299
      01003A69H   LINE      CODE     ---       #300
      01003A75H   LINE      CODE     ---       #301
      01003A8CH   LINE      CODE     ---       #302
      01003ABFH   LINE      CODE     ---       #303
      01003AF2H   LINE      CODE     ---       #304
      01003B25H   LINE      CODE     ---       #305
      01003B30H   LINE      CODE     ---       #306
      01003B3CH   LINE      CODE     ---       #307
      01003B82H   LINE      CODE     ---       #310
LX51 LINKER/LOCATER V4.64.0.0                                                         01/12/2017  16:14:04  PAGE 33


      01003B99H   LINE      CODE     ---       #312
      01003BD5H   LINE      CODE     ---       #313
      01003BE0H   LINE      CODE     ---       #315
      01003BF8H   LINE      CODE     ---       #316
      01003C10H   LINE      CODE     ---       #318
      01003C43H   LINE      CODE     ---       #319
      01003C76H   LINE      CODE     ---       #320
      01003CA9H   LINE      CODE     ---       #321
      01003CDCH   LINE      CODE     ---       #322
      01003D0FH   LINE      CODE     ---       #324
      01003D1BH   LINE      CODE     ---       #325
      01003D62H   LINE      CODE     ---       #326
      01003D6DH   LINE      CODE     ---       #331
      01003D91H   LINE      CODE     ---       #332
      01003D9AH   LINE      CODE     ---       #333
      01003D9DH   LINE      CODE     ---       #334
      01003D9EH   LINE      CODE     ---       #337
      01003D9EH   LINE      CODE     ---       #338
      01003DA6H   LINE      CODE     ---       #339
      01003DA7H   LINE      CODE     ---       #342
      01003DA7H   LINE      CODE     ---       #343
      01003DA7H   LINE      CODE     ---       #346
      01003DA7H   LINE      CODE     ---       #347
      01003DA8H   LINE      CODE     ---       #350
      01003DA8H   LINE      CODE     ---       #351
      01003DA8H   LINE      CODE     ---       #354
      01003DA8H   LINE      CODE     ---       #355
      01003DCEH   LINE      CODE     ---       #356
      01003DEDH   LINE      CODE     ---       #357
      01003E0CH   LINE      CODE     ---       #358
      01003E2BH   LINE      CODE     ---       #359
      01003E4AH   LINE      CODE     ---       #362
      01003E52H   LINE      CODE     ---       #363
      01003E69H   LINE      CODE     ---       #364
      01003E69H   LINE      CODE     ---       #365
      01003ED4H   LINE      CODE     ---       #366
      01003EFDH   LINE      CODE     ---       #367
      01003F08H   LINE      CODE     ---       #368
      01003F16H   LINE      CODE     ---       #370
      01003F16H   LINE      CODE     ---       #372
      01003F16H   LINE      CODE     ---       #373
      ---         BLOCKEND  ---      ---       LVL=0

      0100309EH   BLOCK     CODE     ---       LVL=0
      02000522H   SYMBOL    XDATA    ---       info_string
      010030A9H   BLOCK     CODE     NEAR LAB  LVL=1
      02000525H   SYMBOL    XDATA    INT       i
      010030B4H   BLOCK     CODE     NEAR LAB  LVL=2
      02000527H   SYMBOL    XDATA    ---       str
      ---         BLOCKEND  ---      ---       LVL=2
      ---         BLOCKEND  ---      ---       LVL=1
      0100309EH   LINE      CODE     ---       #380
      010030A9H   LINE      CODE     ---       #381
      010030A9H   LINE      CODE     ---       #383
      010030B4H   LINE      CODE     ---       #385
      010030CCH   LINE      CODE     ---       #386
      010030E8H   LINE      CODE     ---       #387
      01003104H   LINE      CODE     ---       #388
      01003120H   LINE      CODE     ---       #389
      0100313CH   LINE      CODE     ---       #391
      01003158H   LINE      CODE     ---       #392
      0100317CH   LINE      CODE     ---       #393
      01003198H   LINE      CODE     ---       #395
      010031BCH   LINE      CODE     ---       #396
      010031D8H   LINE      CODE     ---       #398
LX51 LINKER/LOCATER V4.64.0.0                                                         01/12/2017  16:14:04  PAGE 34


      010031F4H   LINE      CODE     ---       #401
      01003210H   LINE      CODE     ---       #402
      01003231H   LINE      CODE     ---       #403
      0100326BH   LINE      CODE     ---       #404
      01003287H   LINE      CODE     ---       #406
      0100329EH   LINE      CODE     ---       #407
      010032BFH   LINE      CODE     ---       #408
      010032D8H   LINE      CODE     ---       #410
      010032EFH   LINE      CODE     ---       #411
      01003306H   LINE      CODE     ---       #412
      01003327H   LINE      CODE     ---       #413
      01003340H   LINE      CODE     ---       #415
      01003357H   LINE      CODE     ---       #416
      0100336EH   LINE      CODE     ---       #417
      0100338FH   LINE      CODE     ---       #418
      010033A8H   LINE      CODE     ---       #420
      010033BFH   LINE      CODE     ---       #421
      010033D6H   LINE      CODE     ---       #422
      010033F7H   LINE      CODE     ---       #423
      01003410H   LINE      CODE     ---       #425
      01003427H   LINE      CODE     ---       #426
      0100343EH   LINE      CODE     ---       #427
      0100345FH   LINE      CODE     ---       #428
      01003478H   LINE      CODE     ---       #430
      0100348FH   LINE      CODE     ---       #432
      010034ABH   LINE      CODE     ---       #433
      010034BCH   LINE      CODE     ---       #435
      010034D8H   LINE      CODE     ---       #437
      010034F4H   LINE      CODE     ---       #438
      01003515H   LINE      CODE     ---       #439
      0100354FH   LINE      CODE     ---       #440
      0100356BH   LINE      CODE     ---       #442
      01003590H   LINE      CODE     ---       #443
      01003609H   LINE      CODE     ---       #444
      01003625H   LINE      CODE     ---       #445
      01003625H   LINE      CODE     ---       #447
      0100364AH   LINE      CODE     ---       #448
      010036C3H   LINE      CODE     ---       #449
      010036DFH   LINE      CODE     ---       #450
      010036DFH   LINE      CODE     ---       #452
      01003704H   LINE      CODE     ---       #453
      0100377DH   LINE      CODE     ---       #454
      01003799H   LINE      CODE     ---       #455
      01003799H   LINE      CODE     ---       #457
      010037AAH   LINE      CODE     ---       #459
      010037EEH   LINE      CODE     ---       #460
      0100380AH   LINE      CODE     ---       #461
      01003826H   LINE      CODE     ---       #462
      01003842H   LINE      CODE     ---       #463
      01003842H   LINE      CODE     ---       #464
      ---         BLOCKEND  ---      ---       LVL=0

      0100659FH   BLOCK     CODE     ---       LVL=0
      020009BDH   SYMBOL    XDATA    ---       packet_data
      020009C0H   SYMBOL    XDATA    WORD      packet_lenght
      010065B0H   BLOCK     CODE     NEAR LAB  LVL=1
      00000014H   SYMBOL    DATA     WORD      index
      ---         BLOCKEND  ---      ---       LVL=1
      0100659FH   LINE      CODE     ---       #470
      010065B0H   LINE      CODE     ---       #471
      010065B0H   LINE      CODE     ---       #475
      010065B5H   LINE      CODE     ---       #476
      010065BAH   LINE      CODE     ---       #479
      010065C2H   LINE      CODE     ---       #482
      010065CCH   LINE      CODE     ---       #485
LX51 LINKER/LOCATER V4.64.0.0                                                         01/12/2017  16:14:04  PAGE 35


      010065E0H   LINE      CODE     ---       #486
      01006602H   LINE      CODE     ---       #488
      01006607H   LINE      CODE     ---       #490
      01006621H   LINE      CODE     ---       #492
      01006626H   LINE      CODE     ---       #493
      0100662BH   LINE      CODE     ---       #494
      ---         BLOCKEND  ---      ---       LVL=0

      01006E3BH   BLOCK     CODE     ---       LVL=0
      020009BDH   SYMBOL    XDATA    ---       data_array
      00000005H   SYMBOL    DATA     BYTE      data_length
      01006E46H   BLOCK     CODE     NEAR LAB  LVL=1
      00000014H   SYMBOL    DATA     BYTE      i
      00000015H   SYMBOL    DATA     BYTE      checksum
      ---         BLOCKEND  ---      ---       LVL=1
      01006E3BH   LINE      CODE     ---       #503
      01006E46H   LINE      CODE     ---       #506
      01006E49H   LINE      CODE     ---       #508
      01006E51H   LINE      CODE     ---       #509
      01006E6AH   LINE      CODE     ---       #511
      01006E6CH   LINE      CODE     ---       #512
      ---         BLOCKEND  ---      ---       LVL=0

      0100720EH   BLOCK     CODE     ---       LVL=0
      00000007H   SYMBOL    DATA     BYTE      value
      0100720EH   BLOCK     CODE     NEAR LAB  LVL=1
      00000004H   SYMBOL    DATA     INT       packet_lenght
      02000522H   SYMBOL    XDATA    ---       packet_data
      ---         BLOCKEND  ---      ---       LVL=1
      0100720EH   LINE      CODE     ---       #518
      0100720EH   LINE      CODE     ---       #519
      01007212H   LINE      CODE     ---       #522
      01007217H   LINE      CODE     ---       #523
      01007219H   LINE      CODE     ---       #525
      01007222H   LINE      CODE     ---       #526
      ---         BLOCKEND  ---      ---       LVL=0

      010064F2H   BLOCK     CODE     ---       LVL=0
      02000522H   SYMBOL    XDATA    INT       displacement
      010064FAH   BLOCK     CODE     NEAR LAB  LVL=1
      02000524H   SYMBOL    XDATA    INT       i
      00000007H   SYMBOL    DATA     BYTE      writeStatus
      02000526H   SYMBOL    XDATA    INT       pages
      02000528H   SYMBOL    XDATA    BYTE      ret_val
      ---         BLOCKEND  ---      ---       LVL=1
      010064F2H   LINE      CODE     ---       #537
      010064FAH   LINE      CODE     ---       #538
      010064FAH   LINE      CODE     ---       #542
      01006500H   LINE      CODE     ---       #545
      01006503H   LINE      CODE     ---       #549
      01006506H   LINE      CODE     ---       #551
      01006519H   LINE      CODE     ---       #553
      01006521H   LINE      CODE     ---       #555
      01006544H   LINE      CODE     ---       #556
      01006569H   LINE      CODE     ---       #557
      0100656CH   LINE      CODE     ---       #558
      01006571H   LINE      CODE     ---       #559
      01006573H   LINE      CODE     ---       #560
      01006573H   LINE      CODE     ---       #561
      01006583H   LINE      CODE     ---       #563
      01006596H   LINE      CODE     ---       #566
      01006599H   LINE      CODE     ---       #568
      0100659EH   LINE      CODE     ---       #569
      ---         BLOCKEND  ---      ---       LVL=0

LX51 LINKER/LOCATER V4.64.0.0                                                         01/12/2017  16:14:04  PAGE 36


      01006B38H   BLOCK     CODE     ---       LVL=0
      01006B38H   BLOCK     CODE     NEAR LAB  LVL=1
      00000006H   SYMBOL    DATA     WORD      i
      ---         BLOCKEND  ---      ---       LVL=1
      01006B38H   LINE      CODE     ---       #580
      01006B38H   LINE      CODE     ---       #581
      01006B38H   LINE      CODE     ---       #584
      01006B44H   LINE      CODE     ---       #585
      01006B60H   LINE      CODE     ---       #586
      01006B67H   LINE      CODE     ---       #589
      01006B6DH   LINE      CODE     ---       #590
      01006B70H   LINE      CODE     ---       #591
      01006B71H   LINE      CODE     ---       #592
      01006B84H   LINE      CODE     ---       #593
      01006B84H   LINE      CODE     ---       #594
      ---         BLOCKEND  ---      ---       LVL=0

      01006BCEH   BLOCK     CODE     ---       LVL=0
      01006BCEH   BLOCK     CODE     NEAR LAB  LVL=1
      00000006H   SYMBOL    DATA     WORD      i
      ---         BLOCKEND  ---      ---       LVL=1
      01006BCEH   LINE      CODE     ---       #605
      01006BCEH   LINE      CODE     ---       #608
      01006BDAH   LINE      CODE     ---       #609
      01006BFDH   LINE      CODE     ---       #610
      01006C04H   LINE      CODE     ---       #613
      01006C0AH   LINE      CODE     ---       #614
      01006C0EH   LINE      CODE     ---       #615
      01006C0EH   LINE      CODE     ---       #616
      01006C14H   LINE      CODE     ---       #617
      01006C14H   LINE      CODE     ---       #618
      ---         BLOCKEND  ---      ---       LVL=0

      01006FF7H   BLOCK     CODE     ---       LVL=0
      01006FF7H   LINE      CODE     ---       #628
      01006FF7H   LINE      CODE     ---       #629
      01006FF7H   LINE      CODE     ---       #632
      01006FFDH   LINE      CODE     ---       #636
      01007001H   LINE      CODE     ---       #639
      0100701AH   LINE      CODE     ---       #640
      ---         BLOCKEND  ---      ---       LVL=0

      0100751DH   BLOCK     CODE     ---       LVL=0
      0100751DH   LINE      CODE     ---       #649
      0100751DH   LINE      CODE     ---       #651
      ---         BLOCKEND  ---      ---       LVL=0

      0100751EH   BLOCK     CODE     ---       LVL=0
      0100751EH   LINE      CODE     ---       #653
      0100751EH   LINE      CODE     ---       #655
      ---         BLOCKEND  ---      ---       LVL=0

      0100751FH   BLOCK     CODE     ---       LVL=0
      0100751FH   LINE      CODE     ---       #657
      0100751FH   LINE      CODE     ---       #659
      ---         BLOCKEND  ---      ---       LVL=0

      01007520H   BLOCK     CODE     ---       LVL=0
      01007520H   LINE      CODE     ---       #661
      01007520H   LINE      CODE     ---       #663
      ---         BLOCKEND  ---      ---       LVL=0

      01007521H   BLOCK     CODE     ---       LVL=0
      01007521H   LINE      CODE     ---       #669
      01007521H   LINE      CODE     ---       #671
LX51 LINKER/LOCATER V4.64.0.0                                                         01/12/2017  16:14:04  PAGE 37


      ---         BLOCKEND  ---      ---       LVL=0

      0100705FH   BLOCK     CODE     ---       LVL=0
      0100705FH   LINE      CODE     ---       #673
      0100705FH   LINE      CODE     ---       #676
      01007067H   LINE      CODE     ---       #678
      0100706BH   LINE      CODE     ---       #679
      0100706BH   LINE      CODE     ---       #680
      01007074H   LINE      CODE     ---       #681
      01007075H   LINE      CODE     ---       #682
      01007075H   LINE      CODE     ---       #683
      0100707EH   LINE      CODE     ---       #684
      0100707EH   LINE      CODE     ---       #685
      ---         BLOCKEND  ---      ---       LVL=0

      01007277H   BLOCK     CODE     ---       LVL=0
      01007277H   BLOCK     CODE     NEAR LAB  LVL=1
      02000522H   SYMBOL    XDATA    ---       packet_data
      ---         BLOCKEND  ---      ---       LVL=1
      01007277H   LINE      CODE     ---       #687
      01007277H   LINE      CODE     ---       #692
      0100727CH   LINE      CODE     ---       #695
      0100727EH   LINE      CODE     ---       #698
      0100728AH   LINE      CODE     ---       #699
      ---         BLOCKEND  ---      ---       LVL=0

      01006C9DH   BLOCK     CODE     ---       LVL=0
      01006C9DH   LINE      CODE     ---       #701
      01006C9DH   LINE      CODE     ---       #703
      01006CA6H   LINE      CODE     ---       #705
      01006CABH   LINE      CODE     ---       #706
      01006CB0H   LINE      CODE     ---       #707
      01006CB1H   LINE      CODE     ---       #708
      01006CB1H   LINE      CODE     ---       #710
      01006CBAH   LINE      CODE     ---       #711
      01006CBDH   LINE      CODE     ---       #716
      01006CD5H   LINE      CODE     ---       #717
      01006CD8H   LINE      CODE     ---       #718
      01006CDDH   LINE      CODE     ---       #719
      01006CDDH   LINE      CODE     ---       #720
      ---         BLOCKEND  ---      ---       LVL=0

      01007522H   BLOCK     CODE     ---       LVL=0
      01007522H   LINE      CODE     ---       #722
      01007522H   LINE      CODE     ---       #724
      ---         BLOCKEND  ---      ---       LVL=0

      01007223H   BLOCK     CODE     ---       LVL=0
      01007223H   LINE      CODE     ---       #726
      01007223H   LINE      CODE     ---       #728
      0100722CH   LINE      CODE     ---       #729
      01007232H   LINE      CODE     ---       #731
      01007237H   LINE      CODE     ---       #732
      ---         BLOCKEND  ---      ---       LVL=0

      01007523H   BLOCK     CODE     ---       LVL=0
      01007523H   LINE      CODE     ---       #734
      01007523H   LINE      CODE     ---       #736
      ---         BLOCKEND  ---      ---       LVL=0

      01005356H   BLOCK     CODE     ---       LVL=0
      01005356H   BLOCK     CODE     NEAR LAB  LVL=1
      02000522H   SYMBOL    XDATA    BYTE      k_imu
      02000523H   SYMBOL    XDATA    BYTE      c
      02000524H   SYMBOL    XDATA    BYTE      k
LX51 LINKER/LOCATER V4.64.0.0                                                         01/12/2017  16:14:04  PAGE 38


      02000525H   SYMBOL    XDATA    BYTE      gl_c
      02000526H   SYMBOL    XDATA    ---       packet_data
      02000684H   SYMBOL    XDATA    ---       single_packet
      ---         BLOCKEND  ---      ---       LVL=1
      01005356H   LINE      CODE     ---       #738
      01005356H   LINE      CODE     ---       #742
      0100535CH   LINE      CODE     ---       #743
      0100535FH   LINE      CODE     ---       #744
      01005362H   LINE      CODE     ---       #754
      01005366H   LINE      CODE     ---       #756
      0100537CH   LINE      CODE     ---       #757
      0100537CH   LINE      CODE     ---       #759
      01005382H   LINE      CODE     ---       #760
      0100539DH   LINE      CODE     ---       #761
      010053C8H   LINE      CODE     ---       #762
      010053EBH   LINE      CODE     ---       #763
      01005411H   LINE      CODE     ---       #764
      01005418H   LINE      CODE     ---       #765
      01005418H   LINE      CODE     ---       #766
      01005437H   LINE      CODE     ---       #767
      01005462H   LINE      CODE     ---       #768
      01005485H   LINE      CODE     ---       #769
      010054A8H   LINE      CODE     ---       #770
      010054AFH   LINE      CODE     ---       #771
      010054AFH   LINE      CODE     ---       #772
      010054CEH   LINE      CODE     ---       #773
      010054F9H   LINE      CODE     ---       #774
      0100551CH   LINE      CODE     ---       #775
      0100553FH   LINE      CODE     ---       #776
      01005546H   LINE      CODE     ---       #777
      01005546H   LINE      CODE     ---       #778
      0100556FH   LINE      CODE     ---       #779
      01005575H   LINE      CODE     ---       #781
      010055A8H   LINE      CODE     ---       #782
      010055CBH   LINE      CODE     ---       #783
      010055D3H   LINE      CODE     ---       #784
      010055E9H   LINE      CODE     ---       #786
      010055F8H   LINE      CODE     ---       #788
      01005601H   LINE      CODE     ---       #791
      01005625H   LINE      CODE     ---       #792
      0100562EH   LINE      CODE     ---       #795
      ---         BLOCKEND  ---      ---       LVL=0

      ---         MODULE    ---      ---       GLOBALS
      0200051CH   PUBLIC    XDATA    BYTE      dev_pwm_limit
      00000021H.5 PUBLIC    BIT      BIT       tension_valid
      0200051AH   PUBLIC    XDATA    INT       frsAccReg
      020004C5H   PUBLIC    XDATA    ---       IMU_conf
      00000021H.4 PUBLIC    BIT      BIT       interrupt_flag
      020004C4H   PUBLIC    XDATA    CHAR      pwm_sign
      020004C2H   PUBLIC    XDATA    ---       ADC_buf
      020004C0H   PUBLIC    XDATA    INT       imus_data_size
      0200045AH   PUBLIC    XDATA    ---       Accel
      02000456H   PUBLIC    XDATA    FLOAT     tau_feedback
      02000452H   PUBLIC    XDATA    DWORD     timer_value0
      00000021H.3 PUBLIC    BIT      BIT       watchdog_flag
      02000451H   PUBLIC    XDATA    BYTE      rateGyro
      0200042FH   PUBLIC    XDATA    ---       single_imu_size
      020002ECH   PUBLIC    XDATA    ---       g_imuNew
      00000021H.2 PUBLIC    BIT      BIT       reset_last_value_flag
      020002EBH   PUBLIC    XDATA    BYTE      rateAcc
      02000266H   PUBLIC    XDATA    ---       g_rx
      02000233H   PUBLIC    XDATA    ---       MagCal
      0200022FH   PUBLIC    XDATA    LONG      dev_tension
      0200022BH   PUBLIC    XDATA    DWORD     timer_value
LX51 LINKER/LOCATER V4.64.0.0                                                         01/12/2017  16:14:04  PAGE 39


      020001C5H   PUBLIC    XDATA    ---       Gyro
      0200015FH   PUBLIC    XDATA    ---       Mag
      0200015EH   PUBLIC    XDATA    BYTE      N_IMU_Connected
      0200001BH   PUBLIC    XDATA    ---       g_imu
      02000019H   PUBLIC    XDATA    INT       frsGyroReg
      02000015H   PUBLIC    XDATA    ---       g_mem
      02000004H   PUBLIC    XDATA    ---       IMU_connected
      02000000H   PUBLIC    XDATA    ---       c_mem
      000000CAH   SFRSYM    DATA     BYTE      SFRPRT5SEL
      000000DAH   SFRSYM    DATA     BYTE      SFRPRT6SEL
      000000D0H.6 SFRSYM    DATA     BIT       AC
      000000A8H.7 SFRSYM    DATA     BIT       EA
      000000A8H   SFRSYM    DATA     BYTE      IE
      00000085H   SFRSYM    DATA     BYTE      DPH1
      00000084H   SFRSYM    DATA     BYTE      DPL1
      000000D0H.7 SFRSYM    DATA     BIT       CY
      000000A0H   SFRSYM    DATA     BYTE      P2AX
      00000095H   SFRSYM    DATA     BYTE      DPX1
      00000081H   SFRSYM    DATA     BYTE      SP
      000000D0H.2 SFRSYM    DATA     BIT       OV
      00000080H   SFRSYM    DATA     BYTE      SFRPRT0DR
      00000090H   SFRSYM    DATA     BYTE      SFRPRT1DR
      000000F2H   SFRSYM    DATA     BYTE      SFRPRT12SEL
      00000098H   SFRSYM    DATA     BYTE      SFRPRT2DR
      000000B0H   SFRSYM    DATA     BYTE      SFRPRT3DR
      000000C0H   SFRSYM    DATA     BYTE      SFRPRT4DR
      000000FAH   SFRSYM    DATA     BYTE      SFRPRT15SEL
      000000C8H   SFRSYM    DATA     BYTE      SFRPRT5DR
      000000D8H   SFRSYM    DATA     BYTE      SFRPRT6DR
      00000089H   SFRSYM    DATA     BYTE      SFRPRT0PS
      00000091H   SFRSYM    DATA     BYTE      SFRPRT1PS
      00000099H   SFRSYM    DATA     BYTE      SFRPRT2PS
      000000B1H   SFRSYM    DATA     BYTE      SFRPRT3PS
      000000C1H   SFRSYM    DATA     BYTE      SFRPRT4PS
      000000C9H   SFRSYM    DATA     BYTE      SFRPRT5PS
      000000D9H   SFRSYM    DATA     BYTE      SFRPRT6PS
      000000EAH   SFRSYM    DATA     BYTE      MXAX
      000000F0H   SFRSYM    DATA     BYTE      B
      000000E0H   SFRSYM    DATA     BYTE      ACC
      000000D0H   SFRSYM    DATA     BIT       P
      000000D0H.3 SFRSYM    DATA     BIT       RS0
      000000D0H.4 SFRSYM    DATA     BIT       RS1
      00000083H   SFRSYM    DATA     BYTE      DPH
      000000E8H   SFRSYM    DATA     BYTE      SFRPRT12DR
      00000082H   SFRSYM    DATA     BYTE      DPL
      000000F8H   SFRSYM    DATA     BYTE      SFRPRT15DR
      00000086H   SFRSYM    DATA     BYTE      DPS
      000000E9H   SFRSYM    DATA     BYTE      SFRPRT12PS
      00000093H   SFRSYM    DATA     BYTE      DPX
      000000F9H   SFRSYM    DATA     BYTE      SFRPRT15PS
      000000D0H.5 SFRSYM    DATA     BIT       F0
      000000D0H.1 SFRSYM    DATA     BIT       F1
      0000008AH   SFRSYM    DATA     BYTE      SFRPRT0SEL
      000000D0H   SFRSYM    DATA     BYTE      PSW
      000000A2H   SFRSYM    DATA     BYTE      SFRPRT1SEL
      0000009AH   SFRSYM    DATA     BYTE      SFRPRT2SEL
      000000B2H   SFRSYM    DATA     BYTE      SFRPRT3SEL
      000000C2H   SFRSYM    DATA     BYTE      SFRPRT4SEL

      ---         MODULE    ---      ---       INTERRUPTIONS
      01006C15H   PUBLIC    CODE     ---       function_scheduler
      010058A7H   PUBLIC    CODE     ---       interrupt_manager
      01007517H   PUBLIC    CODE     ---       ISR_RS485_RX_ExInterrupt
      01007514H   PUBLIC    CODE     ---       ISR_WATCHDOG_Handler
      000000CAH   SFRSYM    DATA     BYTE      SFRPRT5SEL
LX51 LINKER/LOCATER V4.64.0.0                                                         01/12/2017  16:14:04  PAGE 40


      000000DAH   SFRSYM    DATA     BYTE      SFRPRT6SEL
      000000D0H.6 SFRSYM    DATA     BIT       AC
      000000A8H.7 SFRSYM    DATA     BIT       EA
      000000A8H   SFRSYM    DATA     BYTE      IE
      00000085H   SFRSYM    DATA     BYTE      DPH1
      00000084H   SFRSYM    DATA     BYTE      DPL1
      000000D0H.7 SFRSYM    DATA     BIT       CY
      000000A0H   SFRSYM    DATA     BYTE      P2AX
      00000095H   SFRSYM    DATA     BYTE      DPX1
      00000081H   SFRSYM    DATA     BYTE      SP
      000000D0H.2 SFRSYM    DATA     BIT       OV
      00000080H   SFRSYM    DATA     BYTE      SFRPRT0DR
      00000090H   SFRSYM    DATA     BYTE      SFRPRT1DR
      000000F2H   SFRSYM    DATA     BYTE      SFRPRT12SEL
      00000098H   SFRSYM    DATA     BYTE      SFRPRT2DR
      000000B0H   SFRSYM    DATA     BYTE      SFRPRT3DR
      000000C0H   SFRSYM    DATA     BYTE      SFRPRT4DR
      000000FAH   SFRSYM    DATA     BYTE      SFRPRT15SEL
      000000C8H   SFRSYM    DATA     BYTE      SFRPRT5DR
      000000D8H   SFRSYM    DATA     BYTE      SFRPRT6DR
      00000089H   SFRSYM    DATA     BYTE      SFRPRT0PS
      00000091H   SFRSYM    DATA     BYTE      SFRPRT1PS
      00000099H   SFRSYM    DATA     BYTE      SFRPRT2PS
      000000B1H   SFRSYM    DATA     BYTE      SFRPRT3PS
      000000C1H   SFRSYM    DATA     BYTE      SFRPRT4PS
      000000C9H   SFRSYM    DATA     BYTE      SFRPRT5PS
      000000D9H   SFRSYM    DATA     BYTE      SFRPRT6PS
      000000EAH   SFRSYM    DATA     BYTE      MXAX
      000000F0H   SFRSYM    DATA     BYTE      B
      000000E0H   SFRSYM    DATA     BYTE      ACC
      000000D0H   SFRSYM    DATA     BIT       P
      000000D0H.3 SFRSYM    DATA     BIT       RS0
      000000D0H.4 SFRSYM    DATA     BIT       RS1
      00000083H   SFRSYM    DATA     BYTE      DPH
      000000E8H   SFRSYM    DATA     BYTE      SFRPRT12DR
      00000082H   SFRSYM    DATA     BYTE      DPL
      000000F8H   SFRSYM    DATA     BYTE      SFRPRT15DR
      00000086H   SFRSYM    DATA     BYTE      DPS
      000000E9H   SFRSYM    DATA     BYTE      SFRPRT12PS
      00000093H   SFRSYM    DATA     BYTE      DPX
      000000F9H   SFRSYM    DATA     BYTE      SFRPRT15PS
      000000D0H.5 SFRSYM    DATA     BIT       F0
      000000D0H.1 SFRSYM    DATA     BIT       F1
      0000008AH   SFRSYM    DATA     BYTE      SFRPRT0SEL
      000000D0H   SFRSYM    DATA     BYTE      PSW
      000000A2H   SFRSYM    DATA     BYTE      SFRPRT1SEL
      0000009AH   SFRSYM    DATA     BYTE      SFRPRT2SEL
      000000B2H   SFRSYM    DATA     BYTE      SFRPRT3SEL
      000000C2H   SFRSYM    DATA     BYTE      SFRPRT4SEL

      01007514H   BLOCK     CODE     ---       LVL=0
      01007514H   LINE      CODE     ---       #41
      01007514H   LINE      CODE     ---       #45
      01007516H   LINE      CODE     ---       #47
      ---         BLOCKEND  ---      ---       LVL=0

      01007517H   BLOCK     CODE     ---       LVL=0
      01007517H   LINE      CODE     ---       #53
      01007517H   LINE      CODE     ---       #57
      01007519H   LINE      CODE     ---       #59
      ---         BLOCKEND  ---      ---       LVL=0

      010058A7H   BLOCK     CODE     ---       LVL=0
      010058A7H   BLOCK     CODE     NEAR LAB  LVL=1
      00000019H   SYMBOL    DATA     BYTE      state
LX51 LINKER/LOCATER V4.64.0.0                                                         01/12/2017  16:14:04  PAGE 41


      0000001AH   SYMBOL    DATA     BYTE      data_packet_index
      0000001BH   SYMBOL    DATA     BYTE      data_packet_length
      02000F87H   SYMBOL    XDATA    ---       data_packet_buffer
      0000001CH   SYMBOL    DATA     ---       rx_queue
      00000008H   SYMBOL    DATA     BYTE      rx_data
      00000020H.0 SYMBOL    BIT      BIT       rx_data_type
      00000009H   SYMBOL    DATA     BYTE      package_count
      ---         BLOCKEND  ---      ---       LVL=1
      010058A7H   LINE      CODE     ---       #76
      010058A7H   LINE      CODE     ---       #92
      010058AAH   LINE      CODE     ---       #98
      010058BDH   LINE      CODE     ---       #102
      010058C2H   LINE      CODE     ---       #104
      010058DAH   LINE      CODE     ---       #106
      010058DAH   LINE      CODE     ---       #108
      010058DDH   LINE      CODE     ---       #109
      010058E0H   LINE      CODE     ---       #110
      010058E3H   LINE      CODE     ---       #113
      010058EDH   LINE      CODE     ---       #114
      010058F0H   LINE      CODE     ---       #115
      010058F2H   LINE      CODE     ---       #116
      010058F4H   LINE      CODE     ---       #117
      010058F7H   LINE      CODE     ---       #118
      010058F9H   LINE      CODE     ---       #119
      01005909H   LINE      CODE     ---       #122
      0100590EH   LINE      CODE     ---       #123
      01005910H   LINE      CODE     ---       #126
      01005910H   LINE      CODE     ---       #129
      0100591CH   LINE      CODE     ---       #130
      01005920H   LINE      CODE     ---       #132
      01005922H   LINE      CODE     ---       #134
      01005925H   LINE      CODE     ---       #135
      01005928H   LINE      CODE     ---       #136
      0100592AH   LINE      CODE     ---       #139
      0100592AH   LINE      CODE     ---       #142
      0100592DH   LINE      CODE     ---       #144
      01005934H   LINE      CODE     ---       #145
      01005937H   LINE      CODE     ---       #146
      01005939H   LINE      CODE     ---       #147
      01005943H   LINE      CODE     ---       #148
      01005946H   LINE      CODE     ---       #149
      01005948H   LINE      CODE     ---       #150
      0100594BH   LINE      CODE     ---       #151
      0100594EH   LINE      CODE     ---       #153
      01005951H   LINE      CODE     ---       #154
      01005957H   LINE      CODE     ---       #156
      0100595AH   LINE      CODE     ---       #157
      0100595AH   LINE      CODE     ---       #158
      0100595DH   LINE      CODE     ---       #161
      0100595DH   LINE      CODE     ---       #163
      0100596BH   LINE      CODE     ---       #164
      0100596DH   LINE      CODE     ---       #167
      01005977H   LINE      CODE     ---       #169
      0100597AH   LINE      CODE     ---       #171
      0100598DH   LINE      CODE     ---       #172
      01005996H   LINE      CODE     ---       #173
      0100599CH   LINE      CODE     ---       #174
      0100599FH   LINE      CODE     ---       #175
      0100599FH   LINE      CODE     ---       #177
      010059A2H   LINE      CODE     ---       #178
      010059A4H   LINE      CODE     ---       #179
      010059A6H   LINE      CODE     ---       #180
      010059A8H   LINE      CODE     ---       #182
      010059A8H   LINE      CODE     ---       #183
      010059ABH   LINE      CODE     ---       #186
LX51 LINKER/LOCATER V4.64.0.0                                                         01/12/2017  16:14:04  PAGE 42


      010059ABH   LINE      CODE     ---       #187
      010059B4H   LINE      CODE     ---       #188
      010059B6H   LINE      CODE     ---       #189
      010059B8H   LINE      CODE     ---       #190
      010059BDH   LINE      CODE     ---       #191
      010059C2H   LINE      CODE     ---       #192
      010059C5H   LINE      CODE     ---       #193
      010059C7H   LINE      CODE     ---       #194
      010059C7H   LINE      CODE     ---       #195
      010059CAH   LINE      CODE     ---       #196
      010059CAH   LINE      CODE     ---       #197
      010059CDH   LINE      CODE     ---       #198
      ---         BLOCKEND  ---      ---       LVL=0

      01006C15H   BLOCK     CODE     ---       LVL=0
      01006C15H   BLOCK     CODE     NEAR LAB  LVL=1
      02001007H   SYMBOL    XDATA    WORD      counter_calibration
      ---         BLOCKEND  ---      ---       LVL=1
      01006C15H   LINE      CODE     ---       #207
      01006C15H   LINE      CODE     ---       #211
      01006C1EH   LINE      CODE     ---       #215
      01006C21H   LINE      CODE     ---       #216
      01006C23H   LINE      CODE     ---       #217
      01006C26H   LINE      CODE     ---       #218
      01006C26H   LINE      CODE     ---       #220
      01006C29H   LINE      CODE     ---       #232
      01006C3CH   LINE      CODE     ---       #234
      01006C3FH   LINE      CODE     ---       #235
      01006C41H   LINE      CODE     ---       #236
      01006C44H   LINE      CODE     ---       #237
      01006C44H   LINE      CODE     ---       #239
      01006C4DH   LINE      CODE     ---       #240
      01006C58H   LINE      CODE     ---       #242
      ---         BLOCKEND  ---      ---       LVL=0

      ---         MODULE    ---      ---       MAIN
      010062C1H   PUBLIC    CODE     ---       main
      000000CAH   SFRSYM    DATA     BYTE      SFRPRT5SEL
      000000DAH   SFRSYM    DATA     BYTE      SFRPRT6SEL
      000000D0H.6 SFRSYM    DATA     BIT       AC
      000000A8H.7 SFRSYM    DATA     BIT       EA
      000000A8H   SFRSYM    DATA     BYTE      IE
      00000085H   SFRSYM    DATA     BYTE      DPH1
      00000084H   SFRSYM    DATA     BYTE      DPL1
      000000D0H.7 SFRSYM    DATA     BIT       CY
      000000A0H   SFRSYM    DATA     BYTE      P2AX
      00000095H   SFRSYM    DATA     BYTE      DPX1
      00000081H   SFRSYM    DATA     BYTE      SP
      000000D0H.2 SFRSYM    DATA     BIT       OV
      00000080H   SFRSYM    DATA     BYTE      SFRPRT0DR
      00000090H   SFRSYM    DATA     BYTE      SFRPRT1DR
      000000F2H   SFRSYM    DATA     BYTE      SFRPRT12SEL
      00000098H   SFRSYM    DATA     BYTE      SFRPRT2DR
      000000B0H   SFRSYM    DATA     BYTE      SFRPRT3DR
      000000C0H   SFRSYM    DATA     BYTE      SFRPRT4DR
      000000FAH   SFRSYM    DATA     BYTE      SFRPRT15SEL
      000000C8H   SFRSYM    DATA     BYTE      SFRPRT5DR
      000000D8H   SFRSYM    DATA     BYTE      SFRPRT6DR
      00000089H   SFRSYM    DATA     BYTE      SFRPRT0PS
      00000091H   SFRSYM    DATA     BYTE      SFRPRT1PS
      00000099H   SFRSYM    DATA     BYTE      SFRPRT2PS
      000000B1H   SFRSYM    DATA     BYTE      SFRPRT3PS
      000000C1H   SFRSYM    DATA     BYTE      SFRPRT4PS
      000000C9H   SFRSYM    DATA     BYTE      SFRPRT5PS
      000000D9H   SFRSYM    DATA     BYTE      SFRPRT6PS
LX51 LINKER/LOCATER V4.64.0.0                                                         01/12/2017  16:14:04  PAGE 43


      000000EAH   SFRSYM    DATA     BYTE      MXAX
      000000F0H   SFRSYM    DATA     BYTE      B
      000000E0H   SFRSYM    DATA     BYTE      ACC
      000000D0H   SFRSYM    DATA     BIT       P
      000000D0H.3 SFRSYM    DATA     BIT       RS0
      000000D0H.4 SFRSYM    DATA     BIT       RS1
      00000083H   SFRSYM    DATA     BYTE      DPH
      000000E8H   SFRSYM    DATA     BYTE      SFRPRT12DR
      00000082H   SFRSYM    DATA     BYTE      DPL
      000000F8H   SFRSYM    DATA     BYTE      SFRPRT15DR
      00000086H   SFRSYM    DATA     BYTE      DPS
      000000E9H   SFRSYM    DATA     BYTE      SFRPRT12PS
      00000093H   SFRSYM    DATA     BYTE      DPX
      000000F9H   SFRSYM    DATA     BYTE      SFRPRT15PS
      000000D0H.5 SFRSYM    DATA     BIT       F0
      000000D0H.1 SFRSYM    DATA     BIT       F1
      0000008AH   SFRSYM    DATA     BYTE      SFRPRT0SEL
      000000D0H   SFRSYM    DATA     BYTE      PSW
      000000A2H   SFRSYM    DATA     BYTE      SFRPRT1SEL
      0000009AH   SFRSYM    DATA     BYTE      SFRPRT2SEL
      000000B2H   SFRSYM    DATA     BYTE      SFRPRT3SEL
      000000C2H   SFRSYM    DATA     BYTE      SFRPRT4SEL

      010062C1H   BLOCK     CODE     ---       LVL=0
      010062C1H   BLOCK     CODE     NEAR LAB  LVL=1
      0200051DH   SYMBOL    XDATA    BYTE      i
      0200051EH   SYMBOL    XDATA    BYTE      DMA_Chan
      0200051FH   SYMBOL    XDATA    ---       DMA_TD
      02000520H   SYMBOL    XDATA    INT       k_imu
      ---         BLOCKEND  ---      ---       LVL=1
      010062C1H   LINE      CODE     ---       #50
      010062C1H   LINE      CODE     ---       #51
      010062C1H   LINE      CODE     ---       #67
      010062C4H   LINE      CODE     ---       #68
      010062C7H   LINE      CODE     ---       #72
      010062D0H   LINE      CODE     ---       #73
      010062D5H   LINE      CODE     ---       #77
      010062D8H   LINE      CODE     ---       #78
      010062DBH   LINE      CODE     ---       #79
      010062DEH   LINE      CODE     ---       #81
      010062E1H   LINE      CODE     ---       #82
      010062E4H   LINE      CODE     ---       #84
      010062EBH   LINE      CODE     ---       #88
      010062EEH   LINE      CODE     ---       #90
      010062F5H   LINE      CODE     ---       #92
      010062FAH   LINE      CODE     ---       #96
      010062FDH   LINE      CODE     ---       #97
      01006300H   LINE      CODE     ---       #99
      01006308H   LINE      CODE     ---       #102
      0100630BH   LINE      CODE     ---       #103
      0100630EH   LINE      CODE     ---       #104
      01006311H   LINE      CODE     ---       #105
      01006314H   LINE      CODE     ---       #106
      01006317H   LINE      CODE     ---       #107
      0100631AH   LINE      CODE     ---       #108
      01006323H   LINE      CODE     ---       #110
      01006328H   LINE      CODE     ---       #113
      0100632BH   LINE      CODE     ---       #135
      01006330H   LINE      CODE     ---       #136
      01006332H   LINE      CODE     ---       #138
      01006334H   LINE      CODE     ---       #141
      0100633AH   LINE      CODE     ---       #142
      0100633EH   LINE      CODE     ---       #146
      0100633EH   LINE      CODE     ---       #147
      0100633EH   LINE      CODE     ---       #149
LX51 LINKER/LOCATER V4.64.0.0                                                         01/12/2017  16:14:04  PAGE 44


      01006343H   LINE      CODE     ---       #152
      01006346H   LINE      CODE     ---       #155
      0100634CH   LINE      CODE     ---       #157
      0100634FH   LINE      CODE     ---       #159
      01006354H   LINE      CODE     ---       #161
      01006356H   LINE      CODE     ---       #162
      01006358H   LINE      CODE     ---       #164
      0100635BH   LINE      CODE     ---       #165
      0100635DH   LINE      CODE     ---       #167
      0100635DH   LINE      CODE     ---       #168
      01006360H   LINE      CODE     ---       #170
      01006365H   LINE      CODE     ---       #172
      01006365H   LINE      CODE     ---       #173
      01006365H   LINE      CODE     ---       #174
      01006367H   LINE      CODE     ---       #177
      0100636CH   LINE      CODE     ---       #180
      01006374H   LINE      CODE     ---       #182
      0100637BH   LINE      CODE     ---       #183
      0100637EH   LINE      CODE     ---       #184
      01006380H   LINE      CODE     ---       #185
      01006380H   LINE      CODE     ---       #186
      ---         BLOCKEND  ---      ---       LVL=0

      ---         MODULE    ---      ---       UTILS
      000000CAH   SFRSYM    DATA     BYTE      SFRPRT5SEL
      000000DAH   SFRSYM    DATA     BYTE      SFRPRT6SEL
      000000D0H.6 SFRSYM    DATA     BIT       AC
      000000A8H.7 SFRSYM    DATA     BIT       EA
      000000A8H   SFRSYM    DATA     BYTE      IE
      00000085H   SFRSYM    DATA     BYTE      DPH1
      00000084H   SFRSYM    DATA     BYTE      DPL1
      000000D0H.7 SFRSYM    DATA     BIT       CY
      000000A0H   SFRSYM    DATA     BYTE      P2AX
      00000095H   SFRSYM    DATA     BYTE      DPX1
      00000081H   SFRSYM    DATA     BYTE      SP
      000000D0H.2 SFRSYM    DATA     BIT       OV
      00000080H   SFRSYM    DATA     BYTE      SFRPRT0DR
      00000090H   SFRSYM    DATA     BYTE      SFRPRT1DR
      000000F2H   SFRSYM    DATA     BYTE      SFRPRT12SEL
      00000098H   SFRSYM    DATA     BYTE      SFRPRT2DR
      000000B0H   SFRSYM    DATA     BYTE      SFRPRT3DR
      000000C0H   SFRSYM    DATA     BYTE      SFRPRT4DR
      000000FAH   SFRSYM    DATA     BYTE      SFRPRT15SEL
      000000C8H   SFRSYM    DATA     BYTE      SFRPRT5DR
      000000D8H   SFRSYM    DATA     BYTE      SFRPRT6DR
      00000089H   SFRSYM    DATA     BYTE      SFRPRT0PS
      00000091H   SFRSYM    DATA     BYTE      SFRPRT1PS
      00000099H   SFRSYM    DATA     BYTE      SFRPRT2PS
      000000B1H   SFRSYM    DATA     BYTE      SFRPRT3PS
      000000C1H   SFRSYM    DATA     BYTE      SFRPRT4PS
      000000C9H   SFRSYM    DATA     BYTE      SFRPRT5PS
      000000D9H   SFRSYM    DATA     BYTE      SFRPRT6PS
      000000EAH   SFRSYM    DATA     BYTE      MXAX
      000000F0H   SFRSYM    DATA     BYTE      B
      000000E0H   SFRSYM    DATA     BYTE      ACC
      000000D0H   SFRSYM    DATA     BIT       P
      000000D0H.3 SFRSYM    DATA     BIT       RS0
      000000D0H.4 SFRSYM    DATA     BIT       RS1
      00000083H   SFRSYM    DATA     BYTE      DPH
      000000E8H   SFRSYM    DATA     BYTE      SFRPRT12DR
      00000082H   SFRSYM    DATA     BYTE      DPL
      000000F8H   SFRSYM    DATA     BYTE      SFRPRT15DR
      00000086H   SFRSYM    DATA     BYTE      DPS
      000000E9H   SFRSYM    DATA     BYTE      SFRPRT12PS
      00000093H   SFRSYM    DATA     BYTE      DPX
LX51 LINKER/LOCATER V4.64.0.0                                                         01/12/2017  16:14:04  PAGE 45


      000000F9H   SFRSYM    DATA     BYTE      SFRPRT15PS
      000000D0H.5 SFRSYM    DATA     BIT       F0
      000000D0H.1 SFRSYM    DATA     BIT       F1
      0000008AH   SFRSYM    DATA     BYTE      SFRPRT0SEL
      000000D0H   SFRSYM    DATA     BYTE      PSW
      000000A2H   SFRSYM    DATA     BYTE      SFRPRT1SEL
      0000009AH   SFRSYM    DATA     BYTE      SFRPRT2SEL
      000000B2H   SFRSYM    DATA     BYTE      SFRPRT3SEL
      000000C2H   SFRSYM    DATA     BYTE      SFRPRT4SEL
      00000004H   SYMBOL    DATA     LONG      new_value
      02001073H   SYMBOL    XDATA    LONG      old_value
      02001077H   SYMBOL    XDATA    LONG      aux
      00000004H   SYMBOL    DATA     LONG      new_value
      0200107BH   SYMBOL    XDATA    LONG      old_value
      0200107FH   SYMBOL    XDATA    LONG      aux
      00000004H   SYMBOL    DATA     LONG      new_value
      02001083H   SYMBOL    XDATA    LONG      old_value
      02001087H   SYMBOL    XDATA    LONG      aux
      00000004H   SYMBOL    DATA     LONG      new_value
      0200108BH   SYMBOL    XDATA    LONG      old_value
      0200108FH   SYMBOL    XDATA    LONG      aux
      00000001H   SYMBOL    DATA     ---       value
      00000004H   SYMBOL    DATA     LONG      x
      00000004H   SYMBOL    DATA     LONG      aux

      ---         MODULE    ---      ---       IMU_FUNCTIONS
      010071CBH   PUBLIC    CODE     ---       _ReadControlRegister
      01006E9EH   PUBLIC    CODE     ---       _WriteControlRegister
      01005029H   PUBLIC    CODE     ---       ReadAllIMUs
      010066B4H   PUBLIC    CODE     ---       _ReadMagCal
      01005F0AH   PUBLIC    CODE     ---       _ReadMag
      01005E0FH   PUBLIC    CODE     ---       _ReadGyro
      01005D14H   PUBLIC    CODE     ---       _ReadAcc
      01006816H   PUBLIC    CODE     ---       _ReadIMU
      01004CFCH   PUBLIC    CODE     ---       InitIMUgeneral
      01006B85H   PUBLIC    CODE     ---       _ChipSelector
      010060F1H   PUBLIC    CODE     ---       InitIMUMagCal
      01006000H   PUBLIC    CODE     ---       InitIMU
      000000CAH   SFRSYM    DATA     BYTE      SFRPRT5SEL
      000000DAH   SFRSYM    DATA     BYTE      SFRPRT6SEL
      000000D0H.6 SFRSYM    DATA     BIT       AC
      000000A8H.7 SFRSYM    DATA     BIT       EA
      000000A8H   SFRSYM    DATA     BYTE      IE
      00000085H   SFRSYM    DATA     BYTE      DPH1
      00000084H   SFRSYM    DATA     BYTE      DPL1
      000000D0H.7 SFRSYM    DATA     BIT       CY
      000000A0H   SFRSYM    DATA     BYTE      P2AX
      00000095H   SFRSYM    DATA     BYTE      DPX1
      00000081H   SFRSYM    DATA     BYTE      SP
      000000D0H.2 SFRSYM    DATA     BIT       OV
      00000080H   SFRSYM    DATA     BYTE      SFRPRT0DR
      00000090H   SFRSYM    DATA     BYTE      SFRPRT1DR
      000000F2H   SFRSYM    DATA     BYTE      SFRPRT12SEL
      00000098H   SFRSYM    DATA     BYTE      SFRPRT2DR
      000000B0H   SFRSYM    DATA     BYTE      SFRPRT3DR
      000000C0H   SFRSYM    DATA     BYTE      SFRPRT4DR
      000000FAH   SFRSYM    DATA     BYTE      SFRPRT15SEL
      000000C8H   SFRSYM    DATA     BYTE      SFRPRT5DR
      000000D8H   SFRSYM    DATA     BYTE      SFRPRT6DR
      00000089H   SFRSYM    DATA     BYTE      SFRPRT0PS
      00000091H   SFRSYM    DATA     BYTE      SFRPRT1PS
      00000099H   SFRSYM    DATA     BYTE      SFRPRT2PS
      000000B1H   SFRSYM    DATA     BYTE      SFRPRT3PS
      000000C1H   SFRSYM    DATA     BYTE      SFRPRT4PS
      000000C9H   SFRSYM    DATA     BYTE      SFRPRT5PS
LX51 LINKER/LOCATER V4.64.0.0                                                         01/12/2017  16:14:04  PAGE 46


      000000D9H   SFRSYM    DATA     BYTE      SFRPRT6PS
      000000EAH   SFRSYM    DATA     BYTE      MXAX
      000000F0H   SFRSYM    DATA     BYTE      B
      000000E0H   SFRSYM    DATA     BYTE      ACC
      000000D0H   SFRSYM    DATA     BIT       P
      000000D0H.3 SFRSYM    DATA     BIT       RS0
      000000D0H.4 SFRSYM    DATA     BIT       RS1
      00000083H   SFRSYM    DATA     BYTE      DPH
      000000E8H   SFRSYM    DATA     BYTE      SFRPRT12DR
      00000082H   SFRSYM    DATA     BYTE      DPL
      000000F8H   SFRSYM    DATA     BYTE      SFRPRT15DR
      00000086H   SFRSYM    DATA     BYTE      DPS
      000000E9H   SFRSYM    DATA     BYTE      SFRPRT12PS
      00000093H   SFRSYM    DATA     BYTE      DPX
      000000F9H   SFRSYM    DATA     BYTE      SFRPRT15PS
      000000D0H.5 SFRSYM    DATA     BIT       F0
      000000D0H.1 SFRSYM    DATA     BIT       F1
      0000008AH   SFRSYM    DATA     BYTE      SFRPRT0SEL
      000000D0H   SFRSYM    DATA     BYTE      PSW
      000000A2H   SFRSYM    DATA     BYTE      SFRPRT1SEL
      0000009AH   SFRSYM    DATA     BYTE      SFRPRT2SEL
      000000B2H   SFRSYM    DATA     BYTE      SFRPRT3SEL
      000000C2H   SFRSYM    DATA     BYTE      SFRPRT4SEL

      01006000H   BLOCK     CODE     ---       LVL=0
      01006000H   LINE      CODE     ---       #45
      01006000H   LINE      CODE     ---       #47
      01006007H   LINE      CODE     ---       #48
      01006010H   LINE      CODE     ---       #49
      01006017H   LINE      CODE     ---       #50
      01006020H   LINE      CODE     ---       #51
      01006027H   LINE      CODE     ---       #52
      01006030H   LINE      CODE     ---       #53
      01006037H   LINE      CODE     ---       #54
      01006040H   LINE      CODE     ---       #55
      01006047H   LINE      CODE     ---       #56
      01006050H   LINE      CODE     ---       #57
      01006057H   LINE      CODE     ---       #58
      01006060H   LINE      CODE     ---       #60
      01006067H   LINE      CODE     ---       #61
      01006070H   LINE      CODE     ---       #63
      01006077H   LINE      CODE     ---       #64
      01006080H   LINE      CODE     ---       #65
      01006087H   LINE      CODE     ---       #66
      01006090H   LINE      CODE     ---       #68
      01006097H   LINE      CODE     ---       #69
      010060A0H   LINE      CODE     ---       #70
      010060A7H   LINE      CODE     ---       #71
      010060B0H   LINE      CODE     ---       #73
      010060B7H   LINE      CODE     ---       #74
      010060C0H   LINE      CODE     ---       #76
      010060C7H   LINE      CODE     ---       #77
      010060D0H   LINE      CODE     ---       #79
      010060D7H   LINE      CODE     ---       #80
      010060E0H   LINE      CODE     ---       #81
      010060E7H   LINE      CODE     ---       #82
      010060F0H   LINE      CODE     ---       #83
      ---         BLOCKEND  ---      ---       LVL=0

      010060F1H   BLOCK     CODE     ---       LVL=0
      010060F1H   LINE      CODE     ---       #88
      010060F1H   LINE      CODE     ---       #90
      010060F8H   LINE      CODE     ---       #91
      01006101H   LINE      CODE     ---       #92
      01006108H   LINE      CODE     ---       #93
LX51 LINKER/LOCATER V4.64.0.0                                                         01/12/2017  16:14:04  PAGE 47


      01006111H   LINE      CODE     ---       #94
      01006118H   LINE      CODE     ---       #95
      01006121H   LINE      CODE     ---       #96
      01006128H   LINE      CODE     ---       #97
      01006131H   LINE      CODE     ---       #98
      01006138H   LINE      CODE     ---       #99
      01006141H   LINE      CODE     ---       #100
      01006148H   LINE      CODE     ---       #101
      01006151H   LINE      CODE     ---       #103
      01006158H   LINE      CODE     ---       #104
      01006161H   LINE      CODE     ---       #106
      01006168H   LINE      CODE     ---       #107
      01006171H   LINE      CODE     ---       #108
      01006178H   LINE      CODE     ---       #109
      01006181H   LINE      CODE     ---       #110
      01006188H   LINE      CODE     ---       #111
      01006191H   LINE      CODE     ---       #112
      01006198H   LINE      CODE     ---       #113
      010061A1H   LINE      CODE     ---       #115
      010061A8H   LINE      CODE     ---       #116
      010061B1H   LINE      CODE     ---       #117
      010061B8H   LINE      CODE     ---       #118
      010061C1H   LINE      CODE     ---       #119
      010061C8H   LINE      CODE     ---       #120
      010061D1H   LINE      CODE     ---       #121
      010061D8H   LINE      CODE     ---       #122
      010061E1H   LINE      CODE     ---       #123
      ---         BLOCKEND  ---      ---       LVL=0

      01006B85H   BLOCK     CODE     ---       LVL=0
      020009EFH   SYMBOL    XDATA    INT       n
      01006B85H   LINE      CODE     ---       #128
      01006B8DH   LINE      CODE     ---       #129
      01006B8DH   LINE      CODE     ---       #130
      01006B92H   LINE      CODE     ---       #131
      01006B97H   LINE      CODE     ---       #133
      01006BA9H   LINE      CODE     ---       #134
      01006BACH   LINE      CODE     ---       #135
      01006BB8H   LINE      CODE     ---       #136
      01006BBCH   LINE      CODE     ---       #137
      01006BC8H   LINE      CODE     ---       #138
      01006BCDH   LINE      CODE     ---       #139
      ---         BLOCKEND  ---      ---       LVL=0

      01004CFCH   BLOCK     CODE     ---       LVL=0
      01004CFCH   BLOCK     CODE     NEAR LAB  LVL=1
      02000522H   SYMBOL    XDATA    BYTE      k_imu
      02000523H   SYMBOL    XDATA    BYTE      count
      02000524H   SYMBOL    XDATA    INT       IMU_ack
      02000526H   SYMBOL    XDATA    ---       tmp
      ---         BLOCKEND  ---      ---       LVL=1
      01004CFCH   LINE      CODE     ---       #144
      01004CFCH   LINE      CODE     ---       #145
      01004CFCH   LINE      CODE     ---       #147
      01004D01H   LINE      CODE     ---       #152
      01004D0EH   LINE      CODE     ---       #153
      01004D1DH   LINE      CODE     ---       #157
      01004D2CH   LINE      CODE     ---       #158
      01004D2CH   LINE      CODE     ---       #159
      01004D31H   LINE      CODE     ---       #160
      01004D3AH   LINE      CODE     ---       #161
      01004D3DH   LINE      CODE     ---       #162
      01004D46H   LINE      CODE     ---       #163
      01004D5BH   LINE      CODE     ---       #164
      01004D6CH   LINE      CODE     ---       #165
LX51 LINKER/LOCATER V4.64.0.0                                                         01/12/2017  16:14:04  PAGE 48


      01004D7CH   LINE      CODE     ---       #166
      01004D84H   LINE      CODE     ---       #169
      01004D8DH   LINE      CODE     ---       #170
      01004D9CH   LINE      CODE     ---       #171
      01004DA1H   LINE      CODE     ---       #172
      01004DABH   LINE      CODE     ---       #173
      01004DB3H   LINE      CODE     ---       #176
      01004DB9H   LINE      CODE     ---       #177
      01004DC2H   LINE      CODE     ---       #178
      01004DCFH   LINE      CODE     ---       #179
      01004DD6H   LINE      CODE     ---       #180
      01004DDAH   LINE      CODE     ---       #181
      01004DE8H   LINE      CODE     ---       #182
      01004DE8H   LINE      CODE     ---       #183
      01004DEDH   LINE      CODE     ---       #184
      01004DF6H   LINE      CODE     ---       #185
      01004E05H   LINE      CODE     ---       #186
      01004E09H   LINE      CODE     ---       #187
      01004E09H   LINE      CODE     ---       #188
      01004E0FH   LINE      CODE     ---       #189
      01004E16H   LINE      CODE     ---       #190
      01004E2AH   LINE      CODE     ---       #191
      01004E2CH   LINE      CODE     ---       #193
      01004E3FH   LINE      CODE     ---       #194
      01004E47H   LINE      CODE     ---       #195
      01004E56H   LINE      CODE     ---       #196
      01004E65H   LINE      CODE     ---       #197
      01004E74H   LINE      CODE     ---       #198
      01004E83H   LINE      CODE     ---       #199
      01004E83H   LINE      CODE     ---       #200
      01004E98H   LINE      CODE     ---       #201
      01004E98H   LINE      CODE     ---       #202
      01004EA9H   LINE      CODE     ---       #203
      01004EAFH   LINE      CODE     ---       #204
      01004EAFH   LINE      CODE     ---       #205
      01004EB7H   LINE      CODE     ---       #208
      01004EBCH   LINE      CODE     ---       #209
      01004EC5H   LINE      CODE     ---       #210
      01004ECAH   LINE      CODE     ---       #211
      01004ED3H   LINE      CODE     ---       #212
      01004EE2H   LINE      CODE     ---       #213
      01004EE2H   LINE      CODE     ---       #214
      01004EE7H   LINE      CODE     ---       #215
      01004EF0H   LINE      CODE     ---       #216
      01004EF3H   LINE      CODE     ---       #217
      01004EFCH   LINE      CODE     ---       #218
      01004F11H   LINE      CODE     ---       #219
      01004F22H   LINE      CODE     ---       #220
      01004F32H   LINE      CODE     ---       #221
      01004F42H   LINE      CODE     ---       #222
      01004F52H   LINE      CODE     ---       #223
      01004F5BH   LINE      CODE     ---       #224
      01004F64H   LINE      CODE     ---       #227
      01004F6CH   LINE      CODE     ---       #228
      01004F82H   LINE      CODE     ---       #229
      01004F82H   LINE      CODE     ---       #230
      01004FEAH   LINE      CODE     ---       #231
      01005011H   LINE      CODE     ---       #232
      0100501AH   LINE      CODE     ---       #233
      01005028H   LINE      CODE     ---       #236
      ---         BLOCKEND  ---      ---       LVL=0

      01006816H   BLOCK     CODE     ---       LVL=0
      020009EFH   SYMBOL    XDATA    INT       n
      01006816H   LINE      CODE     ---       #241
LX51 LINKER/LOCATER V4.64.0.0                                                         01/12/2017  16:14:04  PAGE 49


      0100681EH   LINE      CODE     ---       #242
      0100681EH   LINE      CODE     ---       #243
      0100683EH   LINE      CODE     ---       #244
      0100685EH   LINE      CODE     ---       #245
      0100687EH   LINE      CODE     ---       #246
      ---         BLOCKEND  ---      ---       LVL=0

      01005D14H   BLOCK     CODE     ---       LVL=0
      00000006H   SYMBOL    DATA     INT       n
      01005D14H   BLOCK     CODE     NEAR LAB  LVL=1
      020009F1H   SYMBOL    XDATA    BYTE      low
      020009F2H   SYMBOL    XDATA    BYTE      high
      020009F3H   SYMBOL    XDATA    INT       row
      ---         BLOCKEND  ---      ---       LVL=1
      01005D14H   LINE      CODE     ---       #251
      01005D14H   LINE      CODE     ---       #252
      01005D14H   LINE      CODE     ---       #253
      01005D1BH   LINE      CODE     ---       #255
      01005D21H   LINE      CODE     ---       #258
      01005D2BH   LINE      CODE     ---       #259
      01005D35H   LINE      CODE     ---       #261
      01005D4FH   LINE      CODE     ---       #262
      01005D69H   LINE      CODE     ---       #263
      01005D70H   LINE      CODE     ---       #266
      01005D7AH   LINE      CODE     ---       #267
      01005D84H   LINE      CODE     ---       #269
      01005D9EH   LINE      CODE     ---       #270
      01005DB8H   LINE      CODE     ---       #271
      01005DBFH   LINE      CODE     ---       #274
      01005DC9H   LINE      CODE     ---       #275
      01005DD3H   LINE      CODE     ---       #277
      01005DEDH   LINE      CODE     ---       #278
      01005E07H   LINE      CODE     ---       #279
      01005E0EH   LINE      CODE     ---       #281
      ---         BLOCKEND  ---      ---       LVL=0

      01005E0FH   BLOCK     CODE     ---       LVL=0
      00000006H   SYMBOL    DATA     INT       n
      01005E0FH   BLOCK     CODE     NEAR LAB  LVL=1
      020009F1H   SYMBOL    XDATA    BYTE      low
      020009F2H   SYMBOL    XDATA    BYTE      high
      020009F3H   SYMBOL    XDATA    INT       row
      ---         BLOCKEND  ---      ---       LVL=1
      01005E0FH   LINE      CODE     ---       #286
      01005E0FH   LINE      CODE     ---       #287
      01005E16H   LINE      CODE     ---       #289
      01005E1CH   LINE      CODE     ---       #292
      01005E26H   LINE      CODE     ---       #293
      01005E30H   LINE      CODE     ---       #295
      01005E4AH   LINE      CODE     ---       #296
      01005E64H   LINE      CODE     ---       #297
      01005E6BH   LINE      CODE     ---       #299
      01005E75H   LINE      CODE     ---       #300
      01005E7FH   LINE      CODE     ---       #302
      01005E99H   LINE      CODE     ---       #303
      01005EB3H   LINE      CODE     ---       #304
      01005EBAH   LINE      CODE     ---       #307
      01005EC4H   LINE      CODE     ---       #308
      01005ECEH   LINE      CODE     ---       #310
      01005EE8H   LINE      CODE     ---       #311
      01005F02H   LINE      CODE     ---       #313
      01005F09H   LINE      CODE     ---       #314
      ---         BLOCKEND  ---      ---       LVL=0

      01005F0AH   BLOCK     CODE     ---       LVL=0
LX51 LINKER/LOCATER V4.64.0.0                                                         01/12/2017  16:14:04  PAGE 50


      00000006H   SYMBOL    DATA     INT       n
      01005F0AH   BLOCK     CODE     NEAR LAB  LVL=1
      020009F1H   SYMBOL    XDATA    BYTE      low
      020009F2H   SYMBOL    XDATA    BYTE      high
      020009F3H   SYMBOL    XDATA    INT       row
      ---         BLOCKEND  ---      ---       LVL=1
      01005F0AH   LINE      CODE     ---       #318
      01005F0AH   LINE      CODE     ---       #321
      01005F12H   LINE      CODE     ---       #323
      01005F1CH   LINE      CODE     ---       #324
      01005F26H   LINE      CODE     ---       #326
      01005F40H   LINE      CODE     ---       #327
      01005F5AH   LINE      CODE     ---       #328
      01005F61H   LINE      CODE     ---       #330
      01005F6BH   LINE      CODE     ---       #331
      01005F75H   LINE      CODE     ---       #333
      01005F8FH   LINE      CODE     ---       #334
      01005FA9H   LINE      CODE     ---       #335
      01005FB0H   LINE      CODE     ---       #337
      01005FBAH   LINE      CODE     ---       #338
      01005FC4H   LINE      CODE     ---       #340
      01005FDEH   LINE      CODE     ---       #341
      01005FF8H   LINE      CODE     ---       #342
      01005FFFH   LINE      CODE     ---       #343
      ---         BLOCKEND  ---      ---       LVL=0

      010066B4H   BLOCK     CODE     ---       LVL=0
      00000006H   SYMBOL    DATA     INT       n
      010066B4H   BLOCK     CODE     NEAR LAB  LVL=1
      02000548H   SYMBOL    XDATA    BYTE      read
      02000549H   SYMBOL    XDATA    INT       row
      ---         BLOCKEND  ---      ---       LVL=1
      010066B4H   LINE      CODE     ---       #347
      010066B4H   LINE      CODE     ---       #349
      010066B9H   LINE      CODE     ---       #350
      010066BFH   LINE      CODE     ---       #352
      010066C9H   LINE      CODE     ---       #353
      010066E2H   LINE      CODE     ---       #354
      010066E7H   LINE      CODE     ---       #356
      010066F1H   LINE      CODE     ---       #357
      0100670AH   LINE      CODE     ---       #358
      0100670FH   LINE      CODE     ---       #360
      01006719H   LINE      CODE     ---       #361
      01006732H   LINE      CODE     ---       #362
      01006737H   LINE      CODE     ---       #364
      ---         BLOCKEND  ---      ---       LVL=0

      01005029H   BLOCK     CODE     ---       LVL=0
      01005029H   BLOCK     CODE     NEAR LAB  LVL=1
      020010AEH   SYMBOL    XDATA    BYTE      k_imu
      02000522H   SYMBOL    XDATA    WORD      tmp
      ---         BLOCKEND  ---      ---       LVL=1
      01005029H   LINE      CODE     ---       #369
      01005029H   LINE      CODE     ---       #371
      01005030H   LINE      CODE     ---       #374
      01005045H   LINE      CODE     ---       #376
      01005056H   LINE      CODE     ---       #377
      0100506AH   LINE      CODE     ---       #379
      01005091H   LINE      CODE     ---       #380
      010050BCH   LINE      CODE     ---       #381
      010050E3H   LINE      CODE     ---       #382
      0100510EH   LINE      CODE     ---       #383
      01005135H   LINE      CODE     ---       #384
      01005160H   LINE      CODE     ---       #386
      01005187H   LINE      CODE     ---       #387
LX51 LINKER/LOCATER V4.64.0.0                                                         01/12/2017  16:14:04  PAGE 51


      010051B2H   LINE      CODE     ---       #388
      010051D9H   LINE      CODE     ---       #389
      01005204H   LINE      CODE     ---       #390
      0100522BH   LINE      CODE     ---       #391
      01005256H   LINE      CODE     ---       #393
      0100527DH   LINE      CODE     ---       #394
      010052A8H   LINE      CODE     ---       #395
      010052CFH   LINE      CODE     ---       #396
      010052FAH   LINE      CODE     ---       #397
      01005321H   LINE      CODE     ---       #398
      0100534CH   LINE      CODE     ---       #399
      01005355H   LINE      CODE     ---       #400
      ---         BLOCKEND  ---      ---       LVL=0

      01006E9EH   BLOCK     CODE     ---       LVL=0
      02000548H   SYMBOL    XDATA    BYTE      address
      02000549H   SYMBOL    XDATA    BYTE      dta
      01006E9EH   LINE      CODE     ---       #515
      01006EA6H   LINE      CODE     ---       #517
      01006EA9H   LINE      CODE     ---       #518
      01006EACH   LINE      CODE     ---       #519
      01006EAFH   LINE      CODE     ---       #520
      01006EB7H   LINE      CODE     ---       #521
      01006EBEH   LINE      CODE     ---       #522
      01006EC6H   LINE      CODE     ---       #523
      01006ECDH   LINE      CODE     ---       #524
      ---         BLOCKEND  ---      ---       LVL=0

      010071CBH   BLOCK     CODE     ---       LVL=0
      00000007H   SYMBOL    DATA     BYTE      address
      010071CBH   BLOCK     CODE     NEAR LAB  LVL=1
      00000007H   SYMBOL    DATA     BYTE      controlreg
      ---         BLOCKEND  ---      ---       LVL=1
      010071CBH   LINE      CODE     ---       #529
      010071CBH   LINE      CODE     ---       #533
      010071D2H   LINE      CODE     ---       #534
      010071D7H   LINE      CODE     ---       #535
      010071DEH   LINE      CODE     ---       #536
      010071E1H   LINE      CODE     ---       #537
      010071E1H   LINE      CODE     ---       #538
      ---         BLOCKEND  ---      ---       LVL=0

      ---         MODULE    ---      ---       UART_RS485
      02001072H   PUBLIC    XDATA    BYTE      UART_RS485_errorStatus
      02001071H   PUBLIC    XDATA    BYTE      UART_RS485_rxBufferOverflow
      02001070H   PUBLIC    XDATA    BYTE      UART_RS485_initVar
      0200106FH   PUBLIC    XDATA    BYTE      UART_RS485_rxBufferWrite
      0200104FH   PUBLIC    XDATA    ---       UART_RS485_rxBuffer
      0200104EH   PUBLIC    XDATA    BYTE      UART_RS485_rxBufferRead
      0200104DH   PUBLIC    XDATA    BYTE      UART_RS485_rxBufferLoopDetect
      010072FEH   PUBLIC    CODE     ---       UART_RS485_ClearTxBuffer
      01006D52H   PUBLIC    CODE     ---       _UART_RS485_PutString
      010073E4H   PUBLIC    CODE     ---       _UART_RS485_PutChar
      010074B0H   PUBLIC    CODE     ---       UART_RS485_ReadTxStatus
      01006ECEH   PUBLIC    CODE     ---       UART_RS485_ClearRxBuffer
      01006AE9H   PUBLIC    CODE     ---       UART_RS485_GetRxBufferSize
      01006940H   PUBLIC    CODE     ---       UART_RS485_GetChar
      0100728BH   PUBLIC    CODE     ---       UART_RS485_ReadRxStatus
      0100703DH   PUBLIC    CODE     ---       UART_RS485_Stop
      0100701BH   PUBLIC    CODE     ---       UART_RS485_Enable
      01006DBAH   PUBLIC    CODE     ---       UART_RS485_Init
      01006DEDH   PUBLIC    CODE     ---       UART_RS485_Start
      000000CAH   SFRSYM    DATA     BYTE      SFRPRT5SEL
      000000DAH   SFRSYM    DATA     BYTE      SFRPRT6SEL
      000000D0H.6 SFRSYM    DATA     BIT       AC
LX51 LINKER/LOCATER V4.64.0.0                                                         01/12/2017  16:14:04  PAGE 52


      000000A8H.7 SFRSYM    DATA     BIT       EA
      000000A8H   SFRSYM    DATA     BYTE      IE
      00000085H   SFRSYM    DATA     BYTE      DPH1
      00000084H   SFRSYM    DATA     BYTE      DPL1
      000000D0H.7 SFRSYM    DATA     BIT       CY
      000000A0H   SFRSYM    DATA     BYTE      P2AX
      00000095H   SFRSYM    DATA     BYTE      DPX1
      00000081H   SFRSYM    DATA     BYTE      SP
      000000D0H.2 SFRSYM    DATA     BIT       OV
      00000080H   SFRSYM    DATA     BYTE      SFRPRT0DR
      00000090H   SFRSYM    DATA     BYTE      SFRPRT1DR
      000000F2H   SFRSYM    DATA     BYTE      SFRPRT12SEL
      00000098H   SFRSYM    DATA     BYTE      SFRPRT2DR
      000000B0H   SFRSYM    DATA     BYTE      SFRPRT3DR
      000000C0H   SFRSYM    DATA     BYTE      SFRPRT4DR
      000000FAH   SFRSYM    DATA     BYTE      SFRPRT15SEL
      000000C8H   SFRSYM    DATA     BYTE      SFRPRT5DR
      000000D8H   SFRSYM    DATA     BYTE      SFRPRT6DR
      00000089H   SFRSYM    DATA     BYTE      SFRPRT0PS
      00000091H   SFRSYM    DATA     BYTE      SFRPRT1PS
      00000099H   SFRSYM    DATA     BYTE      SFRPRT2PS
      000000B1H   SFRSYM    DATA     BYTE      SFRPRT3PS
      000000C1H   SFRSYM    DATA     BYTE      SFRPRT4PS
      000000C9H   SFRSYM    DATA     BYTE      SFRPRT5PS
      000000D9H   SFRSYM    DATA     BYTE      SFRPRT6PS
      000000EAH   SFRSYM    DATA     BYTE      MXAX
      000000F0H   SFRSYM    DATA     BYTE      B
      000000E0H   SFRSYM    DATA     BYTE      ACC
      000000D0H   SFRSYM    DATA     BIT       P
      000000D0H.3 SFRSYM    DATA     BIT       RS0
      000000D0H.4 SFRSYM    DATA     BIT       RS1
      00000083H   SFRSYM    DATA     BYTE      DPH
      000000E8H   SFRSYM    DATA     BYTE      SFRPRT12DR
      00000082H   SFRSYM    DATA     BYTE      DPL
      000000F8H   SFRSYM    DATA     BYTE      SFRPRT15DR
      00000086H   SFRSYM    DATA     BYTE      DPS
      000000E9H   SFRSYM    DATA     BYTE      SFRPRT12PS
      00000093H   SFRSYM    DATA     BYTE      DPX
      000000F9H   SFRSYM    DATA     BYTE      SFRPRT15PS
      000000D0H.5 SFRSYM    DATA     BIT       F0
      000000D0H.1 SFRSYM    DATA     BIT       F1
      0000008AH   SFRSYM    DATA     BYTE      SFRPRT0SEL
      000000D0H   SFRSYM    DATA     BYTE      PSW
      000000A2H   SFRSYM    DATA     BYTE      SFRPRT1SEL
      0000009AH   SFRSYM    DATA     BYTE      SFRPRT2SEL
      000000B2H   SFRSYM    DATA     BYTE      SFRPRT3SEL
      000000C2H   SFRSYM    DATA     BYTE      SFRPRT4SEL

      01006DEDH   BLOCK     CODE     ---       LVL=0
      01006DEDH   LINE      CODE     ---       #76
      01006DEDH   LINE      CODE     ---       #77
      01006DEDH   LINE      CODE     ---       #79
      01006DF3H   LINE      CODE     ---       #80
      01006DF3H   LINE      CODE     ---       #81
      01006DF6H   LINE      CODE     ---       #82
      01006DFCH   LINE      CODE     ---       #83
      01006DFCH   LINE      CODE     ---       #85
      01006DFFH   LINE      CODE     ---       #86
      ---         BLOCKEND  ---      ---       LVL=0

      01006DBAH   BLOCK     CODE     ---       LVL=0
      01006DBAH   LINE      CODE     ---       #106
      01006DBAH   LINE      CODE     ---       #107
      01006DBAH   LINE      CODE     ---       #112
      01006DC3H   LINE      CODE     ---       #113
LX51 LINKER/LOCATER V4.64.0.0                                                         01/12/2017  16:14:04  PAGE 53


      01006DCAH   LINE      CODE     ---       #114
      01006DCFH   LINE      CODE     ---       #124
      01006DD5H   LINE      CODE     ---       #126
      01006DDBH   LINE      CODE     ---       #138
      01006DE1H   LINE      CODE     ---       #139
      01006DE7H   LINE      CODE     ---       #150
      01006DECH   LINE      CODE     ---       #160
      ---         BLOCKEND  ---      ---       LVL=0

      0100701BH   BLOCK     CODE     ---       LVL=0
      0100701BH   BLOCK     CODE     NEAR LAB  LVL=1
      00000007H   SYMBOL    DATA     BYTE      enableInterrupts
      ---         BLOCKEND  ---      ---       LVL=1
      0100701BH   LINE      CODE     ---       #183
      0100701BH   LINE      CODE     ---       #184
      0100701BH   LINE      CODE     ---       #186
      0100701EH   LINE      CODE     ---       #190
      01007025H   LINE      CODE     ---       #193
      0100702CH   LINE      CODE     ---       #196
      01007032H   LINE      CODE     ---       #211
      01007039H   LINE      CODE     ---       #222
      0100703CH   LINE      CODE     ---       #223
      ---         BLOCKEND  ---      ---       LVL=0

      0100703DH   BLOCK     CODE     ---       LVL=0
      0100703DH   BLOCK     CODE     NEAR LAB  LVL=1
      00000007H   SYMBOL    DATA     BYTE      enableInterrupts
      ---         BLOCKEND  ---      ---       LVL=1
      0100703DH   LINE      CODE     ---       #240
      0100703DH   LINE      CODE     ---       #241
      0100703DH   LINE      CODE     ---       #243
      01007040H   LINE      CODE     ---       #247
      01007047H   LINE      CODE     ---       #262
      0100704EH   LINE      CODE     ---       #265
      01007054H   LINE      CODE     ---       #270
      0100705BH   LINE      CODE     ---       #277
      0100705EH   LINE      CODE     ---       #278
      ---         BLOCKEND  ---      ---       LVL=0
      00000007H   SYMBOL    DATA     BYTE      intSrc
      00000007H   SYMBOL    DATA     BYTE      rxData
      00000006H   SYMBOL    DATA     BYTE      locRxBufferRead
      00000005H   SYMBOL    DATA     BYTE      locRxBufferWrite

      0100728BH   BLOCK     CODE     ---       LVL=0
      0100728BH   BLOCK     CODE     NEAR LAB  LVL=1
      00000007H   SYMBOL    DATA     BYTE      status
      ---         BLOCKEND  ---      ---       LVL=1
      0100728BH   LINE      CODE     ---       #485
      0100728BH   LINE      CODE     ---       #486
      0100728BH   LINE      CODE     ---       #489
      01007292H   LINE      CODE     ---       #492
      01007298H   LINE      CODE     ---       #493
      01007298H   LINE      CODE     ---       #494
      0100729CH   LINE      CODE     ---       #495
      0100729EH   LINE      CODE     ---       #496
      0100729EH   LINE      CODE     ---       #499
      0100729EH   LINE      CODE     ---       #500
      ---         BLOCKEND  ---      ---       LVL=0

      01006940H   BLOCK     CODE     ---       LVL=0
      01006940H   BLOCK     CODE     NEAR LAB  LVL=1
      00000007H   SYMBOL    DATA     BYTE      rxData
      00000006H   SYMBOL    DATA     BYTE      rxStatus
      00000006H   SYMBOL    DATA     BYTE      locRxBufferRead
      00000005H   SYMBOL    DATA     BYTE      locRxBufferWrite
LX51 LINKER/LOCATER V4.64.0.0                                                         01/12/2017  16:14:04  PAGE 54


      ---         BLOCKEND  ---      ---       LVL=1
      01006940H   LINE      CODE     ---       #532
      01006940H   LINE      CODE     ---       #533
      01006940H   LINE      CODE     ---       #534
      01006942H   LINE      CODE     ---       #542
      01006948H   LINE      CODE     ---       #544
      0100694DH   LINE      CODE     ---       #545
      01006952H   LINE      CODE     ---       #547
      0100695CH   LINE      CODE     ---       #548
      0100695CH   LINE      CODE     ---       #549
      01006968H   LINE      CODE     ---       #550
      01006969H   LINE      CODE     ---       #551
      0100696FH   LINE      CODE     ---       #552
      0100696FH   LINE      CODE     ---       #553
      01006971H   LINE      CODE     ---       #554
      01006971H   LINE      CODE     ---       #556
      01006976H   LINE      CODE     ---       #558
      0100697CH   LINE      CODE     ---       #559
      0100697CH   LINE      CODE     ---       #560
      0100697EH   LINE      CODE     ---       #575
      0100697EH   LINE      CODE     ---       #577
      01006980H   LINE      CODE     ---       #579
      01006985H   LINE      CODE     ---       #580
      01006988H   LINE      CODE     ---       #581
      01006988H   LINE      CODE     ---       #582
      0100698DH   LINE      CODE     ---       #585
      01006992H   LINE      CODE     ---       #586
      01006992H   LINE      CODE     ---       #587
      01006994H   LINE      CODE     ---       #588
      01006994H   LINE      CODE     ---       #589
      01006994H   LINE      CODE     ---       #590
      01006994H   LINE      CODE     ---       #592
      0100699AH   LINE      CODE     ---       #611
      0100699AH   LINE      CODE     ---       #612
      ---         BLOCKEND  ---      ---       LVL=0
      00000002H   SYMBOL    DATA     WORD      locErrorStatus

      01006AE9H   BLOCK     CODE     ---       LVL=0
      01006AE9H   BLOCK     CODE     NEAR LAB  LVL=1
      00000007H   SYMBOL    DATA     BYTE      size
      ---         BLOCKEND  ---      ---       LVL=1
      01006AE9H   LINE      CODE     ---       #683
      01006AE9H   LINE      CODE     ---       #685
      01006AE9H   LINE      CODE     ---       #691
      01006AEFH   LINE      CODE     ---       #693
      01006AFBH   LINE      CODE     ---       #694
      01006AFBH   LINE      CODE     ---       #695
      01006B01H   LINE      CODE     ---       #696
      01006B01H   LINE      CODE     ---       #697
      01006B03H   LINE      CODE     ---       #698
      01006B05H   LINE      CODE     ---       #700
      01006B05H   LINE      CODE     ---       #701
      01006B07H   LINE      CODE     ---       #702
      01006B07H   LINE      CODE     ---       #703
      01006B09H   LINE      CODE     ---       #704
      01006B16H   LINE      CODE     ---       #705
      01006B16H   LINE      CODE     ---       #706
      01006B1FH   LINE      CODE     ---       #707
      01006B21H   LINE      CODE     ---       #709
      01006B21H   LINE      CODE     ---       #710
      01006B31H   LINE      CODE     ---       #711
      01006B31H   LINE      CODE     ---       #713
      01006B37H   LINE      CODE     ---       #722
      01006B37H   LINE      CODE     ---       #723
      ---         BLOCKEND  ---      ---       LVL=0
LX51 LINKER/LOCATER V4.64.0.0                                                         01/12/2017  16:14:04  PAGE 55



      01006ECEH   BLOCK     CODE     ---       LVL=0
      01006ECEH   BLOCK     CODE     NEAR LAB  LVL=1
      00000007H   SYMBOL    DATA     BYTE      enableInterrupts
      ---         BLOCKEND  ---      ---       LVL=1
      01006ECEH   LINE      CODE     ---       #757
      01006ECEH   LINE      CODE     ---       #758
      01006ECEH   LINE      CODE     ---       #762
      01006ED1H   LINE      CODE     ---       #763
      01006ED8H   LINE      CODE     ---       #764
      01006EDCH   LINE      CODE     ---       #765
      01006EDFH   LINE      CODE     ---       #770
      01006EE5H   LINE      CODE     ---       #772
      01006EEAH   LINE      CODE     ---       #773
      01006EEEH   LINE      CODE     ---       #774
      01006EF2H   LINE      CODE     ---       #775
      01006EF6H   LINE      CODE     ---       #777
      01006EFCH   LINE      CODE     ---       #781
      ---         BLOCKEND  ---      ---       LVL=0
      00000007H   SYMBOL    DATA     BYTE      address
      00000007H   SYMBOL    DATA     BYTE      address
      00000007H   SYMBOL    DATA     BYTE      intSrc
      00000007H   SYMBOL    DATA     BYTE      txDataByte

      010074B0H   BLOCK     CODE     ---       LVL=0
      010074B0H   LINE      CODE     ---       #1003
      010074B0H   LINE      CODE     ---       #1004
      010074B0H   LINE      CODE     ---       #1005
      010074B5H   LINE      CODE     ---       #1006
      ---         BLOCKEND  ---      ---       LVL=0

      010073E4H   BLOCK     CODE     ---       LVL=0
      00000007H   SYMBOL    DATA     BYTE      txDataByte
      010073E4H   LINE      CODE     ---       #1041
      010073E4H   LINE      CODE     ---       #1042
      010073E4H   LINE      CODE     ---       #1107
      010073EBH   LINE      CODE     ---       #1108
      010073EBH   LINE      CODE     ---       #1110
      010073EBH   LINE      CODE     ---       #1113
      010073F0H   LINE      CODE     ---       #1116
      ---         BLOCKEND  ---      ---       LVL=0

      01006D52H   BLOCK     CODE     ---       LVL=0
      02000522H   SYMBOL    XDATA    ---       string
      01006D5DH   BLOCK     CODE     NEAR LAB  LVL=1
      00000004H   SYMBOL    DATA     WORD      bufIndex
      ---         BLOCKEND  ---      ---       LVL=1
      01006D52H   LINE      CODE     ---       #1145
      01006D5DH   LINE      CODE     ---       #1146
      01006D5DH   LINE      CODE     ---       #1147
      01006D60H   LINE      CODE     ---       #1150
      01006D66H   LINE      CODE     ---       #1151
      01006D66H   LINE      CODE     ---       #1153
      01006D7BH   LINE      CODE     ---       #1154
      01006D7BH   LINE      CODE     ---       #1155
      01006D7EH   LINE      CODE     ---       #1156
      01006D83H   LINE      CODE     ---       #1157
      01006D85H   LINE      CODE     ---       #1158
      01006D85H   LINE      CODE     ---       #1159
      ---         BLOCKEND  ---      ---       LVL=0
      00000005H   SYMBOL    DATA     BYTE      byteCount
      00000006H   SYMBOL    DATA     BYTE      bufIndex
      00000007H   SYMBOL    DATA     BYTE      txDataByte
      00000007H   SYMBOL    DATA     BYTE      size

LX51 LINKER/LOCATER V4.64.0.0                                                         01/12/2017  16:14:04  PAGE 56


      010072FEH   BLOCK     CODE     ---       LVL=0
      010072FEH   BLOCK     CODE     NEAR LAB  LVL=1
      00000007H   SYMBOL    DATA     BYTE      enableInterrupts
      ---         BLOCKEND  ---      ---       LVL=1
      010072FEH   LINE      CODE     ---       #1354
      010072FEH   LINE      CODE     ---       #1355
      010072FEH   LINE      CODE     ---       #1358
      01007301H   LINE      CODE     ---       #1360
      01007308H   LINE      CODE     ---       #1361
      0100730CH   LINE      CODE     ---       #1362
      0100730FH   LINE      CODE     ---       #1376
      ---         BLOCKEND  ---      ---       LVL=0
      00000007H   SYMBOL    DATA     BYTE      retMode
      0200104CH   SYMBOL    XDATA    BYTE      txPeriod

      ---         MODULE    ---      ---       ISR_RS485_RX
      01007494H   PUBLIC    CODE     ---       ISR_RS485_RX_Disable
      0100748DH   PUBLIC    CODE     ---       ISR_RS485_RX_Enable
      0100742FH   PUBLIC    CODE     ---       _ISR_RS485_RX_SetPriority
      0100739EH   PUBLIC    CODE     ---       _ISR_RS485_RX_SetVector
      01007524H   PUBLIC    CODE     ---       ISR_RS485_RX_Interrupt
      0100709FH   PUBLIC    CODE     ---       _ISR_RS485_RX_StartEx
      000000CAH   SFRSYM    DATA     BYTE      SFRPRT5SEL
      000000DAH   SFRSYM    DATA     BYTE      SFRPRT6SEL
      000000D0H.6 SFRSYM    DATA     BIT       AC
      000000A8H.7 SFRSYM    DATA     BIT       EA
      000000A8H   SFRSYM    DATA     BYTE      IE
      00000085H   SFRSYM    DATA     BYTE      DPH1
      00000084H   SFRSYM    DATA     BYTE      DPL1
      000000D0H.7 SFRSYM    DATA     BIT       CY
      000000A0H   SFRSYM    DATA     BYTE      P2AX
      00000095H   SFRSYM    DATA     BYTE      DPX1
      00000081H   SFRSYM    DATA     BYTE      SP
      000000D0H.2 SFRSYM    DATA     BIT       OV
      00000080H   SFRSYM    DATA     BYTE      SFRPRT0DR
      00000090H   SFRSYM    DATA     BYTE      SFRPRT1DR
      000000F2H   SFRSYM    DATA     BYTE      SFRPRT12SEL
      00000098H   SFRSYM    DATA     BYTE      SFRPRT2DR
      000000B0H   SFRSYM    DATA     BYTE      SFRPRT3DR
      000000C0H   SFRSYM    DATA     BYTE      SFRPRT4DR
      000000FAH   SFRSYM    DATA     BYTE      SFRPRT15SEL
      000000C8H   SFRSYM    DATA     BYTE      SFRPRT5DR
      000000D8H   SFRSYM    DATA     BYTE      SFRPRT6DR
      00000089H   SFRSYM    DATA     BYTE      SFRPRT0PS
      00000091H   SFRSYM    DATA     BYTE      SFRPRT1PS
      00000099H   SFRSYM    DATA     BYTE      SFRPRT2PS
      000000B1H   SFRSYM    DATA     BYTE      SFRPRT3PS
      000000C1H   SFRSYM    DATA     BYTE      SFRPRT4PS
      000000C9H   SFRSYM    DATA     BYTE      SFRPRT5PS
      000000D9H   SFRSYM    DATA     BYTE      SFRPRT6PS
      000000EAH   SFRSYM    DATA     BYTE      MXAX
      000000F0H   SFRSYM    DATA     BYTE      B
      000000E0H   SFRSYM    DATA     BYTE      ACC
      000000D0H   SFRSYM    DATA     BIT       P
      000000D0H.3 SFRSYM    DATA     BIT       RS0
      000000D0H.4 SFRSYM    DATA     BIT       RS1
      00000083H   SFRSYM    DATA     BYTE      DPH
      000000E8H   SFRSYM    DATA     BYTE      SFRPRT12DR
      00000082H   SFRSYM    DATA     BYTE      DPL
      000000F8H   SFRSYM    DATA     BYTE      SFRPRT15DR
      00000086H   SFRSYM    DATA     BYTE      DPS
      000000E9H   SFRSYM    DATA     BYTE      SFRPRT12PS
      00000093H   SFRSYM    DATA     BYTE      DPX
      000000F9H   SFRSYM    DATA     BYTE      SFRPRT15PS
      000000D0H.5 SFRSYM    DATA     BIT       F0
LX51 LINKER/LOCATER V4.64.0.0                                                         01/12/2017  16:14:04  PAGE 57


      000000D0H.1 SFRSYM    DATA     BIT       F1
      0000008AH   SFRSYM    DATA     BYTE      SFRPRT0SEL
      000000D0H   SFRSYM    DATA     BYTE      PSW
      000000A2H   SFRSYM    DATA     BYTE      SFRPRT1SEL
      0000009AH   SFRSYM    DATA     BYTE      SFRPRT2SEL
      000000B2H   SFRSYM    DATA     BYTE      SFRPRT3SEL
      000000C2H   SFRSYM    DATA     BYTE      SFRPRT4SEL

      0100709FH   BLOCK     CODE     ---       LVL=0
      02000522H   SYMBOL    XDATA    ---       address
      0100709FH   LINE      CODE     ---       #94
      010070A7H   LINE      CODE     ---       #95
      010070A7H   LINE      CODE     ---       #97
      010070AAH   LINE      CODE     ---       #100
      010070B5H   LINE      CODE     ---       #103
      010070BAH   LINE      CODE     ---       #106
      010070BDH   LINE      CODE     ---       #107
      ---         BLOCKEND  ---      ---       LVL=0

      01007524H   BLOCK     CODE     ---       LVL=0
      01007524H   LINE      CODE     ---       #151
      01007524H   LINE      CODE     ---       #168
      ---         BLOCKEND  ---      ---       LVL=0

      0100739EH   BLOCK     CODE     ---       LVL=0
      00000006H   SYMBOL    DATA     ---       address
      0100739EH   LINE      CODE     ---       #198
      0100739EH   LINE      CODE     ---       #199
      0100739EH   LINE      CODE     ---       #200
      010073ABH   LINE      CODE     ---       #201
      ---         BLOCKEND  ---      ---       LVL=0

      0100742FH   BLOCK     CODE     ---       LVL=0
      00000007H   SYMBOL    DATA     BYTE      priority
      0100742FH   LINE      CODE     ---       #248
      0100742FH   LINE      CODE     ---       #249
      0100742FH   LINE      CODE     ---       #250
      01007438H   LINE      CODE     ---       #251
      ---         BLOCKEND  ---      ---       LVL=0
      00000007H   SYMBOL    DATA     BYTE      priority

      0100748DH   BLOCK     CODE     ---       LVL=0
      0100748DH   LINE      CODE     ---       #297
      0100748DH   LINE      CODE     ---       #298
      0100748DH   LINE      CODE     ---       #300
      01007493H   LINE      CODE     ---       #301
      ---         BLOCKEND  ---      ---       LVL=0

      01007494H   BLOCK     CODE     ---       LVL=0
      01007494H   LINE      CODE     ---       #339
      01007494H   LINE      CODE     ---       #340
      01007494H   LINE      CODE     ---       #342
      0100749AH   LINE      CODE     ---       #343
      ---         BLOCKEND  ---      ---       LVL=0

      ---         MODULE    ---      ---       PACER_TIMER
      020010AFH   PUBLIC    XDATA    BYTE      PACER_TIMER_initVar
      010073BAH   PUBLIC    CODE     ---       _PACER_TIMER_WriteCounter
      010073ACH   PUBLIC    CODE     ---       _PACER_TIMER_WritePeriod
      010074B6H   PUBLIC    CODE     ---       _PACER_TIMER_SetInterruptMode
      0100729FH   PUBLIC    CODE     ---       PACER_TIMER_Start
      010071E2H   PUBLIC    CODE     ---       PACER_TIMER_Enable
      01006CDEH   PUBLIC    CODE     ---       PACER_TIMER_Init
      000000CAH   SFRSYM    DATA     BYTE      SFRPRT5SEL
      000000DAH   SFRSYM    DATA     BYTE      SFRPRT6SEL
LX51 LINKER/LOCATER V4.64.0.0                                                         01/12/2017  16:14:04  PAGE 58


      000000D0H.6 SFRSYM    DATA     BIT       AC
      000000A8H.7 SFRSYM    DATA     BIT       EA
      000000A8H   SFRSYM    DATA     BYTE      IE
      00000085H   SFRSYM    DATA     BYTE      DPH1
      00000084H   SFRSYM    DATA     BYTE      DPL1
      000000D0H.7 SFRSYM    DATA     BIT       CY
      000000A0H   SFRSYM    DATA     BYTE      P2AX
      00000095H   SFRSYM    DATA     BYTE      DPX1
      00000081H   SFRSYM    DATA     BYTE      SP
      000000D0H.2 SFRSYM    DATA     BIT       OV
      00000080H   SFRSYM    DATA     BYTE      SFRPRT0DR
      00000090H   SFRSYM    DATA     BYTE      SFRPRT1DR
      000000F2H   SFRSYM    DATA     BYTE      SFRPRT12SEL
      00000098H   SFRSYM    DATA     BYTE      SFRPRT2DR
      000000B0H   SFRSYM    DATA     BYTE      SFRPRT3DR
      000000C0H   SFRSYM    DATA     BYTE      SFRPRT4DR
      000000FAH   SFRSYM    DATA     BYTE      SFRPRT15SEL
      000000C8H   SFRSYM    DATA     BYTE      SFRPRT5DR
      000000D8H   SFRSYM    DATA     BYTE      SFRPRT6DR
      00000089H   SFRSYM    DATA     BYTE      SFRPRT0PS
      00000091H   SFRSYM    DATA     BYTE      SFRPRT1PS
      00000099H   SFRSYM    DATA     BYTE      SFRPRT2PS
      000000B1H   SFRSYM    DATA     BYTE      SFRPRT3PS
      000000C1H   SFRSYM    DATA     BYTE      SFRPRT4PS
      000000C9H   SFRSYM    DATA     BYTE      SFRPRT5PS
      000000D9H   SFRSYM    DATA     BYTE      SFRPRT6PS
      000000EAH   SFRSYM    DATA     BYTE      MXAX
      000000F0H   SFRSYM    DATA     BYTE      B
      000000E0H   SFRSYM    DATA     BYTE      ACC
      000000D0H   SFRSYM    DATA     BIT       P
      000000D0H.3 SFRSYM    DATA     BIT       RS0
      000000D0H.4 SFRSYM    DATA     BIT       RS1
      00000083H   SFRSYM    DATA     BYTE      DPH
      000000E8H   SFRSYM    DATA     BYTE      SFRPRT12DR
      00000082H   SFRSYM    DATA     BYTE      DPL
      000000F8H   SFRSYM    DATA     BYTE      SFRPRT15DR
      00000086H   SFRSYM    DATA     BYTE      DPS
      000000E9H   SFRSYM    DATA     BYTE      SFRPRT12PS
      00000093H   SFRSYM    DATA     BYTE      DPX
      000000F9H   SFRSYM    DATA     BYTE      SFRPRT15PS
      000000D0H.5 SFRSYM    DATA     BIT       F0
      000000D0H.1 SFRSYM    DATA     BIT       F1
      0000008AH   SFRSYM    DATA     BYTE      SFRPRT0SEL
      000000D0H   SFRSYM    DATA     BYTE      PSW
      000000A2H   SFRSYM    DATA     BYTE      SFRPRT1SEL
      0000009AH   SFRSYM    DATA     BYTE      SFRPRT2SEL
      000000B2H   SFRSYM    DATA     BYTE      SFRPRT3SEL
      000000C2H   SFRSYM    DATA     BYTE      SFRPRT4SEL

      01006CDEH   BLOCK     CODE     ---       LVL=0
      01006CDEH   LINE      CODE     ---       #43
      01006CDEH   LINE      CODE     ---       #44
      01006CDEH   LINE      CODE     ---       #52
      01006CE5H   LINE      CODE     ---       #60
      01006CECH   LINE      CODE     ---       #106
      01006CF3H   LINE      CODE     ---       #107
      01006CF7H   LINE      CODE     ---       #110
      01006CFBH   LINE      CODE     ---       #111
      01006CFFH   LINE      CODE     ---       #114
      01006D06H   LINE      CODE     ---       #118
      01006D0DH   LINE      CODE     ---       #119
      01006D14H   LINE      CODE     ---       #162
      01006D19H   LINE      CODE     ---       #163
      ---         BLOCKEND  ---      ---       LVL=0

LX51 LINKER/LOCATER V4.64.0.0                                                         01/12/2017  16:14:04  PAGE 59


      010071E2H   BLOCK     CODE     ---       LVL=0
      010071E2H   LINE      CODE     ---       #180
      010071E2H   LINE      CODE     ---       #181
      010071E2H   LINE      CODE     ---       #184
      010071E9H   LINE      CODE     ---       #185
      010071F0H   LINE      CODE     ---       #190
      010071F7H   LINE      CODE     ---       #192
      ---         BLOCKEND  ---      ---       LVL=0

      0100729FH   BLOCK     CODE     ---       LVL=0
      0100729FH   LINE      CODE     ---       #215
      0100729FH   LINE      CODE     ---       #216
      0100729FH   LINE      CODE     ---       #217
      010072A5H   LINE      CODE     ---       #218
      010072A5H   LINE      CODE     ---       #219
      010072A8H   LINE      CODE     ---       #221
      010072AEH   LINE      CODE     ---       #222
      010072AEH   LINE      CODE     ---       #225
      010072B1H   LINE      CODE     ---       #226
      ---         BLOCKEND  ---      ---       LVL=0

      010074B6H   BLOCK     CODE     ---       LVL=0
      00000007H   SYMBOL    DATA     BYTE      interruptMode
      010074B6H   LINE      CODE     ---       #279
      010074B6H   LINE      CODE     ---       #280
      010074B6H   LINE      CODE     ---       #281
      010074BBH   LINE      CODE     ---       #282
      ---         BLOCKEND  ---      ---       LVL=0
      00000007H   SYMBOL    DATA     BYTE      control

      010073ACH   BLOCK     CODE     ---       LVL=0
      00000006H   SYMBOL    DATA     WORD      period
      010073ACH   BLOCK     CODE     NEAR LAB  LVL=1
      00000006H   SYMBOL    DATA     WORD      period_temp
      ---         BLOCKEND  ---      ---       LVL=1
      010073ACH   LINE      CODE     ---       #431
      010073ACH   LINE      CODE     ---       #432
      010073ACH   LINE      CODE     ---       #434
      010073ACH   LINE      CODE     ---       #435
      010073B9H   LINE      CODE     ---       #439
      ---         BLOCKEND  ---      ---       LVL=0

      010073BAH   BLOCK     CODE     ---       LVL=0
      00000006H   SYMBOL    DATA     WORD      counter
      010073BAH   LINE      CODE     ---       #480
      010073BAH   LINE      CODE     ---       #481
      010073BAH   LINE      CODE     ---       #486
      010073C7H   LINE      CODE     ---       #491
      ---         BLOCKEND  ---      ---       LVL=0

      ---         MODULE    ---      ---       CLOCK_UART
      01007475H   PUBLIC    CODE     ---       CLOCK_UART_GetSourceRegister
      01007439H   PUBLIC    CODE     ---       CLOCK_UART_GetDividerRegister
      01005777H   PUBLIC    CODE     ---       _CLOCK_UART_SetDividerRegister
      00000007H   SYMBOL    DATA     BYTE      state

      01005777H   BLOCK     CODE     ---       LVL=0
      02000522H   SYMBOL    XDATA    WORD      clkDivider
      02000524H   SYMBOL    XDATA    BYTE      restart
      01005782H   BLOCK     CODE     NEAR LAB  LVL=1
      02000525H   SYMBOL    XDATA    BYTE      enabled
      02000526H   SYMBOL    XDATA    BYTE      currSrc
      02000527H   SYMBOL    XDATA    WORD      oldDivider
      ---         BLOCKEND  ---      ---       LVL=1
      01005777H   LINE      CODE     ---       #193
LX51 LINKER/LOCATER V4.64.0.0                                                         01/12/2017  16:14:04  PAGE 60


      01005782H   LINE      CODE     ---       #195
      01005782H   LINE      CODE     ---       #198
      0100578AH   LINE      CODE     ---       #199
      01005795H   LINE      CODE     ---       #201
      010057A7H   LINE      CODE     ---       #202
      010057A7H   LINE      CODE     ---       #203
      010057B1H   LINE      CODE     ---       #205
      010057C2H   LINE      CODE     ---       #206
      010057C2H   LINE      CODE     ---       #208
      010057C6H   LINE      CODE     ---       #209
      010057C6H   LINE      CODE     ---       #213
      010057CFH   LINE      CODE     ---       #214
      010057D6H   LINE      CODE     ---       #215
      010057D7H   LINE      CODE     ---       #217
      010057D7H   LINE      CODE     ---       #220
      010057DEH   LINE      CODE     ---       #221
      010057EFH   LINE      CODE     ---       #222
      010057EFH   LINE      CODE     ---       #223
      010057F0H   LINE      CODE     ---       #225
      010057F0H   LINE      CODE     ---       #227
      010057F6H   LINE      CODE     ---       #228
      010057F6H   LINE      CODE     ---       #229
      010057FBH   LINE      CODE     ---       #236
      01005800H   LINE      CODE     ---       #237
      01005805H   LINE      CODE     ---       #240
      0100580CH   LINE      CODE     ---       #243
      0100581EH   LINE      CODE     ---       #244
      0100581EH   LINE      CODE     ---       #246
      0100582FH   LINE      CODE     ---       #247
      01005835H   LINE      CODE     ---       #250
      0100583DH   LINE      CODE     ---       #253
      01005844H   LINE      CODE     ---       #257
      01005849H   LINE      CODE     ---       #259
      01005849H   LINE      CODE     ---       #260
      01005849H   LINE      CODE     ---       #263
      01005851H   LINE      CODE     ---       #264
      01005851H   LINE      CODE     ---       #266
      01005862H   LINE      CODE     ---       #268
      01005875H   LINE      CODE     ---       #269
      0100587FH   LINE      CODE     ---       #270
      01005880H   LINE      CODE     ---       #272
      01005880H   LINE      CODE     ---       #274
      01005891H   LINE      CODE     ---       #275
      010058A6H   LINE      CODE     ---       #276
      010058A6H   LINE      CODE     ---       #277
      010058A6H   LINE      CODE     ---       #278
      010058A6H   LINE      CODE     ---       #279
      ---         BLOCKEND  ---      ---       LVL=0

      01007439H   BLOCK     CODE     ---       LVL=0
      01007439H   LINE      CODE     ---       #297
      01007439H   LINE      CODE     ---       #298
      01007439H   LINE      CODE     ---       #299
      01007442H   LINE      CODE     ---       #300
      ---         BLOCKEND  ---      ---       LVL=0
      00000007H   SYMBOL    DATA     BYTE      modeBitMask
      00000007H   SYMBOL    DATA     BYTE      modeBitMask
      00000007H   SYMBOL    DATA     BYTE      oldSrc

      01007475H   BLOCK     CODE     ---       LVL=0
      01007475H   LINE      CODE     ---       #464
      01007475H   LINE      CODE     ---       #465
      01007475H   LINE      CODE     ---       #466
      0100747CH   LINE      CODE     ---       #467
      ---         BLOCKEND  ---      ---       LVL=0
LX51 LINKER/LOCATER V4.64.0.0                                                         01/12/2017  16:14:04  PAGE 61



      ---         MODULE    ---      ---       EEPROM
      010061E2H   PUBLIC    CODE     ---       _EEPROM_Write
      01007510H   PUBLIC    CODE     ---       EEPROM_Start
      0100749BH   PUBLIC    CODE     ---       EEPROM_Enable
      000000CAH   SFRSYM    DATA     BYTE      SFRPRT5SEL
      000000DAH   SFRSYM    DATA     BYTE      SFRPRT6SEL
      000000D0H.6 SFRSYM    DATA     BIT       AC
      000000A8H.7 SFRSYM    DATA     BIT       EA
      000000A8H   SFRSYM    DATA     BYTE      IE
      00000085H   SFRSYM    DATA     BYTE      DPH1
      00000084H   SFRSYM    DATA     BYTE      DPL1
      000000D0H.7 SFRSYM    DATA     BIT       CY
      000000A0H   SFRSYM    DATA     BYTE      P2AX
      00000095H   SFRSYM    DATA     BYTE      DPX1
      00000081H   SFRSYM    DATA     BYTE      SP
      000000D0H.2 SFRSYM    DATA     BIT       OV
      00000080H   SFRSYM    DATA     BYTE      SFRPRT0DR
      00000090H   SFRSYM    DATA     BYTE      SFRPRT1DR
      000000F2H   SFRSYM    DATA     BYTE      SFRPRT12SEL
      00000098H   SFRSYM    DATA     BYTE      SFRPRT2DR
      000000B0H   SFRSYM    DATA     BYTE      SFRPRT3DR
      000000C0H   SFRSYM    DATA     BYTE      SFRPRT4DR
      000000FAH   SFRSYM    DATA     BYTE      SFRPRT15SEL
      000000C8H   SFRSYM    DATA     BYTE      SFRPRT5DR
      000000D8H   SFRSYM    DATA     BYTE      SFRPRT6DR
      00000089H   SFRSYM    DATA     BYTE      SFRPRT0PS
      00000091H   SFRSYM    DATA     BYTE      SFRPRT1PS
      00000099H   SFRSYM    DATA     BYTE      SFRPRT2PS
      000000B1H   SFRSYM    DATA     BYTE      SFRPRT3PS
      000000C1H   SFRSYM    DATA     BYTE      SFRPRT4PS
      000000C9H   SFRSYM    DATA     BYTE      SFRPRT5PS
      000000D9H   SFRSYM    DATA     BYTE      SFRPRT6PS
      000000EAH   SFRSYM    DATA     BYTE      MXAX
      000000F0H   SFRSYM    DATA     BYTE      B
      000000E0H   SFRSYM    DATA     BYTE      ACC
      000000D0H   SFRSYM    DATA     BIT       P
      000000D0H.3 SFRSYM    DATA     BIT       RS0
      000000D0H.4 SFRSYM    DATA     BIT       RS1
      00000083H   SFRSYM    DATA     BYTE      DPH
      000000E8H   SFRSYM    DATA     BYTE      SFRPRT12DR
      00000082H   SFRSYM    DATA     BYTE      DPL
      000000F8H   SFRSYM    DATA     BYTE      SFRPRT15DR
      00000086H   SFRSYM    DATA     BYTE      DPS
      000000E9H   SFRSYM    DATA     BYTE      SFRPRT12PS
      00000093H   SFRSYM    DATA     BYTE      DPX
      000000F9H   SFRSYM    DATA     BYTE      SFRPRT15PS
      000000D0H.5 SFRSYM    DATA     BIT       F0
      000000D0H.1 SFRSYM    DATA     BIT       F1
      0000008AH   SFRSYM    DATA     BYTE      SFRPRT0SEL
      000000D0H   SFRSYM    DATA     BYTE      PSW
      000000A2H   SFRSYM    DATA     BYTE      SFRPRT1SEL
      0000009AH   SFRSYM    DATA     BYTE      SFRPRT2SEL
      000000B2H   SFRSYM    DATA     BYTE      SFRPRT3SEL
      000000C2H   SFRSYM    DATA     BYTE      SFRPRT4SEL

      0100749BH   BLOCK     CODE     ---       LVL=0
      0100749BH   LINE      CODE     ---       #33
      0100749BH   LINE      CODE     ---       #34
      0100749BH   LINE      CODE     ---       #36
      0100749EH   LINE      CODE     ---       #39
      010074A1H   LINE      CODE     ---       #40
      ---         BLOCKEND  ---      ---       LVL=0

      01007510H   BLOCK     CODE     ---       LVL=0
LX51 LINKER/LOCATER V4.64.0.0                                                         01/12/2017  16:14:04  PAGE 62


      01007510H   LINE      CODE     ---       #57
      01007510H   LINE      CODE     ---       #58
      01007510H   LINE      CODE     ---       #59
      01007513H   LINE      CODE     ---       #60
      ---         BLOCKEND  ---      ---       LVL=0

      010061E2H   BLOCK     CODE     ---       LVL=0
      02000529H   SYMBOL    XDATA    ---       rowData
      0200052CH   SYMBOL    XDATA    BYTE      rowNumber
      010061F0H   BLOCK     CODE     NEAR LAB  LVL=1
      0200052DH   SYMBOL    XDATA    BYTE      status
      ---         BLOCKEND  ---      ---       LVL=1
      010061E2H   LINE      CODE     ---       #345
      010061F0H   LINE      CODE     ---       #346
      010061F0H   LINE      CODE     ---       #349
      010061F3H   LINE      CODE     ---       #351
      010061FFH   LINE      CODE     ---       #352
      010061FFH   LINE      CODE     ---       #354
      01006208H   LINE      CODE     ---       #355
      01006208H   LINE      CODE     ---       #357
      0100620EH   LINE      CODE     ---       #360
      0100622CH   LINE      CODE     ---       #361
      0100622CH   LINE      CODE     ---       #362
      01006234H   LINE      CODE     ---       #363
      01006234H   LINE      CODE     ---       #365
      01006234H   LINE      CODE     ---       #368
      0100624AH   LINE      CODE     ---       #369
      0100624AH   LINE      CODE     ---       #370
      0100624EH   LINE      CODE     ---       #371
      0100624EH   LINE      CODE     ---       #374
      01006254H   LINE      CODE     ---       #375
      01006254H   LINE      CODE     ---       #376
      01006270H   LINE      CODE     ---       #378
      01006270H   LINE      CODE     ---       #380
      01006276H   LINE      CODE     ---       #382
      0100627EH   LINE      CODE     ---       #383
      0100627EH   LINE      CODE     ---       #385
      0100627EH   LINE      CODE     ---       #388
      01006294H   LINE      CODE     ---       #389
      01006294H   LINE      CODE     ---       #390
      01006298H   LINE      CODE     ---       #391
      01006298H   LINE      CODE     ---       #392
      0100629AH   LINE      CODE     ---       #394
      0100629AH   LINE      CODE     ---       #395
      010062A0H   LINE      CODE     ---       #396
      010062A0H   LINE      CODE     ---       #397
      010062A2H   LINE      CODE     ---       #399
      010062A2H   LINE      CODE     ---       #400
      010062A8H   LINE      CODE     ---       #401
      010062A8H   LINE      CODE     ---       #402
      010062A8H   LINE      CODE     ---       #405
      010062ABH   LINE      CODE     ---       #406
      010062ADH   LINE      CODE     ---       #408
      010062ADH   LINE      CODE     ---       #409
      010062B3H   LINE      CODE     ---       #410
      010062B3H   LINE      CODE     ---       #411
      010062B5H   LINE      CODE     ---       #413
      010062B5H   LINE      CODE     ---       #414
      010062BBH   LINE      CODE     ---       #415
      010062BBH   LINE      CODE     ---       #417
      010062C0H   LINE      CODE     ---       #418
      ---         BLOCKEND  ---      ---       LVL=0

      ---         MODULE    ---      ---       RS485_CTS
      010074BCH   PUBLIC    CODE     ---       _RS485_CTS_Write
LX51 LINKER/LOCATER V4.64.0.0                                                         01/12/2017  16:14:04  PAGE 63



      010074BCH   BLOCK     CODE     ---       LVL=0
      00000007H   SYMBOL    DATA     BYTE      control
      010074BCH   LINE      CODE     ---       #37
      010074BCH   LINE      CODE     ---       #38
      010074BCH   LINE      CODE     ---       #39
      010074C1H   LINE      CODE     ---       #40
      ---         BLOCKEND  ---      ---       LVL=0

      ---         MODULE    ---      ---       BOOTLOADABLE
      01007443H   PUBLIC    CODE     ---       Bootloadable_Load
      000000CAH   SFRSYM    DATA     BYTE      SFRPRT5SEL
      000000DAH   SFRSYM    DATA     BYTE      SFRPRT6SEL
      000000D0H.6 SFRSYM    DATA     BIT       AC
      000000A8H.7 SFRSYM    DATA     BIT       EA
      000000A8H   SFRSYM    DATA     BYTE      IE
      00000085H   SFRSYM    DATA     BYTE      DPH1
      00000084H   SFRSYM    DATA     BYTE      DPL1
      000000D0H.7 SFRSYM    DATA     BIT       CY
      000000A0H   SFRSYM    DATA     BYTE      P2AX
      00000095H   SFRSYM    DATA     BYTE      DPX1
      00000081H   SFRSYM    DATA     BYTE      SP
      000000D0H.2 SFRSYM    DATA     BIT       OV
      00000080H   SFRSYM    DATA     BYTE      SFRPRT0DR
      00000090H   SFRSYM    DATA     BYTE      SFRPRT1DR
      000000F2H   SFRSYM    DATA     BYTE      SFRPRT12SEL
      00000098H   SFRSYM    DATA     BYTE      SFRPRT2DR
      000000B0H   SFRSYM    DATA     BYTE      SFRPRT3DR
      000000C0H   SFRSYM    DATA     BYTE      SFRPRT4DR
      000000FAH   SFRSYM    DATA     BYTE      SFRPRT15SEL
      000000C8H   SFRSYM    DATA     BYTE      SFRPRT5DR
      000000D8H   SFRSYM    DATA     BYTE      SFRPRT6DR
      00000089H   SFRSYM    DATA     BYTE      SFRPRT0PS
      00000091H   SFRSYM    DATA     BYTE      SFRPRT1PS
      00000099H   SFRSYM    DATA     BYTE      SFRPRT2PS
      000000B1H   SFRSYM    DATA     BYTE      SFRPRT3PS
      000000C1H   SFRSYM    DATA     BYTE      SFRPRT4PS
      000000C9H   SFRSYM    DATA     BYTE      SFRPRT5PS
      000000D9H   SFRSYM    DATA     BYTE      SFRPRT6PS
      000000EAH   SFRSYM    DATA     BYTE      MXAX
      000000F0H   SFRSYM    DATA     BYTE      B
      000000E0H   SFRSYM    DATA     BYTE      ACC
      000000D0H   SFRSYM    DATA     BIT       P
      000000D0H.3 SFRSYM    DATA     BIT       RS0
      000000D0H.4 SFRSYM    DATA     BIT       RS1
      00000083H   SFRSYM    DATA     BYTE      DPH
      000000E8H   SFRSYM    DATA     BYTE      SFRPRT12DR
      00000082H   SFRSYM    DATA     BYTE      DPL
      000000F8H   SFRSYM    DATA     BYTE      SFRPRT15DR
      00000086H   SFRSYM    DATA     BYTE      DPS
      000000E9H   SFRSYM    DATA     BYTE      SFRPRT12PS
      00000093H   SFRSYM    DATA     BYTE      DPX
      000000F9H   SFRSYM    DATA     BYTE      SFRPRT15PS
      000000D0H.5 SFRSYM    DATA     BIT       F0
      000000D0H.1 SFRSYM    DATA     BIT       F1
      0000008AH   SFRSYM    DATA     BYTE      SFRPRT0SEL
      000000D0H   SFRSYM    DATA     BYTE      PSW
      000000A2H   SFRSYM    DATA     BYTE      SFRPRT1SEL
      0000009AH   SFRSYM    DATA     BYTE      SFRPRT2SEL
      000000B2H   SFRSYM    DATA     BYTE      SFRPRT3SEL
      000000C2H   SFRSYM    DATA     BYTE      SFRPRT4SEL

      01007443H   BLOCK     CODE     ---       LVL=0
      01007443H   LINE      CODE     ---       #41
      01007443H   LINE      CODE     ---       #42
LX51 LINKER/LOCATER V4.64.0.0                                                         01/12/2017  16:14:04  PAGE 64


      01007443H   LINE      CODE     ---       #44
      01007449H   LINE      CODE     ---       #46
      0100744CH   LINE      CODE     ---       #47
      ---         BLOCKEND  ---      ---       LVL=0
      00000002H   SYMBOL    DATA     WORD      idx

      ---         MODULE    ---      ---       FTDI_ENABLE_REG
      010074C2H   PUBLIC    CODE     ---       _FTDI_ENABLE_REG_Write

      010074C2H   BLOCK     CODE     ---       LVL=0
      00000007H   SYMBOL    DATA     BYTE      control
      010074C2H   LINE      CODE     ---       #37
      010074C2H   LINE      CODE     ---       #38
      010074C2H   LINE      CODE     ---       #39
      010074C7H   LINE      CODE     ---       #40
      ---         BLOCKEND  ---      ---       LVL=0

      ---         MODULE    ---      ---       RESET_FF
      010074C8H   PUBLIC    CODE     ---       _RESET_FF_Write

      010074C8H   BLOCK     CODE     ---       LVL=0
      00000007H   SYMBOL    DATA     BYTE      control
      010074C8H   LINE      CODE     ---       #37
      010074C8H   LINE      CODE     ---       #38
      010074C8H   LINE      CODE     ---       #39
      010074CDH   LINE      CODE     ---       #40
      ---         BLOCKEND  ---      ---       LVL=0

      ---         MODULE    ---      ---       FF_STATUS
      010074CEH   PUBLIC    CODE     ---       FF_STATUS_Read
      000000CAH   SFRSYM    DATA     BYTE      SFRPRT5SEL
      000000DAH   SFRSYM    DATA     BYTE      SFRPRT6SEL
      000000D0H.6 SFRSYM    DATA     BIT       AC
      000000A8H.7 SFRSYM    DATA     BIT       EA
      000000A8H   SFRSYM    DATA     BYTE      IE
      00000085H   SFRSYM    DATA     BYTE      DPH1
      00000084H   SFRSYM    DATA     BYTE      DPL1
      000000D0H.7 SFRSYM    DATA     BIT       CY
      000000A0H   SFRSYM    DATA     BYTE      P2AX
      00000095H   SFRSYM    DATA     BYTE      DPX1
      00000081H   SFRSYM    DATA     BYTE      SP
      000000D0H.2 SFRSYM    DATA     BIT       OV
      00000080H   SFRSYM    DATA     BYTE      SFRPRT0DR
      00000090H   SFRSYM    DATA     BYTE      SFRPRT1DR
      000000F2H   SFRSYM    DATA     BYTE      SFRPRT12SEL
      00000098H   SFRSYM    DATA     BYTE      SFRPRT2DR
      000000B0H   SFRSYM    DATA     BYTE      SFRPRT3DR
      000000C0H   SFRSYM    DATA     BYTE      SFRPRT4DR
      000000FAH   SFRSYM    DATA     BYTE      SFRPRT15SEL
      000000C8H   SFRSYM    DATA     BYTE      SFRPRT5DR
      000000D8H   SFRSYM    DATA     BYTE      SFRPRT6DR
      00000089H   SFRSYM    DATA     BYTE      SFRPRT0PS
      00000091H   SFRSYM    DATA     BYTE      SFRPRT1PS
      00000099H   SFRSYM    DATA     BYTE      SFRPRT2PS
      000000B1H   SFRSYM    DATA     BYTE      SFRPRT3PS
      000000C1H   SFRSYM    DATA     BYTE      SFRPRT4PS
      000000C9H   SFRSYM    DATA     BYTE      SFRPRT5PS
      000000D9H   SFRSYM    DATA     BYTE      SFRPRT6PS
      000000EAH   SFRSYM    DATA     BYTE      MXAX
      000000F0H   SFRSYM    DATA     BYTE      B
      000000E0H   SFRSYM    DATA     BYTE      ACC
      000000D0H   SFRSYM    DATA     BIT       P
      000000D0H.3 SFRSYM    DATA     BIT       RS0
      000000D0H.4 SFRSYM    DATA     BIT       RS1
      00000083H   SFRSYM    DATA     BYTE      DPH
LX51 LINKER/LOCATER V4.64.0.0                                                         01/12/2017  16:14:04  PAGE 65


      000000E8H   SFRSYM    DATA     BYTE      SFRPRT12DR
      00000082H   SFRSYM    DATA     BYTE      DPL
      000000F8H   SFRSYM    DATA     BYTE      SFRPRT15DR
      00000086H   SFRSYM    DATA     BYTE      DPS
      000000E9H   SFRSYM    DATA     BYTE      SFRPRT12PS
      00000093H   SFRSYM    DATA     BYTE      DPX
      000000F9H   SFRSYM    DATA     BYTE      SFRPRT15PS
      000000D0H.5 SFRSYM    DATA     BIT       F0
      000000D0H.1 SFRSYM    DATA     BIT       F1
      0000008AH   SFRSYM    DATA     BYTE      SFRPRT0SEL
      000000D0H   SFRSYM    DATA     BYTE      PSW
      000000A2H   SFRSYM    DATA     BYTE      SFRPRT1SEL
      0000009AH   SFRSYM    DATA     BYTE      SFRPRT2SEL
      000000B2H   SFRSYM    DATA     BYTE      SFRPRT3SEL
      000000C2H   SFRSYM    DATA     BYTE      SFRPRT4SEL

      010074CEH   BLOCK     CODE     ---       LVL=0
      010074CEH   LINE      CODE     ---       #37
      010074CEH   LINE      CODE     ---       #38
      010074CEH   LINE      CODE     ---       #39
      010074D3H   LINE      CODE     ---       #40
      ---         BLOCKEND  ---      ---       LVL=0
      00000007H   SYMBOL    DATA     BYTE      interruptState
      00000007H   SYMBOL    DATA     BYTE      interruptState
      00000007H   SYMBOL    DATA     BYTE      mask

      ---         MODULE    ---      ---       MY_TIMER
      020010B0H   PUBLIC    XDATA    BYTE      MY_TIMER_initVar
      010073F1H   PUBLIC    CODE     ---       MY_TIMER_ClearFIFO
      01007344H   PUBLIC    CODE     ---       MY_TIMER_ReadCounter
      01007461H   PUBLIC    CODE     ---       _MY_TIMER_WriteCounter
      01007457H   PUBLIC    CODE     ---       MY_TIMER_ReadCapture
      0100744DH   PUBLIC    CODE     ---       _MY_TIMER_WritePeriod
      010074DAH   PUBLIC    CODE     ---       MY_TIMER_ReadStatusRegister
      010074D4H   PUBLIC    CODE     ---       _MY_TIMER_SetInterruptMode
      010072B2H   PUBLIC    CODE     ---       MY_TIMER_Start
      0100747DH   PUBLIC    CODE     ---       MY_TIMER_Enable
      01006F59H   PUBLIC    CODE     ---       MY_TIMER_Init
      000000CAH   SFRSYM    DATA     BYTE      SFRPRT5SEL
      000000DAH   SFRSYM    DATA     BYTE      SFRPRT6SEL
      000000D0H.6 SFRSYM    DATA     BIT       AC
      000000A8H.7 SFRSYM    DATA     BIT       EA
      000000A8H   SFRSYM    DATA     BYTE      IE
      00000085H   SFRSYM    DATA     BYTE      DPH1
      00000084H   SFRSYM    DATA     BYTE      DPL1
      000000D0H.7 SFRSYM    DATA     BIT       CY
      000000A0H   SFRSYM    DATA     BYTE      P2AX
      00000095H   SFRSYM    DATA     BYTE      DPX1
      00000081H   SFRSYM    DATA     BYTE      SP
      000000D0H.2 SFRSYM    DATA     BIT       OV
      00000080H   SFRSYM    DATA     BYTE      SFRPRT0DR
      00000090H   SFRSYM    DATA     BYTE      SFRPRT1DR
      000000F2H   SFRSYM    DATA     BYTE      SFRPRT12SEL
      00000098H   SFRSYM    DATA     BYTE      SFRPRT2DR
      000000B0H   SFRSYM    DATA     BYTE      SFRPRT3DR
      000000C0H   SFRSYM    DATA     BYTE      SFRPRT4DR
      000000FAH   SFRSYM    DATA     BYTE      SFRPRT15SEL
      000000C8H   SFRSYM    DATA     BYTE      SFRPRT5DR
      000000D8H   SFRSYM    DATA     BYTE      SFRPRT6DR
      00000089H   SFRSYM    DATA     BYTE      SFRPRT0PS
      00000091H   SFRSYM    DATA     BYTE      SFRPRT1PS
      00000099H   SFRSYM    DATA     BYTE      SFRPRT2PS
      000000B1H   SFRSYM    DATA     BYTE      SFRPRT3PS
      000000C1H   SFRSYM    DATA     BYTE      SFRPRT4PS
      000000C9H   SFRSYM    DATA     BYTE      SFRPRT5PS
LX51 LINKER/LOCATER V4.64.0.0                                                         01/12/2017  16:14:04  PAGE 66


      000000D9H   SFRSYM    DATA     BYTE      SFRPRT6PS
      000000EAH   SFRSYM    DATA     BYTE      MXAX
      000000F0H   SFRSYM    DATA     BYTE      B
      000000E0H   SFRSYM    DATA     BYTE      ACC
      000000D0H   SFRSYM    DATA     BIT       P
      000000D0H.3 SFRSYM    DATA     BIT       RS0
      000000D0H.4 SFRSYM    DATA     BIT       RS1
      00000083H   SFRSYM    DATA     BYTE      DPH
      000000E8H   SFRSYM    DATA     BYTE      SFRPRT12DR
      00000082H   SFRSYM    DATA     BYTE      DPL
      000000F8H   SFRSYM    DATA     BYTE      SFRPRT15DR
      00000086H   SFRSYM    DATA     BYTE      DPS
      000000E9H   SFRSYM    DATA     BYTE      SFRPRT12PS
      00000093H   SFRSYM    DATA     BYTE      DPX
      000000F9H   SFRSYM    DATA     BYTE      SFRPRT15PS
      000000D0H.5 SFRSYM    DATA     BIT       F0
      000000D0H.1 SFRSYM    DATA     BIT       F1
      0000008AH   SFRSYM    DATA     BYTE      SFRPRT0SEL
      000000D0H   SFRSYM    DATA     BYTE      PSW
      000000A2H   SFRSYM    DATA     BYTE      SFRPRT1SEL
      0000009AH   SFRSYM    DATA     BYTE      SFRPRT2SEL
      000000B2H   SFRSYM    DATA     BYTE      SFRPRT3SEL
      000000C2H   SFRSYM    DATA     BYTE      SFRPRT4SEL

      01006F59H   BLOCK     CODE     ---       LVL=0
      01006F59H   BLOCK     CODE     NEAR LAB  LVL=1
      00000007H   SYMBOL    DATA     BYTE      MY_TIMER_interruptState
      ---         BLOCKEND  ---      ---       LVL=1
      01006F59H   LINE      CODE     ---       #43
      01006F59H   LINE      CODE     ---       #44
      01006F59H   LINE      CODE     ---       #118
      01006F64H   LINE      CODE     ---       #119
      01006F6FH   LINE      CODE     ---       #142
      01006F72H   LINE      CODE     ---       #145
      01006F79H   LINE      CODE     ---       #148
      01006F7CH   LINE      CODE     ---       #159
      01006F7FH   LINE      CODE     ---       #162
      01006F84H   LINE      CODE     ---       #163
      ---         BLOCKEND  ---      ---       LVL=0

      0100747DH   BLOCK     CODE     ---       LVL=0
      0100747DH   LINE      CODE     ---       #180
      0100747DH   LINE      CODE     ---       #181
      0100747DH   LINE      CODE     ---       #190
      01007484H   LINE      CODE     ---       #192
      ---         BLOCKEND  ---      ---       LVL=0

      010072B2H   BLOCK     CODE     ---       LVL=0
      010072B2H   LINE      CODE     ---       #215
      010072B2H   LINE      CODE     ---       #216
      010072B2H   LINE      CODE     ---       #217
      010072B8H   LINE      CODE     ---       #218
      010072B8H   LINE      CODE     ---       #219
      010072BBH   LINE      CODE     ---       #221
      010072C1H   LINE      CODE     ---       #222
      010072C1H   LINE      CODE     ---       #225
      010072C4H   LINE      CODE     ---       #226
      ---         BLOCKEND  ---      ---       LVL=0

      010074D4H   BLOCK     CODE     ---       LVL=0
      00000007H   SYMBOL    DATA     BYTE      interruptMode
      010074D4H   LINE      CODE     ---       #279
      010074D4H   LINE      CODE     ---       #280
      010074D4H   LINE      CODE     ---       #281
      010074D9H   LINE      CODE     ---       #282
LX51 LINKER/LOCATER V4.64.0.0                                                         01/12/2017  16:14:04  PAGE 67


      ---         BLOCKEND  ---      ---       LVL=0

      010074DAH   BLOCK     CODE     ---       LVL=0
      010074DAH   LINE      CODE     ---       #333
      010074DAH   LINE      CODE     ---       #334
      010074DAH   LINE      CODE     ---       #335
      010074DFH   LINE      CODE     ---       #336
      ---         BLOCKEND  ---      ---       LVL=0
      00000007H   SYMBOL    DATA     BYTE      control

      0100744DH   BLOCK     CODE     ---       LVL=0
      00000004H   SYMBOL    DATA     DWORD     period
      0100744DH   LINE      CODE     ---       #431
      0100744DH   LINE      CODE     ---       #432
      0100744DH   LINE      CODE     ---       #437
      01007456H   LINE      CODE     ---       #439
      ---         BLOCKEND  ---      ---       LVL=0

      01007457H   BLOCK     CODE     ---       LVL=0
      01007457H   LINE      CODE     ---       #456
      01007457H   LINE      CODE     ---       #457
      01007457H   LINE      CODE     ---       #461
      01007460H   LINE      CODE     ---       #463
      ---         BLOCKEND  ---      ---       LVL=0

      01007461H   BLOCK     CODE     ---       LVL=0
      00000004H   SYMBOL    DATA     DWORD     counter
      01007461H   LINE      CODE     ---       #480
      01007461H   LINE      CODE     ---       #481
      01007461H   LINE      CODE     ---       #489
      0100746AH   LINE      CODE     ---       #491
      ---         BLOCKEND  ---      ---       LVL=0

      01007344H   BLOCK     CODE     ---       LVL=0
      01007344H   LINE      CODE     ---       #508
      01007344H   LINE      CODE     ---       #509
      01007344H   LINE      CODE     ---       #516
      01007349H   LINE      CODE     ---       #523
      01007352H   LINE      CODE     ---       #525
      ---         BLOCKEND  ---      ---       LVL=0

      010073F1H   BLOCK     CODE     ---       LVL=0
      010073F1H   LINE      CODE     ---       #763
      010073F1H   LINE      CODE     ---       #764
      010073F1H   LINE      CODE     ---       #765
      010073F8H   LINE      CODE     ---       #766
      010073F8H   LINE      CODE     ---       #767
      010073FBH   LINE      CODE     ---       #768
      010073FDH   LINE      CODE     ---       #769
      ---         BLOCKEND  ---      ---       LVL=0

      ---         MODULE    ---      ---       CYFLASH
      020010A5H   PUBLIC    XDATA    ---       dieTemperature
      01006E6DH   PUBLIC    CODE     ---       CyEEPROM_Start
      0100719BH   PUBLIC    CODE     ---       CySetTemp
      000000CAH   SFRSYM    DATA     BYTE      SFRPRT5SEL
      000000DAH   SFRSYM    DATA     BYTE      SFRPRT6SEL
      000000D0H.6 SFRSYM    DATA     BIT       AC
      000000A8H.7 SFRSYM    DATA     BIT       EA
      000000A8H   SFRSYM    DATA     BYTE      IE
      00000085H   SFRSYM    DATA     BYTE      DPH1
      00000084H   SFRSYM    DATA     BYTE      DPL1
      000000D0H.7 SFRSYM    DATA     BIT       CY
      000000A0H   SFRSYM    DATA     BYTE      P2AX
      00000095H   SFRSYM    DATA     BYTE      DPX1
LX51 LINKER/LOCATER V4.64.0.0                                                         01/12/2017  16:14:04  PAGE 68


      00000081H   SFRSYM    DATA     BYTE      SP
      000000D0H.2 SFRSYM    DATA     BIT       OV
      00000080H   SFRSYM    DATA     BYTE      SFRPRT0DR
      00000090H   SFRSYM    DATA     BYTE      SFRPRT1DR
      000000F2H   SFRSYM    DATA     BYTE      SFRPRT12SEL
      00000098H   SFRSYM    DATA     BYTE      SFRPRT2DR
      000000B0H   SFRSYM    DATA     BYTE      SFRPRT3DR
      000000C0H   SFRSYM    DATA     BYTE      SFRPRT4DR
      000000FAH   SFRSYM    DATA     BYTE      SFRPRT15SEL
      000000C8H   SFRSYM    DATA     BYTE      SFRPRT5DR
      000000D8H   SFRSYM    DATA     BYTE      SFRPRT6DR
      00000089H   SFRSYM    DATA     BYTE      SFRPRT0PS
      00000091H   SFRSYM    DATA     BYTE      SFRPRT1PS
      00000099H   SFRSYM    DATA     BYTE      SFRPRT2PS
      000000B1H   SFRSYM    DATA     BYTE      SFRPRT3PS
      000000C1H   SFRSYM    DATA     BYTE      SFRPRT4PS
      000000C9H   SFRSYM    DATA     BYTE      SFRPRT5PS
      000000D9H   SFRSYM    DATA     BYTE      SFRPRT6PS
      000000EAH   SFRSYM    DATA     BYTE      MXAX
      000000F0H   SFRSYM    DATA     BYTE      B
      000000E0H   SFRSYM    DATA     BYTE      ACC
      000000D0H   SFRSYM    DATA     BIT       P
      000000D0H.3 SFRSYM    DATA     BIT       RS0
      000000D0H.4 SFRSYM    DATA     BIT       RS1
      00000083H   SFRSYM    DATA     BYTE      DPH
      000000E8H   SFRSYM    DATA     BYTE      SFRPRT12DR
      00000082H   SFRSYM    DATA     BYTE      DPL
      000000F8H   SFRSYM    DATA     BYTE      SFRPRT15DR
      00000086H   SFRSYM    DATA     BYTE      DPS
      000000E9H   SFRSYM    DATA     BYTE      SFRPRT12PS
      00000093H   SFRSYM    DATA     BYTE      DPX
      000000F9H   SFRSYM    DATA     BYTE      SFRPRT15PS
      000000D0H.5 SFRSYM    DATA     BIT       F0
      000000D0H.1 SFRSYM    DATA     BIT       F1
      0000008AH   SFRSYM    DATA     BYTE      SFRPRT0SEL
      000000D0H   SFRSYM    DATA     BYTE      PSW
      000000A2H   SFRSYM    DATA     BYTE      SFRPRT1SEL
      0000009AH   SFRSYM    DATA     BYTE      SFRPRT2SEL
      000000B2H   SFRSYM    DATA     BYTE      SFRPRT3SEL
      000000C2H   SFRSYM    DATA     BYTE      SFRPRT4SEL
      01006A99H   SYMBOL    CODE     ---       CyFlashGetSpcAlgorithm
      0100699BH   SYMBOL    CODE     ---       CySetTempInt
      020010A2H   SYMBOL    XDATA    ---       rowBuffer
      00000007H   SYMBOL    DATA     BYTE      interruptState
      00000007H   SYMBOL    DATA     BYTE      interruptState

      0100699BH   BLOCK     CODE     ---       LVL=0
      0100699BH   BLOCK     CODE     NEAR LAB  LVL=1
      0200052AH   SYMBOL    XDATA    BYTE      status
      ---         BLOCKEND  ---      ---       LVL=1
      0100699BH   LINE      CODE     ---       #155
      0100699BH   LINE      CODE     ---       #156
      0100699BH   LINE      CODE     ---       #160
      0100699EH   LINE      CODE     ---       #163
      010069A4H   LINE      CODE     ---       #165
      010069AAH   LINE      CODE     ---       #166
      010069AAH   LINE      CODE     ---       #168
      010069B4H   LINE      CODE     ---       #169
      010069B4H   LINE      CODE     ---       #171
      010069B4H   LINE      CODE     ---       #172
      010069C3H   LINE      CODE     ---       #173
      010069C3H   LINE      CODE     ---       #174
      010069C8H   LINE      CODE     ---       #176
      010069D0H   LINE      CODE     ---       #177
      010069D0H   LINE      CODE     ---       #179
LX51 LINKER/LOCATER V4.64.0.0                                                         01/12/2017  16:14:04  PAGE 69


      010069D6H   LINE      CODE     ---       #180
      010069D8H   LINE      CODE     ---       #181
      010069D8H   LINE      CODE     ---       #182
      010069D8H   LINE      CODE     ---       #184
      010069E0H   LINE      CODE     ---       #185
      010069E0H   LINE      CODE     ---       #187
      010069E3H   LINE      CODE     ---       #188
      010069E5H   LINE      CODE     ---       #190
      010069E5H   LINE      CODE     ---       #191
      010069EBH   LINE      CODE     ---       #192
      010069EBH   LINE      CODE     ---       #194
      010069F0H   LINE      CODE     ---       #195
      ---         BLOCKEND  ---      ---       LVL=0

      01006A99H   BLOCK     CODE     ---       LVL=0
      01006A99H   BLOCK     CODE     NEAR LAB  LVL=1
      0200052AH   SYMBOL    XDATA    BYTE      status
      ---         BLOCKEND  ---      ---       LVL=1
      01006A99H   LINE      CODE     ---       #215
      01006A99H   LINE      CODE     ---       #216
      01006A99H   LINE      CODE     ---       #220
      01006A9CH   LINE      CODE     ---       #222
      01006AA2H   LINE      CODE     ---       #223
      01006AA2H   LINE      CODE     ---       #224
      01006AAAH   LINE      CODE     ---       #226
      01006AAEH   LINE      CODE     ---       #227
      01006AAEH   LINE      CODE     ---       #228
      01006AB6H   LINE      CODE     ---       #229
      01006AB6H   LINE      CODE     ---       #231
      01006ABCH   LINE      CODE     ---       #232
      01006ABEH   LINE      CODE     ---       #234
      01006AD4H   LINE      CODE     ---       #235
      01006AD4H   LINE      CODE     ---       #236
      01006AD8H   LINE      CODE     ---       #237
      01006AD8H   LINE      CODE     ---       #238
      01006AD8H   LINE      CODE     ---       #239
      01006ADBH   LINE      CODE     ---       #240
      01006ADDH   LINE      CODE     ---       #242
      01006ADDH   LINE      CODE     ---       #243
      01006AE3H   LINE      CODE     ---       #244
      01006AE3H   LINE      CODE     ---       #246
      01006AE8H   LINE      CODE     ---       #247
      ---         BLOCKEND  ---      ---       LVL=0

      0100719BH   BLOCK     CODE     ---       LVL=0
      0100719BH   BLOCK     CODE     NEAR LAB  LVL=1
      02000529H   SYMBOL    XDATA    BYTE      status
      ---         BLOCKEND  ---      ---       LVL=1
      0100719BH   LINE      CODE     ---       #273
      0100719BH   LINE      CODE     ---       #274
      0100719BH   LINE      CODE     ---       #275
      010071A3H   LINE      CODE     ---       #277
      010071A5H   LINE      CODE     ---       #278
      010071A5H   LINE      CODE     ---       #279
      010071ADH   LINE      CODE     ---       #280
      010071ADH   LINE      CODE     ---       #282
      010071B2H   LINE      CODE     ---       #283
      ---         BLOCKEND  ---      ---       LVL=0
      00000004H   SYMBOL    DATA     WORD      rowAddress
      00000001H   SYMBOL    DATA     ---       rowData
      00000007H   SYMBOL    DATA     BYTE      status
      00000007H   SYMBOL    DATA     BYTE      interruptState

      01006E6DH   BLOCK     CODE     ---       LVL=0
      01006E6DH   BLOCK     CODE     NEAR LAB  LVL=1
LX51 LINKER/LOCATER V4.64.0.0                                                         01/12/2017  16:14:04  PAGE 70


      00000007H   SYMBOL    DATA     BYTE      interruptState
      ---         BLOCKEND  ---      ---       LVL=1
      01006E6DH   LINE      CODE     ---       #636
      01006E6DH   LINE      CODE     ---       #637
      01006E6DH   LINE      CODE     ---       #640
      01006E70H   LINE      CODE     ---       #647
      01006E77H   LINE      CODE     ---       #648
      01006E7EH   LINE      CODE     ---       #661
      01006E84H   LINE      CODE     ---       #668
      01006E8BH   LINE      CODE     ---       #669
      01006E92H   LINE      CODE     ---       #671
      01006E9AH   LINE      CODE     ---       #672
      01006E9AH   LINE      CODE     ---       #674
      01006E9AH   LINE      CODE     ---       #676
      01006E9DH   LINE      CODE     ---       #677
      ---         BLOCKEND  ---      ---       LVL=0
      00000007H   SYMBOL    DATA     BYTE      interruptState

      ---         MODULE    ---      ---       CYLIB
      0200109EH   PUBLIC    XDATA    DWORD     cydelay_32k_ms
      0200109DH   PUBLIC    XDATA    BYTE      CyResetStatus
      02001099H   PUBLIC    XDATA    DWORD     cydelay_freq_hz
      02001098H   PUBLIC    XDATA    BYTE      cydelay_freq_mhz
      02001094H   PUBLIC    XDATA    DWORD     cydelay_freq_khz
      01007169H   PUBLIC    CODE     ---       _CyIntSetPriority
      010069F1H   PUBLIC    CODE     ---       _CyIntSetVector
      0100662CH   PUBLIC    CODE     ---       _?CyDelay
      01007485H   PUBLIC    CODE     ---       CySoftwareReset
      000000CAH   SFRSYM    DATA     BYTE      SFRPRT5SEL
      000000DAH   SFRSYM    DATA     BYTE      SFRPRT6SEL
      000000D0H.6 SFRSYM    DATA     BIT       AC
      000000A8H.7 SFRSYM    DATA     BIT       EA
      000000A8H   SFRSYM    DATA     BYTE      IE
      00000085H   SFRSYM    DATA     BYTE      DPH1
      00000084H   SFRSYM    DATA     BYTE      DPL1
      000000D0H.7 SFRSYM    DATA     BIT       CY
      000000A0H   SFRSYM    DATA     BYTE      P2AX
      00000095H   SFRSYM    DATA     BYTE      DPX1
      00000081H   SFRSYM    DATA     BYTE      SP
      000000D0H.2 SFRSYM    DATA     BIT       OV
      00000080H   SFRSYM    DATA     BYTE      SFRPRT0DR
      00000090H   SFRSYM    DATA     BYTE      SFRPRT1DR
      000000F2H   SFRSYM    DATA     BYTE      SFRPRT12SEL
      00000098H   SFRSYM    DATA     BYTE      SFRPRT2DR
      000000B0H   SFRSYM    DATA     BYTE      SFRPRT3DR
      000000C0H   SFRSYM    DATA     BYTE      SFRPRT4DR
      000000FAH   SFRSYM    DATA     BYTE      SFRPRT15SEL
      000000C8H   SFRSYM    DATA     BYTE      SFRPRT5DR
      000000D8H   SFRSYM    DATA     BYTE      SFRPRT6DR
      00000089H   SFRSYM    DATA     BYTE      SFRPRT0PS
      00000091H   SFRSYM    DATA     BYTE      SFRPRT1PS
      00000099H   SFRSYM    DATA     BYTE      SFRPRT2PS
      000000B1H   SFRSYM    DATA     BYTE      SFRPRT3PS
      000000C1H   SFRSYM    DATA     BYTE      SFRPRT4PS
      000000C9H   SFRSYM    DATA     BYTE      SFRPRT5PS
      000000D9H   SFRSYM    DATA     BYTE      SFRPRT6PS
      000000EAH   SFRSYM    DATA     BYTE      MXAX
      000000F0H   SFRSYM    DATA     BYTE      B
      000000E0H   SFRSYM    DATA     BYTE      ACC
      000000D0H   SFRSYM    DATA     BIT       P
      000000D0H.3 SFRSYM    DATA     BIT       RS0
      000000D0H.4 SFRSYM    DATA     BIT       RS1
      00000083H   SFRSYM    DATA     BYTE      DPH
      000000E8H   SFRSYM    DATA     BYTE      SFRPRT12DR
      00000082H   SFRSYM    DATA     BYTE      DPL
LX51 LINKER/LOCATER V4.64.0.0                                                         01/12/2017  16:14:04  PAGE 71


      000000F8H   SFRSYM    DATA     BYTE      SFRPRT15DR
      00000086H   SFRSYM    DATA     BYTE      DPS
      000000E9H   SFRSYM    DATA     BYTE      SFRPRT12PS
      00000093H   SFRSYM    DATA     BYTE      DPX
      000000F9H   SFRSYM    DATA     BYTE      SFRPRT15PS
      000000D0H.5 SFRSYM    DATA     BIT       F0
      000000D0H.1 SFRSYM    DATA     BIT       F1
      0000008AH   SFRSYM    DATA     BYTE      SFRPRT0SEL
      000000D0H   SFRSYM    DATA     BYTE      PSW
      000000A2H   SFRSYM    DATA     BYTE      SFRPRT1SEL
      0000009AH   SFRSYM    DATA     BYTE      SFRPRT2SEL
      000000B2H   SFRSYM    DATA     BYTE      SFRPRT3SEL
      000000C2H   SFRSYM    DATA     BYTE      SFRPRT4SEL
      00000007H   SYMBOL    DATA     BYTE      wait
      00000007H   SYMBOL    DATA     BYTE      pDiv
      00000005H   SYMBOL    DATA     BYTE      qDiv
      00000003H   SYMBOL    DATA     BYTE      current
      00000007H   SYMBOL    DATA     BYTE      source
      00000007H   SYMBOL    DATA     BYTE      wait
      00000007H   SYMBOL    DATA     BYTE      poweredOn
      00000006H   SYMBOL    DATA     BYTE      freq
      00000007H   SYMBOL    DATA     BYTE      source
      00000007H   SYMBOL    DATA     BYTE      source
      00000007H   SYMBOL    DATA     BYTE      divider
      00000006H   SYMBOL    DATA     WORD      divider
      00000005H   SYMBOL    DATA     BYTE      masterClkDiv
      00000006H   SYMBOL    DATA     WORD      busClkDiv
      00000001H   SYMBOL    DATA     BYTE      interruptState
      00000007H   SYMBOL    DATA     BYTE      divider
      00000007H   SYMBOL    DATA     BYTE      source
      00000007H   SYMBOL    DATA     BYTE      source
      00000007H   SYMBOL    DATA     BYTE      mode
      00000006H   SYMBOL    DATA     BYTE      state
      00000007H   SYMBOL    DATA     BYTE      mode
      00000007H   SYMBOL    DATA     BYTE      wait
      00000007H   SYMBOL    DATA     BYTE      setting
      00000007H   SYMBOL    DATA     BYTE      setting
      00000007H   SYMBOL    DATA     BYTE      setting
      00000000H   SYMBOL    XSTK     BYTE      reason

      01007485H   BLOCK     CODE     ---       LVL=0
      01007485H   LINE      CODE     ---       #1666
      01007485H   LINE      CODE     ---       #1667
      01007485H   LINE      CODE     ---       #1668
      0100748CH   LINE      CODE     ---       #1669
      ---         BLOCKEND  ---      ---       LVL=0

      0100662CH   BLOCK     CODE     ---       LVL=0
      00000000H   SYMBOL    XSTK     DWORD     milliseconds
      0100662CH   LINE      CODE     ---       #1692
      01006635H   LINE      CODE     ---       #1694
      0100664BH   LINE      CODE     ---       #1695
      0100664BH   LINE      CODE     ---       #1700
      0100665CH   LINE      CODE     ---       #1701
      01006686H   LINE      CODE     ---       #1702
      01006688H   LINE      CODE     ---       #1704
      010066ADH   LINE      CODE     ---       #1705
      ---         BLOCKEND  ---      ---       LVL=0
      00000000H   SYMBOL    XSTK     DWORD     freq
      00000007H   SYMBOL    DATA     BYTE      ticks
      00000005H   SYMBOL    DATA     BYTE      lpMode
      02001093H   SYMBOL    XDATA    BYTE      interruptStatus
      00000005H   SYMBOL    DATA     BYTE      interruptState
      00000005H   SYMBOL    DATA     BYTE      interruptState
      00000003H   SYMBOL    DATA     BYTE      interruptState
LX51 LINKER/LOCATER V4.64.0.0                                                         01/12/2017  16:14:04  PAGE 72



      010069F1H   BLOCK     CODE     ---       LVL=0
      02000522H   SYMBOL    XDATA    BYTE      number
      02000523H   SYMBOL    XDATA    ---       address
      010069FEH   BLOCK     CODE     NEAR LAB  LVL=1
      02000525H   SYMBOL    XDATA    ---       oldIsr
      ---         BLOCKEND  ---      ---       LVL=1
      010069F1H   LINE      CODE     ---       #2641
      010069FEH   LINE      CODE     ---       #2642
      010069FEH   LINE      CODE     ---       #2648
      01006A1CH   LINE      CODE     ---       #2652
      01006A3CH   LINE      CODE     ---       #2654
      01006A44H   LINE      CODE     ---       #2655
      ---         BLOCKEND  ---      ---       LVL=0
      00000007H   SYMBOL    DATA     BYTE      number

      01007169H   BLOCK     CODE     ---       LVL=0
      00000004H   SYMBOL    DATA     BYTE      number
      00000005H   SYMBOL    DATA     BYTE      priority
      01007169H   LINE      CODE     ---       #2696
      0100716BH   LINE      CODE     ---       #2697
      0100716BH   LINE      CODE     ---       #2702
      01007181H   LINE      CODE     ---       #2704
      ---         BLOCKEND  ---      ---       LVL=0
      00000007H   SYMBOL    DATA     BYTE      number
      00000007H   SYMBOL    DATA     BYTE      priority
      00000005H   SYMBOL    DATA     BYTE      number
      00000006H   SYMBOL    DATA     ---       stateReg

      ---         MODULE    ---      ---       ?C_STARTUP
      00000000H   PUBLIC    NUMBER   ---       ?C?XPAGE1RST
      00000093H   PUBLIC    DATA     BYTE      ?C?XPAGE1SFR
      01002600H   PUBLIC    CODE     NEAR LAB  ?C_STARTUP
      01005AEFH   PUBLIC    CODE     NEAR LAB  STARTUP1
      01002604H   PUBLIC    CODE     NEAR LAB  _dma_wait

      ---         MODULE    ---      ---       ISR_WATCHDOG
      010074A9H   PUBLIC    CODE     ---       ISR_WATCHDOG_Disable
      010074A2H   PUBLIC    CODE     ---       ISR_WATCHDOG_Enable
      0100746BH   PUBLIC    CODE     ---       _ISR_WATCHDOG_SetPriority
      010073C8H   PUBLIC    CODE     ---       _ISR_WATCHDOG_SetVector
      01007525H   PUBLIC    CODE     ---       ISR_WATCHDOG_Interrupt
      010070BEH   PUBLIC    CODE     ---       _ISR_WATCHDOG_StartEx
      000000CAH   SFRSYM    DATA     BYTE      SFRPRT5SEL
      000000DAH   SFRSYM    DATA     BYTE      SFRPRT6SEL
      000000D0H.6 SFRSYM    DATA     BIT       AC
      000000A8H.7 SFRSYM    DATA     BIT       EA
      000000A8H   SFRSYM    DATA     BYTE      IE
      00000085H   SFRSYM    DATA     BYTE      DPH1
      00000084H   SFRSYM    DATA     BYTE      DPL1
      000000D0H.7 SFRSYM    DATA     BIT       CY
      000000A0H   SFRSYM    DATA     BYTE      P2AX
      00000095H   SFRSYM    DATA     BYTE      DPX1
      00000081H   SFRSYM    DATA     BYTE      SP
      000000D0H.2 SFRSYM    DATA     BIT       OV
      00000080H   SFRSYM    DATA     BYTE      SFRPRT0DR
      00000090H   SFRSYM    DATA     BYTE      SFRPRT1DR
      000000F2H   SFRSYM    DATA     BYTE      SFRPRT12SEL
      00000098H   SFRSYM    DATA     BYTE      SFRPRT2DR
      000000B0H   SFRSYM    DATA     BYTE      SFRPRT3DR
      000000C0H   SFRSYM    DATA     BYTE      SFRPRT4DR
      000000FAH   SFRSYM    DATA     BYTE      SFRPRT15SEL
      000000C8H   SFRSYM    DATA     BYTE      SFRPRT5DR
      000000D8H   SFRSYM    DATA     BYTE      SFRPRT6DR
      00000089H   SFRSYM    DATA     BYTE      SFRPRT0PS
LX51 LINKER/LOCATER V4.64.0.0                                                         01/12/2017  16:14:04  PAGE 73


      00000091H   SFRSYM    DATA     BYTE      SFRPRT1PS
      00000099H   SFRSYM    DATA     BYTE      SFRPRT2PS
      000000B1H   SFRSYM    DATA     BYTE      SFRPRT3PS
      000000C1H   SFRSYM    DATA     BYTE      SFRPRT4PS
      000000C9H   SFRSYM    DATA     BYTE      SFRPRT5PS
      000000D9H   SFRSYM    DATA     BYTE      SFRPRT6PS
      000000EAH   SFRSYM    DATA     BYTE      MXAX
      000000F0H   SFRSYM    DATA     BYTE      B
      000000E0H   SFRSYM    DATA     BYTE      ACC
      000000D0H   SFRSYM    DATA     BIT       P
      000000D0H.3 SFRSYM    DATA     BIT       RS0
      000000D0H.4 SFRSYM    DATA     BIT       RS1
      00000083H   SFRSYM    DATA     BYTE      DPH
      000000E8H   SFRSYM    DATA     BYTE      SFRPRT12DR
      00000082H   SFRSYM    DATA     BYTE      DPL
      000000F8H   SFRSYM    DATA     BYTE      SFRPRT15DR
      00000086H   SFRSYM    DATA     BYTE      DPS
      000000E9H   SFRSYM    DATA     BYTE      SFRPRT12PS
      00000093H   SFRSYM    DATA     BYTE      DPX
      000000F9H   SFRSYM    DATA     BYTE      SFRPRT15PS
      000000D0H.5 SFRSYM    DATA     BIT       F0
      000000D0H.1 SFRSYM    DATA     BIT       F1
      0000008AH   SFRSYM    DATA     BYTE      SFRPRT0SEL
      000000D0H   SFRSYM    DATA     BYTE      PSW
      000000A2H   SFRSYM    DATA     BYTE      SFRPRT1SEL
      0000009AH   SFRSYM    DATA     BYTE      SFRPRT2SEL
      000000B2H   SFRSYM    DATA     BYTE      SFRPRT3SEL
      000000C2H   SFRSYM    DATA     BYTE      SFRPRT4SEL

      010070BEH   BLOCK     CODE     ---       LVL=0
      02000522H   SYMBOL    XDATA    ---       address
      010070BEH   LINE      CODE     ---       #94
      010070C6H   LINE      CODE     ---       #95
      010070C6H   LINE      CODE     ---       #97
      010070C9H   LINE      CODE     ---       #100
      010070D4H   LINE      CODE     ---       #103
      010070D9H   LINE      CODE     ---       #106
      010070DCH   LINE      CODE     ---       #107
      ---         BLOCKEND  ---      ---       LVL=0

      01007525H   BLOCK     CODE     ---       LVL=0
      01007525H   LINE      CODE     ---       #151
      01007525H   LINE      CODE     ---       #168
      ---         BLOCKEND  ---      ---       LVL=0

      010073C8H   BLOCK     CODE     ---       LVL=0
      00000006H   SYMBOL    DATA     ---       address
      010073C8H   LINE      CODE     ---       #198
      010073C8H   LINE      CODE     ---       #199
      010073C8H   LINE      CODE     ---       #200
      010073D5H   LINE      CODE     ---       #201
      ---         BLOCKEND  ---      ---       LVL=0

      0100746BH   BLOCK     CODE     ---       LVL=0
      00000007H   SYMBOL    DATA     BYTE      priority
      0100746BH   LINE      CODE     ---       #248
      0100746BH   LINE      CODE     ---       #249
      0100746BH   LINE      CODE     ---       #250
      01007474H   LINE      CODE     ---       #251
      ---         BLOCKEND  ---      ---       LVL=0
      00000007H   SYMBOL    DATA     BYTE      priority

      010074A2H   BLOCK     CODE     ---       LVL=0
      010074A2H   LINE      CODE     ---       #297
      010074A2H   LINE      CODE     ---       #298
LX51 LINKER/LOCATER V4.64.0.0                                                         01/12/2017  16:14:04  PAGE 74


      010074A2H   LINE      CODE     ---       #300
      010074A8H   LINE      CODE     ---       #301
      ---         BLOCKEND  ---      ---       LVL=0

      010074A9H   BLOCK     CODE     ---       LVL=0
      010074A9H   LINE      CODE     ---       #339
      010074A9H   LINE      CODE     ---       #340
      010074A9H   LINE      CODE     ---       #342
      010074AFH   LINE      CODE     ---       #343
      ---         BLOCKEND  ---      ---       LVL=0

      ---         MODULE    ---      ---       WATCHDOG_COUNTER
      020010B1H   PUBLIC    XDATA    BYTE      WATCHDOG_COUNTER_initVar
      010073D6H   PUBLIC    CODE     ---       _WATCHDOG_COUNTER_WritePeriod
      01007119H   PUBLIC    CODE     ---       _WATCHDOG_COUNTER_WriteCounter
      010074E0H   PUBLIC    CODE     ---       _WATCHDOG_COUNTER_SetInterruptMode
      010072C5H   PUBLIC    CODE     ---       WATCHDOG_COUNTER_Start
      010071F8H   PUBLIC    CODE     ---       WATCHDOG_COUNTER_Enable
      01006D1AH   PUBLIC    CODE     ---       WATCHDOG_COUNTER_Init
      000000CAH   SFRSYM    DATA     BYTE      SFRPRT5SEL
      000000DAH   SFRSYM    DATA     BYTE      SFRPRT6SEL
      000000D0H.6 SFRSYM    DATA     BIT       AC
      000000A8H.7 SFRSYM    DATA     BIT       EA
      000000A8H   SFRSYM    DATA     BYTE      IE
      00000085H   SFRSYM    DATA     BYTE      DPH1
      00000084H   SFRSYM    DATA     BYTE      DPL1
      000000D0H.7 SFRSYM    DATA     BIT       CY
      000000A0H   SFRSYM    DATA     BYTE      P2AX
      00000095H   SFRSYM    DATA     BYTE      DPX1
      00000081H   SFRSYM    DATA     BYTE      SP
      000000D0H.2 SFRSYM    DATA     BIT       OV
      00000080H   SFRSYM    DATA     BYTE      SFRPRT0DR
      00000090H   SFRSYM    DATA     BYTE      SFRPRT1DR
      000000F2H   SFRSYM    DATA     BYTE      SFRPRT12SEL
      00000098H   SFRSYM    DATA     BYTE      SFRPRT2DR
      000000B0H   SFRSYM    DATA     BYTE      SFRPRT3DR
      000000C0H   SFRSYM    DATA     BYTE      SFRPRT4DR
      000000FAH   SFRSYM    DATA     BYTE      SFRPRT15SEL
      000000C8H   SFRSYM    DATA     BYTE      SFRPRT5DR
      000000D8H   SFRSYM    DATA     BYTE      SFRPRT6DR
      00000089H   SFRSYM    DATA     BYTE      SFRPRT0PS
      00000091H   SFRSYM    DATA     BYTE      SFRPRT1PS
      00000099H   SFRSYM    DATA     BYTE      SFRPRT2PS
      000000B1H   SFRSYM    DATA     BYTE      SFRPRT3PS
      000000C1H   SFRSYM    DATA     BYTE      SFRPRT4PS
      000000C9H   SFRSYM    DATA     BYTE      SFRPRT5PS
      000000D9H   SFRSYM    DATA     BYTE      SFRPRT6PS
      000000EAH   SFRSYM    DATA     BYTE      MXAX
      000000F0H   SFRSYM    DATA     BYTE      B
      000000E0H   SFRSYM    DATA     BYTE      ACC
      000000D0H   SFRSYM    DATA     BIT       P
      000000D0H.3 SFRSYM    DATA     BIT       RS0
      000000D0H.4 SFRSYM    DATA     BIT       RS1
      00000083H   SFRSYM    DATA     BYTE      DPH
      000000E8H   SFRSYM    DATA     BYTE      SFRPRT12DR
      00000082H   SFRSYM    DATA     BYTE      DPL
      000000F8H   SFRSYM    DATA     BYTE      SFRPRT15DR
      00000086H   SFRSYM    DATA     BYTE      DPS
      000000E9H   SFRSYM    DATA     BYTE      SFRPRT12PS
      00000093H   SFRSYM    DATA     BYTE      DPX
      000000F9H   SFRSYM    DATA     BYTE      SFRPRT15PS
      000000D0H.5 SFRSYM    DATA     BIT       F0
      000000D0H.1 SFRSYM    DATA     BIT       F1
      0000008AH   SFRSYM    DATA     BYTE      SFRPRT0SEL
      000000D0H   SFRSYM    DATA     BYTE      PSW
LX51 LINKER/LOCATER V4.64.0.0                                                         01/12/2017  16:14:04  PAGE 75


      000000A2H   SFRSYM    DATA     BYTE      SFRPRT1SEL
      0000009AH   SFRSYM    DATA     BYTE      SFRPRT2SEL
      000000B2H   SFRSYM    DATA     BYTE      SFRPRT3SEL
      000000C2H   SFRSYM    DATA     BYTE      SFRPRT4SEL

      01006D1AH   BLOCK     CODE     ---       LVL=0
      01006D1AH   LINE      CODE     ---       #37
      01006D1AH   LINE      CODE     ---       #38
      01006D1AH   LINE      CODE     ---       #50
      01006D21H   LINE      CODE     ---       #57
      01006D28H   LINE      CODE     ---       #66
      01006D2FH   LINE      CODE     ---       #69
      01006D36H   LINE      CODE     ---       #70
      01006D3AH   LINE      CODE     ---       #73
      01006D3EH   LINE      CODE     ---       #74
      01006D42H   LINE      CODE     ---       #100
      01006D47H   LINE      CODE     ---       #102
      01006D4CH   LINE      CODE     ---       #104
      01006D51H   LINE      CODE     ---       #123
      ---         BLOCKEND  ---      ---       LVL=0

      010071F8H   BLOCK     CODE     ---       LVL=0
      010071F8H   LINE      CODE     ---       #143
      010071F8H   LINE      CODE     ---       #144
      010071F8H   LINE      CODE     ---       #147
      010071FFH   LINE      CODE     ---       #148
      01007206H   LINE      CODE     ---       #155
      0100720DH   LINE      CODE     ---       #158
      ---         BLOCKEND  ---      ---       LVL=0

      010072C5H   BLOCK     CODE     ---       LVL=0
      010072C5H   LINE      CODE     ---       #178
      010072C5H   LINE      CODE     ---       #179
      010072C5H   LINE      CODE     ---       #180
      010072CBH   LINE      CODE     ---       #181
      010072CBH   LINE      CODE     ---       #182
      010072CEH   LINE      CODE     ---       #184
      010072D4H   LINE      CODE     ---       #185
      010072D4H   LINE      CODE     ---       #188
      010072D7H   LINE      CODE     ---       #189
      ---         BLOCKEND  ---      ---       LVL=0

      010074E0H   BLOCK     CODE     ---       LVL=0
      00000007H   SYMBOL    DATA     BYTE      interruptsMask
      010074E0H   LINE      CODE     ---       #237
      010074E0H   LINE      CODE     ---       #238
      010074E0H   LINE      CODE     ---       #239
      010074E5H   LINE      CODE     ---       #240
      ---         BLOCKEND  ---      ---       LVL=0
      00000007H   SYMBOL    DATA     BYTE      control

      01007119H   BLOCK     CODE     ---       LVL=0
      00000007H   SYMBOL    DATA     BYTE      counter
      01007119H   LINE      CODE     ---       #326
      01007119H   LINE      CODE     ---       #328
      01007119H   LINE      CODE     ---       #333
      01007120H   LINE      CODE     ---       #334
      0100712DH   LINE      CODE     ---       #335
      01007134H   LINE      CODE     ---       #339
      ---         BLOCKEND  ---      ---       LVL=0

      010073D6H   BLOCK     CODE     ---       LVL=0
      00000007H   SYMBOL    DATA     BYTE      period
      010073D6H   LINE      CODE     ---       #415
      010073D6H   LINE      CODE     ---       #416
LX51 LINKER/LOCATER V4.64.0.0                                                         01/12/2017  16:14:04  PAGE 76


      010073D6H   LINE      CODE     ---       #418
      010073E3H   LINE      CODE     ---       #422
      ---         BLOCKEND  ---      ---       LVL=0

      ---         MODULE    ---      ---       WATCHDOG_ENABLER
      010074E6H   PUBLIC    CODE     ---       _WATCHDOG_ENABLER_Write

      010074E6H   BLOCK     CODE     ---       LVL=0
      00000007H   SYMBOL    DATA     BYTE      control
      010074E6H   LINE      CODE     ---       #37
      010074E6H   LINE      CODE     ---       #38
      010074E6H   LINE      CODE     ---       #39
      010074EBH   LINE      CODE     ---       #40
      ---         BLOCKEND  ---      ---       LVL=0

      ---         MODULE    ---      ---       WATCHDOG_REFRESH
      010074ECH   PUBLIC    CODE     ---       _WATCHDOG_REFRESH_Write

      010074ECH   BLOCK     CODE     ---       LVL=0
      00000007H   SYMBOL    DATA     BYTE      control
      010074ECH   LINE      CODE     ---       #37
      010074ECH   LINE      CODE     ---       #38
      010074ECH   LINE      CODE     ---       #39
      010074F1H   LINE      CODE     ---       #40
      ---         BLOCKEND  ---      ---       LVL=0

      ---         MODULE    ---      ---       SPI_IMU
      020010ADH   PUBLIC    XDATA    BYTE      SPI_IMU_initVar
      020010ACH   PUBLIC    XDATA    BYTE      SPI_IMU_swStatusTx
      020010ABH   PUBLIC    XDATA    BYTE      SPI_IMU_swStatusRx
      01007362H   PUBLIC    CODE     ---       SPI_IMU_ReadStatus
      0100707FH   PUBLIC    CODE     ---       SPI_IMU_ClearFIFO
      01007310H   PUBLIC    CODE     ---       SPI_IMU_ClearTxBuffer
      01007353H   PUBLIC    CODE     ---       SPI_IMU_ClearRxBuffer
      010074FEH   PUBLIC    CODE     ---       SPI_IMU_ReadRxData
      010073FEH   PUBLIC    CODE     ---       _SPI_IMU_WriteTxData
      010074F8H   PUBLIC    CODE     ---       SPI_IMU_ReadRxStatus
      010074F2H   PUBLIC    CODE     ---       SPI_IMU_ReadTxStatus
      01007527H   PUBLIC    CODE     ---       SPI_IMU_EnableRxInt
      01007526H   PUBLIC    CODE     ---       SPI_IMU_EnableTxInt
      010072D8H   PUBLIC    CODE     ---       SPI_IMU_Start
      01006FD2H   PUBLIC    CODE     ---       SPI_IMU_Enable
      01007182H   PUBLIC    CODE     ---       SPI_IMU_Init
      000000CAH   SFRSYM    DATA     BYTE      SFRPRT5SEL
      000000DAH   SFRSYM    DATA     BYTE      SFRPRT6SEL
      000000D0H.6 SFRSYM    DATA     BIT       AC
      000000A8H.7 SFRSYM    DATA     BIT       EA
      000000A8H   SFRSYM    DATA     BYTE      IE
      00000085H   SFRSYM    DATA     BYTE      DPH1
      00000084H   SFRSYM    DATA     BYTE      DPL1
      000000D0H.7 SFRSYM    DATA     BIT       CY
      000000A0H   SFRSYM    DATA     BYTE      P2AX
      00000095H   SFRSYM    DATA     BYTE      DPX1
      00000081H   SFRSYM    DATA     BYTE      SP
      000000D0H.2 SFRSYM    DATA     BIT       OV
      00000080H   SFRSYM    DATA     BYTE      SFRPRT0DR
      00000090H   SFRSYM    DATA     BYTE      SFRPRT1DR
      000000F2H   SFRSYM    DATA     BYTE      SFRPRT12SEL
      00000098H   SFRSYM    DATA     BYTE      SFRPRT2DR
      000000B0H   SFRSYM    DATA     BYTE      SFRPRT3DR
      000000C0H   SFRSYM    DATA     BYTE      SFRPRT4DR
      000000FAH   SFRSYM    DATA     BYTE      SFRPRT15SEL
      000000C8H   SFRSYM    DATA     BYTE      SFRPRT5DR
      000000D8H   SFRSYM    DATA     BYTE      SFRPRT6DR
      00000089H   SFRSYM    DATA     BYTE      SFRPRT0PS
LX51 LINKER/LOCATER V4.64.0.0                                                         01/12/2017  16:14:04  PAGE 77


      00000091H   SFRSYM    DATA     BYTE      SFRPRT1PS
      00000099H   SFRSYM    DATA     BYTE      SFRPRT2PS
      000000B1H   SFRSYM    DATA     BYTE      SFRPRT3PS
      000000C1H   SFRSYM    DATA     BYTE      SFRPRT4PS
      000000C9H   SFRSYM    DATA     BYTE      SFRPRT5PS
      000000D9H   SFRSYM    DATA     BYTE      SFRPRT6PS
      000000EAH   SFRSYM    DATA     BYTE      MXAX
      000000F0H   SFRSYM    DATA     BYTE      B
      000000E0H   SFRSYM    DATA     BYTE      ACC
      000000D0H   SFRSYM    DATA     BIT       P
      000000D0H.3 SFRSYM    DATA     BIT       RS0
      000000D0H.4 SFRSYM    DATA     BIT       RS1
      00000083H   SFRSYM    DATA     BYTE      DPH
      000000E8H   SFRSYM    DATA     BYTE      SFRPRT12DR
      00000082H   SFRSYM    DATA     BYTE      DPL
      000000F8H   SFRSYM    DATA     BYTE      SFRPRT15DR
      00000086H   SFRSYM    DATA     BYTE      DPS
      000000E9H   SFRSYM    DATA     BYTE      SFRPRT12PS
      00000093H   SFRSYM    DATA     BYTE      DPX
      000000F9H   SFRSYM    DATA     BYTE      SFRPRT15PS
      000000D0H.5 SFRSYM    DATA     BIT       F0
      000000D0H.1 SFRSYM    DATA     BIT       F1
      0000008AH   SFRSYM    DATA     BYTE      SFRPRT0SEL
      000000D0H   SFRSYM    DATA     BYTE      PSW
      000000A2H   SFRSYM    DATA     BYTE      SFRPRT1SEL
      0000009AH   SFRSYM    DATA     BYTE      SFRPRT2SEL
      000000B2H   SFRSYM    DATA     BYTE      SFRPRT3SEL
      000000C2H   SFRSYM    DATA     BYTE      SFRPRT4SEL

      01007182H   BLOCK     CODE     ---       LVL=0
      01007182H   LINE      CODE     ---       #63
      01007182H   LINE      CODE     ---       #64
      01007182H   LINE      CODE     ---       #66
      01007188H   LINE      CODE     ---       #83
      0100718BH   LINE      CODE     ---       #97
      0100718EH   LINE      CODE     ---       #98
      01007191H   LINE      CODE     ---       #101
      01007196H   LINE      CODE     ---       #102
      0100719AH   LINE      CODE     ---       #103
      ---         BLOCKEND  ---      ---       LVL=0

      01006FD2H   BLOCK     CODE     ---       LVL=0
      01006FD2H   BLOCK     CODE     NEAR LAB  LVL=1
      00000007H   SYMBOL    DATA     BYTE      enableInterrupts
      ---         BLOCKEND  ---      ---       LVL=1
      01006FD2H   LINE      CODE     ---       #120
      01006FD2H   LINE      CODE     ---       #121
      01006FD2H   LINE      CODE     ---       #124
      01006FD5H   LINE      CODE     ---       #125
      01006FDCH   LINE      CODE     ---       #126
      01006FE3H   LINE      CODE     ---       #127
      01006FEAH   LINE      CODE     ---       #128
      01006FEDH   LINE      CODE     ---       #131
      01006FF0H   LINE      CODE     ---       #134
      01006FF3H   LINE      CODE     ---       #135
      01006FF6H   LINE      CODE     ---       #136
      ---         BLOCKEND  ---      ---       LVL=0

      010072D8H   BLOCK     CODE     ---       LVL=0
      010072D8H   LINE      CODE     ---       #163
      010072D8H   LINE      CODE     ---       #164
      010072D8H   LINE      CODE     ---       #165
      010072DEH   LINE      CODE     ---       #166
      010072DEH   LINE      CODE     ---       #167
      010072E1H   LINE      CODE     ---       #168
LX51 LINKER/LOCATER V4.64.0.0                                                         01/12/2017  16:14:04  PAGE 78


      010072E7H   LINE      CODE     ---       #169
      010072E7H   LINE      CODE     ---       #171
      010072EAH   LINE      CODE     ---       #172
      ---         BLOCKEND  ---      ---       LVL=0
      00000007H   SYMBOL    DATA     BYTE      enableInterrupts

      01007526H   BLOCK     CODE     ---       LVL=0
      01007526H   LINE      CODE     ---       #227
      01007526H   LINE      CODE     ---       #228
      01007526H   LINE      CODE     ---       #232
      ---         BLOCKEND  ---      ---       LVL=0

      01007527H   BLOCK     CODE     ---       LVL=0
      01007527H   LINE      CODE     ---       #252
      01007527H   LINE      CODE     ---       #253
      01007527H   LINE      CODE     ---       #257
      ---         BLOCKEND  ---      ---       LVL=0
      00000007H   SYMBOL    DATA     BYTE      intSrc
      00000007H   SYMBOL    DATA     BYTE      intSrc

      010074F2H   BLOCK     CODE     ---       LVL=0
      010074F2H   BLOCK     CODE     NEAR LAB  LVL=1
      00000007H   SYMBOL    DATA     BYTE      tmpStatus
      ---         BLOCKEND  ---      ---       LVL=1
      010074F2H   LINE      CODE     ---       #386
      010074F2H   LINE      CODE     ---       #387
      010074F2H   LINE      CODE     ---       #401
      010074F7H   LINE      CODE     ---       #405
      010074F7H   LINE      CODE     ---       #406
      ---         BLOCKEND  ---      ---       LVL=0

      010074F8H   BLOCK     CODE     ---       LVL=0
      010074F8H   BLOCK     CODE     NEAR LAB  LVL=1
      00000007H   SYMBOL    DATA     BYTE      tmpStatus
      ---         BLOCKEND  ---      ---       LVL=1
      010074F8H   LINE      CODE     ---       #437
      010074F8H   LINE      CODE     ---       #438
      010074F8H   LINE      CODE     ---       #452
      010074FDH   LINE      CODE     ---       #456
      010074FDH   LINE      CODE     ---       #457
      ---         BLOCKEND  ---      ---       LVL=0

      010073FEH   BLOCK     CODE     ---       LVL=0
      00000007H   SYMBOL    DATA     BYTE      txData
      010073FEH   LINE      CODE     ---       #494
      010073FEH   LINE      CODE     ---       #495
      010073FEH   LINE      CODE     ---       #557
      01007405H   LINE      CODE     ---       #558
      01007405H   LINE      CODE     ---       #559
      01007405H   LINE      CODE     ---       #562
      0100740AH   LINE      CODE     ---       #565
      ---         BLOCKEND  ---      ---       LVL=0

      010074FEH   BLOCK     CODE     ---       LVL=0
      010074FEH   BLOCK     CODE     NEAR LAB  LVL=1
      00000007H   SYMBOL    DATA     BYTE      rxData
      ---         BLOCKEND  ---      ---       LVL=1
      010074FEH   LINE      CODE     ---       #602
      010074FEH   LINE      CODE     ---       #603
      010074FEH   LINE      CODE     ---       #633
      01007503H   LINE      CODE     ---       #637
      01007503H   LINE      CODE     ---       #638
      ---         BLOCKEND  ---      ---       LVL=0
      00000007H   SYMBOL    DATA     BYTE      size
      00000007H   SYMBOL    DATA     BYTE      size
LX51 LINKER/LOCATER V4.64.0.0                                                         01/12/2017  16:14:04  PAGE 79



      01007353H   BLOCK     CODE     ---       LVL=0
      01007353H   LINE      CODE     ---       #806
      01007353H   LINE      CODE     ---       #807
      01007353H   LINE      CODE     ---       #809
      0100735AH   LINE      CODE     ---       #810
      0100735AH   LINE      CODE     ---       #811
      0100735FH   LINE      CODE     ---       #812
      01007361H   LINE      CODE     ---       #824
      ---         BLOCKEND  ---      ---       LVL=0

      01007310H   BLOCK     CODE     ---       LVL=0
      01007310H   BLOCK     CODE     NEAR LAB  LVL=1
      00000007H   SYMBOL    DATA     BYTE      enableInterrupts
      ---         BLOCKEND  ---      ---       LVL=1
      01007310H   LINE      CODE     ---       #861
      01007310H   LINE      CODE     ---       #862
      01007310H   LINE      CODE     ---       #865
      01007313H   LINE      CODE     ---       #867
      0100731AH   LINE      CODE     ---       #868
      0100731EH   LINE      CODE     ---       #875
      01007321H   LINE      CODE     ---       #890
      ---         BLOCKEND  ---      ---       LVL=0
      00000005H   SYMBOL    DATA     BYTE      byteCount
      00000006H   SYMBOL    DATA     BYTE      bufIndex

      0100707FH   BLOCK     CODE     ---       LVL=0
      0100707FH   BLOCK     CODE     NEAR LAB  LVL=1
      00000007H   SYMBOL    DATA     BYTE      enableInterrupts
      ---         BLOCKEND  ---      ---       LVL=1
      0100707FH   LINE      CODE     ---       #995
      0100707FH   LINE      CODE     ---       #996
      0100707FH   LINE      CODE     ---       #1000
      01007086H   LINE      CODE     ---       #1001
      01007086H   LINE      CODE     ---       #1002
      0100708BH   LINE      CODE     ---       #1003
      0100708DH   LINE      CODE     ---       #1005
      01007090H   LINE      CODE     ---       #1007
      01007097H   LINE      CODE     ---       #1008
      0100709BH   LINE      CODE     ---       #1015
      0100709EH   LINE      CODE     ---       #1016
      ---         BLOCKEND  ---      ---       LVL=0
      00000007H   SYMBOL    DATA     BYTE      intSrc

      01007362H   BLOCK     CODE     ---       LVL=0
      01007362H   BLOCK     CODE     NEAR LAB  LVL=1
      00000007H   SYMBOL    DATA     BYTE      tmpStatus
      ---         BLOCKEND  ---      ---       LVL=1
      01007362H   LINE      CODE     ---       #1125
      01007362H   LINE      CODE     ---       #1126
      01007362H   LINE      CODE     ---       #1144
      01007367H   LINE      CODE     ---       #1145
      0100736DH   LINE      CODE     ---       #1146
      01007370H   LINE      CODE     ---       #1150
      01007370H   LINE      CODE     ---       #1151
      ---         BLOCKEND  ---      ---       LVL=0

      ---         MODULE    ---      ---       ISR_IMU
      01004972H   PUBLIC    CODE     ---       isr_imu_Interrupt
      000000CAH   SFRSYM    DATA     BYTE      SFRPRT5SEL
      000000DAH   SFRSYM    DATA     BYTE      SFRPRT6SEL
      000000D0H.6 SFRSYM    DATA     BIT       AC
      000000A8H.7 SFRSYM    DATA     BIT       EA
      000000A8H   SFRSYM    DATA     BYTE      IE
      00000085H   SFRSYM    DATA     BYTE      DPH1
LX51 LINKER/LOCATER V4.64.0.0                                                         01/12/2017  16:14:04  PAGE 80


      00000084H   SFRSYM    DATA     BYTE      DPL1
      000000D0H.7 SFRSYM    DATA     BIT       CY
      000000A0H   SFRSYM    DATA     BYTE      P2AX
      00000095H   SFRSYM    DATA     BYTE      DPX1
      00000081H   SFRSYM    DATA     BYTE      SP
      000000D0H.2 SFRSYM    DATA     BIT       OV
      00000080H   SFRSYM    DATA     BYTE      SFRPRT0DR
      00000090H   SFRSYM    DATA     BYTE      SFRPRT1DR
      000000F2H   SFRSYM    DATA     BYTE      SFRPRT12SEL
      00000098H   SFRSYM    DATA     BYTE      SFRPRT2DR
      000000B0H   SFRSYM    DATA     BYTE      SFRPRT3DR
      000000C0H   SFRSYM    DATA     BYTE      SFRPRT4DR
      000000FAH   SFRSYM    DATA     BYTE      SFRPRT15SEL
      000000C8H   SFRSYM    DATA     BYTE      SFRPRT5DR
      000000D8H   SFRSYM    DATA     BYTE      SFRPRT6DR
      00000089H   SFRSYM    DATA     BYTE      SFRPRT0PS
      00000091H   SFRSYM    DATA     BYTE      SFRPRT1PS
      00000099H   SFRSYM    DATA     BYTE      SFRPRT2PS
      000000B1H   SFRSYM    DATA     BYTE      SFRPRT3PS
      000000C1H   SFRSYM    DATA     BYTE      SFRPRT4PS
      000000C9H   SFRSYM    DATA     BYTE      SFRPRT5PS
      000000D9H   SFRSYM    DATA     BYTE      SFRPRT6PS
      000000EAH   SFRSYM    DATA     BYTE      MXAX
      000000F0H   SFRSYM    DATA     BYTE      B
      000000E0H   SFRSYM    DATA     BYTE      ACC
      000000D0H   SFRSYM    DATA     BIT       P
      000000D0H.3 SFRSYM    DATA     BIT       RS0
      000000D0H.4 SFRSYM    DATA     BIT       RS1
      00000083H   SFRSYM    DATA     BYTE      DPH
      000000E8H   SFRSYM    DATA     BYTE      SFRPRT12DR
      00000082H   SFRSYM    DATA     BYTE      DPL
      000000F8H   SFRSYM    DATA     BYTE      SFRPRT15DR
      00000086H   SFRSYM    DATA     BYTE      DPS
      000000E9H   SFRSYM    DATA     BYTE      SFRPRT12PS
      00000093H   SFRSYM    DATA     BYTE      DPX
      000000F9H   SFRSYM    DATA     BYTE      SFRPRT15PS
      000000D0H.5 SFRSYM    DATA     BIT       F0
      000000D0H.1 SFRSYM    DATA     BIT       F1
      0000008AH   SFRSYM    DATA     BYTE      SFRPRT0SEL
      000000D0H   SFRSYM    DATA     BYTE      PSW
      000000A2H   SFRSYM    DATA     BYTE      SFRPRT1SEL
      0000009AH   SFRSYM    DATA     BYTE      SFRPRT2SEL
      000000B2H   SFRSYM    DATA     BYTE      SFRPRT3SEL
      000000C2H   SFRSYM    DATA     BYTE      SFRPRT4SEL

      01004972H   BLOCK     CODE     ---       LVL=0
      0100499DH   BLOCK     CODE     NEAR LAB  LVL=1
      02000E43H   SYMBOL    XDATA    BYTE      k_imu
      02000E44H   SYMBOL    XDATA    ---       g_imuTMP
      020009EDH   SYMBOL    XDATA    WORD      tmp
      ---         BLOCKEND  ---      ---       LVL=1
      01004972H   LINE      CODE     ---       #168
      0100499DH   LINE      CODE     ---       #178
      010049A4H   LINE      CODE     ---       #181
      010049B8H   LINE      CODE     ---       #182
      010049CCH   LINE      CODE     ---       #184
      010049F3H   LINE      CODE     ---       #185
      01004A1EH   LINE      CODE     ---       #186
      01004A45H   LINE      CODE     ---       #187
      01004A70H   LINE      CODE     ---       #188
      01004A97H   LINE      CODE     ---       #189
      01004AC2H   LINE      CODE     ---       #191
      01004AE9H   LINE      CODE     ---       #192
      01004B14H   LINE      CODE     ---       #193
      01004B3BH   LINE      CODE     ---       #194
LX51 LINKER/LOCATER V4.64.0.0                                                         01/12/2017  16:14:04  PAGE 81


      01004B66H   LINE      CODE     ---       #195
      01004B8DH   LINE      CODE     ---       #196
      01004BB8H   LINE      CODE     ---       #198
      01004BDFH   LINE      CODE     ---       #199
      01004C0AH   LINE      CODE     ---       #200
      01004C31H   LINE      CODE     ---       #201
      01004C5CH   LINE      CODE     ---       #202
      01004C83H   LINE      CODE     ---       #203
      01004CAEH   LINE      CODE     ---       #205
      01004CC4H   LINE      CODE     ---       #208
      01004CC6H   LINE      CODE     ---       #209
      01004CD9H   LINE      CODE     ---       #210
      01004CD9H   LINE      CODE     ---       #220
      ---         BLOCKEND  ---      ---       LVL=0
      00000006H   SYMBOL    DATA     ---       address
      00000007H   SYMBOL    DATA     BYTE      priority
      00000007H   SYMBOL    DATA     BYTE      priority

      ---         MODULE    ---      ---       OPTO_PIN
      01007334H   PUBLIC    CODE     ---       _Opto_Pin_Write

      01007334H   BLOCK     CODE     ---       LVL=0
      00000007H   SYMBOL    DATA     BYTE      value
      01007334H   BLOCK     CODE     NEAR LAB  LVL=1
      00000006H   SYMBOL    DATA     BYTE      staticBits
      ---         BLOCKEND  ---      ---       LVL=1
      01007334H   LINE      CODE     ---       #53
      01007334H   LINE      CODE     ---       #54
      01007334H   LINE      CODE     ---       #55
      0100733BH   LINE      CODE     ---       #56
      01007343H   LINE      CODE     ---       #57
      ---         BLOCKEND  ---      ---       LVL=0
      00000007H   SYMBOL    DATA     BYTE      mode

      ---         MODULE    ---      ---       CHIP_SELECT_A
      01007504H   PUBLIC    CODE     ---       _Chip_Select_A_Write

      01007504H   BLOCK     CODE     ---       LVL=0
      00000007H   SYMBOL    DATA     BYTE      control
      01007504H   LINE      CODE     ---       #37
      01007504H   LINE      CODE     ---       #38
      01007504H   LINE      CODE     ---       #39
      01007509H   LINE      CODE     ---       #40
      ---         BLOCKEND  ---      ---       LVL=0

      ---         MODULE    ---      ---       CHIP_SELECT_B
      0100750AH   PUBLIC    CODE     ---       _Chip_Select_B_Write

      0100750AH   BLOCK     CODE     ---       LVL=0
      00000007H   SYMBOL    DATA     BYTE      control
      0100750AH   LINE      CODE     ---       #37
      0100750AH   LINE      CODE     ---       #38
      0100750AH   LINE      CODE     ---       #39
      0100750FH   LINE      CODE     ---       #40
      ---         BLOCKEND  ---      ---       LVL=0

      ---         MODULE    ---      ---       CYFITTER_CFG
      01005C09H   PUBLIC    CODE     ---       cyfitter_cfg
      000000CAH   SFRSYM    DATA     BYTE      SFRPRT5SEL
      000000DAH   SFRSYM    DATA     BYTE      SFRPRT6SEL
      000000D0H.6 SFRSYM    DATA     BIT       AC
      000000A8H.7 SFRSYM    DATA     BIT       EA
      000000A8H   SFRSYM    DATA     BYTE      IE
      00000085H   SFRSYM    DATA     BYTE      DPH1
      00000084H   SFRSYM    DATA     BYTE      DPL1
LX51 LINKER/LOCATER V4.64.0.0                                                         01/12/2017  16:14:04  PAGE 82


      000000D0H.7 SFRSYM    DATA     BIT       CY
      000000A0H   SFRSYM    DATA     BYTE      P2AX
      00000095H   SFRSYM    DATA     BYTE      DPX1
      00000081H   SFRSYM    DATA     BYTE      SP
      000000D0H.2 SFRSYM    DATA     BIT       OV
      00000080H   SFRSYM    DATA     BYTE      SFRPRT0DR
      00000090H   SFRSYM    DATA     BYTE      SFRPRT1DR
      000000F2H   SFRSYM    DATA     BYTE      SFRPRT12SEL
      00000098H   SFRSYM    DATA     BYTE      SFRPRT2DR
      000000B0H   SFRSYM    DATA     BYTE      SFRPRT3DR
      000000C0H   SFRSYM    DATA     BYTE      SFRPRT4DR
      000000FAH   SFRSYM    DATA     BYTE      SFRPRT15SEL
      000000C8H   SFRSYM    DATA     BYTE      SFRPRT5DR
      000000D8H   SFRSYM    DATA     BYTE      SFRPRT6DR
      00000089H   SFRSYM    DATA     BYTE      SFRPRT0PS
      00000091H   SFRSYM    DATA     BYTE      SFRPRT1PS
      00000099H   SFRSYM    DATA     BYTE      SFRPRT2PS
      000000B1H   SFRSYM    DATA     BYTE      SFRPRT3PS
      000000C1H   SFRSYM    DATA     BYTE      SFRPRT4PS
      000000C9H   SFRSYM    DATA     BYTE      SFRPRT5PS
      000000D9H   SFRSYM    DATA     BYTE      SFRPRT6PS
      000000EAH   SFRSYM    DATA     BYTE      MXAX
      000000F0H   SFRSYM    DATA     BYTE      B
      000000E0H   SFRSYM    DATA     BYTE      ACC
      000000D0H   SFRSYM    DATA     BIT       P
      000000D0H.3 SFRSYM    DATA     BIT       RS0
      000000D0H.4 SFRSYM    DATA     BIT       RS1
      00000083H   SFRSYM    DATA     BYTE      DPH
      000000E8H   SFRSYM    DATA     BYTE      SFRPRT12DR
      00000082H   SFRSYM    DATA     BYTE      DPL
      000000F8H   SFRSYM    DATA     BYTE      SFRPRT15DR
      00000086H   SFRSYM    DATA     BYTE      DPS
      000000E9H   SFRSYM    DATA     BYTE      SFRPRT12PS
      00000093H   SFRSYM    DATA     BYTE      DPX
      000000F9H   SFRSYM    DATA     BYTE      SFRPRT15PS
      000000D0H.5 SFRSYM    DATA     BIT       F0
      000000D0H.1 SFRSYM    DATA     BIT       F1
      0000008AH   SFRSYM    DATA     BYTE      SFRPRT0SEL
      000000D0H   SFRSYM    DATA     BYTE      PSW
      000000A2H   SFRSYM    DATA     BYTE      SFRPRT1SEL
      0000009AH   SFRSYM    DATA     BYTE      SFRPRT2SEL
      000000B2H   SFRSYM    DATA     BYTE      SFRPRT3SEL
      000000C2H   SFRSYM    DATA     BYTE      SFRPRT4SEL
      0100562FH   SYMBOL    CODE     ---       ClockSetup
      0100751AH   SYMBOL    CODE     ---       _CyClockStartupError
      010070FCH   SYMBOL    CODE     ---       AnalogSetDefault
      01006381H   SYMBOL    CODE     ---       cfg_dma_init

      0100751AH   BLOCK     CODE     ---       LVL=0
      02000000H   SYMBOL    XDATA    BYTE      errorCode
      0100751AH   LINE      CODE     ---       #72
      0100751AH   LINE      CODE     ---       #73
      0100751AH   LINE      CODE     ---       #75
      0100751AH   LINE      CODE     ---       #87
      ---         BLOCKEND  ---      ---       LVL=0

      01006381H   BLOCK     CODE     ---       LVL=0
      01006381H   BLOCK     CODE     NEAR LAB  LVL=1
      01007528H   SYMBOL    CONST    ---       CH1_ADDR_DATA0
      01007530H   SYMBOL    CONST    ---       CH2_ADDR_DATA0
      01007538H   SYMBOL    CONST    ---       CH5_ADDR_DATA0
      01007540H   SYMBOL    CONST    ---       CH6_ADDR_DATA0
      01007548H   SYMBOL    CONST    ---       DMA_TD_START_CMD
      020010A7H   SYMBOL    XDATA    DWORD     DMA_ZERO_VAL
      0100754DH   SYMBOL    CONST    ---       CFG_TD_LIST0
LX51 LINKER/LOCATER V4.64.0.0                                                         01/12/2017  16:14:04  PAGE 83


      ---         BLOCKEND  ---      ---       LVL=1
      01006381H   LINE      CODE     ---       #309
      01006381H   LINE      CODE     ---       #310
      01006381H   LINE      CODE     ---       #427
      0100638CH   LINE      CODE     ---       #428
      01006392H   LINE      CODE     ---       #429
      01006398H   LINE      CODE     ---       #430
      0100639DH   LINE      CODE     ---       #431
      010063A9H   LINE      CODE     ---       #432
      010063AFH   LINE      CODE     ---       #433
      010063B3H   LINE      CODE     ---       #434
      010063D5H   LINE      CODE     ---       #435
      010063E2H   LINE      CODE     ---       #436
      010063EFH   LINE      CODE     ---       #437
      010063FBH   LINE      CODE     ---       #438
      01006401H   LINE      CODE     ---       #439
      01006406H   LINE      CODE     ---       #440
      0100640CH   LINE      CODE     ---       #441
      01006412H   LINE      CODE     ---       #443
      01006412H   LINE      CODE     ---       #444
      01006418H   LINE      CODE     ---       #445
      01006418H   LINE      CODE     ---       #448
      01006420H   LINE      CODE     ---       #449
      01006428H   LINE      CODE     ---       #450
      01006430H   LINE      CODE     ---       #451
      01006438H   LINE      CODE     ---       #452
      01006440H   LINE      CODE     ---       #455
      ---         BLOCKEND  ---      ---       LVL=0

      0100562FH   BLOCK     CODE     ---       LVL=0
      0100562FH   BLOCK     CODE     NEAR LAB  LVL=1
      0200051DH   SYMBOL    XDATA    DWORD     timeout
      02000521H   SYMBOL    XDATA    BYTE      pllLock
      ---         BLOCKEND  ---      ---       LVL=1
      0100562FH   LINE      CODE     ---       #473
      0100562FH   LINE      CODE     ---       #474
      0100562FH   LINE      CODE     ---       #480
      0100563CH   LINE      CODE     ---       #481
      01005642H   LINE      CODE     ---       #482
      0100564FH   LINE      CODE     ---       #483
      01005655H   LINE      CODE     ---       #484
      01005662H   LINE      CODE     ---       #485
      01005668H   LINE      CODE     ---       #486
      01005675H   LINE      CODE     ---       #487
      0100567BH   LINE      CODE     ---       #488
      01005688H   LINE      CODE     ---       #489
      0100568EH   LINE      CODE     ---       #492
      01005694H   LINE      CODE     ---       #495
      0100569AH   LINE      CODE     ---       #496
      010056A8H   LINE      CODE     ---       #499
      010056B5H   LINE      CODE     ---       #500
      010056C2H   LINE      CODE     ---       #502
      010056C7H   LINE      CODE     ---       #503
      010056ECH   LINE      CODE     ---       #504
      010056ECH   LINE      CODE     ---       #505
      010056FDH   LINE      CODE     ---       #506
      01005707H   LINE      CODE     ---       #507
      0100572FH   LINE      CODE     ---       #509
      0100573DH   LINE      CODE     ---       #510
      0100573DH   LINE      CODE     ---       #511
      01005742H   LINE      CODE     ---       #512
      01005742H   LINE      CODE     ---       #515
      0100574FH   LINE      CODE     ---       #516
      01005755H   LINE      CODE     ---       #517
      0100575AH   LINE      CODE     ---       #518
LX51 LINKER/LOCATER V4.64.0.0                                                         01/12/2017  16:14:04  PAGE 84


      01005760H   LINE      CODE     ---       #519
      01005765H   LINE      CODE     ---       #522
      01005769H   LINE      CODE     ---       #523
      0100576FH   LINE      CODE     ---       #525
      01005776H   LINE      CODE     ---       #526
      ---         BLOCKEND  ---      ---       LVL=0

      010070FCH   BLOCK     CODE     ---       LVL=0
      010070FCH   BLOCK     CODE     NEAR LAB  LVL=1
      00000007H   SYMBOL    DATA     BYTE      bg_xover_inl_trim
      ---         BLOCKEND  ---      ---       LVL=1
      010070FCH   LINE      CODE     ---       #548
      010070FCH   LINE      CODE     ---       #549
      010070FCH   LINE      CODE     ---       #550
      01007105H   LINE      CODE     ---       #551
      0100710CH   LINE      CODE     ---       #552
      01007112H   LINE      CODE     ---       #553
      01007118H   LINE      CODE     ---       #554
      ---         BLOCKEND  ---      ---       LVL=0
      00000007H   SYMBOL    DATA     BYTE      enabled
      00000006H   SYMBOL    DATA     BYTE      regValue

      01005C09H   BLOCK     CODE     ---       LVL=0
      01005C09H   BLOCK     CODE     NEAR LAB  LVL=1
      010077EDH   SYMBOL    CONST    ---       BS_IOPINS0_8_VAL
      010077F5H   SYMBOL    CONST    ---       BS_IOPINS0_1_VAL
      010077FFH   SYMBOL    CONST    ---       BS_IOPINS0_2_VAL
      ---         BLOCKEND  ---      ---       LVL=1
      01005C09H   LINE      CODE     ---       #608
      01005C09H   LINE      CODE     ---       #609
      01005C09H   LINE      CODE     ---       #623
      01005C1FH   LINE      CODE     ---       #625
      01005C1FH   LINE      CODE     ---       #626
      01005C22H   LINE      CODE     ---       #629
      01005C38H   LINE      CODE     ---       #630
      01005C4EH   LINE      CODE     ---       #633
      01005C55H   LINE      CODE     ---       #634
      01005C5CH   LINE      CODE     ---       #635
      01005C5CH   LINE      CODE     ---       #639
      01005C76H   LINE      CODE     ---       #640
      01005C90H   LINE      CODE     ---       #641
      01005CA1H   LINE      CODE     ---       #642
      01005CB2H   LINE      CODE     ---       #643
      01005CC3H   LINE      CODE     ---       #644
      01005CC9H   LINE      CODE     ---       #646
      01005CD0H   LINE      CODE     ---       #647
      01005CD9H   LINE      CODE     ---       #648
      01005CD9H   LINE      CODE     ---       #649
      01005CDFH   LINE      CODE     ---       #650
      01005CDFH   LINE      CODE     ---       #654
      01005CE5H   LINE      CODE     ---       #656
      01005CE8H   LINE      CODE     ---       #659
      01005CEBH   LINE      CODE     ---       #662
      01005D0CH   LINE      CODE     ---       #663
      01005D13H   LINE      CODE     ---       #664
      ---         BLOCKEND  ---      ---       LVL=0

      ---         MODULE    ---      ---       UART_RS485_INT
      01006441H   PUBLIC    CODE     ---       UART_RS485_RXISR
      000000CAH   SFRSYM    DATA     BYTE      SFRPRT5SEL
      000000DAH   SFRSYM    DATA     BYTE      SFRPRT6SEL
      000000D0H.6 SFRSYM    DATA     BIT       AC
      000000A8H.7 SFRSYM    DATA     BIT       EA
      000000A8H   SFRSYM    DATA     BYTE      IE
      00000085H   SFRSYM    DATA     BYTE      DPH1
LX51 LINKER/LOCATER V4.64.0.0                                                         01/12/2017  16:14:04  PAGE 85


      00000084H   SFRSYM    DATA     BYTE      DPL1
      000000D0H.7 SFRSYM    DATA     BIT       CY
      000000A0H   SFRSYM    DATA     BYTE      P2AX
      00000095H   SFRSYM    DATA     BYTE      DPX1
      00000081H   SFRSYM    DATA     BYTE      SP
      000000D0H.2 SFRSYM    DATA     BIT       OV
      00000080H   SFRSYM    DATA     BYTE      SFRPRT0DR
      00000090H   SFRSYM    DATA     BYTE      SFRPRT1DR
      000000F2H   SFRSYM    DATA     BYTE      SFRPRT12SEL
      00000098H   SFRSYM    DATA     BYTE      SFRPRT2DR
      000000B0H   SFRSYM    DATA     BYTE      SFRPRT3DR
      000000C0H   SFRSYM    DATA     BYTE      SFRPRT4DR
      000000FAH   SFRSYM    DATA     BYTE      SFRPRT15SEL
      000000C8H   SFRSYM    DATA     BYTE      SFRPRT5DR
      000000D8H   SFRSYM    DATA     BYTE      SFRPRT6DR
      00000089H   SFRSYM    DATA     BYTE      SFRPRT0PS
      00000091H   SFRSYM    DATA     BYTE      SFRPRT1PS
      00000099H   SFRSYM    DATA     BYTE      SFRPRT2PS
      000000B1H   SFRSYM    DATA     BYTE      SFRPRT3PS
      000000C1H   SFRSYM    DATA     BYTE      SFRPRT4PS
      000000C9H   SFRSYM    DATA     BYTE      SFRPRT5PS
      000000D9H   SFRSYM    DATA     BYTE      SFRPRT6PS
      000000EAH   SFRSYM    DATA     BYTE      MXAX
      000000F0H   SFRSYM    DATA     BYTE      B
      000000E0H   SFRSYM    DATA     BYTE      ACC
      000000D0H   SFRSYM    DATA     BIT       P
      000000D0H.3 SFRSYM    DATA     BIT       RS0
      000000D0H.4 SFRSYM    DATA     BIT       RS1
      00000083H   SFRSYM    DATA     BYTE      DPH
      000000E8H   SFRSYM    DATA     BYTE      SFRPRT12DR
      00000082H   SFRSYM    DATA     BYTE      DPL
      000000F8H   SFRSYM    DATA     BYTE      SFRPRT15DR
      00000086H   SFRSYM    DATA     BYTE      DPS
      000000E9H   SFRSYM    DATA     BYTE      SFRPRT12PS
      00000093H   SFRSYM    DATA     BYTE      DPX
      000000F9H   SFRSYM    DATA     BYTE      SFRPRT15PS
      000000D0H.5 SFRSYM    DATA     BIT       F0
      000000D0H.1 SFRSYM    DATA     BIT       F1
      0000008AH   SFRSYM    DATA     BYTE      SFRPRT0SEL
      000000D0H   SFRSYM    DATA     BYTE      PSW
      000000A2H   SFRSYM    DATA     BYTE      SFRPRT1SEL
      0000009AH   SFRSYM    DATA     BYTE      SFRPRT2SEL
      000000B2H   SFRSYM    DATA     BYTE      SFRPRT3SEL
      000000C2H   SFRSYM    DATA     BYTE      SFRPRT4SEL

      01006441H   BLOCK     CODE     ---       LVL=0
      01006464H   BLOCK     CODE     NEAR LAB  LVL=1
      00000006H   SYMBOL    DATA     BYTE      readData
      00000007H   SYMBOL    DATA     BYTE      readStatus
      00000003H   SYMBOL    DATA     BYTE      increment_pointer
      00000002H   SYMBOL    DATA     BYTE      int_en
      ---         BLOCKEND  ---      ---       LVL=1
      01006441H   LINE      CODE     ---       #59
      01006464H   LINE      CODE     ---       #63
      01006466H   LINE      CODE     ---       #79
      0100646AH   LINE      CODE     ---       #80
      01006472H   LINE      CODE     ---       #84
      01006472H   LINE      CODE     ---       #86
      01006477H   LINE      CODE     ---       #90
      01006478H   LINE      CODE     ---       #95
      0100647DH   LINE      CODE     ---       #96
      0100647DH   LINE      CODE     ---       #101
      01006483H   LINE      CODE     ---       #109
      01006483H   LINE      CODE     ---       #111
      01006487H   LINE      CODE     ---       #112
LX51 LINKER/LOCATER V4.64.0.0                                                         01/12/2017  16:14:04  PAGE 86


      01006487H   LINE      CODE     ---       #114
      0100648CH   LINE      CODE     ---       #141
      0100649BH   LINE      CODE     ---       #142
      0100649DH   LINE      CODE     ---       #146
      010064A0H   LINE      CODE     ---       #147
      010064A0H   LINE      CODE     ---       #148
      010064A6H   LINE      CODE     ---       #149
      010064A6H   LINE      CODE     ---       #150
      010064ACH   LINE      CODE     ---       #151
      010064ACH   LINE      CODE     ---       #153
      010064B2H   LINE      CODE     ---       #156
      010064B8H   LINE      CODE     ---       #157
      010064B8H   LINE      CODE     ---       #158
      010064BAH   LINE      CODE     ---       #159
      010064BAH   LINE      CODE     ---       #162
      010064C6H   LINE      CODE     ---       #163
      010064C6H   LINE      CODE     ---       #164
      010064CCH   LINE      CODE     ---       #172
      010064CCH   LINE      CODE     ---       #173
      010064CCH   LINE      CODE     ---       #174
      010064CCH   LINE      CODE     ---       #175
      010064D0H   LINE      CODE     ---       #187
      010064D7H   LINE      CODE     ---       #189
      ---         BLOCKEND  ---      ---       LVL=0

      ---         MODULE    ---      ---       CYBOOTASMKEIL
      01007238H   PUBLIC    CODE     NEAR LAB  CyEnterCriticalSection
      01006E00H   PUBLIC    CODE     NEAR LAB  _CyDelayCycles
      01006F2CH   PUBLIC    CODE     NEAR LAB  _CyDelayUs
      010071B3H   PUBLIC    CODE     NEAR LAB  _CyExitCriticalSection

      ---         MODULE    ---      ---       CYMEM
      0200051DH   PUBLIC    XDATA    BYTE      ?_cyconfigcpy?BYTE
      01006D86H   PUBLIC    CODE     NEAR LAB  _cyconfigcpy
      01006FACH   PUBLIC    CODE     NEAR LAB  _cyconfigcpycode
      01007371H   PUBLIC    CODE     NEAR LAB  _cyread16
      01007373H   PUBLIC    CODE     NEAR LAB  _cyread16_nodpx
      010072EBH   PUBLIC    CODE     NEAR LAB  _cyread24
      010072EDH   PUBLIC    CODE     NEAR LAB  _cyread24_nodpx
      0100740BH   PUBLIC    CODE     NEAR LAB  _cyread8
      0100740DH   PUBLIC    CODE     NEAR LAB  _cyread8_nodpx
      01007380H   PUBLIC    CODE     NEAR LAB  _cywrite16
      01007382H   PUBLIC    CODE     NEAR LAB  _cywrite16_nodpx
      01007322H   PUBLIC    CODE     NEAR LAB  _cywrite24
      01007324H   PUBLIC    CODE     NEAR LAB  _cywrite24_nodpx
      01007417H   PUBLIC    CODE     NEAR LAB  _cywrite8
      01007419H   PUBLIC    CODE     NEAR LAB  _cywrite8_nodpx

      ---         MODULE    ---      ---       CYPM
      000000CAH   SFRSYM    DATA     BYTE      SFRPRT5SEL
      000000DAH   SFRSYM    DATA     BYTE      SFRPRT6SEL
      000000D0H.6 SFRSYM    DATA     BIT       AC
      000000A8H.7 SFRSYM    DATA     BIT       EA
      000000A8H   SFRSYM    DATA     BYTE      IE
      00000085H   SFRSYM    DATA     BYTE      DPH1
      00000084H   SFRSYM    DATA     BYTE      DPL1
      000000D0H.7 SFRSYM    DATA     BIT       CY
      000000A0H   SFRSYM    DATA     BYTE      P2AX
      00000095H   SFRSYM    DATA     BYTE      DPX1
      00000081H   SFRSYM    DATA     BYTE      SP
      000000D0H.2 SFRSYM    DATA     BIT       OV
      00000080H   SFRSYM    DATA     BYTE      SFRPRT0DR
      00000090H   SFRSYM    DATA     BYTE      SFRPRT1DR
      000000F2H   SFRSYM    DATA     BYTE      SFRPRT12SEL
      00000098H   SFRSYM    DATA     BYTE      SFRPRT2DR
LX51 LINKER/LOCATER V4.64.0.0                                                         01/12/2017  16:14:04  PAGE 87


      000000B0H   SFRSYM    DATA     BYTE      SFRPRT3DR
      000000C0H   SFRSYM    DATA     BYTE      SFRPRT4DR
      000000FAH   SFRSYM    DATA     BYTE      SFRPRT15SEL
      000000C8H   SFRSYM    DATA     BYTE      SFRPRT5DR
      000000D8H   SFRSYM    DATA     BYTE      SFRPRT6DR
      00000089H   SFRSYM    DATA     BYTE      SFRPRT0PS
      00000091H   SFRSYM    DATA     BYTE      SFRPRT1PS
      00000099H   SFRSYM    DATA     BYTE      SFRPRT2PS
      000000B1H   SFRSYM    DATA     BYTE      SFRPRT3PS
      000000C1H   SFRSYM    DATA     BYTE      SFRPRT4PS
      000000C9H   SFRSYM    DATA     BYTE      SFRPRT5PS
      000000D9H   SFRSYM    DATA     BYTE      SFRPRT6PS
      000000EAH   SFRSYM    DATA     BYTE      MXAX
      000000F0H   SFRSYM    DATA     BYTE      B
      000000E0H   SFRSYM    DATA     BYTE      ACC
      000000D0H   SFRSYM    DATA     BIT       P
      000000D0H.3 SFRSYM    DATA     BIT       RS0
      000000D0H.4 SFRSYM    DATA     BIT       RS1
      00000083H   SFRSYM    DATA     BYTE      DPH
      000000E8H   SFRSYM    DATA     BYTE      SFRPRT12DR
      00000082H   SFRSYM    DATA     BYTE      DPL
      000000F8H   SFRSYM    DATA     BYTE      SFRPRT15DR
      00000086H   SFRSYM    DATA     BYTE      DPS
      000000E9H   SFRSYM    DATA     BYTE      SFRPRT12PS
      00000093H   SFRSYM    DATA     BYTE      DPX
      000000F9H   SFRSYM    DATA     BYTE      SFRPRT15PS
      000000D0H.5 SFRSYM    DATA     BIT       F0
      000000D0H.1 SFRSYM    DATA     BIT       F1
      0000008AH   SFRSYM    DATA     BYTE      SFRPRT0SEL
      000000D0H   SFRSYM    DATA     BYTE      PSW
      000000A2H   SFRSYM    DATA     BYTE      SFRPRT1SEL
      0000009AH   SFRSYM    DATA     BYTE      SFRPRT2SEL
      000000B2H   SFRSYM    DATA     BYTE      SFRPRT3SEL
      000000C2H   SFRSYM    DATA     BYTE      SFRPRT4SEL
      0200100AH   SYMBOL    XDATA    ---       cyPmClockBackup
      0200101AH   SYMBOL    XDATA    ---       cyPmBackup
      00000006H   SYMBOL    DATA     WORD      clkBusDivTmp
      02001009H   SYMBOL    XDATA    BYTE      interruptStatus
      00000005H   SYMBOL    DATA     BYTE      interruptState

      ---         MODULE    ---      ---       CYSPC
      020010B2H   PUBLIC    XDATA    BYTE      SpcLockState
      01007135H   PUBLIC    CODE     ---       CySpcGetAlgorithm
      01007423H   PUBLIC    CODE     ---       CySpcUnlock
      010070DDH   PUBLIC    CODE     ---       CySpcLock
      01006EFDH   PUBLIC    CODE     ---       _CySpcGetTemp
      0200052EH   PUBLIC    XDATA    BYTE      ?_CySpcWriteRow?BYTE
      01006A45H   PUBLIC    CODE     ---       _CySpcWriteRow
      0200052EH   PUBLIC    XDATA    BYTE      ?_CySpcLoadRow?BYTE
      01006738H   PUBLIC    CODE     ---       _CySpcLoadRow
      010068E0H   PUBLIC    CODE     ---       _CySpcReadData
      0100724DH   PUBLIC    CODE     ---       CySpcStart
      000000CAH   SFRSYM    DATA     BYTE      SFRPRT5SEL
      000000DAH   SFRSYM    DATA     BYTE      SFRPRT6SEL
      000000D0H.6 SFRSYM    DATA     BIT       AC
      000000A8H.7 SFRSYM    DATA     BIT       EA
      000000A8H   SFRSYM    DATA     BYTE      IE
      00000085H   SFRSYM    DATA     BYTE      DPH1
      00000084H   SFRSYM    DATA     BYTE      DPL1
      000000D0H.7 SFRSYM    DATA     BIT       CY
      000000A0H   SFRSYM    DATA     BYTE      P2AX
      00000095H   SFRSYM    DATA     BYTE      DPX1
      00000081H   SFRSYM    DATA     BYTE      SP
      000000D0H.2 SFRSYM    DATA     BIT       OV
      00000080H   SFRSYM    DATA     BYTE      SFRPRT0DR
LX51 LINKER/LOCATER V4.64.0.0                                                         01/12/2017  16:14:04  PAGE 88


      00000090H   SFRSYM    DATA     BYTE      SFRPRT1DR
      000000F2H   SFRSYM    DATA     BYTE      SFRPRT12SEL
      00000098H   SFRSYM    DATA     BYTE      SFRPRT2DR
      000000B0H   SFRSYM    DATA     BYTE      SFRPRT3DR
      000000C0H   SFRSYM    DATA     BYTE      SFRPRT4DR
      000000FAH   SFRSYM    DATA     BYTE      SFRPRT15SEL
      000000C8H   SFRSYM    DATA     BYTE      SFRPRT5DR
      000000D8H   SFRSYM    DATA     BYTE      SFRPRT6DR
      00000089H   SFRSYM    DATA     BYTE      SFRPRT0PS
      00000091H   SFRSYM    DATA     BYTE      SFRPRT1PS
      00000099H   SFRSYM    DATA     BYTE      SFRPRT2PS
      000000B1H   SFRSYM    DATA     BYTE      SFRPRT3PS
      000000C1H   SFRSYM    DATA     BYTE      SFRPRT4PS
      000000C9H   SFRSYM    DATA     BYTE      SFRPRT5PS
      000000D9H   SFRSYM    DATA     BYTE      SFRPRT6PS
      000000EAH   SFRSYM    DATA     BYTE      MXAX
      000000F0H   SFRSYM    DATA     BYTE      B
      000000E0H   SFRSYM    DATA     BYTE      ACC
      000000D0H   SFRSYM    DATA     BIT       P
      000000D0H.3 SFRSYM    DATA     BIT       RS0
      000000D0H.4 SFRSYM    DATA     BIT       RS1
      00000083H   SFRSYM    DATA     BYTE      DPH
      000000E8H   SFRSYM    DATA     BYTE      SFRPRT12DR
      00000082H   SFRSYM    DATA     BYTE      DPL
      000000F8H   SFRSYM    DATA     BYTE      SFRPRT15DR
      00000086H   SFRSYM    DATA     BYTE      DPS
      000000E9H   SFRSYM    DATA     BYTE      SFRPRT12PS
      00000093H   SFRSYM    DATA     BYTE      DPX
      000000F9H   SFRSYM    DATA     BYTE      SFRPRT15PS
      000000D0H.5 SFRSYM    DATA     BIT       F0
      000000D0H.1 SFRSYM    DATA     BIT       F1
      0000008AH   SFRSYM    DATA     BYTE      SFRPRT0SEL
      000000D0H   SFRSYM    DATA     BYTE      PSW
      000000A2H   SFRSYM    DATA     BYTE      SFRPRT1SEL
      0000009AH   SFRSYM    DATA     BYTE      SFRPRT2SEL
      000000B2H   SFRSYM    DATA     BYTE      SFRPRT3SEL
      000000C2H   SFRSYM    DATA     BYTE      SFRPRT4SEL

      0100724DH   BLOCK     CODE     ---       LVL=0
      0100724DH   BLOCK     CODE     NEAR LAB  LVL=1
      00000007H   SYMBOL    DATA     BYTE      interruptState
      ---         BLOCKEND  ---      ---       LVL=1
      0100724DH   LINE      CODE     ---       #78
      0100724DH   LINE      CODE     ---       #79
      0100724DH   LINE      CODE     ---       #81
      01007250H   LINE      CODE     ---       #83
      01007257H   LINE      CODE     ---       #84
      0100725EH   LINE      CODE     ---       #87
      01007261H   LINE      CODE     ---       #88
      ---         BLOCKEND  ---      ---       LVL=0
      00000007H   SYMBOL    DATA     BYTE      interruptState

      010068E0H   BLOCK     CODE     ---       LVL=0
      0200052BH   SYMBOL    XDATA    ---       buffer
      0200052EH   SYMBOL    XDATA    BYTE      size
      010068EEH   BLOCK     CODE     NEAR LAB  LVL=1
      0200052FH   SYMBOL    XDATA    BYTE      i
      ---         BLOCKEND  ---      ---       LVL=1
      010068E0H   LINE      CODE     ---       #135
      010068EEH   LINE      CODE     ---       #136
      010068EEH   LINE      CODE     ---       #139
      010068FCH   LINE      CODE     ---       #140
      010068FCH   LINE      CODE     ---       #141
      0100690AH   LINE      CODE     ---       #142
      0100690AH   LINE      CODE     ---       #143
LX51 LINKER/LOCATER V4.64.0.0                                                         01/12/2017  16:14:04  PAGE 89


      01006911H   LINE      CODE     ---       #144
      01006913H   LINE      CODE     ---       #145
      01006932H   LINE      CODE     ---       #146
      0100693AH   LINE      CODE     ---       #148
      0100693FH   LINE      CODE     ---       #149
      ---         BLOCKEND  ---      ---       LVL=0
      00000005H   SYMBOL    DATA     BYTE      status
      00000007H   SYMBOL    DATA     BYTE      i

      01006738H   BLOCK     CODE     ---       LVL=0
      00000007H   SYMBOL    DATA     BYTE      array
      0200052FH   SYMBOL    XDATA    ---       buffer
      02000532H   SYMBOL    XDATA    WORD      size
      01006743H   BLOCK     CODE     NEAR LAB  LVL=1
      02000534H   SYMBOL    XDATA    BYTE      status
      00000006H   SYMBOL    DATA     WORD      i
      ---         BLOCKEND  ---      ---       LVL=1
      01006738H   LINE      CODE     ---       #258
      01006743H   LINE      CODE     ---       #259
      01006743H   LINE      CODE     ---       #260
      01006749H   LINE      CODE     ---       #264
      01006751H   LINE      CODE     ---       #265
      01006751H   LINE      CODE     ---       #266
      01006757H   LINE      CODE     ---       #267
      0100675AH   LINE      CODE     ---       #268
      0100675DH   LINE      CODE     ---       #271
      01006765H   LINE      CODE     ---       #272
      01006765H   LINE      CODE     ---       #273
      0100676AH   LINE      CODE     ---       #275
      0100677AH   LINE      CODE     ---       #276
      0100677AH   LINE      CODE     ---       #277
      01006790H   LINE      CODE     ---       #278
      01006797H   LINE      CODE     ---       #279
      01006797H   LINE      CODE     ---       #281
      01006797H   LINE      CODE     ---       #282
      0100679DH   LINE      CODE     ---       #283
      0100679DH   LINE      CODE     ---       #284
      0100679FH   LINE      CODE     ---       #286
      0100679FH   LINE      CODE     ---       #287
      010067A5H   LINE      CODE     ---       #288
      010067A5H   LINE      CODE     ---       #290
      010067AAH   LINE      CODE     ---       #291
      ---         BLOCKEND  ---      ---       LVL=0

      01006A45H   BLOCK     CODE     ---       LVL=0
      00000004H   SYMBOL    DATA     BYTE      array
      0200052FH   SYMBOL    XDATA    WORD      address
      00000003H   SYMBOL    DATA     BYTE      tempPolarity
      02000532H   SYMBOL    XDATA    BYTE      tempMagnitude
      01006A4FH   BLOCK     CODE     NEAR LAB  LVL=1
      00000005H   SYMBOL    DATA     BYTE      status
      ---         BLOCKEND  ---      ---       LVL=1
      01006A45H   LINE      CODE     ---       #464
      01006A4FH   LINE      CODE     ---       #466
      01006A4FH   LINE      CODE     ---       #467
      01006A51H   LINE      CODE     ---       #470
      01006A59H   LINE      CODE     ---       #471
      01006A59H   LINE      CODE     ---       #472
      01006A5FH   LINE      CODE     ---       #473
      01006A62H   LINE      CODE     ---       #474
      01006A65H   LINE      CODE     ---       #477
      01006A6DH   LINE      CODE     ---       #478
      01006A6DH   LINE      CODE     ---       #479
      01006A72H   LINE      CODE     ---       #480
      01006A7AH   LINE      CODE     ---       #481
LX51 LINKER/LOCATER V4.64.0.0                                                         01/12/2017  16:14:04  PAGE 90


      01006A84H   LINE      CODE     ---       #482
      01006A86H   LINE      CODE     ---       #483
      01006A8EH   LINE      CODE     ---       #484
      01006A90H   LINE      CODE     ---       #486
      01006A90H   LINE      CODE     ---       #487
      01006A92H   LINE      CODE     ---       #488
      01006A92H   LINE      CODE     ---       #489
      01006A94H   LINE      CODE     ---       #491
      01006A94H   LINE      CODE     ---       #492
      01006A96H   LINE      CODE     ---       #493
      01006A96H   LINE      CODE     ---       #495
      01006A98H   LINE      CODE     ---       #496
      ---         BLOCKEND  ---      ---       LVL=0
      00000007H   SYMBOL    DATA     BYTE      array
      00000005H   SYMBOL    DATA     BYTE      sectorNumber
      00000006H   SYMBOL    DATA     BYTE      status

      01006EFDH   BLOCK     CODE     ---       LVL=0
      00000007H   SYMBOL    DATA     BYTE      numSamples
      01006EFDH   BLOCK     CODE     NEAR LAB  LVL=1
      00000006H   SYMBOL    DATA     BYTE      status
      ---         BLOCKEND  ---      ---       LVL=1
      01006EFDH   LINE      CODE     ---       #573
      01006EFDH   LINE      CODE     ---       #574
      01006EFDH   LINE      CODE     ---       #575
      01006EFFH   LINE      CODE     ---       #578
      01006F07H   LINE      CODE     ---       #579
      01006F07H   LINE      CODE     ---       #580
      01006F0DH   LINE      CODE     ---       #581
      01006F10H   LINE      CODE     ---       #582
      01006F13H   LINE      CODE     ---       #585
      01006F1BH   LINE      CODE     ---       #586
      01006F1BH   LINE      CODE     ---       #587
      01006F20H   LINE      CODE     ---       #588
      01006F22H   LINE      CODE     ---       #590
      01006F22H   LINE      CODE     ---       #591
      01006F24H   LINE      CODE     ---       #592
      01006F24H   LINE      CODE     ---       #593
      01006F26H   LINE      CODE     ---       #595
      01006F26H   LINE      CODE     ---       #596
      01006F28H   LINE      CODE     ---       #597
      01006F28H   LINE      CODE     ---       #599
      01006F2AH   LINE      CODE     ---       #600
      ---         BLOCKEND  ---      ---       LVL=0

      010070DDH   BLOCK     CODE     ---       LVL=0
      010070DDH   BLOCK     CODE     NEAR LAB  LVL=1
      0200052EH   SYMBOL    XDATA    BYTE      status
      00000007H   SYMBOL    DATA     BYTE      interruptState
      ---         BLOCKEND  ---      ---       LVL=1
      010070DDH   LINE      CODE     ---       #618
      010070DDH   LINE      CODE     ---       #619
      010070DDH   LINE      CODE     ---       #620
      010070E3H   LINE      CODE     ---       #624
      010070E6H   LINE      CODE     ---       #626
      010070ECH   LINE      CODE     ---       #627
      010070ECH   LINE      CODE     ---       #628
      010070EEH   LINE      CODE     ---       #629
      010070F3H   LINE      CODE     ---       #647
      010070F3H   LINE      CODE     ---       #650
      010070F6H   LINE      CODE     ---       #652
      010070FBH   LINE      CODE     ---       #653
      ---         BLOCKEND  ---      ---       LVL=0

      01007423H   BLOCK     CODE     ---       LVL=0
LX51 LINKER/LOCATER V4.64.0.0                                                         01/12/2017  16:14:04  PAGE 91


      01007423H   BLOCK     CODE     NEAR LAB  LVL=1
      00000007H   SYMBOL    DATA     BYTE      interruptState
      ---         BLOCKEND  ---      ---       LVL=1
      01007423H   LINE      CODE     ---       #670
      01007423H   LINE      CODE     ---       #671
      01007423H   LINE      CODE     ---       #675
      01007426H   LINE      CODE     ---       #678
      0100742BH   LINE      CODE     ---       #698
      0100742EH   LINE      CODE     ---       #699
      ---         BLOCKEND  ---      ---       LVL=0

      01007135H   BLOCK     CODE     ---       LVL=0
      01007135H   BLOCK     CODE     NEAR LAB  LVL=1
      00000007H   SYMBOL    DATA     BYTE      status
      ---         BLOCKEND  ---      ---       LVL=1
      01007135H   LINE      CODE     ---       #716
      01007135H   LINE      CODE     ---       #717
      01007135H   LINE      CODE     ---       #718
      01007137H   LINE      CODE     ---       #721
      0100713FH   LINE      CODE     ---       #722
      0100713FH   LINE      CODE     ---       #723
      01007145H   LINE      CODE     ---       #724
      01007148H   LINE      CODE     ---       #725
      0100714BH   LINE      CODE     ---       #726
      0100714DH   LINE      CODE     ---       #728
      0100714DH   LINE      CODE     ---       #729
      0100714FH   LINE      CODE     ---       #730
      0100714FH   LINE      CODE     ---       #732
      0100714FH   LINE      CODE     ---       #733
      ---         BLOCKEND  ---      ---       LVL=0

      ---         MODULE    ---      ---       SPI_IMU_INTCLOCK
      0100738FH   PUBLIC    CODE     ---       SPI_IMU_IntClock_Start

      0100738FH   BLOCK     CODE     ---       LVL=0
      0100738FH   LINE      CODE     ---       #45
      0100738FH   LINE      CODE     ---       #46
      0100738FH   LINE      CODE     ---       #48
      01007396H   LINE      CODE     ---       #49
      0100739DH   LINE      CODE     ---       #50
      ---         BLOCKEND  ---      ---       LVL=0
      00000007H   SYMBOL    DATA     BYTE      state
      00000007H   SYMBOL    DATA     BYTE      modeBitMask
      00000007H   SYMBOL    DATA     BYTE      modeBitMask
      00000007H   SYMBOL    DATA     BYTE      oldSrc

      ---         MODULE    ---      ---       ?C?FPADD
      01002621H   PUBLIC    CODE     ---       ?C?FPADD
      0100261DH   PUBLIC    CODE     ---       ?C?FPSUB

      ---         MODULE    ---      ---       ?C?FPCMP
      01002714H   PUBLIC    CODE     ---       ?C?FPCMP
      01002712H   PUBLIC    CODE     ---       ?C?FPCMP3

      ---         MODULE    ---      ---       ?C?CASTF
      0100278BH   PUBLIC    CODE     ---       ?C?CASTF

      ---         MODULE    ---      ---       PRINTF
      020009BDH   PUBLIC    XDATA    ---       ?_PRINTF?BYTE
      020009BDH   PUBLIC    XDATA    ---       ?_SPRINTF?BYTE
      0100455AH   PUBLIC    CODE     ---       _PRINTF
      01004554H   PUBLIC    CODE     ---       _SPRINTF

      ---         MODULE    ---      ---       ?C?FPGETOPN
      010027C2H   PUBLIC    CODE     ---       ?C?FPGETOPN2
LX51 LINKER/LOCATER V4.64.0.0                                                         01/12/2017  16:14:04  PAGE 92


      010027F7H   PUBLIC    CODE     ---       ?C?FPNANRESULT
      01002801H   PUBLIC    CODE     ---       ?C?FPOVERFLOW
      010027D9H   PUBLIC    CODE     ---       ?C?FPRESULT
      010027EDH   PUBLIC    CODE     ---       ?C?FPRESULT2
      010027FEH   PUBLIC    CODE     ---       ?C?FPUNDERFLOW

      ---         MODULE    ---      ---       ?C?FPROUND
      0100280CH   PUBLIC    CODE     ---       ?C?FPROUND

      ---         MODULE    ---      ---       ?C?FPCONVERT
      01002849H   PUBLIC    CODE     ---       ?C?FPCONVERT

      ---         MODULE    ---      ---       ?C?FPMUL
      0100294EH   PUBLIC    CODE     ---       ?C?FPMUL

      ---         MODULE    ---      ---       ?C?FPDIV
      01002A57H   PUBLIC    CODE     ---       ?C?FPDIV

      ---         MODULE    ---      ---       ?C?FTNPWR
      01002B24H   PUBLIC    CODE     ---       ?C?FTNPWR

      ---         MODULE    ---      ---       ?C_INIT
      01005BC4H   PUBLIC    CODE     ---       ?C_START

      ---         MODULE    ---      ---       ?C?CLDPTR
      01002B64H   PUBLIC    CODE     ---       ?C?CLDPTR

      ---         MODULE    ---      ---       ?C?CLDOPTR
      01002B7DH   PUBLIC    CODE     ---       ?C?CLDOPTR

      ---         MODULE    ---      ---       ?C?CSTPTR
      01002BAAH   PUBLIC    CODE     ---       ?C?CSTPTR

      ---         MODULE    ---      ---       ?C?IMUL
      01002BBCH   PUBLIC    CODE     ---       ?C?IMUL

      ---         MODULE    ---      ---       ?C?LMUL
      01002BCEH   PUBLIC    CODE     ---       ?C?LMUL

      ---         MODULE    ---      ---       ?C?ULDIV
      01002C59H   PUBLIC    CODE     ---       ?C?ULDIV

      ---         MODULE    ---      ---       ?C?SLDIV
      01006C59H   PUBLIC    CODE     ---       ?C?SLDIV

      ---         MODULE    ---      ---       ?C?LNEG
      01002CEBH   PUBLIC    CODE     ---       ?C?LNEG

      ---         MODULE    ---      ---       ?C?SLCMP
      01002CF9H   PUBLIC    CODE     ---       ?C?SLCMP

      ---         MODULE    ---      ---       ?C?ULCMP
      01002D0FH   PUBLIC    CODE     ---       ?C?ULCMP

      ---         MODULE    ---      ---       ?C?ULSHR
      01002D20H   PUBLIC    CODE     ---       ?C?ULSHR

      ---         MODULE    ---      ---       ?C?SLSHR
      01002D33H   PUBLIC    CODE     ---       ?C?SLSHR

      ---         MODULE    ---      ---       ?C?LSHL
      01002D47H   PUBLIC    CODE     ---       ?C?LSHL

      ---         MODULE    ---      ---       ?C?LLDPTR
      01002D5AH   PUBLIC    CODE     ---       ?C?LLDPTR
LX51 LINKER/LOCATER V4.64.0.0                                                         01/12/2017  16:14:04  PAGE 93



      ---         MODULE    ---      ---       ?C?LSTPTR
      01002D7AH   PUBLIC    CODE     ---       ?C?LSTPTR

      ---         MODULE    ---      ---       ?C?LSTXDATA
      01002D94H   PUBLIC    CODE     ---       ?C?LSTXDATA

      ---         MODULE    ---      ---       ?C?OFFXADD
      01002DA0H   PUBLIC    CODE     ---       ?C?OFFXADD

      ---         MODULE    ---      ---       ?C?PLDIXDATA
      01002DACH   PUBLIC    CODE     ---       ?C?PLDIXDATA

      ---         MODULE    ---      ---       ?C?PSTXDATA
      01002DC3H   PUBLIC    CODE     ---       ?C?PSTXDATA

      ---         MODULE    ---      ---       ?C?CCASE
      01002DCCH   PUBLIC    CODE     ---       ?C?CCASE

      ---         MODULE    ---      ---       ?C_XBP
      00000022H   PUBLIC    DATA     ---       ?C_XBP

      ---         MODULE    ---      ---       ?C?ADDXBP
      01002DF2H   PUBLIC    CODE     ---       ?C?ADDXBP

      ---         MODULE    ---      ---       ?C?LIMUL
      01002E16H   PUBLIC    CODE     ---       ?C?LIMUL

      ---         MODULE    ---      ---       PUTCHAR
      01006F85H   PUBLIC    CODE     ---       _PUTCHAR

      ---         MODULE    ---      ---       STRCAT
      0200058BH   PUBLIC    XDATA    ---       ?_STRCAT?BYTE
      010067ABH   PUBLIC    CODE     ---       _STRCAT

      ---         MODULE    ---      ---       STRLEN
      01007262H   PUBLIC    CODE     ---       _STRLEN

      ---         MODULE    ---      ---       ?C?MEMSET
      01002E43H   PUBLIC    CODE     ---       ?C?MEMSET

      ---         MODULE    ---      ---       ?C?COPYAMD
      01002F2BH   PUBLIC    CODE     ---       ?C?COPYAMD

      ---         MODULE    ---      ---       ?C?STRCPYAMD
      01003009H   PUBLIC    CODE     ---       ?C?STRCPYAMD

      ---         MODULE    ---      ---       ?C?IILDX
      01003026H   PUBLIC    CODE     ---       ?C?IILDX

      ---         MODULE    ---      ---       ?C?ILDIX
      0100303CH   PUBLIC    CODE     ---       ?C?ILDIX

      ---         MODULE    ---      ---       ?C?LLDIDATA
      01003052H   PUBLIC    CODE     ---       ?C?LLDIDATA

      ---         MODULE    ---      ---       ?C?LLDXDATA
      0100305EH   PUBLIC    CODE     ---       ?C?LLDXDATA

      ---         MODULE    ---      ---       ?C?LLDPDATA
      0100306AH   PUBLIC    CODE     ---       ?C?LLDPDATA

      ---         MODULE    ---      ---       ?C?LLDCODE
      01003076H   PUBLIC    CODE     ---       ?C?LLDCODE

LX51 LINKER/LOCATER V4.64.0.0                                                         01/12/2017  16:14:04  PAGE 94


      ---         MODULE    ---      ---       ?C?LSTIDATA
      01003086H   PUBLIC    CODE     ---       ?C?LSTIDATA

      ---         MODULE    ---      ---       ?C?LSTPDATA
      01003092H   PUBLIC    CODE     ---       ?C?LSTPDATA



INTER-MODULE CROSS-REFERENCE LISTING


NAME . . . . . . . . . . . . . . . . . . CLASS    MODULE NAMES
==============================================================

?_Bootloadable_SetFlashByte?BYTE . . . . XDATA    BOOTLOADABLE  
?_calc_turns_fcn?BYTE. . . . . . . . . . XDATA    UTILS  
?_cyconfigcpy?BYTE . . . . . . . . . . . XDATA    CYMEM  CYFITTER_CFG  
?_CySpcLoadMultiByte?BYTE. . . . . . . . XDATA    CYSPC  EEPROM  
?_CySpcLoadRow?BYTE. . . . . . . . . . . XDATA    CYSPC  EEPROM  
?_CySpcLoadRowFull?BYTE. . . . . . . . . XDATA    CYSPC  CYFLASH  
?_CySpcWriteRow?BYTE . . . . . . . . . . XDATA    CYSPC  CYFLASH  EEPROM  
?_CyWriteRowFull?BYTE. . . . . . . . . . XDATA    CYFLASH  
?_my_mod?BYTE. . . . . . . . . . . . . . XDATA    UTILS  
?_PRINTF?BYTE. . . . . . . . . . . . . . XDATA    PRINTF  
?_SPRINTF?BYTE . . . . . . . . . . . . . XDATA    PRINTF  COMMAND_PROCESSING  
?_strcat?BYTE. . . . . . . . . . . . . . XDATA    STRCAT  COMMAND_PROCESSING  
?C?ADDXBP. . . . . . . . . . . . . . . . CODE     ?C?ADDXBP  CYLIB  
?C?CASTF . . . . . . . . . . . . . . . . CODE     ?C?CASTF  UTILS  
?C?CCASE . . . . . . . . . . . . . . . . CODE     ?C?CCASE  COMMAND_PROCESSING  PRINTF  
?C?CLDOPTR . . . . . . . . . . . . . . . CODE     ?C?CLDOPTR  PRINTF  
?C?CLDPTR. . . . . . . . . . . . . . . . CODE     ?C?CLDPTR  COMMAND_PROCESSING  CYSPC  PRINTF  SPI_IMU  STRCAT  STRLEN 
                                                   UART_RS485  UTILS  
?C?CODESEG . . . . . . . . . . . . . . . NUMBER   ** LX51 GENERATED **  
?C?COPYAMD . . . . . . . . . . . . . . . CODE     ?C?COPYAMD  COMMAND_PROCESSING  INTERRUPTIONS  ISR_IMU  
?C?CSTPTR. . . . . . . . . . . . . . . . CODE     ?C?CSTPTR  CYSPC  PRINTF  STRCAT  
?C?FPADD . . . . . . . . . . . . . . . . CODE     ?C?FPADD  ?C?FPCONVERT  UTILS  
?C?FPCMP . . . . . . . . . . . . . . . . CODE     ?C?FPCMP  
?C?FPCMP3. . . . . . . . . . . . . . . . CODE     ?C?FPCMP  UTILS  
?C?FPCONVERT . . . . . . . . . . . . . . CODE     ?C?FPCONVERT  PRINTF  
?C?FPDIV . . . . . . . . . . . . . . . . CODE     ?C?FPDIV  ?C?FPCONVERT  
?C?FPGETOPN2 . . . . . . . . . . . . . . CODE     ?C?FPGETOPN  ?C?FPADD  ?C?FPDIV  ?C?FPMUL  
?C?FPMUL . . . . . . . . . . . . . . . . CODE     ?C?FPMUL  ?C?FPCONVERT  ?C?FTNPWR  
?C?FPNANRESULT . . . . . . . . . . . . . CODE     ?C?FPGETOPN  ?C?FPADD  ?C?FPDIV  ?C?FPMUL  
?C?FPOVERFLOW. . . . . . . . . . . . . . CODE     ?C?FPGETOPN  ?C?FPADD  ?C?FPDIV  ?C?FPMUL  
?C?FPRESULT. . . . . . . . . . . . . . . CODE     ?C?FPGETOPN  ?C?FPADD  ?C?FPDIV  ?C?FPMUL  
?C?FPRESULT2 . . . . . . . . . . . . . . CODE     ?C?FPGETOPN  ?C?FPDIV  ?C?FPMUL  
?C?FPROUND . . . . . . . . . . . . . . . CODE     ?C?FPROUND  PRINTF  
?C?FPSUB . . . . . . . . . . . . . . . . CODE     ?C?FPADD  
?C?FPUNDERFLOW . . . . . . . . . . . . . CODE     ?C?FPGETOPN  ?C?FPADD  ?C?FPDIV  ?C?FPMUL  
?C?FTNPWR. . . . . . . . . . . . . . . . CODE     ?C?FTNPWR  ?C?FPCONVERT  
?C?IILDX . . . . . . . . . . . . . . . . CODE     ?C?IILDX  STRCAT  
?C?ILDIX . . . . . . . . . . . . . . . . CODE     ?C?ILDIX  STRCAT  
?C?IMUL. . . . . . . . . . . . . . . . . CODE     ?C?IMUL  COMMAND_PROCESSING  
?C?LIMUL . . . . . . . . . . . . . . . . CODE     ?C?LIMUL  COMMAND_PROCESSING  CYSPC  
?C?LLDCODE . . . . . . . . . . . . . . . CODE     ?C?LLDCODE  ?C?LLDPTR  
?C?LLDIDATA. . . . . . . . . . . . . . . CODE     ?C?LLDIDATA  ?C?LLDPTR  
?C?LLDPDATA. . . . . . . . . . . . . . . CODE     ?C?LLDPDATA  ?C?LLDPTR  
?C?LLDPTR. . . . . . . . . . . . . . . . CODE     ?C?LLDPTR  CYLIB  
?C?LLDXDATA. . . . . . . . . . . . . . . CODE     ?C?LLDXDATA  ?C?LLDPTR  
?C?LMUL. . . . . . . . . . . . . . . . . CODE     ?C?LMUL  CYLIB  CYPM  UTILS  
?C?LNEG. . . . . . . . . . . . . . . . . CODE     ?C?LNEG  ?C?CASTF  UTILS  
?C?LSHL. . . . . . . . . . . . . . . . . CODE     ?C?LSHL  CYLIB  UTILS  
?C?LSTIDATA. . . . . . . . . . . . . . . CODE     ?C?LSTIDATA  ?C?LSTPTR  
?C?LSTPDATA. . . . . . . . . . . . . . . CODE     ?C?LSTPDATA  ?C?LSTPTR  
?C?LSTPTR. . . . . . . . . . . . . . . . CODE     ?C?LSTPTR  CYLIB  
LX51 LINKER/LOCATER V4.64.0.0                                                         01/12/2017  16:14:04  PAGE 95


?C?LSTXDATA. . . . . . . . . . . . . . . CODE     ?C?LSTXDATA  ?C?LSTPTR  BOOTLOADABLE  COMMAND_PROCESSING  CYFITTER_CFG
                                                    CYLIB  CYSPC  INTERRUPTIONS  UTILS  
?C?MEMSET. . . . . . . . . . . . . . . . CODE     ?C?MEMSET  COMMAND_PROCESSING  IMU_FUNCTIONS  
?C?OFFXADD . . . . . . . . . . . . . . . CODE     ?C?OFFXADD  COMMAND_PROCESSING  IMU_FUNCTIONS  
?C?PLDIXDATA . . . . . . . . . . . . . . CODE     ?C?PLDIXDATA  PRINTF  
?C?PSTXDATA. . . . . . . . . . . . . . . CODE     ?C?PSTXDATA  PRINTF  
?C?SLCMP . . . . . . . . . . . . . . . . CODE     ?C?SLCMP  UTILS  
?C?SLDIV . . . . . . . . . . . . . . . . CODE     ?C?SLDIV  UTILS  
?C?SLSHR . . . . . . . . . . . . . . . . CODE     ?C?SLSHR  UTILS  
?C?STRCPYAMD . . . . . . . . . . . . . . CODE     ?C?STRCPYAMD  COMMAND_PROCESSING  
?C?ULCMP . . . . . . . . . . . . . . . . CODE     ?C?ULCMP  CYFLASH  
?C?ULDIV . . . . . . . . . . . . . . . . CODE     ?C?ULDIV  ?C?SLDIV  BOOTLOADABLE  CYLIB  CYPM  UTILS  
?C?ULSHR . . . . . . . . . . . . . . . . CODE     ?C?ULSHR  COMMAND_PROCESSING  CYLIB  
?C?XDATASEG. . . . . . . . . . . . . . . NUMBER   ** LX51 GENERATED **  
?C?XPAGE1RST . . . . . . . . . . . . . . NUMBER   ?C_STARTUP  INTERRUPTIONS  ISR_IMU  ISR_RS485_RX  ISR_WATCHDOG  UART_R
                                                  S485_INT  
?C?XPAGE1SFR . . . . . . . . . . . . . . DATA     ?C_STARTUP  INTERRUPTIONS  ISR_IMU  ISR_RS485_RX  ISR_WATCHDOG  UART_R
                                                  S485_INT  
?C_START . . . . . . . . . . . . . . . . CODE     ?C_INIT  ?C_STARTUP  
?C_STARTUP . . . . . . . . . . . . . . . CODE     ?C_STARTUP  MAIN  
?C_XBP . . . . . . . . . . . . . . . . . DATA     ?C_XBP  ?C?ADDXBP  ?C_STARTUP  CYLIB  
_?CyDelay. . . . . . . . . . . . . . . . CODE     CYLIB  COMMAND_PROCESSING  CYBOOTASMKEIL  IMU_FUNCTIONS  MAIN  
_?CyDelayFreq. . . . . . . . . . . . . . CODE     CYLIB  
_?CyHalt . . . . . . . . . . . . . . . . CODE     CYLIB  
_Bootloadable_SetFlashByte . . . . . . . CODE     BOOTLOADABLE  
_calc_turns_fcn. . . . . . . . . . . . . CODE     UTILS  
_cfg_write_bytes . . . . . . . . . . . . CODE     CYMEM  
_cfg_write_bytes_code. . . . . . . . . . CODE     CYMEM  
_check_enc_data. . . . . . . . . . . . . CODE     UTILS  
_Chip_Select_A_Write . . . . . . . . . . CODE     CHIP_SELECT_A  IMU_FUNCTIONS  
_Chip_Select_B_Write . . . . . . . . . . CODE     CHIP_SELECT_B  IMU_FUNCTIONS  
_ChipSelector. . . . . . . . . . . . . . CODE     IMU_FUNCTIONS  ISR_IMU  
_CLOCK_UART_ClearModeRegister. . . . . . CODE     CLOCK_UART  
_CLOCK_UART_SetDividerRegister . . . . . CODE     CLOCK_UART  COMMAND_PROCESSING  
_CLOCK_UART_SetModeRegister. . . . . . . CODE     CLOCK_UART  
_CLOCK_UART_SetSourceRegister. . . . . . CODE     CLOCK_UART  
_CLOCK_UART_StandbyPower . . . . . . . . CODE     CLOCK_UART  
_commWrite . . . . . . . . . . . . . . . CODE     COMMAND_PROCESSING  
_CyBusClk_SetDivider . . . . . . . . . . CODE     CYLIB  CYPM  
_cyconfigcpy . . . . . . . . . . . . . . CODE     CYMEM  CYFITTER_CFG  
_cyconfigcpycode . . . . . . . . . . . . CODE     CYMEM  CYFITTER_CFG  
_CyCpuClk_SetDivider . . . . . . . . . . CODE     CYLIB  
_CyDelay . . . . . . . . . . . . . . . . CODE     CYBOOTASMKEIL  
_CyDelayCycles . . . . . . . . . . . . . CODE     CYBOOTASMKEIL  CYFITTER_CFG  CYLIB  CYPM  
_CyDelayUs . . . . . . . . . . . . . . . CODE     CYBOOTASMKEIL  CYFLASH  CYLIB  CYPM  CYSPC  
_CyEnableInts. . . . . . . . . . . . . . CODE     CYLIB  
_CyExitCriticalSection . . . . . . . . . CODE     CYBOOTASMKEIL  CYFLASH  CYLIB  CYPM  CYSPC  EEPROM  FF_STATUS  MY_TIME
                                                  R  SPI_IMU  UART_RS485  
_CyFlash_SetWaitCycles . . . . . . . . . CODE     CYFLASH  CYPM  
_CyGetUniqueId . . . . . . . . . . . . . CODE     CYLIB  
_CyILO_SetPowerMode. . . . . . . . . . . CODE     CYLIB  CYPM  
_CyILO_SetSource . . . . . . . . . . . . CODE     CYLIB  
_CyIMO_SetFreq . . . . . . . . . . . . . CODE     CYLIB  CYPM  
_CyIMO_SetSource . . . . . . . . . . . . CODE     CYLIB  CYPM  
_CyIMO_Start . . . . . . . . . . . . . . CODE     CYLIB  CYPM  
_CyIntGetPriority. . . . . . . . . . . . CODE     CYLIB  
_CyIntGetState . . . . . . . . . . . . . CODE     CYLIB  
_CyIntGetVector. . . . . . . . . . . . . CODE     CYLIB  
_CyIntSetPriority. . . . . . . . . . . . CODE     CYLIB  UART_RS485  
_CyIntSetVector. . . . . . . . . . . . . CODE     CYLIB  UART_RS485  
_CyMasterClk_SetDivider. . . . . . . . . CODE     CYLIB  CYPM  
_CyMasterClk_SetSource . . . . . . . . . CODE     CYLIB  CYPM  
_cymemzero . . . . . . . . . . . . . . . CODE     CYMEM  
_CyPLL_OUT_SetPQ . . . . . . . . . . . . CODE     CYLIB  
_CyPLL_OUT_SetSource . . . . . . . . . . CODE     CYLIB  
LX51 LINKER/LOCATER V4.64.0.0                                                         01/12/2017  16:14:04  PAGE 96


_CyPLL_OUT_Start . . . . . . . . . . . . CODE     CYLIB  CYPM  
_CyPmAltAct. . . . . . . . . . . . . . . CODE     CYPM  
_CyPmCtwSetInterval. . . . . . . . . . . CODE     CYPM  
_CyPmFtwSetInterval. . . . . . . . . . . CODE     CYPM  CYLIB  
_CyPmHibernateEx . . . . . . . . . . . . CODE     CYPM  
_CyPmReadStatus. . . . . . . . . . . . . CODE     CYPM  CYLIB  
_CyPmSleep . . . . . . . . . . . . . . . CODE     CYPM  
_cyread16. . . . . . . . . . . . . . . . CODE     CYMEM  
_cyread16_nodpx. . . . . . . . . . . . . CODE     CYMEM  CLOCK_UART  CYLIB  ISR_IMU  ISR_RS485_RX  ISR_WATCHDOG  PACER_T
                                                  IMER  SPI_IMU_INTCLOCK  WATCHDOG_COUNTER  
_cyread24. . . . . . . . . . . . . . . . CODE     CYMEM  
_cyread24_nodpx. . . . . . . . . . . . . CODE     CYMEM  MY_TIMER  
_cyread32. . . . . . . . . . . . . . . . CODE     CYMEM  
_cyread32_nodpx. . . . . . . . . . . . . CODE     CYMEM  
_cyread8 . . . . . . . . . . . . . . . . CODE     CYMEM  CYFITTER_CFG  CYLIB  CYSPC  
_cyread8_nodpx . . . . . . . . . . . . . CODE     CYMEM  
_CySetFlashEEBuffer. . . . . . . . . . . CODE     CYFLASH  
_CySpcEraseSector. . . . . . . . . . . . CODE     CYSPC  EEPROM  
_CySpcGetTemp. . . . . . . . . . . . . . CODE     CYSPC  CYFLASH  
_CySpcLoadMultiByte. . . . . . . . . . . CODE     CYSPC  EEPROM  
_CySpcLoadRow. . . . . . . . . . . . . . CODE     CYSPC  EEPROM  
_CySpcLoadRowFull. . . . . . . . . . . . CODE     CYSPC  CYFLASH  
_CySpcReadData . . . . . . . . . . . . . CODE     CYSPC  CYFLASH  
_CySpcWriteRow . . . . . . . . . . . . . CODE     CYSPC  CYFLASH  EEPROM  
_CyUsbClk_SetSource. . . . . . . . . . . CODE     CYLIB  
_CyVdLvAnalogEnable. . . . . . . . . . . CODE     CYLIB  CYPM  
_CyVdLvDigitEnable . . . . . . . . . . . CODE     CYLIB  CYPM  
_CyVdStickyStatus. . . . . . . . . . . . CODE     CYLIB  
_CyWdtStart. . . . . . . . . . . . . . . CODE     CYLIB  
_cywrite16 . . . . . . . . . . . . . . . CODE     CYMEM  CYFITTER_CFG  
_cywrite16_nodpx . . . . . . . . . . . . CODE     CYMEM  CLOCK_UART  CYFITTER_CFG  CYLIB  ISR_IMU  ISR_RS485_RX  ISR_WAT
                                                  CHDOG  PACER_TIMER  SPI_IMU_INTCLOCK  WATCHDOG_COUNTER  
_cywrite24 . . . . . . . . . . . . . . . CODE     CYMEM  
_cywrite24_nodpx . . . . . . . . . . . . CODE     CYMEM  MY_TIMER  
_cywrite32 . . . . . . . . . . . . . . . CODE     CYMEM  
_cywrite32_nodpx . . . . . . . . . . . . CODE     CYMEM  
_cywrite8. . . . . . . . . . . . . . . . CODE     CYMEM  CYFITTER_CFG  
_cywrite8_nodpx. . . . . . . . . . . . . CODE     CYMEM  
_CyWriteRowData. . . . . . . . . . . . . CODE     CYFLASH  BOOTLOADABLE  
_CyWriteRowFull. . . . . . . . . . . . . CODE     CYFLASH  
_CyXTAL_32KHZ_SetPowerMode . . . . . . . CODE     CYLIB  
_CyXTAL_SetFbVoltage . . . . . . . . . . CODE     CYLIB  
_CyXTAL_SetStartup . . . . . . . . . . . CODE     CYLIB  
_CyXTAL_SetWdVoltage . . . . . . . . . . CODE     CYLIB  
_CyXTAL_Start. . . . . . . . . . . . . . CODE     CYLIB  CYPM  
_dma_wait. . . . . . . . . . . . . . . . CODE     ?C_STARTUP  
_EEPROM_ByteWritePos . . . . . . . . . . CODE     EEPROM  
_EEPROM_EraseSector. . . . . . . . . . . CODE     EEPROM  
_EEPROM_ReadByte . . . . . . . . . . . . CODE     EEPROM  
_EEPROM_StartErase . . . . . . . . . . . CODE     EEPROM  
_EEPROM_StartWrite . . . . . . . . . . . CODE     EEPROM  
_EEPROM_Write. . . . . . . . . . . . . . CODE     EEPROM  COMMAND_PROCESSING  
_EEPROM_WriteByte. . . . . . . . . . . . CODE     EEPROM  
_FF_STATUS_WriteMask . . . . . . . . . . CODE     FF_STATUS  
_filter_ch1. . . . . . . . . . . . . . . CODE     UTILS  
_filter_ch2. . . . . . . . . . . . . . . CODE     UTILS  
_filter_i1 . . . . . . . . . . . . . . . CODE     UTILS  
_filter_v. . . . . . . . . . . . . . . . CODE     UTILS  
_FTDI_ENABLE_REG_Write . . . . . . . . . CODE     FTDI_ENABLE_REG  COMMAND_PROCESSING  MAIN  
_get_param_list. . . . . . . . . . . . . CODE     COMMAND_PROCESSING  
_infoGet . . . . . . . . . . . . . . . . CODE     COMMAND_PROCESSING  INTERRUPTIONS  
_infoPrepare . . . . . . . . . . . . . . CODE     COMMAND_PROCESSING  
_isr_imu_SetPriority . . . . . . . . . . CODE     ISR_IMU  
_isr_imu_SetVector . . . . . . . . . . . CODE     ISR_IMU  
_isr_imu_StartEx . . . . . . . . . . . . CODE     ISR_IMU  
LX51 LINKER/LOCATER V4.64.0.0                                                         01/12/2017  16:14:04  PAGE 97


_ISR_RS485_RX_SetPriority. . . . . . . . CODE     ISR_RS485_RX  
_ISR_RS485_RX_SetVector. . . . . . . . . CODE     ISR_RS485_RX  
_ISR_RS485_RX_StartEx. . . . . . . . . . CODE     ISR_RS485_RX  MAIN  
_ISR_WATCHDOG_SetPriority. . . . . . . . CODE     ISR_WATCHDOG  
_ISR_WATCHDOG_SetVector. . . . . . . . . CODE     ISR_WATCHDOG  
_ISR_WATCHDOG_StartEx. . . . . . . . . . CODE     ISR_WATCHDOG  MAIN  
_LCRChecksum . . . . . . . . . . . . . . CODE     COMMAND_PROCESSING  
_memStore. . . . . . . . . . . . . . . . CODE     COMMAND_PROCESSING  
_my_mod. . . . . . . . . . . . . . . . . CODE     UTILS  
_my_round. . . . . . . . . . . . . . . . CODE     UTILS  
_MY_TIMER_SetInterruptMode . . . . . . . CODE     MY_TIMER  
_MY_TIMER_WriteControlRegister . . . . . CODE     MY_TIMER  
_MY_TIMER_WriteCounter . . . . . . . . . CODE     MY_TIMER  INTERRUPTIONS  
_MY_TIMER_WritePeriod. . . . . . . . . . CODE     MY_TIMER  
_Opto_Pin_SetDriveMode . . . . . . . . . CODE     OPTO_PIN  
_Opto_Pin_Write. . . . . . . . . . . . . CODE     OPTO_PIN  IMU_FUNCTIONS  MAIN  
_PACER_TIMER_SetInterruptMode. . . . . . CODE     PACER_TIMER  
_PACER_TIMER_WriteControlRegister. . . . CODE     PACER_TIMER  
_PACER_TIMER_WriteCounter. . . . . . . . CODE     PACER_TIMER  
_PACER_TIMER_WritePeriod . . . . . . . . CODE     PACER_TIMER  
_PRINTF. . . . . . . . . . . . . . . . . CODE     PRINTF  
_PUTCHAR . . . . . . . . . . . . . . . . CODE     PUTCHAR  PRINTF  
_ReadAcc . . . . . . . . . . . . . . . . CODE     IMU_FUNCTIONS  
_ReadControlRegister . . . . . . . . . . CODE     IMU_FUNCTIONS  
_ReadGyro. . . . . . . . . . . . . . . . CODE     IMU_FUNCTIONS  
_ReadIMU . . . . . . . . . . . . . . . . CODE     IMU_FUNCTIONS  ISR_IMU  
_ReadMag . . . . . . . . . . . . . . . . CODE     IMU_FUNCTIONS  
_ReadMagCal. . . . . . . . . . . . . . . CODE     IMU_FUNCTIONS  
_RESET_FF_Write. . . . . . . . . . . . . CODE     RESET_FF  MAIN  
_RS485_CTS_Write . . . . . . . . . . . . CODE     RS485_CTS  COMMAND_PROCESSING  INTERRUPTIONS  MAIN  
_sendAcknowledgment. . . . . . . . . . . CODE     COMMAND_PROCESSING  
_SetAnalogRoutingPumps . . . . . . . . . CODE     CYFITTER_CFG  
_SPI_IMU_IntClock_ClearModeRegister. . . CODE     SPI_IMU_INTCLOCK  
_SPI_IMU_IntClock_SetDividerRegister . . CODE     SPI_IMU_INTCLOCK  
_SPI_IMU_IntClock_SetModeRegister. . . . CODE     SPI_IMU_INTCLOCK  
_SPI_IMU_IntClock_SetSourceRegister. . . CODE     SPI_IMU_INTCLOCK  
_SPI_IMU_IntClock_StandbyPower . . . . . CODE     SPI_IMU_INTCLOCK  
_SPI_IMU_PutArray. . . . . . . . . . . . CODE     SPI_IMU  
_SPI_IMU_SetInterruptMode. . . . . . . . CODE     SPI_IMU  
_SPI_IMU_SetRxInterruptMode. . . . . . . CODE     SPI_IMU  
_SPI_IMU_SetTxInterruptMode. . . . . . . CODE     SPI_IMU  
_SPI_IMU_WriteTxData . . . . . . . . . . CODE     SPI_IMU  IMU_FUNCTIONS  
_SPRINTF . . . . . . . . . . . . . . . . CODE     PRINTF  COMMAND_PROCESSING  
_strcat. . . . . . . . . . . . . . . . . CODE     STRCAT  COMMAND_PROCESSING  
_STRLEN. . . . . . . . . . . . . . . . . CODE     STRLEN  COMMAND_PROCESSING  
_UART_RS485_PutArray . . . . . . . . . . CODE     UART_RS485  
_UART_RS485_PutChar. . . . . . . . . . . CODE     UART_RS485  COMMAND_PROCESSING  
_UART_RS485_PutCRLF. . . . . . . . . . . CODE     UART_RS485  
_UART_RS485_PutString. . . . . . . . . . CODE     UART_RS485  COMMAND_PROCESSING  
_UART_RS485_SendBreak. . . . . . . . . . CODE     UART_RS485  
_UART_RS485_SetRxAddress1. . . . . . . . CODE     UART_RS485  
_UART_RS485_SetRxAddress2. . . . . . . . CODE     UART_RS485  
_UART_RS485_SetRxAddressMode . . . . . . CODE     UART_RS485  
_UART_RS485_SetRxInterruptMode . . . . . CODE     UART_RS485  
_UART_RS485_SetTxAddressMode . . . . . . CODE     UART_RS485  
_UART_RS485_SetTxInterruptMode . . . . . CODE     UART_RS485  
_UART_RS485_WriteControlRegister . . . . CODE     UART_RS485  
_UART_RS485_WriteTxData. . . . . . . . . CODE     UART_RS485  
_WATCHDOG_COUNTER_SetInterruptMode . . . CODE     WATCHDOG_COUNTER  
_WATCHDOG_COUNTER_WriteControlRegister . CODE     WATCHDOG_COUNTER  
_WATCHDOG_COUNTER_WriteCounter . . . . . CODE     WATCHDOG_COUNTER  
_WATCHDOG_COUNTER_WritePeriod. . . . . . CODE     WATCHDOG_COUNTER  COMMAND_PROCESSING  
_WATCHDOG_ENABLER_Write. . . . . . . . . CODE     WATCHDOG_ENABLER  COMMAND_PROCESSING  
_WATCHDOG_REFRESH_Write. . . . . . . . . CODE     WATCHDOG_REFRESH  MAIN  
_WriteControlRegister. . . . . . . . . . CODE     IMU_FUNCTIONS  
LX51 LINKER/LOCATER V4.64.0.0                                                         01/12/2017  16:14:04  PAGE 98


AC . . . . . . . . . . . . . . . . . . . DATA     COMMAND_PROCESSING  
ACC. . . . . . . . . . . . . . . . . . . DATA     COMMAND_PROCESSING  
Accel. . . . . . . . . . . . . . . . . . XDATA    GLOBALS  IMU_FUNCTIONS  ISR_IMU  
ADC_buf. . . . . . . . . . . . . . . . . XDATA    GLOBALS  
B. . . . . . . . . . . . . . . . . . . . DATA     COMMAND_PROCESSING  
Bootloadable_Load. . . . . . . . . . . . CODE     BOOTLOADABLE  COMMAND_PROCESSING  
c_mem. . . . . . . . . . . . . . . . . . XDATA    GLOBALS  COMMAND_PROCESSING  INTERRUPTIONS  
calibration. . . . . . . . . . . . . . . CODE     UTILS  
Chip_Select_A_Read . . . . . . . . . . . CODE     CHIP_SELECT_A  
Chip_Select_B_Read . . . . . . . . . . . CODE     CHIP_SELECT_B  
CLOCK_UART_GetDividerRegister. . . . . . CODE     CLOCK_UART  
CLOCK_UART_GetModeRegister . . . . . . . CODE     CLOCK_UART  
CLOCK_UART_GetSourceRegister . . . . . . CODE     CLOCK_UART  
CLOCK_UART_Start . . . . . . . . . . . . CODE     CLOCK_UART  
CLOCK_UART_Stop. . . . . . . . . . . . . CODE     CLOCK_UART  
CLOCK_UART_StopBlock . . . . . . . . . . CODE     CLOCK_UART  
cmd_activate . . . . . . . . . . . . . . CODE     COMMAND_PROCESSING  
cmd_get_activate . . . . . . . . . . . . CODE     COMMAND_PROCESSING  
cmd_get_curr_and_meas. . . . . . . . . . CODE     COMMAND_PROCESSING  
cmd_get_currents . . . . . . . . . . . . CODE     COMMAND_PROCESSING  
cmd_get_emg. . . . . . . . . . . . . . . CODE     COMMAND_PROCESSING  
cmd_get_imu_readings . . . . . . . . . . CODE     COMMAND_PROCESSING  
cmd_get_inputs . . . . . . . . . . . . . CODE     COMMAND_PROCESSING  
cmd_get_measurements . . . . . . . . . . CODE     COMMAND_PROCESSING  
cmd_ping . . . . . . . . . . . . . . . . CODE     COMMAND_PROCESSING  
cmd_set_baudrate . . . . . . . . . . . . CODE     COMMAND_PROCESSING  
cmd_set_inputs . . . . . . . . . . . . . CODE     COMMAND_PROCESSING  
cmd_set_watchdog . . . . . . . . . . . . CODE     COMMAND_PROCESSING  
cmd_store_params . . . . . . . . . . . . CODE     COMMAND_PROCESSING  
commProcess. . . . . . . . . . . . . . . CODE     COMMAND_PROCESSING  INTERRUPTIONS  
CY . . . . . . . . . . . . . . . . . . . DATA     COMMAND_PROCESSING  
cydelay_32k_ms . . . . . . . . . . . . . XDATA    CYLIB  
cydelay_freq_hz. . . . . . . . . . . . . XDATA    CYLIB  
cydelay_freq_khz . . . . . . . . . . . . XDATA    CYLIB  
cydelay_freq_mhz . . . . . . . . . . . . XDATA    CYLIB  CYBOOTASMKEIL  
CyDisableInts. . . . . . . . . . . . . . CODE     CYLIB  
CyEEPROM_ReadRelease . . . . . . . . . . CODE     CYFLASH  EEPROM  
CyEEPROM_ReadReserve . . . . . . . . . . CODE     CYFLASH  EEPROM  
CyEEPROM_Start . . . . . . . . . . . . . CODE     CYFLASH  EEPROM  
CyEEPROM_Stop. . . . . . . . . . . . . . CODE     CYFLASH  EEPROM  
CyEnterCriticalSection . . . . . . . . . CODE     CYBOOTASMKEIL  CYFLASH  CYLIB  CYPM  CYSPC  EEPROM  FF_STATUS  MY_TIME
                                                  R  SPI_IMU  UART_RS485  
cyfitter_cfg . . . . . . . . . . . . . . CODE     CYFITTER_CFG  ?C_STARTUP  
CyFlash_Start. . . . . . . . . . . . . . CODE     CYFLASH  
CyFlash_Stop . . . . . . . . . . . . . . CODE     CYFLASH  
CyILO_Disable33K . . . . . . . . . . . . CODE     CYLIB  
CyILO_Enable33K. . . . . . . . . . . . . CODE     CYLIB  
CyILO_Start100K. . . . . . . . . . . . . CODE     CYLIB  CYPM  
CyILO_Start1K. . . . . . . . . . . . . . CODE     CYLIB  CYPM  
CyILO_Stop100K . . . . . . . . . . . . . CODE     CYLIB  
CyILO_Stop1K . . . . . . . . . . . . . . CODE     CYLIB  
CyIMO_DisableDoubler . . . . . . . . . . CODE     CYLIB  CYPM  
CyIMO_EnableDoubler. . . . . . . . . . . CODE     CYLIB  CYPM  
CyIMO_Stop . . . . . . . . . . . . . . . CODE     CYLIB  CYPM  
CyPLL_OUT_Stop . . . . . . . . . . . . . CODE     CYLIB  CYPM  
CyPmHibernate. . . . . . . . . . . . . . CODE     CYPM  
CyPmOppsSet. . . . . . . . . . . . . . . CODE     CYPM  
CyPmRestoreClocks. . . . . . . . . . . . CODE     CYPM  
CyPmSaveClocks . . . . . . . . . . . . . CODE     CYPM  
CyResetStatus. . . . . . . . . . . . . . XDATA    CYLIB  ?C_STARTUP  
CySetTemp. . . . . . . . . . . . . . . . CODE     CYFLASH  COMMAND_PROCESSING  EEPROM  
CySoftwareReset. . . . . . . . . . . . . CODE     CYLIB  BOOTLOADABLE  
CySpcGetAlgorithm. . . . . . . . . . . . CODE     CYSPC  CYFLASH  
CySpcLock. . . . . . . . . . . . . . . . CODE     CYSPC  CYFLASH  EEPROM  
CySpcStart . . . . . . . . . . . . . . . CODE     CYSPC  CYFLASH  EEPROM  
LX51 LINKER/LOCATER V4.64.0.0                                                         01/12/2017  16:14:04  PAGE 99


CySpcStop. . . . . . . . . . . . . . . . CODE     CYSPC  
CySpcUnlock. . . . . . . . . . . . . . . CODE     CYSPC  CYFLASH  EEPROM  
CyVdHvAnalogDisable. . . . . . . . . . . CODE     CYLIB  CYPM  
CyVdHvAnalogEnable . . . . . . . . . . . CODE     CYLIB  CYPM  
CyVdLvAnalogDisable. . . . . . . . . . . CODE     CYLIB  CYPM  
CyVdLvDigitDisable . . . . . . . . . . . CODE     CYLIB  CYPM  
CyVdRealTimeStatus . . . . . . . . . . . CODE     CYLIB  
CyWdtClear . . . . . . . . . . . . . . . CODE     CYLIB  
CyXTAL_32KHZ_ReadStatus. . . . . . . . . CODE     CYLIB  
CyXTAL_32KHZ_Start . . . . . . . . . . . CODE     CYLIB  CYPM  
CyXTAL_32KHZ_Stop. . . . . . . . . . . . CODE     CYLIB  
CyXTAL_DisableErrStatus. . . . . . . . . CODE     CYLIB  
CyXTAL_DisableFaultRecovery. . . . . . . CODE     CYLIB  
CyXTAL_EnableErrStatus . . . . . . . . . CODE     CYLIB  
CyXTAL_EnableFaultRecovery . . . . . . . CODE     CYLIB  
CyXTAL_ReadStatus. . . . . . . . . . . . CODE     CYLIB  
CyXTAL_Stop. . . . . . . . . . . . . . . CODE     CYLIB  CYPM  
dev_pwm_limit. . . . . . . . . . . . . . XDATA    GLOBALS  MAIN  
dev_tension. . . . . . . . . . . . . . . XDATA    GLOBALS  
dieTemperature . . . . . . . . . . . . . XDATA    CYFLASH  EEPROM  
DPH. . . . . . . . . . . . . . . . . . . DATA     COMMAND_PROCESSING  
DPH1 . . . . . . . . . . . . . . . . . . DATA     COMMAND_PROCESSING  
DPL. . . . . . . . . . . . . . . . . . . DATA     COMMAND_PROCESSING  
DPL1 . . . . . . . . . . . . . . . . . . DATA     COMMAND_PROCESSING  
DPS. . . . . . . . . . . . . . . . . . . DATA     COMMAND_PROCESSING  
DPX. . . . . . . . . . . . . . . . . . . DATA     COMMAND_PROCESSING  
DPX1 . . . . . . . . . . . . . . . . . . DATA     COMMAND_PROCESSING  
EA . . . . . . . . . . . . . . . . . . . DATA     COMMAND_PROCESSING  
EEPROM_ADDR. . . . . . . . . . . . . . . XDATA    COMMAND_PROCESSING  
EEPROM_Enable. . . . . . . . . . . . . . CODE     EEPROM  
EEPROM_Query . . . . . . . . . . . . . . CODE     EEPROM  
EEPROM_Start . . . . . . . . . . . . . . CODE     EEPROM  MAIN  
EEPROM_Stop. . . . . . . . . . . . . . . CODE     EEPROM  
EEPROM_UpdateTemperature . . . . . . . . CODE     EEPROM  
F0 . . . . . . . . . . . . . . . . . . . DATA     COMMAND_PROCESSING  
F1 . . . . . . . . . . . . . . . . . . . DATA     COMMAND_PROCESSING  
FF_STATUS_InterruptDisable . . . . . . . CODE     FF_STATUS  
FF_STATUS_InterruptEnable. . . . . . . . CODE     FF_STATUS  
FF_STATUS_Read . . . . . . . . . . . . . CODE     FF_STATUS  MAIN  
FF_STATUS_ReadMask . . . . . . . . . . . CODE     FF_STATUS  
frsAccReg. . . . . . . . . . . . . . . . XDATA    GLOBALS  
frsGyroReg . . . . . . . . . . . . . . . XDATA    GLOBALS  
FTDI_ENABLE_REG_Read . . . . . . . . . . CODE     FTDI_ENABLE_REG  
function_scheduler . . . . . . . . . . . CODE     INTERRUPTIONS  MAIN  
g_imu. . . . . . . . . . . . . . . . . . XDATA    GLOBALS  COMMAND_PROCESSING  IMU_FUNCTIONS  INTERRUPTIONS  
g_imuNew . . . . . . . . . . . . . . . . XDATA    GLOBALS  IMU_FUNCTIONS  INTERRUPTIONS  ISR_IMU  
g_mem. . . . . . . . . . . . . . . . . . XDATA    GLOBALS  COMMAND_PROCESSING  
g_rx . . . . . . . . . . . . . . . . . . XDATA    GLOBALS  COMMAND_PROCESSING  INTERRUPTIONS  MAIN  
Gyro . . . . . . . . . . . . . . . . . . XDATA    GLOBALS  IMU_FUNCTIONS  ISR_IMU  
IE . . . . . . . . . . . . . . . . . . . DATA     COMMAND_PROCESSING  
IMU_conf . . . . . . . . . . . . . . . . XDATA    GLOBALS  COMMAND_PROCESSING  IMU_FUNCTIONS  
IMU_connected. . . . . . . . . . . . . . XDATA    GLOBALS  COMMAND_PROCESSING  IMU_FUNCTIONS  ISR_IMU  
imus_data_size . . . . . . . . . . . . . XDATA    GLOBALS  COMMAND_PROCESSING  IMU_FUNCTIONS  
ImusReset. . . . . . . . . . . . . . . . CODE     IMU_FUNCTIONS  
infoSend . . . . . . . . . . . . . . . . CODE     COMMAND_PROCESSING  
InitIMU. . . . . . . . . . . . . . . . . CODE     IMU_FUNCTIONS  
InitIMUgeneral . . . . . . . . . . . . . CODE     IMU_FUNCTIONS  MAIN  
InitIMUMagCal. . . . . . . . . . . . . . CODE     IMU_FUNCTIONS  
interrupt_flag . . . . . . . . . . . . . BIT      GLOBALS  INTERRUPTIONS  MAIN  
interrupt_manager. . . . . . . . . . . . CODE     INTERRUPTIONS  MAIN  
isr_imu_ClearPending . . . . . . . . . . CODE     ISR_IMU  
isr_imu_Disable. . . . . . . . . . . . . CODE     ISR_IMU  IMU_FUNCTIONS  
isr_imu_Enable . . . . . . . . . . . . . CODE     ISR_IMU  IMU_FUNCTIONS  
isr_imu_GetPriority. . . . . . . . . . . CODE     ISR_IMU  
isr_imu_GetState . . . . . . . . . . . . CODE     ISR_IMU  
LX51 LINKER/LOCATER V4.64.0.0                                                         01/12/2017  16:14:04  PAGE 100


isr_imu_GetVector. . . . . . . . . . . . CODE     ISR_IMU  
isr_imu_Interrupt. . . . . . . . . . . . CODE     ISR_IMU  
isr_imu_SetPending . . . . . . . . . . . CODE     ISR_IMU  
isr_imu_Start. . . . . . . . . . . . . . CODE     ISR_IMU  IMU_FUNCTIONS  
isr_imu_Stop . . . . . . . . . . . . . . CODE     ISR_IMU  IMU_FUNCTIONS  
ISR_RS485_RX_ClearPending. . . . . . . . CODE     ISR_RS485_RX  
ISR_RS485_RX_Disable . . . . . . . . . . CODE     ISR_RS485_RX  COMMAND_PROCESSING  
ISR_RS485_RX_Enable. . . . . . . . . . . CODE     ISR_RS485_RX  COMMAND_PROCESSING  
ISR_RS485_RX_ExInterrupt . . . . . . . . CODE     INTERRUPTIONS  MAIN  
ISR_RS485_RX_GetPriority . . . . . . . . CODE     ISR_RS485_RX  
ISR_RS485_RX_GetState. . . . . . . . . . CODE     ISR_RS485_RX  
ISR_RS485_RX_GetVector . . . . . . . . . CODE     ISR_RS485_RX  
ISR_RS485_RX_Interrupt . . . . . . . . . CODE     ISR_RS485_RX  
ISR_RS485_RX_SetPending. . . . . . . . . CODE     ISR_RS485_RX  
ISR_RS485_RX_Start . . . . . . . . . . . CODE     ISR_RS485_RX  
ISR_RS485_RX_Stop. . . . . . . . . . . . CODE     ISR_RS485_RX  
ISR_WATCHDOG_ClearPending. . . . . . . . CODE     ISR_WATCHDOG  
ISR_WATCHDOG_Disable . . . . . . . . . . CODE     ISR_WATCHDOG  
ISR_WATCHDOG_Enable. . . . . . . . . . . CODE     ISR_WATCHDOG  
ISR_WATCHDOG_GetPriority . . . . . . . . CODE     ISR_WATCHDOG  
ISR_WATCHDOG_GetState. . . . . . . . . . CODE     ISR_WATCHDOG  
ISR_WATCHDOG_GetVector . . . . . . . . . CODE     ISR_WATCHDOG  
ISR_WATCHDOG_Handler . . . . . . . . . . CODE     INTERRUPTIONS  MAIN  
ISR_WATCHDOG_Interrupt . . . . . . . . . CODE     ISR_WATCHDOG  
ISR_WATCHDOG_SetPending. . . . . . . . . CODE     ISR_WATCHDOG  
ISR_WATCHDOG_Start . . . . . . . . . . . CODE     ISR_WATCHDOG  
ISR_WATCHDOG_Stop. . . . . . . . . . . . CODE     ISR_WATCHDOG  
Mag. . . . . . . . . . . . . . . . . . . XDATA    GLOBALS  IMU_FUNCTIONS  ISR_IMU  
MagCal . . . . . . . . . . . . . . . . . XDATA    GLOBALS  COMMAND_PROCESSING  IMU_FUNCTIONS  
main . . . . . . . . . . . . . . . . . . CODE     MAIN  ?C_INIT  
memInit. . . . . . . . . . . . . . . . . CODE     COMMAND_PROCESSING  
memRecall. . . . . . . . . . . . . . . . CODE     COMMAND_PROCESSING  MAIN  
memRestore . . . . . . . . . . . . . . . CODE     COMMAND_PROCESSING  
MXAX . . . . . . . . . . . . . . . . . . DATA     COMMAND_PROCESSING  
MY_TIMER_ClearFIFO . . . . . . . . . . . CODE     MY_TIMER  
MY_TIMER_Enable. . . . . . . . . . . . . CODE     MY_TIMER  
MY_TIMER_Init. . . . . . . . . . . . . . CODE     MY_TIMER  
MY_TIMER_initVar . . . . . . . . . . . . XDATA    MY_TIMER  
MY_TIMER_ReadCapture . . . . . . . . . . CODE     MY_TIMER  
MY_TIMER_ReadControlRegister . . . . . . CODE     MY_TIMER  
MY_TIMER_ReadCounter . . . . . . . . . . CODE     MY_TIMER  INTERRUPTIONS  
MY_TIMER_ReadPeriod. . . . . . . . . . . CODE     MY_TIMER  
MY_TIMER_ReadStatusRegister. . . . . . . CODE     MY_TIMER  
MY_TIMER_SoftwareCapture . . . . . . . . CODE     MY_TIMER  
MY_TIMER_Start . . . . . . . . . . . . . CODE     MY_TIMER  MAIN  
MY_TIMER_Stop. . . . . . . . . . . . . . CODE     MY_TIMER  
N_IMU_Connected. . . . . . . . . . . . . XDATA    GLOBALS  COMMAND_PROCESSING  IMU_FUNCTIONS  ISR_IMU  
Opto_Pin_Read. . . . . . . . . . . . . . CODE     OPTO_PIN  
Opto_Pin_ReadDataReg . . . . . . . . . . CODE     OPTO_PIN  
OV . . . . . . . . . . . . . . . . . . . DATA     COMMAND_PROCESSING  
P. . . . . . . . . . . . . . . . . . . . DATA     COMMAND_PROCESSING  
P2AX . . . . . . . . . . . . . . . . . . DATA     COMMAND_PROCESSING  
PACER_TIMER_Enable . . . . . . . . . . . CODE     PACER_TIMER  
PACER_TIMER_Init . . . . . . . . . . . . CODE     PACER_TIMER  
PACER_TIMER_initVar. . . . . . . . . . . XDATA    PACER_TIMER  
PACER_TIMER_ReadCapture. . . . . . . . . CODE     PACER_TIMER  
PACER_TIMER_ReadControlRegister. . . . . CODE     PACER_TIMER  
PACER_TIMER_ReadCounter. . . . . . . . . CODE     PACER_TIMER  
PACER_TIMER_ReadPeriod . . . . . . . . . CODE     PACER_TIMER  
PACER_TIMER_ReadStatusRegister . . . . . CODE     PACER_TIMER  
PACER_TIMER_SoftwareCapture. . . . . . . CODE     PACER_TIMER  
PACER_TIMER_Start. . . . . . . . . . . . CODE     PACER_TIMER  MAIN  
PACER_TIMER_Stop . . . . . . . . . . . . CODE     PACER_TIMER  
PSW. . . . . . . . . . . . . . . . . . . DATA     COMMAND_PROCESSING  
pwm_sign . . . . . . . . . . . . . . . . XDATA    GLOBALS  
LX51 LINKER/LOCATER V4.64.0.0                                                         01/12/2017  16:14:04  PAGE 101


rateAcc. . . . . . . . . . . . . . . . . XDATA    GLOBALS  
rateGyro . . . . . . . . . . . . . . . . XDATA    GLOBALS  
readAllIMUs. . . . . . . . . . . . . . . CODE     IMU_FUNCTIONS  INTERRUPTIONS  
RESET_FF_Read. . . . . . . . . . . . . . CODE     RESET_FF  
reset_last_value_flag. . . . . . . . . . BIT      GLOBALS  MAIN  
RS0. . . . . . . . . . . . . . . . . . . DATA     COMMAND_PROCESSING  
RS1. . . . . . . . . . . . . . . . . . . DATA     COMMAND_PROCESSING  
RS485_CTS_Read . . . . . . . . . . . . . CODE     RS485_CTS  
setZeros . . . . . . . . . . . . . . . . CODE     COMMAND_PROCESSING  
SFRPRT0DR. . . . . . . . . . . . . . . . DATA     COMMAND_PROCESSING  
SFRPRT0PS. . . . . . . . . . . . . . . . DATA     COMMAND_PROCESSING  
SFRPRT0SEL . . . . . . . . . . . . . . . DATA     COMMAND_PROCESSING  
SFRPRT12DR . . . . . . . . . . . . . . . DATA     COMMAND_PROCESSING  
SFRPRT12PS . . . . . . . . . . . . . . . DATA     COMMAND_PROCESSING  
SFRPRT12SEL. . . . . . . . . . . . . . . DATA     COMMAND_PROCESSING  
SFRPRT15DR . . . . . . . . . . . . . . . DATA     COMMAND_PROCESSING  
SFRPRT15PS . . . . . . . . . . . . . . . DATA     COMMAND_PROCESSING  
SFRPRT15SEL. . . . . . . . . . . . . . . DATA     COMMAND_PROCESSING  
SFRPRT1DR. . . . . . . . . . . . . . . . DATA     COMMAND_PROCESSING  
SFRPRT1PS. . . . . . . . . . . . . . . . DATA     COMMAND_PROCESSING  
SFRPRT1SEL . . . . . . . . . . . . . . . DATA     COMMAND_PROCESSING  
SFRPRT2DR. . . . . . . . . . . . . . . . DATA     COMMAND_PROCESSING  
SFRPRT2PS. . . . . . . . . . . . . . . . DATA     COMMAND_PROCESSING  
SFRPRT2SEL . . . . . . . . . . . . . . . DATA     COMMAND_PROCESSING  
SFRPRT3DR. . . . . . . . . . . . . . . . DATA     COMMAND_PROCESSING  
SFRPRT3PS. . . . . . . . . . . . . . . . DATA     COMMAND_PROCESSING  
SFRPRT3SEL . . . . . . . . . . . . . . . DATA     COMMAND_PROCESSING  
SFRPRT4DR. . . . . . . . . . . . . . . . DATA     COMMAND_PROCESSING  
SFRPRT4PS. . . . . . . . . . . . . . . . DATA     COMMAND_PROCESSING  
SFRPRT4SEL . . . . . . . . . . . . . . . DATA     COMMAND_PROCESSING  
SFRPRT5DR. . . . . . . . . . . . . . . . DATA     COMMAND_PROCESSING  
SFRPRT5PS. . . . . . . . . . . . . . . . DATA     COMMAND_PROCESSING  
SFRPRT5SEL . . . . . . . . . . . . . . . DATA     COMMAND_PROCESSING  
SFRPRT6DR. . . . . . . . . . . . . . . . DATA     COMMAND_PROCESSING  
SFRPRT6PS. . . . . . . . . . . . . . . . DATA     COMMAND_PROCESSING  
SFRPRT6SEL . . . . . . . . . . . . . . . DATA     COMMAND_PROCESSING  
single_imu_size. . . . . . . . . . . . . XDATA    GLOBALS  COMMAND_PROCESSING  IMU_FUNCTIONS  
SP . . . . . . . . . . . . . . . . . . . DATA     COMMAND_PROCESSING  
SpcLockState . . . . . . . . . . . . . . XDATA    CYSPC  
SPI_IMU_ClearFIFO. . . . . . . . . . . . CODE     SPI_IMU  IMU_FUNCTIONS  MAIN  
SPI_IMU_ClearRxBuffer. . . . . . . . . . CODE     SPI_IMU  IMU_FUNCTIONS  MAIN  
SPI_IMU_ClearTxBuffer. . . . . . . . . . CODE     SPI_IMU  IMU_FUNCTIONS  MAIN  
SPI_IMU_DisableInt . . . . . . . . . . . CODE     SPI_IMU  
SPI_IMU_DisableRxInt . . . . . . . . . . CODE     SPI_IMU  
SPI_IMU_DisableTxInt . . . . . . . . . . CODE     SPI_IMU  
SPI_IMU_Enable . . . . . . . . . . . . . CODE     SPI_IMU  MAIN  
SPI_IMU_EnableInt. . . . . . . . . . . . CODE     SPI_IMU  
SPI_IMU_EnableRxInt. . . . . . . . . . . CODE     SPI_IMU  
SPI_IMU_EnableTxInt. . . . . . . . . . . CODE     SPI_IMU  
SPI_IMU_GetRxBufferSize. . . . . . . . . CODE     SPI_IMU  
SPI_IMU_GetTxBufferSize. . . . . . . . . CODE     SPI_IMU  
SPI_IMU_Init . . . . . . . . . . . . . . CODE     SPI_IMU  MAIN  
SPI_IMU_initVar. . . . . . . . . . . . . XDATA    SPI_IMU  
SPI_IMU_IntClock_GetDividerRegister. . . CODE     SPI_IMU_INTCLOCK  
SPI_IMU_IntClock_GetModeRegister . . . . CODE     SPI_IMU_INTCLOCK  
SPI_IMU_IntClock_GetSourceRegister . . . CODE     SPI_IMU_INTCLOCK  
SPI_IMU_IntClock_Start . . . . . . . . . CODE     SPI_IMU_INTCLOCK  SPI_IMU  
SPI_IMU_IntClock_Stop. . . . . . . . . . CODE     SPI_IMU_INTCLOCK  SPI_IMU  
SPI_IMU_IntClock_StopBlock . . . . . . . CODE     SPI_IMU_INTCLOCK  
SPI_IMU_ReadRxData . . . . . . . . . . . CODE     SPI_IMU  IMU_FUNCTIONS  
SPI_IMU_ReadRxStatus . . . . . . . . . . CODE     SPI_IMU  
SPI_IMU_ReadStatus . . . . . . . . . . . CODE     SPI_IMU  IMU_FUNCTIONS  
SPI_IMU_ReadTxStatus . . . . . . . . . . CODE     SPI_IMU  
SPI_IMU_Start. . . . . . . . . . . . . . CODE     SPI_IMU  MAIN  
SPI_IMU_Stop . . . . . . . . . . . . . . CODE     SPI_IMU  
LX51 LINKER/LOCATER V4.64.0.0                                                         01/12/2017  16:14:04  PAGE 102


SPI_IMU_swStatusRx . . . . . . . . . . . XDATA    SPI_IMU  
SPI_IMU_swStatusTx . . . . . . . . . . . XDATA    SPI_IMU  
STARTUP1 . . . . . . . . . . . . . . . . CODE     ?C_STARTUP  
tau_feedback . . . . . . . . . . . . . . XDATA    GLOBALS  
tension_valid. . . . . . . . . . . . . . BIT      GLOBALS  MAIN  
timer_value. . . . . . . . . . . . . . . XDATA    GLOBALS  COMMAND_PROCESSING  INTERRUPTIONS  
timer_value0 . . . . . . . . . . . . . . XDATA    GLOBALS  COMMAND_PROCESSING  INTERRUPTIONS  
UART_RS485_ClearRxBuffer . . . . . . . . CODE     UART_RS485  MAIN  
UART_RS485_ClearTxBuffer . . . . . . . . CODE     UART_RS485  COMMAND_PROCESSING  MAIN  
UART_RS485_Enable. . . . . . . . . . . . CODE     UART_RS485  
UART_RS485_errorStatus . . . . . . . . . XDATA    UART_RS485  UART_RS485_INT  
UART_RS485_GetByte . . . . . . . . . . . CODE     UART_RS485  
UART_RS485_GetChar . . . . . . . . . . . CODE     UART_RS485  INTERRUPTIONS  
UART_RS485_GetRxBufferSize . . . . . . . CODE     UART_RS485  INTERRUPTIONS  
UART_RS485_GetTxBufferSize . . . . . . . CODE     UART_RS485  
UART_RS485_Init. . . . . . . . . . . . . CODE     UART_RS485  MAIN  
UART_RS485_initVar . . . . . . . . . . . XDATA    UART_RS485  
UART_RS485_ReadControlRegister . . . . . CODE     UART_RS485  
UART_RS485_ReadRxData. . . . . . . . . . CODE     UART_RS485  
UART_RS485_ReadRxStatus. . . . . . . . . CODE     UART_RS485  MAIN  
UART_RS485_ReadTxStatus. . . . . . . . . CODE     UART_RS485  COMMAND_PROCESSING  
UART_RS485_rxBuffer. . . . . . . . . . . XDATA    UART_RS485  UART_RS485_INT  
UART_RS485_rxBufferLoopDetect. . . . . . XDATA    UART_RS485  UART_RS485_INT  
UART_RS485_rxBufferOverflow. . . . . . . XDATA    UART_RS485  UART_RS485_INT  
UART_RS485_rxBufferRead. . . . . . . . . XDATA    UART_RS485  UART_RS485_INT  
UART_RS485_rxBufferWrite . . . . . . . . XDATA    UART_RS485  UART_RS485_INT  
UART_RS485_RXISR . . . . . . . . . . . . CODE     UART_RS485_INT  UART_RS485  
UART_RS485_Start . . . . . . . . . . . . CODE     UART_RS485  MAIN  
UART_RS485_Stop. . . . . . . . . . . . . CODE     UART_RS485  MAIN  
WATCHDOG_COUNTER_Enable. . . . . . . . . CODE     WATCHDOG_COUNTER  
WATCHDOG_COUNTER_Init. . . . . . . . . . CODE     WATCHDOG_COUNTER  
WATCHDOG_COUNTER_initVar . . . . . . . . XDATA    WATCHDOG_COUNTER  
WATCHDOG_COUNTER_ReadCapture . . . . . . CODE     WATCHDOG_COUNTER  
WATCHDOG_COUNTER_ReadControlRegister . . CODE     WATCHDOG_COUNTER  
WATCHDOG_COUNTER_ReadCounter . . . . . . CODE     WATCHDOG_COUNTER  
WATCHDOG_COUNTER_ReadPeriod. . . . . . . CODE     WATCHDOG_COUNTER  
WATCHDOG_COUNTER_ReadStatusRegister. . . CODE     WATCHDOG_COUNTER  
WATCHDOG_COUNTER_Start . . . . . . . . . CODE     WATCHDOG_COUNTER  MAIN  
WATCHDOG_COUNTER_Stop. . . . . . . . . . CODE     WATCHDOG_COUNTER  
WATCHDOG_ENABLER_Read. . . . . . . . . . CODE     WATCHDOG_ENABLER  
watchdog_flag. . . . . . . . . . . . . . BIT      GLOBALS  INTERRUPTIONS  MAIN  
WATCHDOG_REFRESH_Read. . . . . . . . . . CODE     WATCHDOG_REFRESH  



*** WARNING L15: MULTIPLE CALL TO FUNCTION
    NAME:    _CHIPSELECTOR/IMU_FUNCTIONS
    CALLER1: ?C_C51STARTUP
    CALLER2: ISR_IMU_INTERRUPT/ISR_IMU

*** WARNING L15: MULTIPLE CALL TO FUNCTION
    NAME:    _READIMU/IMU_FUNCTIONS
    CALLER1: ?C_C51STARTUP
    CALLER2: ISR_IMU_INTERRUPT/ISR_IMU

*** WARNING L15: MULTIPLE CALL TO FUNCTION
    NAME:    _READACC/IMU_FUNCTIONS
    CALLER1: ?C_C51STARTUP
    CALLER2: ISR_IMU_INTERRUPT/ISR_IMU

*** WARNING L15: MULTIPLE CALL TO FUNCTION
    NAME:    _READGYRO/IMU_FUNCTIONS
    CALLER1: ?C_C51STARTUP
    CALLER2: ISR_IMU_INTERRUPT/ISR_IMU

LX51 LINKER/LOCATER V4.64.0.0                                                         01/12/2017  16:14:04  PAGE 103


*** WARNING L15: MULTIPLE CALL TO FUNCTION
    NAME:    _READMAG/IMU_FUNCTIONS
    CALLER1: ?C_C51STARTUP
    CALLER2: ISR_IMU_INTERRUPT/ISR_IMU

*** WARNING L25: DATA TYPES DIFFERENT
    SYMBOL:  readAllIMUs
    MODULE:  .\DP8051_Keil_951\Release\interruptions.obj (INTERRUPTIONS)
   DEFINED:  .\DP8051_Keil_951\Release\IMU_functions.obj (IMU_FUNCTIONS)

Program Size: data=35.6 xdata=4275 const=735 code=20264
LX51 RUN COMPLETE.  6 WARNING(S),  0 ERROR(S)
